(dp0
Vhead
p1
(dp2
Vlink
p3
(lp4
sVvars
p5
(lp6
Vp
p7
aVo
p8
assVresults
p9
(dp10
Vdistinct
p11
I00
sVbindings
p12
(lp13
(dp14
g7
(dp15
Vtype
p16
Vuri
p17
sVvalue
p18
Vhttp://dbpedia.org/ontology/PopulatedPlace/areaTotal
p19
ssg8
(dp20
Vdatatype
p21
Vhttp://dbpedia.org/datatype/squareKilometre
p22
sVtype
p23
Vtyped-literal
p24
sVvalue
p25
V112.01
p26
ssa(dp27
g7
(dp28
Vtype
p29
Vuri
p30
sVvalue
p31
Vhttp://dbpedia.org/ontology/PopulatedPlace/populationDensity
p32
ssg8
(dp33
Vdatatype
p34
Vhttp://dbpedia.org/datatype/inhabitantsPerSquareKilometre
p35
sVtype
p36
Vtyped-literal
p37
sVvalue
p38
V535.7
p39
ssa(dp40
g7
(dp41
Vtype
p42
Vuri
p43
sVvalue
p44
Vhttp://dbpedia.org/ontology/abstract
p45
ssg8
(dp46
Vxml:lang
p47
Ven
p48
sVtype
p49
Vliteral
p50
sVvalue
p51
VMedicine Hat is a city of 63,018 people in southeast Alberta, Canada. It is approximately 169 km (105 mi) east of Lethbridge and 295 km (183 mi) southeast of Calgary. This city and the adjacent Town of Redcliff to the northwest are surrounded by Cypress County.It is situated on the Trans-Canada Highway (Highway 1), the eastern terminus of the Crowsnest Highway, and the South Saskatchewan River. Nearby communities considered part of the Medicine Hat area include the Town of Redcliff (abutting the city's northwest boundary) and the hamlets of Desert Blume, Dunmore, Irvine, Seven Persons, and Veinerville. The Cypress Hills (including Cypress Hills Interprovincial Park) is a relatively short distance (by car) to the southeast of the city.Historically, Medicine Hat has been known for its large natural gas fields, being immortalized by Rudyard Kipling as having "all hell for a basement". Because of these reserves, the city is known as "The Gas City". It is Alberta's sixth largest city. In October 2008, Medicine Hat was named one of Alberta's Top Employers by Mediacorp Canada Inc., which was announced by the Calgary Herald and the Edmonton Journal.
p52
ssa(dp53
g7
(dp54
Vtype
p55
Vuri
p56
sVvalue
p57
Vhttp://dbpedia.org/ontology/areaCode
p58
ssg8
(dp59
Vtype
p60
Vliteral
p61
sVvalue
p62
V403,587
p63
ssa(dp64
g7
(dp65
Vtype
p66
Vuri
p67
sVvalue
p68
Vhttp://dbpedia.org/ontology/areaTotal
p69
ssg8
(dp70
Vdatatype
p71
Vhttp://www.w3.org/2001/XMLSchema#double
p72
sVtype
p73
Vtyped-literal
p74
sVvalue
p75
V1.1201e+08
p76
ssa(dp77
g7
(dp78
Vtype
p79
Vuri
p80
sVvalue
p81
Vhttp://dbpedia.org/ontology/elevation
p82
ssg8
(dp83
Vdatatype
p84
Vhttp://www.w3.org/2001/XMLSchema#double
p85
sVtype
p86
Vtyped-literal
p87
sVvalue
p88
V690.0
p89
ssa(dp90
g7
(dp91
Vtype
p92
Vuri
p93
sVvalue
p94
Vhttp://dbpedia.org/ontology/foundingDate
p95
ssg8
(dp96
Vdatatype
p97
Vhttp://www.w3.org/2001/XMLSchema#date
p98
sVtype
p99
Vtyped-literal
p100
sVvalue
p101
V1894-05-31
p102
ssa(dp103
g7
(dp104
Vtype
p105
Vuri
p106
sVvalue
p107
Vhttp://dbpedia.org/ontology/foundingDate
p108
ssg8
(dp109
Vdatatype
p110
Vhttp://www.w3.org/2001/XMLSchema#date
p111
sVtype
p112
Vtyped-literal
p113
sVvalue
p114
V1898-11-01
p115
ssa(dp116
g7
(dp117
Vtype
p118
Vuri
p119
sVvalue
p120
Vhttp://dbpedia.org/ontology/leaderTitle
p121
ssg8
(dp122
Vxml:lang
p123
Ven
p124
sVtype
p125
Vliteral
p126
sVvalue
p127
VGoverning body
p128
ssa(dp129
g7
(dp130
Vtype
p131
Vuri
p132
sVvalue
p133
Vhttp://dbpedia.org/ontology/leaderTitle
p134
ssg8
(dp135
Vxml:lang
p136
Ven
p137
sVtype
p138
Vliteral
p139
sVvalue
p140
VMayor
p141
ssa(dp142
g7
(dp143
Vtype
p144
Vuri
p145
sVvalue
p146
Vhttp://dbpedia.org/ontology/leaderTitle
p147
ssg8
(dp148
Vxml:lang
p149
Ven
p150
sVtype
p151
Vliteral
p152
sVvalue
p153
VMLAs
p154
ssa(dp155
g7
(dp156
Vtype
p157
Vuri
p158
sVvalue
p159
Vhttp://dbpedia.org/ontology/leaderTitle
p160
ssg8
(dp161
Vxml:lang
p162
Ven
p163
sVtype
p164
Vliteral
p165
sVvalue
p166
VMP
p167
ssa(dp168
g7
(dp169
Vtype
p170
Vuri
p171
sVvalue
p172
Vhttp://dbpedia.org/ontology/leaderTitle
p173
ssg8
(dp174
Vxml:lang
p175
Ven
p176
sVtype
p177
Vliteral
p178
sVvalue
p179
VCAO (Municipal Services)
p180
ssa(dp181
g7
(dp182
Vtype
p183
Vuri
p184
sVvalue
p185
Vhttp://dbpedia.org/ontology/motto
p186
ssg8
(dp187
Vtype
p188
Vliteral
p189
sVvalue
p190
V"By Courage and Faith"
p191
ssa(dp192
g7
(dp193
Vtype
p194
Vuri
p195
sVvalue
p196
Vhttp://dbpedia.org/ontology/populationDensity
p197
ssg8
(dp198
Vdatatype
p199
Vhttp://www.w3.org/2001/XMLSchema#double
p200
sVtype
p201
Vtyped-literal
p202
sVvalue
p203
V535.7
p204
ssa(dp205
g7
(dp206
Vtype
p207
Vuri
p208
sVvalue
p209
Vhttp://dbpedia.org/ontology/populationTotal
p210
ssg8
(dp211
Vdatatype
p212
Vhttp://www.w3.org/2001/XMLSchema#nonNegativeInteger
p213
sVtype
p214
Vtyped-literal
p215
sVvalue
p216
V60005
p217
ssa(dp218
g7
(dp219
Vtype
p220
Vuri
p221
sVvalue
p222
Vhttp://dbpedia.org/ontology/populationUrban
p223
ssg8
(dp224
Vdatatype
p225
Vhttp://www.w3.org/2001/XMLSchema#nonNegativeInteger
p226
sVtype
p227
Vtyped-literal
p228
sVvalue
p229
V65671
p230
ssa(dp231
g7
(dp232
Vtype
p233
Vuri
p234
sVvalue
p235
Vhttp://dbpedia.org/ontology/postalCode
p236
ssg8
(dp237
Vtype
p238
Vliteral
p239
sVvalue
p240
VT1A to T1C
p241
ssa(dp242
g7
(dp243
Vtype
p244
Vuri
p245
sVvalue
p246
Vhttp://dbpedia.org/ontology/utcOffset
p247
ssg8
(dp248
Vtype
p249
Vliteral
p250
sVvalue
p251
V\u22126
p252
ssa(dp253
g7
(dp254
Vtype
p255
Vuri
p256
sVvalue
p257
Vhttp://dbpedia.org/ontology/utcOffset
p258
ssg8
(dp259
Vtype
p260
Vliteral
p261
sVvalue
p262
V\u22127
p263
ssa(dp264
g7
(dp265
Vtype
p266
Vuri
p267
sVvalue
p268
Vhttp://dbpedia.org/ontology/wikiPageExtracted
p269
ssg8
(dp270
Vdatatype
p271
Vhttp://www.w3.org/2001/XMLSchema#dateTime
p272
sVtype
p273
Vtyped-literal
p274
sVvalue
p275
V2016-11-03T02:13:24Z
p276
ssa(dp277
g7
(dp278
Vtype
p279
Vuri
p280
sVvalue
p281
Vhttp://dbpedia.org/ontology/wikiPageLength
p282
ssg8
(dp283
Vdatatype
p284
Vhttp://www.w3.org/2001/XMLSchema#nonNegativeInteger
p285
sVtype
p286
Vtyped-literal
p287
sVvalue
p288
V57491
p289
ssa(dp290
g7
(dp291
Vtype
p292
Vuri
p293
sVvalue
p294
Vhttp://dbpedia.org/ontology/wikiPageModified
p295
ssg8
(dp296
Vdatatype
p297
Vhttp://www.w3.org/2001/XMLSchema#dateTime
p298
sVtype
p299
Vtyped-literal
p300
sVvalue
p301
V2016-10-26T06:45:38Z
p302
ssa(dp303
g7
(dp304
Vtype
p305
Vuri
p306
sVvalue
p307
Vhttp://dbpedia.org/ontology/wikiPageOutDegree
p308
ssg8
(dp309
Vdatatype
p310
Vhttp://www.w3.org/2001/XMLSchema#nonNegativeInteger
p311
sVtype
p312
Vtyped-literal
p313
sVvalue
p314
V230
p315
ssasVordered
p316
I01
ss.