(dp0
Vhead
p1
(dp2
Vlink
p3
(lp4
sVvars
p5
(lp6
Vp
p7
aVo
p8
assVresults
p9
(dp10
Vdistinct
p11
I00
sVbindings
p12
(lp13
(dp14
g7
(dp15
Vtype
p16
Vuri
p17
sVvalue
p18
Vhttp://dbpedia.org/ontology/abstract
p19
ssg8
(dp20
Vxml:lang
p21
Ven
p22
sVtype
p23
Vliteral
p24
sVvalue
p25
VTernhill (also known as Tern Hill) is a village in Shropshire, England, notable as the location of the former RAF Ternhill station, which is now operated by the British Army and known as Clive Barracks. The settlement is named after the River Tern which begins just south of the settlement. The population for the village as taken in the 2011 census can be found under Moreton Say.The A41 and A53 cross over at the village and there is now a roundabout. It has direct links with major towns and cities such as Shrewsbury, Wolverhampton, Stoke-on-Trent and Chester.Shropshire's second commercial vineyard in modern times is nearby.
p26
ssa(dp27
g7
(dp28
Vtype
p29
Vuri
p30
sVvalue
p31
Vhttp://dbpedia.org/ontology/areaCode
p32
ssg8
(dp33
Vtype
p34
Vliteral
p35
sVvalue
p36
V01630
p37
ssa(dp38
g7
(dp39
Vtype
p40
Vuri
p41
sVvalue
p42
Vhttp://dbpedia.org/ontology/gridReference
p43
ssg8
(dp44
Vtype
p45
Vliteral
p46
sVvalue
p47
VSJ635321
p48
ssa(dp49
g7
(dp50
Vtype
p51
Vuri
p52
sVvalue
p53
Vhttp://dbpedia.org/ontology/postalCode
p54
ssg8
(dp55
Vtype
p56
Vliteral
p57
sVvalue
p58
VTF9
p59
ssa(dp60
g7
(dp61
Vtype
p62
Vuri
p63
sVvalue
p64
Vhttp://dbpedia.org/ontology/wikiPageExtracted
p65
ssg8
(dp66
Vdatatype
p67
Vhttp://www.w3.org/2001/XMLSchema#dateTime
p68
sVtype
p69
Vtyped-literal
p70
sVvalue
p71
V2016-11-06T18:45:37Z
p72
ssa(dp73
g7
(dp74
Vtype
p75
Vuri
p76
sVvalue
p77
Vhttp://dbpedia.org/ontology/wikiPageLength
p78
ssg8
(dp79
Vdatatype
p80
Vhttp://www.w3.org/2001/XMLSchema#nonNegativeInteger
p81
sVtype
p82
Vtyped-literal
p83
sVvalue
p84
V1787
p85
ssa(dp86
g7
(dp87
Vtype
p88
Vuri
p89
sVvalue
p90
Vhttp://dbpedia.org/ontology/wikiPageModified
p91
ssg8
(dp92
Vdatatype
p93
Vhttp://www.w3.org/2001/XMLSchema#dateTime
p94
sVtype
p95
Vtyped-literal
p96
sVvalue
p97
V2016-01-24T15:23:25Z
p98
ssa(dp99
g7
(dp100
Vtype
p101
Vuri
p102
sVvalue
p103
Vhttp://dbpedia.org/ontology/wikiPageOutDegree
p104
ssg8
(dp105
Vdatatype
p106
Vhttp://www.w3.org/2001/XMLSchema#nonNegativeInteger
p107
sVtype
p108
Vtyped-literal
p109
sVvalue
p110
V19
p111
ssasVordered
p112
I01
ss.