(dp0
Vhead
p1
(dp2
Vlink
p3
(lp4
sVvars
p5
(lp6
Vp
p7
aVo
p8
assVresults
p9
(dp10
Vdistinct
p11
I00
sVbindings
p12
(lp13
(dp14
g7
(dp15
Vtype
p16
Vuri
p17
sVvalue
p18
Vhttp://dbpedia.org/ontology/abstract
p19
ssg8
(dp20
Vxml:lang
p21
Ven
p22
sVtype
p23
Vliteral
p24
sVvalue
p25
VIndiana University Bloomington (abbreviated "IU Bloomington" and colloquially referred to as "IU" or simply "Indiana") is a public research university located in Bloomington, Indiana, United States. With over 40,000 students, IU Bloomington is the flagship institution of the Indiana University system and its largest university.It is a member of the Association of American Universities and has numerous schools and programs that comprise part of IU, including the Jacobs School of Music, the School of Informatics and Computing, the Kelley School of Business, the School of Public Health, the School of Nursing, the School of Optometry, the School of Public and Environmental Affairs, the Maurer School of Law, the School of Education, the Media School, and the School of Global and International Studies.With a Fall 2014 total campus enrollment of 42,634 students, IU Bloomington is the largest university campus in the state. While 55.2% of the student body was from Indiana, students from 49 of the 50 states, Washington D.C., and 165 foreign nations were also enrolled. The university is home to an extensive student life program, with about 17 percent of undergraduates joining the Greek system. Indiana athletic teams compete in Division I of the NCAA and are known as the Indiana Hoosiers. The university is a member of the Big Ten Conference.Among IU Bloomington\u2019s many graduate-level programs are the Kelley School of Business, School of Education and Maurer School of Law. Indiana\u2019s law school has a program with a first-year team-based approach, a diversion from the typical legal education. Notable Indiana alumni include composer and songwriter Hoagy Carmichael, who penned \u201cGeorgia on My Mind"; John Chambers, executive chairman and former CEO of Cisco Systems; and Mark Cuban, billionaire owner of the Dallas Mavericks, Landmark Theatres, and Magnolia Pictures.In terms of academics and other criteria, IU Bloomington ranks in top 100 national universities in the United States and the top 50 public universities in the country. The school's sports teams are notorious competitors in the NCAA Division I Big Ten Conference, and, since Indiana University does not have a mascot, all teams are known simply as Hoosiers. There are more than 650 student organizations on campus, and more than 5,000 students go Greek in the school\u2019s large community of fraternities and sororities.
p26
ssa(dp27
g7
(dp28
Vtype
p29
Vuri
p30
sVvalue
p31
Vhttp://dbpedia.org/ontology/abstract
p32
ssg8
(dp33
Vxml:lang
p34
Ven
p35
sVtype
p36
Vliteral
p37
sVvalue
p38
VIndiana University Bloomington (abbreviated "IU Bloomington" and colloquially referred to as "IU" or simply "Indiana") is a public research university located in Bloomington, Indiana, United States. With over 48,000 students, IU Bloomington is the flagship institution of the Indiana University system and its largest university.It is a member of the Association of American Universities and has numerous schools and programs, including the Jacobs School of Music, the School of Informatics and Computing, the Kelley School of Business, the School of Public Health, the School of Nursing, the School of Optometry, the School of Public and Environmental Affairs, the Maurer School of Law, the School of Education, the Media School, and the School of Global and International Studies.As of Fall 2015, 48,514 students attend Indiana University. While 55.2% of the student body was from Indiana, students from 49 of the 50 states, Washington D.C., and 165 foreign nations were also enrolled. The university is home to an extensive student life program, with more than 750 student organizations on campus and with more than 17 percent of undergraduates joining the Greek system. Indiana athletic teams compete in Division I of the NCAA and are known as the Indiana Hoosiers. The university is a member of the Big Ten Conference.Among IU Bloomington\u2019s many graduate-level programs are the Kelley School of Business, School of Education, School of Public and Environmental Affairs and Maurer School of Law. Indiana\u2019s law school has a program with a first-year team-based approach, a diversion from the typical legal education. Notable Indiana alumni include composer and songwriter Hoagy Carmichael, who penned \u201cGeorgia on My Mind"; John Chambers, executive chairman and former CEO of Cisco Systems; and Mark Cuban, billionaire owner of the Dallas Mavericks, Landmark Theatres, and Magnolia Pictures.In terms of academics and other criteria, IU Bloomington ranks in top 100 national universities in the United States and the top 50 public universities in the country. The school's sports teams are notorious competitors in the NCAA Division I Big Ten Conference, and, since Indiana University does not have a mascot, all teams are known simply as Hoosiers. There are more than 650 student organizations on campus, and more than 5,000 students go Greek in the school\u2019s large community of fraternities and sororities.
p39
ssa(dp40
g7
(dp41
Vtype
p42
Vuri
p43
sVvalue
p44
Vhttp://dbpedia.org/ontology/endowment
p45
ssg8
(dp46
Vdatatype
p47
Vhttp://dbpedia.org/datatype/usDollar
p48
sVtype
p49
Vtyped-literal
p50
sVvalue
p51
V1.974E9
p52
ssa(dp53
g7
(dp54
Vtype
p55
Vuri
p56
sVvalue
p57
Vhttp://dbpedia.org/ontology/facultySize
p58
ssg8
(dp59
Vdatatype
p60
Vhttp://www.w3.org/2001/XMLSchema#nonNegativeInteger
p61
sVtype
p62
Vtyped-literal
p63
sVvalue
p64
V2149
p65
ssa(dp66
g7
(dp67
Vtype
p68
Vuri
p69
sVvalue
p70
Vhttp://dbpedia.org/ontology/foundingDate
p71
ssg8
(dp72
Vdatatype
p73
Vhttp://www.w3.org/2001/XMLSchema#date
p74
sVtype
p75
Vtyped-literal
p76
sVvalue
p77
V1820-01-20
p78
ssa(dp79
g7
(dp80
Vtype
p81
Vuri
p82
sVvalue
p83
Vhttp://dbpedia.org/ontology/motto
p84
ssg8
(dp85
Vtype
p86
Vliteral
p87
sVvalue
p88
VLight and Truth
p89
ssa(dp90
g7
(dp91
Vtype
p92
Vuri
p93
sVvalue
p94
Vhttp://dbpedia.org/ontology/motto
p95
ssg8
(dp96
Vtype
p97
Vliteral
p98
sVvalue
p99
VLux et Veritas
p100
ssa(dp101
g7
(dp102
Vtype
p103
Vuri
p104
sVvalue
p105
Vhttp://dbpedia.org/ontology/numberOfPostgraduateStudents
p106
ssg8
(dp107
Vdatatype
p108
Vhttp://www.w3.org/2001/XMLSchema#nonNegativeInteger
p109
sVtype
p110
Vtyped-literal
p111
sVvalue
p112
V10150
p113
ssa(dp114
g7
(dp115
Vtype
p116
Vuri
p117
sVvalue
p118
Vhttp://dbpedia.org/ontology/numberOfStudents
p119
ssg8
(dp120
Vdatatype
p121
Vhttp://www.w3.org/2001/XMLSchema#nonNegativeInteger
p122
sVtype
p123
Vtyped-literal
p124
sVvalue
p125
V48514
p126
ssa(dp127
g7
(dp128
Vtype
p129
Vuri
p130
sVvalue
p131
Vhttp://dbpedia.org/ontology/numberOfUndergraduateStudents
p132
ssg8
(dp133
Vdatatype
p134
Vhttp://www.w3.org/2001/XMLSchema#nonNegativeInteger
p135
sVtype
p136
Vtyped-literal
p137
sVvalue
p138
V38364
p139
ssa(dp140
g7
(dp141
Vtype
p142
Vuri
p143
sVvalue
p144
Vhttp://dbpedia.org/ontology/officialSchoolColour
p145
ssg8
(dp146
Vtype
p147
Vliteral
p148
sVvalue
p149
VCrimson,Cream
p150
ssa(dp151
g7
(dp152
Vtype
p153
Vuri
p154
sVvalue
p155
Vhttp://dbpedia.org/ontology/wikiPageExtracted
p156
ssg8
(dp157
Vdatatype
p158
Vhttp://www.w3.org/2001/XMLSchema#dateTime
p159
sVtype
p160
Vtyped-literal
p161
sVvalue
p162
V2016-10-31T22:00:02Z
p163
ssa(dp164
g7
(dp165
Vtype
p166
Vuri
p167
sVvalue
p168
Vhttp://dbpedia.org/ontology/wikiPageLength
p169
ssg8
(dp170
Vdatatype
p171
Vhttp://www.w3.org/2001/XMLSchema#nonNegativeInteger
p172
sVtype
p173
Vtyped-literal
p174
sVvalue
p175
V72878
p176
ssa(dp177
g7
(dp178
Vtype
p179
Vuri
p180
sVvalue
p181
Vhttp://dbpedia.org/ontology/wikiPageModified
p182
ssg8
(dp183
Vdatatype
p184
Vhttp://www.w3.org/2001/XMLSchema#dateTime
p185
sVtype
p186
Vtyped-literal
p187
sVvalue
p188
V2016-10-20T19:09:55Z
p189
ssa(dp190
g7
(dp191
Vtype
p192
Vuri
p193
sVvalue
p194
Vhttp://dbpedia.org/ontology/wikiPageOutDegree
p195
ssg8
(dp196
Vdatatype
p197
Vhttp://www.w3.org/2001/XMLSchema#nonNegativeInteger
p198
sVtype
p199
Vtyped-literal
p200
sVvalue
p201
V330
p202
ssasVordered
p203
I01
ss.