(dp0
Vhead
p1
(dp2
Vlink
p3
(lp4
sVvars
p5
(lp6
Vp
p7
aVo
p8
assVresults
p9
(dp10
Vdistinct
p11
I00
sVbindings
p12
(lp13
(dp14
g7
(dp15
Vtype
p16
Vuri
p17
sVvalue
p18
Vhttp://dbpedia.org/ontology/abstract
p19
ssg8
(dp20
Vxml:lang
p21
Ven
p22
sVtype
p23
Vliteral
p24
sVvalue
p25
VIvvavik National Park is a national park located in Yukon, Canada. Meaning "nursery" or "birthplace" in Inuvialuktun, is the first national park to be established as a result of a land claim agreement with its natives.Protecting a portion of the calving grounds of the Porcupine caribou herd, the park allows only a minimal number of people to visit per year.On the shore of Beaufort Sea, there is abundant game for timber wolves, grizzly bears, and black bears that inhabit the area. Other animals that inhabit this park are red foxes, Alaskan moose, lemmings, Arctic foxes, Dall sheep, gyrfalcons, muskoxen, and wolverines. The Arctic National Wildlife Refuge lies just across the border in Alaska.On the south-east, Ivvavik National Park borders Vuntut National Park, established in 1995. Due to land claims negotiations, Vuntut is still quite undeveloped and has no roads or developed trails. Due to its undeveloped nature, several people have gotten lost and are presumed dead.
p26
ssa(dp27
g7
(dp28
Vtype
p29
Vuri
p30
sVvalue
p31
Vhttp://dbpedia.org/ontology/wikiPageExtracted
p32
ssg8
(dp33
Vdatatype
p34
Vhttp://www.w3.org/2001/XMLSchema#dateTime
p35
sVtype
p36
Vtyped-literal
p37
sVvalue
p38
V2016-11-01T01:30:37Z
p39
ssa(dp40
g7
(dp41
Vtype
p42
Vuri
p43
sVvalue
p44
Vhttp://dbpedia.org/ontology/wikiPageLength
p45
ssg8
(dp46
Vdatatype
p47
Vhttp://www.w3.org/2001/XMLSchema#nonNegativeInteger
p48
sVtype
p49
Vtyped-literal
p50
sVvalue
p51
V2162
p52
ssa(dp53
g7
(dp54
Vtype
p55
Vuri
p56
sVvalue
p57
Vhttp://dbpedia.org/ontology/wikiPageModified
p58
ssg8
(dp59
Vdatatype
p60
Vhttp://www.w3.org/2001/XMLSchema#dateTime
p61
sVtype
p62
Vtyped-literal
p63
sVvalue
p64
V2016-06-25T17:00:10Z
p65
ssa(dp66
g7
(dp67
Vtype
p68
Vuri
p69
sVvalue
p70
Vhttp://dbpedia.org/ontology/wikiPageOutDegree
p71
ssg8
(dp72
Vdatatype
p73
Vhttp://www.w3.org/2001/XMLSchema#nonNegativeInteger
p74
sVtype
p75
Vtyped-literal
p76
sVvalue
p77
V30
p78
ssasVordered
p79
I01
ss.