(dp0
Vhead
p1
(dp2
Vlink
p3
(lp4
sVvars
p5
(lp6
Vp
p7
aVo
p8
assVresults
p9
(dp10
Vdistinct
p11
I00
sVbindings
p12
(lp13
(dp14
g7
(dp15
Vtype
p16
Vuri
p17
sVvalue
p18
Vhttp://dbpedia.org/ontology/isPartOfName
p19
ssg8
(dp20
Vtype
p21
Vliteral
p22
sVvalue
p23
VSouth Eastern Freeway
p24
ssa(dp25
g7
(dp26
Vtype
p27
Vuri
p28
sVvalue
p29
Vhttp://dbpedia.org/ontology/abstract
p30
ssg8
(dp31
Vxml:lang
p32
Ven
p33
sVtype
p34
Vliteral
p35
sVvalue
p36
VThe Heysen Tunnels are twin tube road tunnels which carry the South Eastern Freeway under Eagle On The Hill in the Mount Lofty Ranges in South Australia. The tunnels were excavated using a tunnelling machine normally used in heavy-duty mining operations which tunnelled through 500 metres of rock for each tunnel at an average rate of 3 metres per day. The tunnels were completed in 1998 and officially opened in May 2000. Each tunnel carries 3 lanes of traffic. On average, they carry a total of 45,700 vehicles per day. The maximum height of vehicles permitted in the tunnels is 5.3 metres (17 ft), the same as the Crafers and Mt Osmond interchanges. Laser height detectors monitor traffic to provide warnings to drivers before they attempt to enter the tunnel.The tunnels are named after artist Sir Hans Heysen.
p37
ssa(dp38
g7
(dp39
Vtype
p40
Vuri
p41
sVvalue
p42
Vhttp://dbpedia.org/ontology/height
p43
ssg8
(dp44
Vdatatype
p45
Vhttp://www.w3.org/2001/XMLSchema#double
p46
sVtype
p47
Vtyped-literal
p48
sVvalue
p49
V5.3
p50
ssa(dp51
g7
(dp52
Vtype
p53
Vuri
p54
sVvalue
p55
Vhttp://dbpedia.org/ontology/length
p56
ssg8
(dp57
Vdatatype
p58
Vhttp://www.w3.org/2001/XMLSchema#double
p59
sVtype
p60
Vtyped-literal
p61
sVvalue
p62
V500.0
p63
ssa(dp64
g7
(dp65
Vtype
p66
Vuri
p67
sVvalue
p68
Vhttp://dbpedia.org/ontology/wikiPageExtracted
p69
ssg8
(dp70
Vdatatype
p71
Vhttp://www.w3.org/2001/XMLSchema#dateTime
p72
sVtype
p73
Vtyped-literal
p74
sVvalue
p75
V2016-10-31T13:09:21Z
p76
ssa(dp77
g7
(dp78
Vtype
p79
Vuri
p80
sVvalue
p81
Vhttp://dbpedia.org/ontology/wikiPageLength
p82
ssg8
(dp83
Vdatatype
p84
Vhttp://www.w3.org/2001/XMLSchema#nonNegativeInteger
p85
sVtype
p86
Vtyped-literal
p87
sVvalue
p88
V3611
p89
ssa(dp90
g7
(dp91
Vtype
p92
Vuri
p93
sVvalue
p94
Vhttp://dbpedia.org/ontology/wikiPageModified
p95
ssg8
(dp96
Vdatatype
p97
Vhttp://www.w3.org/2001/XMLSchema#dateTime
p98
sVtype
p99
Vtyped-literal
p100
sVvalue
p101
V2015-09-07T22:36:15Z
p102
ssa(dp103
g7
(dp104
Vtype
p105
Vuri
p106
sVvalue
p107
Vhttp://dbpedia.org/ontology/wikiPageOutDegree
p108
ssg8
(dp109
Vdatatype
p110
Vhttp://www.w3.org/2001/XMLSchema#nonNegativeInteger
p111
sVtype
p112
Vtyped-literal
p113
sVvalue
p114
V13
p115
ssa(dp116
g7
(dp117
Vtype
p118
Vuri
p119
sVvalue
p120
Vhttp://dbpedia.org/ontology/yearOfConstruction
p121
ssg8
(dp122
Vdatatype
p123
Vhttp://www.w3.org/2001/XMLSchema#gYear
p124
sVtype
p125
Vtyped-literal
p126
sVvalue
p127
V1998
p128
ssa(dp129
g7
(dp130
Vtype
p131
Vuri
p132
sVvalue
p133
Vhttp://dbpedia.org/ontology/Infrastructure/length
p134
ssg8
(dp135
Vdatatype
p136
Vhttp://dbpedia.org/datatype/kilometre
p137
sVtype
p138
Vtyped-literal
p139
sVvalue
p140
V0.5
p141
ssa(dp142
g7
(dp143
Vtype
p144
Vuri
p145
sVvalue
p146
Vhttp://dbpedia.org/ontology/buildingStartYear
p147
ssg8
(dp148
Vdatatype
p149
Vhttp://www.w3.org/2001/XMLSchema#gYear
p150
sVtype
p151
Vtyped-literal
p152
sVvalue
p153
V1998
p154
ssa(dp155
g7
(dp156
Vtype
p157
Vuri
p158
sVvalue
p159
Vhttp://dbpedia.org/ontology/buildingEndYear
p160
ssg8
(dp161
Vdatatype
p162
Vhttp://www.w3.org/2001/XMLSchema#gYear
p163
sVtype
p164
Vtyped-literal
p165
sVvalue
p166
V1998
p167
ssa(dp168
g7
(dp169
Vtype
p170
Vuri
p171
sVvalue
p172
Vhttp://dbpedia.org/ontology/speedLimit
p173
ssg8
(dp174
Vdatatype
p175
Vhttp://www.w3.org/2001/XMLSchema#double
p176
sVtype
p177
Vtyped-literal
p178
sVvalue
p179
V90.0
p180
ssa(dp181
g7
(dp182
Vtype
p183
Vuri
p184
sVvalue
p185
Vhttp://dbpedia.org/ontology/vehiclesPerDay
p186
ssg8
(dp187
Vdatatype
p188
Vhttp://www.w3.org/2001/XMLSchema#nonNegativeInteger
p189
sVtype
p190
Vtyped-literal
p191
sVvalue
p192
V45700
p193
ssa(dp194
g7
(dp195
Vtype
p196
Vuri
p197
sVvalue
p198
Vhttp://dbpedia.org/ontology/numberOfLanes
p199
ssg8
(dp200
Vdatatype
p201
Vhttp://www.w3.org/2001/XMLSchema#nonNegativeInteger
p202
sVtype
p203
Vtyped-literal
p204
sVvalue
p205
V3
p206
ssasVordered
p207
I01
ss.