(dp0
Vhead
p1
(dp2
Vlink
p3
(lp4
sVvars
p5
(lp6
Vp
p7
aVo
p8
assVresults
p9
(dp10
Vdistinct
p11
I00
sVbindings
p12
(lp13
(dp14
g7
(dp15
Vtype
p16
Vuri
p17
sVvalue
p18
Vhttp://dbpedia.org/ontology/abstract
p19
ssg8
(dp20
Vxml:lang
p21
Ven
p22
sVtype
p23
Vliteral
p24
sVvalue
p25
VDenezhkin Kamen Nature Reserve (Russian: \u0414\u0435\u043d\u0435\u0436\u043a\u0438\u043d \u043a\u0430\u043c\u0435\u043d\u044c \u0437\u0430\u043f\u043e\u0432\u0435\u0434\u043d\u0438\u043a) (also Denezhkin Kamen) is a Russian 'zapovednik' (strict nature reserve), centered on Denezhkin Stone Mountain, on the eastern slope of the Central Ural Mountains. The mountain is one of the highest peaks in the Urals (altitude of 1,492 metres (4,895 ft)); and most of the reserve's terrain is West Siberian taiga and some tundra. Denezhkin Kamen is the only nature reserve in the Ural east-slope watershed, and protects relatively pristine forest. There are old-growth stands of trees, no settlements, and no logging roads on the site. The reserve is situated about 400 km north of Yekaterinburg, in the Severouralsk city district in the north of Sverdlovsk Oblast.
p26
ssa(dp27
g7
(dp28
Vtype
p29
Vuri
p30
sVvalue
p31
Vhttp://dbpedia.org/ontology/areaTotal
p32
ssg8
(dp33
Vdatatype
p34
Vhttp://www.w3.org/2001/XMLSchema#double
p35
sVtype
p36
Vtyped-literal
p37
sVvalue
p38
V7.8192e+08
p39
ssa(dp40
g7
(dp41
Vtype
p42
Vuri
p43
sVvalue
p44
Vhttp://dbpedia.org/ontology/wikiPageExtracted
p45
ssg8
(dp46
Vdatatype
p47
Vhttp://www.w3.org/2001/XMLSchema#dateTime
p48
sVtype
p49
Vtyped-literal
p50
sVvalue
p51
V2016-10-29T15:44:16Z
p52
ssa(dp53
g7
(dp54
Vtype
p55
Vuri
p56
sVvalue
p57
Vhttp://dbpedia.org/ontology/wikiPageLength
p58
ssg8
(dp59
Vdatatype
p60
Vhttp://www.w3.org/2001/XMLSchema#nonNegativeInteger
p61
sVtype
p62
Vtyped-literal
p63
sVvalue
p64
V7877
p65
ssa(dp66
g7
(dp67
Vtype
p68
Vuri
p69
sVvalue
p70
Vhttp://dbpedia.org/ontology/wikiPageModified
p71
ssg8
(dp72
Vdatatype
p73
Vhttp://www.w3.org/2001/XMLSchema#dateTime
p74
sVtype
p75
Vtyped-literal
p76
sVvalue
p77
V2016-10-27T08:57:58Z
p78
ssa(dp79
g7
(dp80
Vtype
p81
Vuri
p82
sVvalue
p83
Vhttp://dbpedia.org/ontology/wikiPageOutDegree
p84
ssg8
(dp85
Vdatatype
p86
Vhttp://www.w3.org/2001/XMLSchema#nonNegativeInteger
p87
sVtype
p88
Vtyped-literal
p89
sVvalue
p90
V22
p91
ssa(dp92
g7
(dp93
Vtype
p94
Vuri
p95
sVvalue
p96
Vhttp://dbpedia.org/ontology/iucnCategory
p97
ssg8
(dp98
Vtype
p99
Vliteral
p100
sVvalue
p101
Via
p102
ssasVordered
p103
I01
ss.