(dp0
Vhead
p1
(dp2
Vlink
p3
(lp4
sVvars
p5
(lp6
Vp
p7
aVo
p8
assVresults
p9
(dp10
Vdistinct
p11
I00
sVbindings
p12
(lp13
(dp14
g7
(dp15
Vtype
p16
Vuri
p17
sVvalue
p18
Vhttp://dbpedia.org/ontology/abstract
p19
ssg8
(dp20
Vxml:lang
p21
Ven
p22
sVtype
p23
Vliteral
p24
sVvalue
p25
VThe Blue Mountain School District is a midsized, rural public school district in Schuylkill County, Pennsylvania. The District is one of the 500 public school districts of Pennsylvania. The District serves the Boroughs of Auburn, Cressona, Deer Lake, New Ringgold and Orwigsburg and Wayne Township, East Brunswick Township, North Manheim Township and West Brunswick Township in Schuylkill County, Pennsylvania. Blue Mountain School District encompasses approximately 125 square miles (320 km2). According to 2000 federal census data, it served a resident population of 19,436. By 2010, the district's population was 20,463 people, making it a District of the Third Class. The educational attainment levels for the Blue Mountain School District population (25 years old and over) were 88.6% high school graduates and 22.5% college graduates. The District is one of the 500 public school districts of Pennsylvania.According to the Pennsylvania Budget and Policy Center, 24.1% of the District\u2019s pupils lived at 185% or below the Federal Poverty Level [1] as shown by their eligibility for the federal free or reduced price school meal programs in 2012. In 2009, the Blue Mountain School District residents\u2019 per capita income was $21,212, while the median family income was $36,276. In Schuylkill County, the median household income was $45,012. In the Commonwealth, the median family income was $49,985 and the United States median family income was $49,445, in 2010. By 2013, the median household income in the United States rose to $52,100. In 2014, the median household income in the USA was $53,700.Blue Mountain School District officials reported that, in school year 2007-08, the Blue Mountain School District provided basic educational services to 2,983 pupils. It employed: 224 teachers, 148 full-time and part-time support personnel, and 24 administrators. According to District officials, in school year 2009-10 the Blue Mountain School District provided basic educational services to 2,877 pupils. It employed: 219 teachers, 136 full-time and part-time support personnel, and 26 administrators. Blue Mountain School District received more than $12.6 million in state funding in school year 2009-10.Blue Mountain School District operates: Blue Mountain High School, Blue Mountain Middle School, Cressona Elementary School, Blue Mountain Elementary East School, Blue Mountain Elementary West School and Blue Mountain Virtual Academy (founded 2016). School colors are blue and white. Blue Mountain High school students may choose to attend Schuylkill Technology Centers for training in construction and mechanical trades as well as various other careers.. The Schuylkill Intermediate Unit IU29 provides the district with a wide variety of services like: specialized education for disabled students and hearing; speech and visual disability services; mandated training on recognizing and reporting child abuse; background checks for prospective employees and professional development for staff and faculty.
p26
ssa(dp27
g7
(dp28
Vtype
p29
Vuri
p30
sVvalue
p31
Vhttp://dbpedia.org/ontology/wikiPageExtracted
p32
ssg8
(dp33
Vdatatype
p34
Vhttp://www.w3.org/2001/XMLSchema#dateTime
p35
sVtype
p36
Vtyped-literal
p37
sVvalue
p38
V2016-10-28T06:57:31Z
p39
ssa(dp40
g7
(dp41
Vtype
p42
Vuri
p43
sVvalue
p44
Vhttp://dbpedia.org/ontology/wikiPageLength
p45
ssg8
(dp46
Vdatatype
p47
Vhttp://www.w3.org/2001/XMLSchema#nonNegativeInteger
p48
sVtype
p49
Vtyped-literal
p50
sVvalue
p51
V158185
p52
ssa(dp53
g7
(dp54
Vtype
p55
Vuri
p56
sVvalue
p57
Vhttp://dbpedia.org/ontology/wikiPageModified
p58
ssg8
(dp59
Vdatatype
p60
Vhttp://www.w3.org/2001/XMLSchema#dateTime
p61
sVtype
p62
Vtyped-literal
p63
sVvalue
p64
V2016-10-14T12:29:30Z
p65
ssa(dp66
g7
(dp67
Vtype
p68
Vuri
p69
sVvalue
p70
Vhttp://dbpedia.org/ontology/wikiPageOutDegree
p71
ssg8
(dp72
Vdatatype
p73
Vhttp://www.w3.org/2001/XMLSchema#nonNegativeInteger
p74
sVtype
p75
Vtyped-literal
p76
sVvalue
p77
V111
p78
ssasVordered
p79
I01
ss.