(dp0
Vhead
p1
(dp2
Vlink
p3
(lp4
sVvars
p5
(lp6
Vp
p7
aVo
p8
assVresults
p9
(dp10
Vdistinct
p11
I00
sVbindings
p12
(lp13
(dp14
g7
(dp15
Vtype
p16
Vuri
p17
sVvalue
p18
Vhttp://dbpedia.org/ontology/abstract
p19
ssg8
(dp20
Vxml:lang
p21
Ven
p22
sVtype
p23
Vliteral
p24
sVvalue
p25
VAthletic Union of Sparta F.C. (Greek: \u0391\u0395 \u03a3\u03c0\u03ac\u03c1\u03c4\u03b7 \u03a0\u0391\u0395, \u0391\u03b8\u03bb\u03b7\u03c4\u03b9\u03ba\u03ae \u0388\u03bd\u03c9\u03c3\u03b7 \u03a3\u03c0\u03ac\u03c1\u03c4\u03b7\u03c2, Athlitiki Enosis Spartis, Athletic Union of Sparta), also known simply as Sparta F.C., Sparta is a Greek football club, based in Sparta, Laconia.The club was founded in 1991. The football section of the club is the most successful. Struggling in Sparta Municipal Stadium, with a capacity of 1,500 spectators. They will play in Football League for the season 2016-17.
p26
ssa(dp27
g7
(dp28
Vtype
p29
Vuri
p30
sVvalue
p31
Vhttp://dbpedia.org/ontology/abstract
p32
ssg8
(dp33
Vxml:lang
p34
Ven
p35
sVtype
p36
Vliteral
p37
sVvalue
p38
VAthletic Union of Sparta F.C. (Greek: \u0391\u0395 \u03a3\u03c0\u03ac\u03c1\u03c4\u03b7 \u03a0\u0391\u0395, \u0391\u03b8\u03bb\u03b7\u03c4\u03b9\u03ba\u03ae \u0388\u03bd\u03c9\u03c3\u03b7 \u03a3\u03c0\u03ac\u03c1\u03c4\u03b7\u03c2, Athlitiki Enosis Spartis, Athletic Union of Sparta), also known simply as Sparta is a Greek football club, based in Sparta, Laconia.The club was founded in 1991. The football section of the club is the most successful. Struggling in Sparta Municipal Stadium, with a capacity of 1,500 spectators. They will play in Football League for the season 2016-17.
p39
ssa(dp40
g7
(dp41
Vtype
p42
Vuri
p43
sVvalue
p44
Vhttp://dbpedia.org/ontology/capacity
p45
ssg8
(dp46
Vdatatype
p47
Vhttp://www.w3.org/2001/XMLSchema#nonNegativeInteger
p48
sVtype
p49
Vtyped-literal
p50
sVvalue
p51
V1500
p52
ssa(dp53
g7
(dp54
Vtype
p55
Vuri
p56
sVvalue
p57
Vhttp://dbpedia.org/ontology/wikiPageExtracted
p58
ssg8
(dp59
Vdatatype
p60
Vhttp://www.w3.org/2001/XMLSchema#dateTime
p61
sVtype
p62
Vtyped-literal
p63
sVvalue
p64
V2016-11-06T04:43:38Z
p65
ssa(dp66
g7
(dp67
Vtype
p68
Vuri
p69
sVvalue
p70
Vhttp://dbpedia.org/ontology/wikiPageLength
p71
ssg8
(dp72
Vdatatype
p73
Vhttp://www.w3.org/2001/XMLSchema#nonNegativeInteger
p74
sVtype
p75
Vtyped-literal
p76
sVvalue
p77
V6160
p78
ssa(dp79
g7
(dp80
Vtype
p81
Vuri
p82
sVvalue
p83
Vhttp://dbpedia.org/ontology/wikiPageModified
p84
ssg8
(dp85
Vdatatype
p86
Vhttp://www.w3.org/2001/XMLSchema#dateTime
p87
sVtype
p88
Vtyped-literal
p89
sVvalue
p90
V2016-11-02T20:50:12Z
p91
ssa(dp92
g7
(dp93
Vtype
p94
Vuri
p95
sVvalue
p96
Vhttp://dbpedia.org/ontology/wikiPageOutDegree
p97
ssg8
(dp98
Vdatatype
p99
Vhttp://www.w3.org/2001/XMLSchema#nonNegativeInteger
p100
sVtype
p101
Vtyped-literal
p102
sVvalue
p103
V41
p104
ssasVordered
p105
I01
ss.