(dp0
Vhead
p1
(dp2
Vlink
p3
(lp4
sVvars
p5
(lp6
Vp
p7
aVo
p8
assVresults
p9
(dp10
Vdistinct
p11
I00
sVbindings
p12
(lp13
(dp14
g7
(dp15
Vtype
p16
Vuri
p17
sVvalue
p18
Vhttp://dbpedia.org/ontology/Weapon/length
p19
ssg8
(dp20
Vdatatype
p21
Vhttp://dbpedia.org/datatype/millimetre
p22
sVtype
p23
Vtyped-literal
p24
sVvalue
p25
V7084.0
p26
ssa(dp27
g7
(dp28
Vtype
p29
Vuri
p30
sVvalue
p31
Vhttp://dbpedia.org/ontology/Weapon/weight
p32
ssg8
(dp33
Vdatatype
p34
Vhttp://dbpedia.org/datatype/kilogram
p35
sVtype
p36
Vtyped-literal
p37
sVvalue
p38
V5140.0
p39
ssa(dp40
g7
(dp41
Vtype
p42
Vuri
p43
sVvalue
p44
Vhttp://dbpedia.org/ontology/Weapon/weight
p45
ssg8
(dp46
Vdatatype
p47
Vhttp://dbpedia.org/datatype/kilogram
p48
sVtype
p49
Vtyped-literal
p50
sVvalue
p51
V5610.0
p52
ssa(dp53
g7
(dp54
Vtype
p55
Vuri
p56
sVvalue
p57
Vhttp://dbpedia.org/ontology/abstract
p58
ssg8
(dp59
Vxml:lang
p60
Ven
p61
sVtype
p62
Vliteral
p63
sVvalue
p64
VThe Lancia Ro, Lancia Ro-Ro and Lancia 3Ro were 4x2 heavy trucks built by Italian manufacturer Lancia from the 1930s through the 1940s for military and civilian use. The 2-cylinder diesel Ro was produced from 1933 to 1939, the 3-cylinder diesel Ro-Ro from 1935 to 1939 and the improved 5-cylinder diesel 3Ro from 1938 to 1947.Ro and 3Ro saw extensive military service during the Second Italo-Ethiopian War and World War II, chiefly as two of the main heavy trucks of the Royal Italian Army.
p65
ssa(dp66
g7
(dp67
Vtype
p68
Vuri
p69
sVvalue
p70
Vhttp://dbpedia.org/ontology/height
p71
ssg8
(dp72
Vdatatype
p73
Vhttp://www.w3.org/2001/XMLSchema#double
p74
sVtype
p75
Vtyped-literal
p76
sVvalue
p77
VNAN
p78
ssa(dp79
g7
(dp80
Vtype
p81
Vuri
p82
sVvalue
p83
Vhttp://dbpedia.org/ontology/length
p84
ssg8
(dp85
Vdatatype
p86
Vhttp://www.w3.org/2001/XMLSchema#double
p87
sVtype
p88
Vtyped-literal
p89
sVvalue
p90
V7.084
p91
ssa(dp92
g7
(dp93
Vtype
p94
Vuri
p95
sVvalue
p96
Vhttp://dbpedia.org/ontology/weight
p97
ssg8
(dp98
Vdatatype
p99
Vhttp://www.w3.org/2001/XMLSchema#double
p100
sVtype
p101
Vtyped-literal
p102
sVvalue
p103
V5.14e+06
p104
ssa(dp105
g7
(dp106
Vtype
p107
Vuri
p108
sVvalue
p109
Vhttp://dbpedia.org/ontology/weight
p110
ssg8
(dp111
Vdatatype
p112
Vhttp://www.w3.org/2001/XMLSchema#double
p113
sVtype
p114
Vtyped-literal
p115
sVvalue
p116
V5.61e+06
p117
ssa(dp118
g7
(dp119
Vtype
p120
Vuri
p121
sVvalue
p122
Vhttp://dbpedia.org/ontology/width
p123
ssg8
(dp124
Vdatatype
p125
Vhttp://www.w3.org/2001/XMLSchema#double
p126
sVtype
p127
Vtyped-literal
p128
sVvalue
p129
V2.3
p130
ssa(dp131
g7
(dp132
Vtype
p133
Vuri
p134
sVvalue
p135
Vhttp://dbpedia.org/ontology/width
p136
ssg8
(dp137
Vdatatype
p138
Vhttp://www.w3.org/2001/XMLSchema#double
p139
sVtype
p140
Vtyped-literal
p141
sVvalue
p142
V2.35
p143
ssa(dp144
g7
(dp145
Vtype
p146
Vuri
p147
sVvalue
p148
Vhttp://dbpedia.org/ontology/wikiPageExtracted
p149
ssg8
(dp150
Vdatatype
p151
Vhttp://www.w3.org/2001/XMLSchema#dateTime
p152
sVtype
p153
Vtyped-literal
p154
sVvalue
p155
V2016-11-02T00:37:02Z
p156
ssa(dp157
g7
(dp158
Vtype
p159
Vuri
p160
sVvalue
p161
Vhttp://dbpedia.org/ontology/wikiPageLength
p162
ssg8
(dp163
Vdatatype
p164
Vhttp://www.w3.org/2001/XMLSchema#nonNegativeInteger
p165
sVtype
p166
Vtyped-literal
p167
sVvalue
p168
V13817
p169
ssa(dp170
g7
(dp171
Vtype
p172
Vuri
p173
sVvalue
p174
Vhttp://dbpedia.org/ontology/wikiPageModified
p175
ssg8
(dp176
Vdatatype
p177
Vhttp://www.w3.org/2001/XMLSchema#dateTime
p178
sVtype
p179
Vtyped-literal
p180
sVvalue
p181
V2016-06-30T12:03:06Z
p182
ssa(dp183
g7
(dp184
Vtype
p185
Vuri
p186
sVvalue
p187
Vhttp://dbpedia.org/ontology/wikiPageOutDegree
p188
ssg8
(dp189
Vdatatype
p190
Vhttp://www.w3.org/2001/XMLSchema#nonNegativeInteger
p191
sVtype
p192
Vtyped-literal
p193
sVvalue
p194
V73
p195
ssa(dp196
g7
(dp197
Vtype
p198
Vuri
p199
sVvalue
p200
Vhttp://dbpedia.org/ontology/Weapon/height
p201
ssg8
(dp202
Vdatatype
p203
Vhttp://dbpedia.org/datatype/millimetre
p204
sVtype
p205
Vtyped-literal
p206
sVvalue
p207
V3000.0
p208
ssa(dp209
g7
(dp210
Vtype
p211
Vuri
p212
sVvalue
p213
Vhttp://dbpedia.org/ontology/Weapon/width
p214
ssg8
(dp215
Vdatatype
p216
Vhttp://dbpedia.org/datatype/millimetre
p217
sVtype
p218
Vtyped-literal
p219
sVvalue
p220
V2300.0
p221
ssa(dp222
g7
(dp223
Vtype
p224
Vuri
p225
sVvalue
p226
Vhttp://dbpedia.org/ontology/Weapon/width
p227
ssg8
(dp228
Vdatatype
p229
Vhttp://dbpedia.org/datatype/millimetre
p230
sVtype
p231
Vtyped-literal
p232
sVvalue
p233
V2350.0
p234
ssasVordered
p235
I01
ss.