(dp0
Vhead
p1
(dp2
Vlink
p3
(lp4
sVvars
p5
(lp6
Vp
p7
aVo
p8
assVresults
p9
(dp10
Vdistinct
p11
I00
sVbindings
p12
(lp13
(dp14
g7
(dp15
Vtype
p16
Vuri
p17
sVvalue
p18
Vhttp://dbpedia.org/ontology/Engine/cylinderBore
p19
ssg8
(dp20
Vdatatype
p21
Vhttp://dbpedia.org/datatype/millimetre
p22
sVtype
p23
Vtyped-literal
p24
sVvalue
p25
V92.0
p26
ssa(dp27
g7
(dp28
Vtype
p29
Vuri
p30
sVvalue
p31
Vhttp://dbpedia.org/ontology/Engine/cylinderBore
p32
ssg8
(dp33
Vdatatype
p34
Vhttp://dbpedia.org/datatype/millimetre
p35
sVtype
p36
Vtyped-literal
p37
sVvalue
p38
V89.0
p39
ssa(dp40
g7
(dp41
Vtype
p42
Vuri
p43
sVvalue
p44
Vhttp://dbpedia.org/ontology/Engine/displacement
p45
ssg8
(dp46
Vdatatype
p47
Vhttp://dbpedia.org/datatype/cubicCentimetre
p48
sVtype
p49
Vtyped-literal
p50
sVvalue
p51
V2986.0
p52
ssa(dp53
g7
(dp54
Vtype
p55
Vuri
p56
sVvalue
p57
Vhttp://dbpedia.org/ontology/Engine/pistonStroke
p58
ssg8
(dp59
Vdatatype
p60
Vhttp://dbpedia.org/datatype/millimetre
p61
sVtype
p62
Vtyped-literal
p63
sVvalue
p64
V80.0
p65
ssa(dp66
g7
(dp67
Vtype
p68
Vuri
p69
sVvalue
p70
Vhttp://dbpedia.org/ontology/cylinderBore
p71
ssg8
(dp72
Vdatatype
p73
Vhttp://www.w3.org/2001/XMLSchema#double
p74
sVtype
p75
Vtyped-literal
p76
sVvalue
p77
V0.089
p78
ssa(dp79
g7
(dp80
Vtype
p81
Vuri
p82
sVvalue
p83
Vhttp://dbpedia.org/ontology/cylinderBore
p84
ssg8
(dp85
Vdatatype
p86
Vhttp://www.w3.org/2001/XMLSchema#double
p87
sVtype
p88
Vtyped-literal
p89
sVvalue
p90
V0.092
p91
ssa(dp92
g7
(dp93
Vtype
p94
Vuri
p95
sVvalue
p96
Vhttp://dbpedia.org/ontology/pistonStroke
p97
ssg8
(dp98
Vdatatype
p99
Vhttp://www.w3.org/2001/XMLSchema#double
p100
sVtype
p101
Vtyped-literal
p102
sVvalue
p103
V0.08
p104
ssa(dp105
g7
(dp106
Vtype
p107
Vuri
p108
sVvalue
p109
Vhttp://dbpedia.org/ontology/abstract
p110
ssg8
(dp111
Vxml:lang
p112
Ven
p113
sVtype
p114
Vliteral
p115
sVvalue
p116
VThe Ford SHO V6 is a family of DOHC V6 engines fitted to the Ford Taurus SHO from 1989 to 1995. The designation SHO denotes Super High Output.Due to the engine's unusual and aesthetically pleasing appearance it is sometimes transplanted into other vehicles. Its distinctive variable length intake manifold is bilaterally symmetrical, so it can be rotated 180 degrees (making it face "backwards" on the engine, relative to its original installation orientation) to ease the engine's transition from transverse to longitudinal mounting.The SHO engines share a common bell housing pattern with the following Ford engines: the 2.3/2.5 L FWD HSC I4, the 3.0 L FWD/RWD Vulcan V6, and the 3.8 L FWD Canadian Essex V6. In 1996, Ford discontinued the SHO V6 and began fitting the Taurus SHO's with the SHO 3.4 L V8 and the Ford AX4N automatic transmission.
p117
ssa(dp118
g7
(dp119
Vtype
p120
Vuri
p121
sVvalue
p122
Vhttp://dbpedia.org/ontology/productionEndYear
p123
ssg8
(dp124
Vdatatype
p125
Vhttp://www.w3.org/2001/XMLSchema#gYear
p126
sVtype
p127
Vtyped-literal
p128
sVvalue
p129
V1995
p130
ssa(dp131
g7
(dp132
Vtype
p133
Vuri
p134
sVvalue
p135
Vhttp://dbpedia.org/ontology/productionStartYear
p136
ssg8
(dp137
Vdatatype
p138
Vhttp://www.w3.org/2001/XMLSchema#gYear
p139
sVtype
p140
Vtyped-literal
p141
sVvalue
p142
V1989
p143
ssa(dp144
g7
(dp145
Vtype
p146
Vuri
p147
sVvalue
p148
Vhttp://dbpedia.org/ontology/wikiPageExtracted
p149
ssg8
(dp150
Vdatatype
p151
Vhttp://www.w3.org/2001/XMLSchema#dateTime
p152
sVtype
p153
Vtyped-literal
p154
sVvalue
p155
V2016-10-30T14:04:42Z
p156
ssa(dp157
g7
(dp158
Vtype
p159
Vuri
p160
sVvalue
p161
Vhttp://dbpedia.org/ontology/wikiPageLength
p162
ssg8
(dp163
Vdatatype
p164
Vhttp://www.w3.org/2001/XMLSchema#nonNegativeInteger
p165
sVtype
p166
Vtyped-literal
p167
sVvalue
p168
V14159
p169
ssa(dp170
g7
(dp171
Vtype
p172
Vuri
p173
sVvalue
p174
Vhttp://dbpedia.org/ontology/wikiPageModified
p175
ssg8
(dp176
Vdatatype
p177
Vhttp://www.w3.org/2001/XMLSchema#dateTime
p178
sVtype
p179
Vtyped-literal
p180
sVvalue
p181
V2016-10-06T04:14:48Z
p182
ssa(dp183
g7
(dp184
Vtype
p185
Vuri
p186
sVvalue
p187
Vhttp://dbpedia.org/ontology/wikiPageOutDegree
p188
ssg8
(dp189
Vdatatype
p190
Vhttp://www.w3.org/2001/XMLSchema#nonNegativeInteger
p191
sVtype
p192
Vtyped-literal
p193
sVvalue
p194
V43
p195
ssa(dp196
g7
(dp197
Vtype
p198
Vuri
p199
sVvalue
p200
Vhttp://dbpedia.org/ontology/Engine/powerOutput
p201
ssg8
(dp202
Vdatatype
p203
Vhttp://dbpedia.org/datatype/kilowatt
p204
sVtype
p205
Vtyped-literal
p206
sVvalue
p207
V164.0588796
p208
ssa(dp209
g7
(dp210
Vtype
p211
Vuri
p212
sVvalue
p213
Vhttp://dbpedia.org/ontology/displacement
p214
ssg8
(dp215
Vdatatype
p216
Vhttp://www.w3.org/2001/XMLSchema#double
p217
sVtype
p218
Vtyped-literal
p219
sVvalue
p220
V0.002986
p221
ssa(dp222
g7
(dp223
Vtype
p224
Vuri
p225
sVvalue
p226
Vhttp://dbpedia.org/ontology/powerOutput
p227
ssg8
(dp228
Vdatatype
p229
Vhttp://www.w3.org/2001/XMLSchema#double
p230
sVtype
p231
Vtyped-literal
p232
sVvalue
p233
V164059.0
p234
ssa(dp235
g7
(dp236
Vtype
p237
Vuri
p238
sVvalue
p239
Vhttp://dbpedia.org/ontology/valvetrain
p240
ssg8
(dp241
Vdatatype
p242
Vhttp://dbpedia.org/datatype/valvetrain
p243
sVtype
p244
Vtyped-literal
p245
sVvalue
p246
VDOHC
p247
ssasVordered
p248
I01
ss.