(dp0
Vhead
p1
(dp2
Vlink
p3
(lp4
sVvars
p5
(lp6
Vp
p7
aVo
p8
assVresults
p9
(dp10
Vdistinct
p11
I00
sVbindings
p12
(lp13
(dp14
g7
(dp15
Vtype
p16
Vuri
p17
sVvalue
p18
Vhttp://dbpedia.org/ontology/PopulatedPlace/areaTotal
p19
ssg8
(dp20
Vdatatype
p21
Vhttp://dbpedia.org/datatype/squareKilometre
p22
sVtype
p23
Vtyped-literal
p24
sVvalue
p25
V120.434447130624
p26
ssa(dp27
g7
(dp28
Vtype
p29
Vuri
p30
sVvalue
p31
Vhttp://dbpedia.org/ontology/PopulatedPlace/areaTotal
p32
ssg8
(dp33
Vdatatype
p34
Vhttp://dbpedia.org/datatype/squareKilometre
p35
sVtype
p36
Vtyped-literal
p37
sVvalue
p38
V120.5
p39
ssa(dp40
g7
(dp41
Vtype
p42
Vuri
p43
sVvalue
p44
Vhttp://dbpedia.org/ontology/PopulatedPlace/populationDensity
p45
ssg8
(dp46
Vdatatype
p47
Vhttp://dbpedia.org/datatype/inhabitantsPerSquareKilometre
p48
sVtype
p49
Vtyped-literal
p50
sVvalue
p51
V450.0
p52
ssa(dp53
g7
(dp54
Vtype
p55
Vuri
p56
sVvalue
p57
Vhttp://dbpedia.org/ontology/abstract
p58
ssg8
(dp59
Vxml:lang
p60
Ven
p61
sVtype
p62
Vliteral
p63
sVvalue
p64
VBiloxi (/b\u0259\u02c8l\u028cksi/; b\u0259-LUK-see), officially the City of Biloxi, is a city in Harrison County, Mississippi. The 2010 United States Census recorded the population as 44,054. Along with the adjoining city of Gulfport, Biloxi is a county seat of Harrison County.The city is part of the Gulfport-Biloxi metropolitan area and the Gulfport-Biloxi-Pascagoula, Mississippi Combined Statistical Area. Pre-Katrina, Biloxi was the third largest city in Mississippi behind Jackson and Gulfport; with its population losses following that storm, it was passed by Hattiesburg and Southaven, so Biloxi is now ranked fifth in the state.The beachfront of Biloxi lies directly on the Mississippi Sound, with barrier islands scattered off the coast and into the Gulf of Mexico. Keesler Air Force Base lies within the city and is home to the 81st Training Wing and the 403d Wing of the U.S. Air Force Reserve.
p65
ssa(dp66
g7
(dp67
Vtype
p68
Vuri
p69
sVvalue
p70
Vhttp://dbpedia.org/ontology/abstract
p71
ssg8
(dp72
Vxml:lang
p73
Ven
p74
sVtype
p75
Vliteral
p76
sVvalue
p77
VBiloxi (/b\u0259\u02c8l\u028cksi/; b\u0259-LUK-see), officially the City of Biloxi, is a city in Harrison County, Mississippi. The 2010 United States Census recorded the population as 44,054. Along with the adjoining city of Gulfport, Biloxi is a county seat of Harrison County.The city is part of the Gulfport-Biloxi metropolitan area and the Gulfport-Biloxi-Pascagoula, Mississippi Combined Statistical Area. Pre-Katrina, Biloxi was the third largest city in Mississippi behind Jackson and Gulfport. After the storm, the population of Biloxi decreased, and it became the fifth largest city in the state, being surpassed by Hattiesburg and Southaven.The beachfront of Biloxi lies directly on the Mississippi Sound, with barrier islands scattered off the coast and into the Gulf of Mexico. Keesler Air Force Base lies within the city and is home to the 81st Training Wing and the 403d Wing of the U.S. Air Force Reserve.
p78
ssa(dp79
g7
(dp80
Vtype
p81
Vuri
p82
sVvalue
p83
Vhttp://dbpedia.org/ontology/abstract
p84
ssg8
(dp85
Vxml:lang
p86
Ven
p87
sVtype
p88
Vliteral
p89
sVvalue
p90
VBiloxi (/b\u0259\u02c8l\u028cksi/; b\u0259-LOCK-see), officially the City of Biloxi, is a city in Harrison County, Mississippi. The 2010 United States Census recorded the population as 44,054. Along with the adjoining city of Gulfport, Biloxi is a county seat of Harrison County.The city is part of the Gulfport-Biloxi metropolitan area and the Gulfport-Biloxi-Pascagoula, Mississippi Combined Statistical Area. Pre-Katrina, Biloxi was the third largest city in Mississippi behind Jackson and Gulfport. After the storm, the population of Biloxi decreased, and it became the fifth largest city in the state, being surpassed by Hattiesburg and Southaven.The beachfront of Biloxi lies directly on the Mississippi Sound, with barrier islands scattered off the coast and into the Gulf of Mexico. Keesler Air Force Base lies within the city and is home to the 81st Training Wing and the 403d Wing of the U.S. Air Force Reserve.
p91
ssa(dp92
g7
(dp93
Vtype
p94
Vuri
p95
sVvalue
p96
Vhttp://dbpedia.org/ontology/areaCode
p97
ssg8
(dp98
Vtype
p99
Vliteral
p100
sVvalue
p101
V228
p102
ssa(dp103
g7
(dp104
Vtype
p105
Vuri
p106
sVvalue
p107
Vhttp://dbpedia.org/ontology/areaLand
p108
ssg8
(dp109
Vdatatype
p110
Vhttp://www.w3.org/2001/XMLSchema#double
p111
sVtype
p112
Vtyped-literal
p113
sVvalue
p114
V9.84195e+07
p115
ssa(dp116
g7
(dp117
Vtype
p118
Vuri
p119
sVvalue
p120
Vhttp://dbpedia.org/ontology/areaLand
p121
ssg8
(dp122
Vdatatype
p123
Vhttp://www.w3.org/2001/XMLSchema#double
p124
sVtype
p125
Vtyped-literal
p126
sVvalue
p127
V9.85e+07
p128
ssa(dp129
g7
(dp130
Vtype
p131
Vuri
p132
sVvalue
p133
Vhttp://dbpedia.org/ontology/areaTotal
p134
ssg8
(dp135
Vdatatype
p136
Vhttp://www.w3.org/2001/XMLSchema#double
p137
sVtype
p138
Vtyped-literal
p139
sVvalue
p140
V1.20434e+08
p141
ssa(dp142
g7
(dp143
Vtype
p144
Vuri
p145
sVvalue
p146
Vhttp://dbpedia.org/ontology/areaTotal
p147
ssg8
(dp148
Vdatatype
p149
Vhttp://www.w3.org/2001/XMLSchema#double
p150
sVtype
p151
Vtyped-literal
p152
sVvalue
p153
V1.205e+08
p154
ssa(dp155
g7
(dp156
Vtype
p157
Vuri
p158
sVvalue
p159
Vhttp://dbpedia.org/ontology/areaWater
p160
ssg8
(dp161
Vdatatype
p162
Vhttp://www.w3.org/2001/XMLSchema#double
p163
sVtype
p164
Vtyped-literal
p165
sVvalue
p166
V2.2e+07
p167
ssa(dp168
g7
(dp169
Vtype
p170
Vuri
p171
sVvalue
p172
Vhttp://dbpedia.org/ontology/areaWater
p173
ssg8
(dp174
Vdatatype
p175
Vhttp://www.w3.org/2001/XMLSchema#double
p176
sVtype
p177
Vtyped-literal
p178
sVvalue
p179
V2.20149e+07
p180
ssa(dp181
g7
(dp182
Vtype
p183
Vuri
p184
sVvalue
p185
Vhttp://dbpedia.org/ontology/elevation
p186
ssg8
(dp187
Vdatatype
p188
Vhttp://www.w3.org/2001/XMLSchema#double
p189
sVtype
p190
Vtyped-literal
p191
sVvalue
p192
V6.0
p193
ssa(dp194
g7
(dp195
Vtype
p196
Vuri
p197
sVvalue
p198
Vhttp://dbpedia.org/ontology/elevation
p199
ssg8
(dp200
Vdatatype
p201
Vhttp://www.w3.org/2001/XMLSchema#double
p202
sVtype
p203
Vtyped-literal
p204
sVvalue
p205
V6.096
p206
ssa(dp207
g7
(dp208
Vtype
p209
Vuri
p210
sVvalue
p211
Vhttp://dbpedia.org/ontology/leaderTitle
p212
ssg8
(dp213
Vxml:lang
p214
Ven
p215
sVtype
p216
Vliteral
p217
sVvalue
p218
VMayor
p219
ssa(dp220
g7
(dp221
Vtype
p222
Vuri
p223
sVvalue
p224
Vhttp://dbpedia.org/ontology/motto
p225
ssg8
(dp226
Vtype
p227
Vliteral
p228
sVvalue
p229
V"We have a great deal to offer!"
p230
ssa(dp231
g7
(dp232
Vtype
p233
Vuri
p234
sVvalue
p235
Vhttp://dbpedia.org/ontology/populationDensity
p236
ssg8
(dp237
Vdatatype
p238
Vhttp://www.w3.org/2001/XMLSchema#double
p239
sVtype
p240
Vtyped-literal
p241
sVvalue
p242
V450.0
p243
ssa(dp244
g7
(dp245
Vtype
p246
Vuri
p247
sVvalue
p248
Vhttp://dbpedia.org/ontology/populationMetro
p249
ssg8
(dp250
Vdatatype
p251
Vhttp://www.w3.org/2001/XMLSchema#nonNegativeInteger
p252
sVtype
p253
Vtyped-literal
p254
sVvalue
p255
V379582
p256
ssa(dp257
g7
(dp258
Vtype
p259
Vuri
p260
sVvalue
p261
Vhttp://dbpedia.org/ontology/populationTotal
p262
ssg8
(dp263
Vdatatype
p264
Vhttp://www.w3.org/2001/XMLSchema#nonNegativeInteger
p265
sVtype
p266
Vtyped-literal
p267
sVvalue
p268
V44578
p269
ssa(dp270
g7
(dp271
Vtype
p272
Vuri
p273
sVvalue
p274
Vhttp://dbpedia.org/ontology/postalCode
p275
ssg8
(dp276
Vtype
p277
Vliteral
p278
sVvalue
p279
V39530-39535, 39540
p280
ssa(dp281
g7
(dp282
Vtype
p283
Vuri
p284
sVvalue
p285
Vhttp://dbpedia.org/ontology/utcOffset
p286
ssg8
(dp287
Vtype
p288
Vliteral
p289
sVvalue
p290
V-5
p291
ssa(dp292
g7
(dp293
Vtype
p294
Vuri
p295
sVvalue
p296
Vhttp://dbpedia.org/ontology/utcOffset
p297
ssg8
(dp298
Vtype
p299
Vliteral
p300
sVvalue
p301
V-6
p302
ssa(dp303
g7
(dp304
Vtype
p305
Vuri
p306
sVvalue
p307
Vhttp://dbpedia.org/ontology/wikiPageExtracted
p308
ssg8
(dp309
Vdatatype
p310
Vhttp://www.w3.org/2001/XMLSchema#dateTime
p311
sVtype
p312
Vtyped-literal
p313
sVvalue
p314
V2016-10-28T05:14:32Z
p315
ssa(dp316
g7
(dp317
Vtype
p318
Vuri
p319
sVvalue
p320
Vhttp://dbpedia.org/ontology/wikiPageLength
p321
ssg8
(dp322
Vdatatype
p323
Vhttp://www.w3.org/2001/XMLSchema#nonNegativeInteger
p324
sVtype
p325
Vtyped-literal
p326
sVvalue
p327
V40100
p328
ssa(dp329
g7
(dp330
Vtype
p331
Vuri
p332
sVvalue
p333
Vhttp://dbpedia.org/ontology/wikiPageModified
p334
ssg8
(dp335
Vdatatype
p336
Vhttp://www.w3.org/2001/XMLSchema#dateTime
p337
sVtype
p338
Vtyped-literal
p339
sVvalue
p340
V2016-10-25T12:25:52Z
p341
ssa(dp342
g7
(dp343
Vtype
p344
Vuri
p345
sVvalue
p346
Vhttp://dbpedia.org/ontology/wikiPageOutDegree
p347
ssg8
(dp348
Vdatatype
p349
Vhttp://www.w3.org/2001/XMLSchema#nonNegativeInteger
p350
sVtype
p351
Vtyped-literal
p352
sVvalue
p353
V308
p354
ssasVordered
p355
I01
ss.