(dp0
Vhead
p1
(dp2
Vlink
p3
(lp4
sVvars
p5
(lp6
Vp
p7
aVo
p8
assVresults
p9
(dp10
Vdistinct
p11
I00
sVbindings
p12
(lp13
(dp14
g7
(dp15
Vtype
p16
Vuri
p17
sVvalue
p18
Vhttp://dbpedia.org/ontology/abstract
p19
ssg8
(dp20
Vxml:lang
p21
Ven
p22
sVtype
p23
Vliteral
p24
sVvalue
p25
VMinneapolis\u2013Saint Paul International Airport (IATA: MSP, ICAO: KMSP, FAA LID: MSP) is a joint civil-military public use international airport. Located in a portion of Hennepin County, Minnesota, United States, outside of any city or school district, within 10 miles (16 km) of both downtown Minneapolis and downtown Saint Paul, it is the largest and busiest airport in the six-state upper Midwest region of Minnesota, Iowa, Nebraska, North Dakota, South Dakota, and Wisconsin.
p26
ssa(dp27
g7
(dp28
Vtype
p29
Vuri
p30
sVvalue
p31
Vhttp://dbpedia.org/ontology/elevation
p32
ssg8
(dp33
Vdatatype
p34
Vhttp://www.w3.org/2001/XMLSchema#double
p35
sVtype
p36
Vtyped-literal
p37
sVvalue
p38
V256.0
p39
ssa(dp40
g7
(dp41
Vtype
p42
Vuri
p43
sVvalue
p44
Vhttp://dbpedia.org/ontology/elevation
p45
ssg8
(dp46
Vdatatype
p47
Vhttp://www.w3.org/2001/XMLSchema#double
p48
sVtype
p49
Vtyped-literal
p50
sVvalue
p51
V256.337
p52
ssa(dp53
g7
(dp54
Vtype
p55
Vuri
p56
sVvalue
p57
Vhttp://dbpedia.org/ontology/icaoLocationIdentifier
p58
ssg8
(dp59
Vtype
p60
Vliteral
p61
sVvalue
p62
VKMSP
p63
ssa(dp64
g7
(dp65
Vtype
p66
Vuri
p67
sVvalue
p68
Vhttp://dbpedia.org/ontology/runwayDesignation
p69
ssg8
(dp70
Vtype
p71
Vliteral
p72
sVvalue
p73
V12R/30L
p74
ssa(dp75
g7
(dp76
Vtype
p77
Vuri
p78
sVvalue
p79
Vhttp://dbpedia.org/ontology/runwayDesignation
p80
ssg8
(dp81
Vtype
p82
Vliteral
p83
sVvalue
p84
V17/35
p85
ssa(dp86
g7
(dp87
Vtype
p88
Vuri
p89
sVvalue
p90
Vhttp://dbpedia.org/ontology/runwayDesignation
p91
ssg8
(dp92
Vtype
p93
Vliteral
p94
sVvalue
p95
V12L/30R
p96
ssa(dp97
g7
(dp98
Vtype
p99
Vuri
p100
sVvalue
p101
Vhttp://dbpedia.org/ontology/runwayDesignation
p102
ssg8
(dp103
Vtype
p104
Vliteral
p105
sVvalue
p106
V4/22
p107
ssa(dp108
g7
(dp109
Vtype
p110
Vuri
p111
sVvalue
p112
Vhttp://dbpedia.org/ontology/runwayLength
p113
ssg8
(dp114
Vdatatype
p115
Vhttp://www.w3.org/2001/XMLSchema#double
p116
sVtype
p117
Vtyped-literal
p118
sVvalue
p119
V2438.0
p120
ssa(dp121
g7
(dp122
Vtype
p123
Vuri
p124
sVvalue
p125
Vhttp://dbpedia.org/ontology/runwayLength
p126
ssg8
(dp127
Vdatatype
p128
Vhttp://www.w3.org/2001/XMLSchema#double
p129
sVtype
p130
Vtyped-literal
p131
sVvalue
p132
V2438.4
p133
ssa(dp134
g7
(dp135
Vtype
p136
Vuri
p137
sVvalue
p138
Vhttp://dbpedia.org/ontology/runwayLength
p139
ssg8
(dp140
Vdatatype
p141
Vhttp://www.w3.org/2001/XMLSchema#double
p142
sVtype
p143
Vtyped-literal
p144
sVvalue
p145
V2499.0
p146
ssa(dp147
g7
(dp148
Vtype
p149
Vuri
p150
sVvalue
p151
Vhttp://dbpedia.org/ontology/runwayLength
p152
ssg8
(dp153
Vdatatype
p154
Vhttp://www.w3.org/2001/XMLSchema#double
p155
sVtype
p156
Vtyped-literal
p157
sVvalue
p158
V2499.36
p159
ssa(dp160
g7
(dp161
Vtype
p162
Vuri
p163
sVvalue
p164
Vhttp://dbpedia.org/ontology/runwayLength
p165
ssg8
(dp166
Vdatatype
p167
Vhttp://www.w3.org/2001/XMLSchema#double
p168
sVtype
p169
Vtyped-literal
p170
sVvalue
p171
V3048.0
p172
ssa(dp173
g7
(dp174
Vtype
p175
Vuri
p176
sVvalue
p177
Vhttp://dbpedia.org/ontology/runwayLength
p178
ssg8
(dp179
Vdatatype
p180
Vhttp://www.w3.org/2001/XMLSchema#double
p181
sVtype
p182
Vtyped-literal
p183
sVvalue
p184
V3354.63
p185
ssa(dp186
g7
(dp187
Vtype
p188
Vuri
p189
sVvalue
p190
Vhttp://dbpedia.org/ontology/runwayLength
p191
ssg8
(dp192
Vdatatype
p193
Vhttp://www.w3.org/2001/XMLSchema#double
p194
sVtype
p195
Vtyped-literal
p196
sVvalue
p197
V3355.0
p198
ssa(dp199
g7
(dp200
Vtype
p201
Vuri
p202
sVvalue
p203
Vhttp://dbpedia.org/ontology/runwaySurface
p204
ssg8
(dp205
Vtype
p206
Vliteral
p207
sVvalue
p208
VConcrete
p209
ssa(dp210
g7
(dp211
Vtype
p212
Vuri
p213
sVvalue
p214
Vhttp://dbpedia.org/ontology/wikiPageExtracted
p215
ssg8
(dp216
Vdatatype
p217
Vhttp://www.w3.org/2001/XMLSchema#dateTime
p218
sVtype
p219
Vtyped-literal
p220
sVvalue
p221
V2016-08-15T11:51:28Z
p222
ssa(dp223
g7
(dp224
Vtype
p225
Vuri
p226
sVvalue
p227
Vhttp://dbpedia.org/ontology/wikiPageExtracted
p228
ssg8
(dp229
Vdatatype
p230
Vhttp://www.w3.org/2001/XMLSchema#dateTime
p231
sVtype
p232
Vtyped-literal
p233
sVvalue
p234
V2016-11-03T07:15:53Z
p235
ssa(dp236
g7
(dp237
Vtype
p238
Vuri
p239
sVvalue
p240
Vhttp://dbpedia.org/ontology/wikiPageLength
p241
ssg8
(dp242
Vdatatype
p243
Vhttp://www.w3.org/2001/XMLSchema#nonNegativeInteger
p244
sVtype
p245
Vtyped-literal
p246
sVvalue
p247
V72586
p248
ssa(dp249
g7
(dp250
Vtype
p251
Vuri
p252
sVvalue
p253
Vhttp://dbpedia.org/ontology/wikiPageLength
p254
ssg8
(dp255
Vdatatype
p256
Vhttp://www.w3.org/2001/XMLSchema#nonNegativeInteger
p257
sVtype
p258
Vtyped-literal
p259
sVvalue
p260
V78382
p261
ssa(dp262
g7
(dp263
Vtype
p264
Vuri
p265
sVvalue
p266
Vhttp://dbpedia.org/ontology/wikiPageModified
p267
ssg8
(dp268
Vdatatype
p269
Vhttp://www.w3.org/2001/XMLSchema#dateTime
p270
sVtype
p271
Vtyped-literal
p272
sVvalue
p273
V2016-08-15T11:51:27Z
p274
ssa(dp275
g7
(dp276
Vtype
p277
Vuri
p278
sVvalue
p279
Vhttp://dbpedia.org/ontology/wikiPageModified
p280
ssg8
(dp281
Vdatatype
p282
Vhttp://www.w3.org/2001/XMLSchema#dateTime
p283
sVtype
p284
Vtyped-literal
p285
sVvalue
p286
V2016-11-01T14:47:49Z
p287
ssa(dp288
g7
(dp289
Vtype
p290
Vuri
p291
sVvalue
p292
Vhttp://dbpedia.org/ontology/wikiPageOutDegree
p293
ssg8
(dp294
Vdatatype
p295
Vhttp://www.w3.org/2001/XMLSchema#nonNegativeInteger
p296
sVtype
p297
Vtyped-literal
p298
sVvalue
p299
V745
p300
ssa(dp301
g7
(dp302
Vtype
p303
Vuri
p304
sVvalue
p305
Vhttp://dbpedia.org/ontology/wikiPageOutDegree
p306
ssg8
(dp307
Vdatatype
p308
Vhttp://www.w3.org/2001/XMLSchema#nonNegativeInteger
p309
sVtype
p310
Vtyped-literal
p311
sVvalue
p312
V796
p313
ssa(dp314
g7
(dp315
Vtype
p316
Vuri
p317
sVvalue
p318
Vhttp://dbpedia.org/ontology/iataLocationIdentifier
p319
ssg8
(dp320
Vtype
p321
Vliteral
p322
sVvalue
p323
VMSP
p324
ssa(dp325
g7
(dp326
Vtype
p327
Vuri
p328
sVvalue
p329
Vhttp://dbpedia.org/ontology/faaLocationIdentifier
p330
ssg8
(dp331
Vtype
p332
Vliteral
p333
sVvalue
p334
VMSP
p335
ssasVordered
p336
I01
ss.