(dp0
Vhead
p1
(dp2
Vlink
p3
(lp4
sVvars
p5
(lp6
Vp
p7
aVo
p8
assVresults
p9
(dp10
Vdistinct
p11
I00
sVbindings
p12
(lp13
(dp14
g7
(dp15
Vtype
p16
Vuri
p17
sVvalue
p18
Vhttp://dbpedia.org/ontology/abstract
p19
ssg8
(dp20
Vxml:lang
p21
Ven
p22
sVtype
p23
Vliteral
p24
sVvalue
p25
VBishop Eustace Preparatory School is a coeducational private high school in Pennsauken Township, New Jersey, which was founded in 1954 by the priests and brothers of the Society of the Catholic Apostolate (The Pallottines). The school was named after Bishop Bartholomew J. Eustace, first bishop of the Roman Catholic Diocese of Camden, where Pennsauken is located. The school is a coeducational institution (prior to 1972, it was all-male) serving students in ninth through twelfth grades. The school has been accredited by the Middle States Association of Colleges and Schools Commission on Secondary Schools since 1977.As of the 2013-14 school year, the school had an enrollment of 653 students and 48.9 classroom teachers (on an FTE basis), for a student\u2013teacher ratio of 13.4:1.The school is a member of the Association of Delaware Valley Independent Schools.
p26
ssa(dp27
g7
(dp28
Vtype
p29
Vuri
p30
sVvalue
p31
Vhttp://dbpedia.org/ontology/abstract
p32
ssg8
(dp33
Vxml:lang
p34
Ven
p35
sVtype
p36
Vliteral
p37
sVvalue
p38
VBishop Eustace Preparatory School is a coeducational private high school in Pennsauken Township, New Jersey, which was founded in 1954 by the priests and brothers of the Society of the Catholic Apostolate (The Pallottines). The school operates under the auspices of the Roman Catholic Diocese of Camden, was named after Bishop Bartholomew J. Eustace, first bishop of the diocese. The school is a coeducational institution (prior to 1972, it was all-male) serving students in ninth through twelfth grades. The school has been accredited by the Middle States Association of Colleges and Schools Commission on Secondary Schools since 1977.As of the 2013-14 school year, the school had an enrollment of 653 students and 48.9 classroom teachers (on an FTE basis), for a student\u2013teacher ratio of 13.4:1.The school is a member of the Association of Delaware Valley Independent Schools.
p39
ssa(dp40
g7
(dp41
Vtype
p42
Vuri
p43
sVvalue
p44
Vhttp://dbpedia.org/ontology/wikiPageExtracted
p45
ssg8
(dp46
Vdatatype
p47
Vhttp://www.w3.org/2001/XMLSchema#dateTime
p48
sVtype
p49
Vtyped-literal
p50
sVvalue
p51
V2016-10-28T05:41:35Z
p52
ssa(dp53
g7
(dp54
Vtype
p55
Vuri
p56
sVvalue
p57
Vhttp://dbpedia.org/ontology/wikiPageLength
p58
ssg8
(dp59
Vdatatype
p60
Vhttp://www.w3.org/2001/XMLSchema#nonNegativeInteger
p61
sVtype
p62
Vtyped-literal
p63
sVvalue
p64
V25013
p65
ssa(dp66
g7
(dp67
Vtype
p68
Vuri
p69
sVvalue
p70
Vhttp://dbpedia.org/ontology/wikiPageModified
p71
ssg8
(dp72
Vdatatype
p73
Vhttp://www.w3.org/2001/XMLSchema#dateTime
p74
sVtype
p75
Vtyped-literal
p76
sVvalue
p77
V2016-10-20T20:51:14Z
p78
ssa(dp79
g7
(dp80
Vtype
p81
Vuri
p82
sVvalue
p83
Vhttp://dbpedia.org/ontology/wikiPageOutDegree
p84
ssg8
(dp85
Vdatatype
p86
Vhttp://www.w3.org/2001/XMLSchema#nonNegativeInteger
p87
sVtype
p88
Vtyped-literal
p89
sVvalue
p90
V91
p91
ssasVordered
p92
I01
ss.