(dp0
Vhead
p1
(dp2
Vlink
p3
(lp4
sVvars
p5
(lp6
Vp
p7
aVo
p8
assVresults
p9
(dp10
Vdistinct
p11
I00
sVbindings
p12
(lp13
(dp14
g7
(dp15
Vtype
p16
Vuri
p17
sVvalue
p18
Vhttp://dbpedia.org/ontology/Person/weight
p19
ssg8
(dp20
Vdatatype
p21
Vhttp://dbpedia.org/datatype/kilogram
p22
sVtype
p23
Vtyped-literal
p24
sVvalue
p25
V86.184
p26
ssa(dp27
g7
(dp28
Vtype
p29
Vuri
p30
sVvalue
p31
Vhttp://dbpedia.org/ontology/abstract
p32
ssg8
(dp33
Vxml:lang
p34
Ven
p35
sVtype
p36
Vliteral
p37
sVvalue
p38
VSteven Donald Larmer (born June 16, 1961) is a retired Canadian professional ice hockey forward.Steve played in the NHL for the Chicago Blackhawks and New York Rangers. He won the 1983 Calder Memorial Trophy as well as being named to the NHL All-Rookie Team that year. From 1982\u20131993, Larmer played in 884 consecutive games for the Blackhawks, an NHL record for most consecutive games played with the same team, and the third longest consecutive-games streak in league history. He had a shot at breaking Doug Jarvis' record for consecutive games played but a contract dispute in 1994 officially ended his streak. Steve was selected to play in Pittsburgh in the 1990 All-Star Game, and in Chicago's 1991 All-Star Game as well. He won a Stanley Cup with the Rangers in 1994, where he served as assistant captain, and scored his 1000th point and played in his 1000th game in 1994\u201395, his final season.Larmer was a member of the 1991 Canada Cup team for Canada, where he led the entire competition in goals (6) and ranked second in points (11) behind only Wayne Gretzky.
p39
ssa(dp40
g7
(dp41
Vtype
p42
Vuri
p43
sVvalue
p44
Vhttp://dbpedia.org/ontology/abstract
p45
ssg8
(dp46
Vxml:lang
p47
Ven
p48
sVtype
p49
Vliteral
p50
sVvalue
p51
VSteven Donald Larmer (born June 16, 1961) is a retired Canadian professional ice hockey forward.Steve played in the NHL for the Chicago Blackhawks and New York Rangers. He won the 1983 Calder Memorial Trophy as well as being named to the NHL All-Rookie Team that year. From 1982\u20131993, Larmer played in 884 consecutive games for the Blackhawks, an NHL record for most consecutive games played with the same team, and the third longest consecutive-games streak in league history. He had a shot at breaking Doug Jarvis' record for consecutive games played but a contract dispute in 1994 officially ended his streak. Steve was selected to play in Pittsburgh in the 1990 All-Star Game, and in Chicago's 1991 All-Star Game as well. He won a Stanley Cup with the Rangers in 1994, where he served as alternate captain, and scored his 1000th point and played in his 1000th game in 1994\u201395, his final season.Larmer was a member of the 1991 Canada Cup team for Canada, where he led the entire competition in goals (6) and ranked second in points (11) behind only Wayne Gretzky.
p52
ssa(dp53
g7
(dp54
Vtype
p55
Vuri
p56
sVvalue
p57
Vhttp://dbpedia.org/ontology/activeYearsEndYear
p58
ssg8
(dp59
Vdatatype
p60
Vhttp://www.w3.org/2001/XMLSchema#gYear
p61
sVtype
p62
Vtyped-literal
p63
sVvalue
p64
V1995
p65
ssa(dp66
g7
(dp67
Vtype
p68
Vuri
p69
sVvalue
p70
Vhttp://dbpedia.org/ontology/activeYearsStartYear
p71
ssg8
(dp72
Vdatatype
p73
Vhttp://www.w3.org/2001/XMLSchema#gYear
p74
sVtype
p75
Vtyped-literal
p76
sVvalue
p77
V1980
p78
ssa(dp79
g7
(dp80
Vtype
p81
Vuri
p82
sVvalue
p83
Vhttp://dbpedia.org/ontology/birthDate
p84
ssg8
(dp85
Vdatatype
p86
Vhttp://www.w3.org/2001/XMLSchema#date
p87
sVtype
p88
Vtyped-literal
p89
sVvalue
p90
V1961-06-16
p91
ssa(dp92
g7
(dp93
Vtype
p94
Vuri
p95
sVvalue
p96
Vhttp://dbpedia.org/ontology/height
p97
ssg8
(dp98
Vdatatype
p99
Vhttp://www.w3.org/2001/XMLSchema#double
p100
sVtype
p101
Vtyped-literal
p102
sVvalue
p103
V1.778
p104
ssa(dp105
g7
(dp106
Vtype
p107
Vuri
p108
sVvalue
p109
Vhttp://dbpedia.org/ontology/weight
p110
ssg8
(dp111
Vdatatype
p112
Vhttp://www.w3.org/2001/XMLSchema#double
p113
sVtype
p114
Vtyped-literal
p115
sVvalue
p116
V86184.0
p117
ssa(dp118
g7
(dp119
Vtype
p120
Vuri
p121
sVvalue
p122
Vhttp://dbpedia.org/ontology/wikiPageExtracted
p123
ssg8
(dp124
Vdatatype
p125
Vhttp://www.w3.org/2001/XMLSchema#dateTime
p126
sVtype
p127
Vtyped-literal
p128
sVvalue
p129
V2016-11-06T09:21:59Z
p130
ssa(dp131
g7
(dp132
Vtype
p133
Vuri
p134
sVvalue
p135
Vhttp://dbpedia.org/ontology/wikiPageLength
p136
ssg8
(dp137
Vdatatype
p138
Vhttp://www.w3.org/2001/XMLSchema#nonNegativeInteger
p139
sVtype
p140
Vtyped-literal
p141
sVvalue
p142
V6279
p143
ssa(dp144
g7
(dp145
Vtype
p146
Vuri
p147
sVvalue
p148
Vhttp://dbpedia.org/ontology/wikiPageModified
p149
ssg8
(dp150
Vdatatype
p151
Vhttp://www.w3.org/2001/XMLSchema#dateTime
p152
sVtype
p153
Vtyped-literal
p154
sVvalue
p155
V2016-09-01T19:39:09Z
p156
ssa(dp157
g7
(dp158
Vtype
p159
Vuri
p160
sVvalue
p161
Vhttp://dbpedia.org/ontology/wikiPageOutDegree
p162
ssg8
(dp163
Vdatatype
p164
Vhttp://www.w3.org/2001/XMLSchema#nonNegativeInteger
p165
sVtype
p166
Vtyped-literal
p167
sVvalue
p168
V77
p169
ssa(dp170
g7
(dp171
Vtype
p172
Vuri
p173
sVvalue
p174
Vhttp://dbpedia.org/ontology/draft
p175
ssg8
(dp176
Vtype
p177
Vliteral
p178
sVvalue
p179
V120th overall
p180
ssa(dp181
g7
(dp182
Vtype
p183
Vuri
p184
sVvalue
p185
Vhttp://dbpedia.org/ontology/draftYear
p186
ssg8
(dp187
Vdatatype
p188
Vhttp://www.w3.org/2001/XMLSchema#gYear
p189
sVtype
p190
Vtyped-literal
p191
sVvalue
p192
V1980
p193
ssa(dp194
g7
(dp195
Vtype
p196
Vuri
p197
sVvalue
p198
Vhttp://dbpedia.org/ontology/shoots
p199
ssg8
(dp200
Vtype
p201
Vliteral
p202
sVvalue
p203
VLeft
p204
ssasVordered
p205
I01
ss.