(dp0
Vhead
p1
(dp2
Vlink
p3
(lp4
sVvars
p5
(lp6
Vp
p7
aVo
p8
assVresults
p9
(dp10
Vdistinct
p11
I00
sVbindings
p12
(lp13
(dp14
g7
(dp15
Vtype
p16
Vuri
p17
sVvalue
p18
Vhttp://dbpedia.org/ontology/PopulatedPlace/area
p19
ssg8
(dp20
Vdatatype
p21
Vhttp://dbpedia.org/datatype/squareKilometre
p22
sVtype
p23
Vtyped-literal
p24
sVvalue
p25
V1.0E-6
p26
ssa(dp27
g7
(dp28
Vtype
p29
Vuri
p30
sVvalue
p31
Vhttp://dbpedia.org/ontology/PopulatedPlace/areaTotal
p32
ssg8
(dp33
Vdatatype
p34
Vhttp://dbpedia.org/datatype/squareKilometre
p35
sVtype
p36
Vtyped-literal
p37
sVvalue
p38
V52.1
p39
ssa(dp40
g7
(dp41
Vtype
p42
Vuri
p43
sVvalue
p44
Vhttp://dbpedia.org/ontology/abstract
p45
ssg8
(dp46
Vxml:lang
p47
Ven
p48
sVtype
p49
Vliteral
p50
sVvalue
p51
VNew Haven (local /nu\u02d0 \u02c8he\u026av\u0259n/, noo-HAY-v\u0259n), in the U.S. state of Connecticut, is the principal municipality in Greater New Haven, which had a total population of 862,477 in 2010. It is located on New Haven Harbor on the northern shore of Long Island Sound in New Haven County, Connecticut, and is part of the New York metropolitan area. It is the second-largest city in Connecticut (after Bridgeport), with a population of 129,779 people as of the 2010 United States Census. According to a census of 1 July 2012, by the Census Bureau, the city had a population of 130,741.New Haven was founded in 1638 by English Puritans, and a year later eight streets were laid out in a four-by-four grid, creating what is now commonly known as the "Nine Square Plan", now recognized by the American Institute of Certified Planners as a National Planning Landmark. The central common block is New Haven Green, a 16-acre (6 ha) square, now a National Historic Landmark and the center of Downtown New Haven.New Haven is the home of Yale University. The university is an integral part of the city's economy, being New Haven's biggest taxpayer and employer. Health care (hospitals and biotechnology), professional services (legal, architectural, marketing, and engineering), financial services, and retail trade also help to form an economic base for the city.The city served as co-capital of Connecticut from 1701 until 1873, when sole governance was transferred to the more centrally located city of Hartford. New Haven has since billed itself as the "Cultural Capital of Connecticut" for its supply of established theaters, museums, and music venues.New Haven had the first public tree planting program in America, producing a canopy of mature trees (including some large elms) that gave New Haven the nickname "The Elm City".
p52
ssa(dp53
g7
(dp54
Vtype
p55
Vuri
p56
sVvalue
p57
Vhttp://dbpedia.org/ontology/area
p58
ssg8
(dp59
Vdatatype
p60
Vhttp://www.w3.org/2001/XMLSchema#double
p61
sVtype
p62
Vtyped-literal
p63
sVvalue
p64
VNAN
p65
ssa(dp66
g7
(dp67
Vtype
p68
Vuri
p69
sVvalue
p70
Vhttp://dbpedia.org/ontology/areaCode
p71
ssg8
(dp72
Vtype
p73
Vliteral
p74
sVvalue
p75
V203/475
p76
ssa(dp77
g7
(dp78
Vtype
p79
Vuri
p80
sVvalue
p81
Vhttp://dbpedia.org/ontology/areaLand
p82
ssg8
(dp83
Vdatatype
p84
Vhttp://www.w3.org/2001/XMLSchema#double
p85
sVtype
p86
Vtyped-literal
p87
sVvalue
p88
V4.84e+07
p89
ssa(dp90
g7
(dp91
Vtype
p92
Vuri
p93
sVvalue
p94
Vhttp://dbpedia.org/ontology/areaTotal
p95
ssg8
(dp96
Vdatatype
p97
Vhttp://www.w3.org/2001/XMLSchema#double
p98
sVtype
p99
Vtyped-literal
p100
sVvalue
p101
V5.21e+07
p102
ssa(dp103
g7
(dp104
Vtype
p105
Vuri
p106
sVvalue
p107
Vhttp://dbpedia.org/ontology/areaWater
p108
ssg8
(dp109
Vdatatype
p110
Vhttp://www.w3.org/2001/XMLSchema#double
p111
sVtype
p112
Vtyped-literal
p113
sVvalue
p114
V3.7e+06
p115
ssa(dp116
g7
(dp117
Vtype
p118
Vuri
p119
sVvalue
p120
Vhttp://dbpedia.org/ontology/elevation
p121
ssg8
(dp122
Vdatatype
p123
Vhttp://www.w3.org/2001/XMLSchema#double
p124
sVtype
p125
Vtyped-literal
p126
sVvalue
p127
V17.9832
p128
ssa(dp129
g7
(dp130
Vtype
p131
Vuri
p132
sVvalue
p133
Vhttp://dbpedia.org/ontology/elevation
p134
ssg8
(dp135
Vdatatype
p136
Vhttp://www.w3.org/2001/XMLSchema#double
p137
sVtype
p138
Vtyped-literal
p139
sVvalue
p140
V18.0
p141
ssa(dp142
g7
(dp143
Vtype
p144
Vuri
p145
sVvalue
p146
Vhttp://dbpedia.org/ontology/leaderTitle
p147
ssg8
(dp148
Vxml:lang
p149
Ven
p150
sVtype
p151
Vliteral
p152
sVvalue
p153
VMayor
p154
ssa(dp155
g7
(dp156
Vtype
p157
Vuri
p158
sVvalue
p159
Vhttp://dbpedia.org/ontology/populationMetro
p160
ssg8
(dp161
Vdatatype
p162
Vhttp://www.w3.org/2001/XMLSchema#nonNegativeInteger
p163
sVtype
p164
Vtyped-literal
p165
sVvalue
p166
V862477
p167
ssa(dp168
g7
(dp169
Vtype
p170
Vuri
p171
sVvalue
p172
Vhttp://dbpedia.org/ontology/populationTotal
p173
ssg8
(dp174
Vdatatype
p175
Vhttp://www.w3.org/2001/XMLSchema#nonNegativeInteger
p176
sVtype
p177
Vtyped-literal
p178
sVvalue
p179
V130741
p180
ssa(dp181
g7
(dp182
Vtype
p183
Vuri
p184
sVvalue
p185
Vhttp://dbpedia.org/ontology/postalCode
p186
ssg8
(dp187
Vtype
p188
Vliteral
p189
sVvalue
p190
V06501-06540
p191
ssa(dp192
g7
(dp193
Vtype
p194
Vuri
p195
sVvalue
p196
Vhttp://dbpedia.org/ontology/utcOffset
p197
ssg8
(dp198
Vtype
p199
Vliteral
p200
sVvalue
p201
V-4
p202
ssa(dp203
g7
(dp204
Vtype
p205
Vuri
p206
sVvalue
p207
Vhttp://dbpedia.org/ontology/utcOffset
p208
ssg8
(dp209
Vtype
p210
Vliteral
p211
sVvalue
p212
V-5
p213
ssa(dp214
g7
(dp215
Vtype
p216
Vuri
p217
sVvalue
p218
Vhttp://dbpedia.org/ontology/wikiPageExtracted
p219
ssg8
(dp220
Vdatatype
p221
Vhttp://www.w3.org/2001/XMLSchema#dateTime
p222
sVtype
p223
Vtyped-literal
p224
sVvalue
p225
V2016-11-03T18:59:41Z
p226
ssa(dp227
g7
(dp228
Vtype
p229
Vuri
p230
sVvalue
p231
Vhttp://dbpedia.org/ontology/wikiPageLength
p232
ssg8
(dp233
Vdatatype
p234
Vhttp://www.w3.org/2001/XMLSchema#nonNegativeInteger
p235
sVtype
p236
Vtyped-literal
p237
sVvalue
p238
V142248
p239
ssa(dp240
g7
(dp241
Vtype
p242
Vuri
p243
sVvalue
p244
Vhttp://dbpedia.org/ontology/wikiPageModified
p245
ssg8
(dp246
Vdatatype
p247
Vhttp://www.w3.org/2001/XMLSchema#dateTime
p248
sVtype
p249
Vtyped-literal
p250
sVvalue
p251
V2016-11-01T02:26:04Z
p252
ssa(dp253
g7
(dp254
Vtype
p255
Vuri
p256
sVvalue
p257
Vhttp://dbpedia.org/ontology/wikiPageOutDegree
p258
ssg8
(dp259
Vdatatype
p260
Vhttp://www.w3.org/2001/XMLSchema#nonNegativeInteger
p261
sVtype
p262
Vtyped-literal
p263
sVvalue
p264
V880
p265
ssasVordered
p266
I01
ss.