(dp0
Vhead
p1
(dp2
Vlink
p3
(lp4
sVvars
p5
(lp6
Vp
p7
aVo
p8
assVresults
p9
(dp10
Vdistinct
p11
I00
sVbindings
p12
(lp13
(dp14
g7
(dp15
Vtype
p16
Vuri
p17
sVvalue
p18
Vhttp://dbpedia.org/ontology/PopulatedPlace/area
p19
ssg8
(dp20
Vdatatype
p21
Vhttp://dbpedia.org/datatype/squareKilometre
p22
sVtype
p23
Vtyped-literal
p24
sVvalue
p25
V1.0E-6
p26
ssa(dp27
g7
(dp28
Vtype
p29
Vuri
p30
sVvalue
p31
Vhttp://dbpedia.org/ontology/PopulatedPlace/areaTotal
p32
ssg8
(dp33
Vdatatype
p34
Vhttp://dbpedia.org/datatype/squareKilometre
p35
sVtype
p36
Vtyped-literal
p37
sVvalue
p38
V40.1
p39
ssa(dp40
g7
(dp41
Vtype
p42
Vuri
p43
sVvalue
p44
Vhttp://dbpedia.org/ontology/PopulatedPlace/populationDensity
p45
ssg8
(dp46
Vdatatype
p47
Vhttp://dbpedia.org/datatype/inhabitantsPerSquareKilometre
p48
sVtype
p49
Vtyped-literal
p50
sVvalue
p51
V1581.3
p52
ssa(dp53
g7
(dp54
Vtype
p55
Vuri
p56
sVvalue
p57
Vhttp://dbpedia.org/ontology/PopulatedPlace/populationDensity
p58
ssg8
(dp59
Vdatatype
p60
Vhttp://dbpedia.org/datatype/inhabitantsPerSquareKilometre
p61
sVtype
p62
Vtyped-literal
p63
sVvalue
p64
V1591.3200464326908
p65
ssa(dp66
g7
(dp67
Vtype
p68
Vuri
p69
sVvalue
p70
Vhttp://dbpedia.org/ontology/PopulatedPlace/populationUrbanDensity
p71
ssg8
(dp72
Vdatatype
p73
Vhttp://dbpedia.org/datatype/inhabitantsPerSquareKilometre
p74
sVtype
p75
Vtyped-literal
p76
sVvalue
p77
V679.8486807615387
p78
ssa(dp79
g7
(dp80
Vtype
p81
Vuri
p82
sVvalue
p83
Vhttp://dbpedia.org/ontology/abstract
p84
ssg8
(dp85
Vxml:lang
p86
Ven
p87
sVtype
p88
Vliteral
p89
sVvalue
p90
VBurlington is the most populous city in the U.S. state of Vermont and the county seat of Chittenden County. The municipality is the center of the Burlington, Vermont metropolitan area and lies 45 miles (72 km) south of the Canada\u2013United States (Quebec\u2013Vermont) border and 94 miles (151 km) south of Montreal. The municipal population was 42,452 according to a 2015 U.S. census estimate. Burlington is the least populous city in the U.S. to be the most populous within a state.A regional college town, the city is home to the University of Vermont (UVM) and Champlain College, a small private college. Vermont's largest hospital, the UVM Medical Center, is located within the municipal limits. Burlington became the first city in the U.S. to run completely on renewable energy in 2015.
p91
ssa(dp92
g7
(dp93
Vtype
p94
Vuri
p95
sVvalue
p96
Vhttp://dbpedia.org/ontology/abstract
p97
ssg8
(dp98
Vxml:lang
p99
Ven
p100
sVtype
p101
Vliteral
p102
sVvalue
p103
VBurlington is the most populous city in the U.S. state of Vermont and the county seat of Chittenden County. It is located 45 miles (72 km) south of the Canada\u2013United States (Quebec\u2013Vermont) border and 94 miles (151 km) south of Montreal. The city's population was 42,452 according to a 2015 U.S. census estimate. Burlington is the least populous city in the U.S. to be the most populous within a state.A regional college town, the city is home to the University of Vermont (UVM) and Champlain College, a small private college. Vermont's largest hospital, the UVM Medical Center, is located within the municipal limits. In 2015, Burlington became the first city in the U.S. to run completely on renewable energy.
p104
ssa(dp105
g7
(dp106
Vtype
p107
Vuri
p108
sVvalue
p109
Vhttp://dbpedia.org/ontology/area
p110
ssg8
(dp111
Vdatatype
p112
Vhttp://www.w3.org/2001/XMLSchema#double
p113
sVtype
p114
Vtyped-literal
p115
sVvalue
p116
V1.0
p117
ssa(dp118
g7
(dp119
Vtype
p120
Vuri
p121
sVvalue
p122
Vhttp://dbpedia.org/ontology/areaCode
p123
ssg8
(dp124
Vtype
p125
Vliteral
p126
sVvalue
p127
V802
p128
ssa(dp129
g7
(dp130
Vtype
p131
Vuri
p132
sVvalue
p133
Vhttp://dbpedia.org/ontology/areaLand
p134
ssg8
(dp135
Vdatatype
p136
Vhttp://www.w3.org/2001/XMLSchema#double
p137
sVtype
p138
Vtyped-literal
p139
sVvalue
p140
V2.67e+07
p141
ssa(dp142
g7
(dp143
Vtype
p144
Vuri
p145
sVvalue
p146
Vhttp://dbpedia.org/ontology/areaTotal
p147
ssg8
(dp148
Vdatatype
p149
Vhttp://www.w3.org/2001/XMLSchema#double
p150
sVtype
p151
Vtyped-literal
p152
sVvalue
p153
V4.01e+07
p154
ssa(dp155
g7
(dp156
Vtype
p157
Vuri
p158
sVvalue
p159
Vhttp://dbpedia.org/ontology/areaWater
p160
ssg8
(dp161
Vdatatype
p162
Vhttp://www.w3.org/2001/XMLSchema#double
p163
sVtype
p164
Vtyped-literal
p165
sVvalue
p166
V1.34e+07
p167
ssa(dp168
g7
(dp169
Vtype
p170
Vuri
p171
sVvalue
p172
Vhttp://dbpedia.org/ontology/elevation
p173
ssg8
(dp174
Vdatatype
p175
Vhttp://www.w3.org/2001/XMLSchema#double
p176
sVtype
p177
Vtyped-literal
p178
sVvalue
p179
V60.96
p180
ssa(dp181
g7
(dp182
Vtype
p183
Vuri
p184
sVvalue
p185
Vhttp://dbpedia.org/ontology/elevation
p186
ssg8
(dp187
Vdatatype
p188
Vhttp://www.w3.org/2001/XMLSchema#double
p189
sVtype
p190
Vtyped-literal
p191
sVvalue
p192
V61.0
p193
ssa(dp194
g7
(dp195
Vtype
p196
Vuri
p197
sVvalue
p198
Vhttp://dbpedia.org/ontology/leaderTitle
p199
ssg8
(dp200
Vxml:lang
p201
Ven
p202
sVtype
p203
Vliteral
p204
sVvalue
p205
VMayor
p206
ssa(dp207
g7
(dp208
Vtype
p209
Vuri
p210
sVvalue
p211
Vhttp://dbpedia.org/ontology/populationDensity
p212
ssg8
(dp213
Vdatatype
p214
Vhttp://www.w3.org/2001/XMLSchema#double
p215
sVtype
p216
Vtyped-literal
p217
sVvalue
p218
V1581.3
p219
ssa(dp220
g7
(dp221
Vtype
p222
Vuri
p223
sVvalue
p224
Vhttp://dbpedia.org/ontology/populationDensity
p225
ssg8
(dp226
Vdatatype
p227
Vhttp://www.w3.org/2001/XMLSchema#double
p228
sVtype
p229
Vtyped-literal
p230
sVvalue
p231
V1591.32
p232
ssa(dp233
g7
(dp234
Vtype
p235
Vuri
p236
sVvalue
p237
Vhttp://dbpedia.org/ontology/populationMetro
p238
ssg8
(dp239
Vdatatype
p240
Vhttp://www.w3.org/2001/XMLSchema#nonNegativeInteger
p241
sVtype
p242
Vtyped-literal
p243
sVvalue
p244
V214796
p245
ssa(dp246
g7
(dp247
Vtype
p248
Vuri
p249
sVvalue
p250
Vhttp://dbpedia.org/ontology/populationTotal
p251
ssg8
(dp252
Vdatatype
p253
Vhttp://www.w3.org/2001/XMLSchema#nonNegativeInteger
p254
sVtype
p255
Vtyped-literal
p256
sVvalue
p257
V42417
p258
ssa(dp259
g7
(dp260
Vtype
p261
Vuri
p262
sVvalue
p263
Vhttp://dbpedia.org/ontology/populationUrban
p264
ssg8
(dp265
Vdatatype
p266
Vhttp://www.w3.org/2001/XMLSchema#nonNegativeInteger
p267
sVtype
p268
Vtyped-literal
p269
sVvalue
p270
V108740
p271
ssa(dp272
g7
(dp273
Vtype
p274
Vuri
p275
sVvalue
p276
Vhttp://dbpedia.org/ontology/populationUrbanDensity
p277
ssg8
(dp278
Vdatatype
p279
Vhttp://www.w3.org/2001/XMLSchema#double
p280
sVtype
p281
Vtyped-literal
p282
sVvalue
p283
V679.849
p284
ssa(dp285
g7
(dp286
Vtype
p287
Vuri
p288
sVvalue
p289
Vhttp://dbpedia.org/ontology/postalCode
p290
ssg8
(dp291
Vtype
p292
Vliteral
p293
sVvalue
p294
V05401\u201305402, 05405\u201305406, 05408
p295
ssa(dp296
g7
(dp297
Vtype
p298
Vuri
p299
sVvalue
p300
Vhttp://dbpedia.org/ontology/utcOffset
p301
ssg8
(dp302
Vtype
p303
Vliteral
p304
sVvalue
p305
V-4
p306
ssa(dp307
g7
(dp308
Vtype
p309
Vuri
p310
sVvalue
p311
Vhttp://dbpedia.org/ontology/utcOffset
p312
ssg8
(dp313
Vtype
p314
Vliteral
p315
sVvalue
p316
V-5
p317
ssa(dp318
g7
(dp319
Vtype
p320
Vuri
p321
sVvalue
p322
Vhttp://dbpedia.org/ontology/wikiPageExtracted
p323
ssg8
(dp324
Vdatatype
p325
Vhttp://www.w3.org/2001/XMLSchema#dateTime
p326
sVtype
p327
Vtyped-literal
p328
sVvalue
p329
V2016-10-28T12:34:08Z
p330
ssa(dp331
g7
(dp332
Vtype
p333
Vuri
p334
sVvalue
p335
Vhttp://dbpedia.org/ontology/wikiPageLength
p336
ssg8
(dp337
Vdatatype
p338
Vhttp://www.w3.org/2001/XMLSchema#nonNegativeInteger
p339
sVtype
p340
Vtyped-literal
p341
sVvalue
p342
V69441
p343
ssa(dp344
g7
(dp345
Vtype
p346
Vuri
p347
sVvalue
p348
Vhttp://dbpedia.org/ontology/wikiPageModified
p349
ssg8
(dp350
Vdatatype
p351
Vhttp://www.w3.org/2001/XMLSchema#dateTime
p352
sVtype
p353
Vtyped-literal
p354
sVvalue
p355
V2016-10-22T04:35:24Z
p356
ssa(dp357
g7
(dp358
Vtype
p359
Vuri
p360
sVvalue
p361
Vhttp://dbpedia.org/ontology/wikiPageOutDegree
p362
ssg8
(dp363
Vdatatype
p364
Vhttp://www.w3.org/2001/XMLSchema#nonNegativeInteger
p365
sVtype
p366
Vtyped-literal
p367
sVvalue
p368
V425
p369
ssasVordered
p370
I01
ss.