(dp0
Vhead
p1
(dp2
Vlink
p3
(lp4
sVvars
p5
(lp6
Vp
p7
aVo
p8
assVresults
p9
(dp10
Vdistinct
p11
I00
sVbindings
p12
(lp13
(dp14
g7
(dp15
Vtype
p16
Vuri
p17
sVvalue
p18
Vhttp://dbpedia.org/ontology/PopulatedPlace/areaTotal
p19
ssg8
(dp20
Vdatatype
p21
Vhttp://dbpedia.org/datatype/squareKilometre
p22
sVtype
p23
Vtyped-literal
p24
sVvalue
p25
V18.9069132054528
p26
ssa(dp27
g7
(dp28
Vtype
p29
Vuri
p30
sVvalue
p31
Vhttp://dbpedia.org/ontology/PopulatedPlace/areaTotal
p32
ssg8
(dp33
Vdatatype
p34
Vhttp://dbpedia.org/datatype/squareKilometre
p35
sVtype
p36
Vtyped-literal
p37
sVvalue
p38
V19.1
p39
ssa(dp40
g7
(dp41
Vtype
p42
Vuri
p43
sVvalue
p44
Vhttp://dbpedia.org/ontology/PopulatedPlace/populationDensity
p45
ssg8
(dp46
Vdatatype
p47
Vhttp://dbpedia.org/datatype/inhabitantsPerSquareKilometre
p48
sVtype
p49
Vtyped-literal
p50
sVvalue
p51
V104.5
p52
ssa(dp53
g7
(dp54
Vtype
p55
Vuri
p56
sVvalue
p57
Vhttp://dbpedia.org/ontology/PopulatedPlace/populationDensity
p58
ssg8
(dp59
Vdatatype
p60
Vhttp://dbpedia.org/datatype/inhabitantsPerSquareKilometre
p61
sVtype
p62
Vtyped-literal
p63
sVvalue
p64
V105.36727906623348
p65
ssa(dp66
g7
(dp67
Vtype
p68
Vuri
p69
sVvalue
p70
Vhttp://dbpedia.org/ontology/abstract
p71
ssg8
(dp72
Vxml:lang
p73
Ven
p74
sVtype
p75
Vliteral
p76
sVvalue
p77
VAshland is a town and former city in Clay County, Alabama, United States. The population was 2,037 at the 2010 census. The town is the county seat of Clay County.
p78
ssa(dp79
g7
(dp80
Vtype
p81
Vuri
p82
sVvalue
p83
Vhttp://dbpedia.org/ontology/areaCode
p84
ssg8
(dp85
Vtype
p86
Vliteral
p87
sVvalue
p88
V256
p89
ssa(dp90
g7
(dp91
Vtype
p92
Vuri
p93
sVvalue
p94
Vhttp://dbpedia.org/ontology/areaLand
p95
ssg8
(dp96
Vdatatype
p97
Vhttp://www.w3.org/2001/XMLSchema#double
p98
sVtype
p99
Vtyped-literal
p100
sVvalue
p101
V1.89069e+07
p102
ssa(dp103
g7
(dp104
Vtype
p105
Vuri
p106
sVvalue
p107
Vhttp://dbpedia.org/ontology/areaLand
p108
ssg8
(dp109
Vdatatype
p110
Vhttp://www.w3.org/2001/XMLSchema#double
p111
sVtype
p112
Vtyped-literal
p113
sVvalue
p114
V1.9e+07
p115
ssa(dp116
g7
(dp117
Vtype
p118
Vuri
p119
sVvalue
p120
Vhttp://dbpedia.org/ontology/areaTotal
p121
ssg8
(dp122
Vdatatype
p123
Vhttp://www.w3.org/2001/XMLSchema#double
p124
sVtype
p125
Vtyped-literal
p126
sVvalue
p127
V1.89069e+07
p128
ssa(dp129
g7
(dp130
Vtype
p131
Vuri
p132
sVvalue
p133
Vhttp://dbpedia.org/ontology/areaTotal
p134
ssg8
(dp135
Vdatatype
p136
Vhttp://www.w3.org/2001/XMLSchema#double
p137
sVtype
p138
Vtyped-literal
p139
sVvalue
p140
V1.91e+07
p141
ssa(dp142
g7
(dp143
Vtype
p144
Vuri
p145
sVvalue
p146
Vhttp://dbpedia.org/ontology/areaWater
p147
ssg8
(dp148
Vdatatype
p149
Vhttp://www.w3.org/2001/XMLSchema#double
p150
sVtype
p151
Vtyped-literal
p152
sVvalue
p153
V0.0
p154
ssa(dp155
g7
(dp156
Vtype
p157
Vuri
p158
sVvalue
p159
Vhttp://dbpedia.org/ontology/areaWater
p160
ssg8
(dp161
Vdatatype
p162
Vhttp://www.w3.org/2001/XMLSchema#double
p163
sVtype
p164
Vtyped-literal
p165
sVvalue
p166
V100000.0
p167
ssa(dp168
g7
(dp169
Vtype
p170
Vuri
p171
sVvalue
p172
Vhttp://dbpedia.org/ontology/elevation
p173
ssg8
(dp174
Vdatatype
p175
Vhttp://www.w3.org/2001/XMLSchema#double
p176
sVtype
p177
Vtyped-literal
p178
sVvalue
p179
V341.0
p180
ssa(dp181
g7
(dp182
Vtype
p183
Vuri
p184
sVvalue
p185
Vhttp://dbpedia.org/ontology/elevation
p186
ssg8
(dp187
Vdatatype
p188
Vhttp://www.w3.org/2001/XMLSchema#double
p189
sVtype
p190
Vtyped-literal
p191
sVvalue
p192
V341.071
p193
ssa(dp194
g7
(dp195
Vtype
p196
Vuri
p197
sVvalue
p198
Vhttp://dbpedia.org/ontology/leaderTitle
p199
ssg8
(dp200
Vxml:lang
p201
Ven
p202
sVtype
p203
Vliteral
p204
sVvalue
p205
VMayor
p206
ssa(dp207
g7
(dp208
Vtype
p209
Vuri
p210
sVvalue
p211
Vhttp://dbpedia.org/ontology/populationDensity
p212
ssg8
(dp213
Vdatatype
p214
Vhttp://www.w3.org/2001/XMLSchema#double
p215
sVtype
p216
Vtyped-literal
p217
sVvalue
p218
V104.5
p219
ssa(dp220
g7
(dp221
Vtype
p222
Vuri
p223
sVvalue
p224
Vhttp://dbpedia.org/ontology/populationDensity
p225
ssg8
(dp226
Vdatatype
p227
Vhttp://www.w3.org/2001/XMLSchema#double
p228
sVtype
p229
Vtyped-literal
p230
sVvalue
p231
V105.367
p232
ssa(dp233
g7
(dp234
Vtype
p235
Vuri
p236
sVvalue
p237
Vhttp://dbpedia.org/ontology/populationTotal
p238
ssg8
(dp239
Vdatatype
p240
Vhttp://www.w3.org/2001/XMLSchema#nonNegativeInteger
p241
sVtype
p242
Vtyped-literal
p243
sVvalue
p244
V2037
p245
ssa(dp246
g7
(dp247
Vtype
p248
Vuri
p249
sVvalue
p250
Vhttp://dbpedia.org/ontology/postalCode
p251
ssg8
(dp252
Vtype
p253
Vliteral
p254
sVvalue
p255
V36251
p256
ssa(dp257
g7
(dp258
Vtype
p259
Vuri
p260
sVvalue
p261
Vhttp://dbpedia.org/ontology/utcOffset
p262
ssg8
(dp263
Vtype
p264
Vliteral
p265
sVvalue
p266
V-5
p267
ssa(dp268
g7
(dp269
Vtype
p270
Vuri
p271
sVvalue
p272
Vhttp://dbpedia.org/ontology/utcOffset
p273
ssg8
(dp274
Vtype
p275
Vliteral
p276
sVvalue
p277
V-6
p278
ssa(dp279
g7
(dp280
Vtype
p281
Vuri
p282
sVvalue
p283
Vhttp://dbpedia.org/ontology/wikiPageExtracted
p284
ssg8
(dp285
Vdatatype
p286
Vhttp://www.w3.org/2001/XMLSchema#dateTime
p287
sVtype
p288
Vtyped-literal
p289
sVvalue
p290
V2016-10-27T17:55:47Z
p291
ssa(dp292
g7
(dp293
Vtype
p294
Vuri
p295
sVvalue
p296
Vhttp://dbpedia.org/ontology/wikiPageLength
p297
ssg8
(dp298
Vdatatype
p299
Vhttp://www.w3.org/2001/XMLSchema#nonNegativeInteger
p300
sVtype
p301
Vtyped-literal
p302
sVvalue
p303
V15478
p304
ssa(dp305
g7
(dp306
Vtype
p307
Vuri
p308
sVvalue
p309
Vhttp://dbpedia.org/ontology/wikiPageModified
p310
ssg8
(dp311
Vdatatype
p312
Vhttp://www.w3.org/2001/XMLSchema#dateTime
p313
sVtype
p314
Vtyped-literal
p315
sVvalue
p316
V2016-10-19T14:57:46Z
p317
ssa(dp318
g7
(dp319
Vtype
p320
Vuri
p321
sVvalue
p322
Vhttp://dbpedia.org/ontology/wikiPageOutDegree
p323
ssg8
(dp324
Vdatatype
p325
Vhttp://www.w3.org/2001/XMLSchema#nonNegativeInteger
p326
sVtype
p327
Vtyped-literal
p328
sVvalue
p329
V60
p330
ssasVordered
p331
I01
ss.