(dp0
Vhead
p1
(dp2
Vlink
p3
(lp4
sVvars
p5
(lp6
Vp
p7
aVo
p8
assVresults
p9
(dp10
Vdistinct
p11
I00
sVbindings
p12
(lp13
(dp14
g7
(dp15
Vtype
p16
Vuri
p17
sVvalue
p18
Vhttp://dbpedia.org/ontology/abstract
p19
ssg8
(dp20
Vxml:lang
p21
Ven
p22
sVtype
p23
Vliteral
p24
sVvalue
p25
VThe 2014\u201315 UEFA Youth League was the second season of the UEFA Youth League, a European youth club football competition organised by UEFA. It was contested by the under-19 youth teams of the 32 clubs qualified for the group stage of the 2014\u201315 UEFA Champions League.The final was played on 13 April 2015 at the Colovray Stadium in Nyon, Switzerland, between Shakhtar Donetsk and Chelsea. Chelsea won 3\u20132 and secured their first title in the competition. Barcelona were the title holders, but were eliminated by Anderlecht in the round of 16.
p26
ssa(dp27
g7
(dp28
Vtype
p29
Vuri
p30
sVvalue
p31
Vhttp://dbpedia.org/ontology/wikiPageExtracted
p32
ssg8
(dp33
Vdatatype
p34
Vhttp://www.w3.org/2001/XMLSchema#dateTime
p35
sVtype
p36
Vtyped-literal
p37
sVvalue
p38
V2016-09-04T02:18:56Z
p39
ssa(dp40
g7
(dp41
Vtype
p42
Vuri
p43
sVvalue
p44
Vhttp://dbpedia.org/ontology/wikiPageExtracted
p45
ssg8
(dp46
Vdatatype
p47
Vhttp://www.w3.org/2001/XMLSchema#dateTime
p48
sVtype
p49
Vtyped-literal
p50
sVvalue
p51
V2016-10-19T18:50:29Z
p52
ssa(dp53
g7
(dp54
Vtype
p55
Vuri
p56
sVvalue
p57
Vhttp://dbpedia.org/ontology/wikiPageExtracted
p58
ssg8
(dp59
Vdatatype
p60
Vhttp://www.w3.org/2001/XMLSchema#dateTime
p61
sVtype
p62
Vtyped-literal
p63
sVvalue
p64
V2016-10-26T09:38:22Z
p65
ssa(dp66
g7
(dp67
Vtype
p68
Vuri
p69
sVvalue
p70
Vhttp://dbpedia.org/ontology/wikiPageExtracted
p71
ssg8
(dp72
Vdatatype
p73
Vhttp://www.w3.org/2001/XMLSchema#dateTime
p74
sVtype
p75
Vtyped-literal
p76
sVvalue
p77
V2016-10-26T20:34:37Z
p78
ssa(dp79
g7
(dp80
Vtype
p81
Vuri
p82
sVvalue
p83
Vhttp://dbpedia.org/ontology/wikiPageLength
p84
ssg8
(dp85
Vdatatype
p86
Vhttp://www.w3.org/2001/XMLSchema#nonNegativeInteger
p87
sVtype
p88
Vtyped-literal
p89
sVvalue
p90
V103017
p91
ssa(dp92
g7
(dp93
Vtype
p94
Vuri
p95
sVvalue
p96
Vhttp://dbpedia.org/ontology/wikiPageLength
p97
ssg8
(dp98
Vdatatype
p99
Vhttp://www.w3.org/2001/XMLSchema#nonNegativeInteger
p100
sVtype
p101
Vtyped-literal
p102
sVvalue
p103
V103047
p104
ssa(dp105
g7
(dp106
Vtype
p107
Vuri
p108
sVvalue
p109
Vhttp://dbpedia.org/ontology/wikiPageModified
p110
ssg8
(dp111
Vdatatype
p112
Vhttp://www.w3.org/2001/XMLSchema#dateTime
p113
sVtype
p114
Vtyped-literal
p115
sVvalue
p116
V2016-05-24T00:10:20Z
p117
ssa(dp118
g7
(dp119
Vtype
p120
Vuri
p121
sVvalue
p122
Vhttp://dbpedia.org/ontology/wikiPageModified
p123
ssg8
(dp124
Vdatatype
p125
Vhttp://www.w3.org/2001/XMLSchema#dateTime
p126
sVtype
p127
Vtyped-literal
p128
sVvalue
p129
V2016-10-19T13:03:08Z
p130
ssa(dp131
g7
(dp132
Vtype
p133
Vuri
p134
sVvalue
p135
Vhttp://dbpedia.org/ontology/wikiPageOutDegree
p136
ssg8
(dp137
Vdatatype
p138
Vhttp://www.w3.org/2001/XMLSchema#nonNegativeInteger
p139
sVtype
p140
Vtyped-literal
p141
sVvalue
p142
V1305
p143
ssa(dp144
g7
(dp145
Vtype
p146
Vuri
p147
sVvalue
p148
Vhttp://dbpedia.org/ontology/wikiPageOutDegree
p149
ssg8
(dp150
Vdatatype
p151
Vhttp://www.w3.org/2001/XMLSchema#nonNegativeInteger
p152
sVtype
p153
Vtyped-literal
p154
sVvalue
p155
V1306
p156
ssa(dp157
g7
(dp158
Vtype
p159
Vuri
p160
sVvalue
p161
Vhttp://dbpedia.org/ontology/time
p162
ssg8
(dp163
Vtype
p164
Vliteral
p165
sVvalue
p166
V15:30
p167
ssa(dp168
g7
(dp169
Vtype
p170
Vuri
p171
sVvalue
p172
Vhttp://dbpedia.org/ontology/time
p173
ssg8
(dp174
Vtype
p175
Vliteral
p176
sVvalue
p177
V20:00
p178
ssa(dp179
g7
(dp180
Vtype
p181
Vuri
p182
sVvalue
p183
Vhttp://dbpedia.org/ontology/time
p184
ssg8
(dp185
Vtype
p186
Vliteral
p187
sVvalue
p188
V12:00
p189
ssa(dp190
g7
(dp191
Vtype
p192
Vuri
p193
sVvalue
p194
Vhttp://dbpedia.org/ontology/time
p195
ssg8
(dp196
Vtype
p197
Vliteral
p198
sVvalue
p199
V13:00
p200
ssa(dp201
g7
(dp202
Vtype
p203
Vuri
p204
sVvalue
p205
Vhttp://dbpedia.org/ontology/time
p206
ssg8
(dp207
Vtype
p208
Vliteral
p209
sVvalue
p210
V16:00
p211
ssa(dp212
g7
(dp213
Vtype
p214
Vuri
p215
sVvalue
p216
Vhttp://dbpedia.org/ontology/time
p217
ssg8
(dp218
Vtype
p219
Vliteral
p220
sVvalue
p221
V17:00
p222
ssa(dp223
g7
(dp224
Vtype
p225
Vuri
p226
sVvalue
p227
Vhttp://dbpedia.org/ontology/time
p228
ssg8
(dp229
Vtype
p230
Vliteral
p231
sVvalue
p232
V13:30
p233
ssa(dp234
g7
(dp235
Vtype
p236
Vuri
p237
sVvalue
p238
Vhttp://dbpedia.org/ontology/time
p239
ssg8
(dp240
Vtype
p241
Vliteral
p242
sVvalue
p243
V14:30
p244
ssa(dp245
g7
(dp246
Vtype
p247
Vuri
p248
sVvalue
p249
Vhttp://dbpedia.org/ontology/time
p250
ssg8
(dp251
Vtype
p252
Vliteral
p253
sVvalue
p254
V15:00
p255
ssa(dp256
g7
(dp257
Vtype
p258
Vuri
p259
sVvalue
p260
Vhttp://dbpedia.org/ontology/time
p261
ssg8
(dp262
Vtype
p263
Vliteral
p264
sVvalue
p265
V17:15
p266
ssa(dp267
g7
(dp268
Vtype
p269
Vuri
p270
sVvalue
p271
Vhttp://dbpedia.org/ontology/time
p272
ssg8
(dp273
Vtype
p274
Vliteral
p275
sVvalue
p276
V18:00
p277
ssa(dp278
g7
(dp279
Vtype
p280
Vuri
p281
sVvalue
p282
Vhttp://dbpedia.org/ontology/time
p283
ssg8
(dp284
Vtype
p285
Vliteral
p286
sVvalue
p287
V18:30
p288
ssa(dp289
g7
(dp290
Vtype
p291
Vuri
p292
sVvalue
p293
Vhttp://dbpedia.org/ontology/time
p294
ssg8
(dp295
Vtype
p296
Vliteral
p297
sVvalue
p298
V19:00
p299
ssa(dp300
g7
(dp301
Vtype
p302
Vuri
p303
sVvalue
p304
Vhttp://dbpedia.org/ontology/time
p305
ssg8
(dp306
Vtype
p307
Vliteral
p308
sVvalue
p309
V20:45
p310
ssa(dp311
g7
(dp312
Vtype
p313
Vuri
p314
sVvalue
p315
Vhttp://dbpedia.org/ontology/time
p316
ssg8
(dp317
Vtype
p318
Vliteral
p319
sVvalue
p320
V10:00
p321
ssa(dp322
g7
(dp323
Vtype
p324
Vuri
p325
sVvalue
p326
Vhttp://dbpedia.org/ontology/time
p327
ssg8
(dp328
Vtype
p329
Vliteral
p330
sVvalue
p331
V14:00
p332
ssa(dp333
g7
(dp334
Vtype
p335
Vuri
p336
sVvalue
p337
Vhttp://dbpedia.org/ontology/time
p338
ssg8
(dp339
Vtype
p340
Vliteral
p341
sVvalue
p342
V11:00
p343
ssa(dp344
g7
(dp345
Vtype
p346
Vuri
p347
sVvalue
p348
Vhttp://dbpedia.org/ontology/time
p349
ssg8
(dp350
Vtype
p351
Vliteral
p352
sVvalue
p353
V11:30
p354
ssa(dp355
g7
(dp356
Vtype
p357
Vuri
p358
sVvalue
p359
Vhttp://dbpedia.org/ontology/time
p360
ssg8
(dp361
Vtype
p362
Vliteral
p363
sVvalue
p364
V14:05
p365
ssasVordered
p366
I01
ss.