(dp0
Vhead
p1
(dp2
Vlink
p3
(lp4
sVvars
p5
(lp6
Vp
p7
aVo
p8
assVresults
p9
(dp10
Vdistinct
p11
I00
sVbindings
p12
(lp13
(dp14
g7
(dp15
Vtype
p16
Vuri
p17
sVvalue
p18
Vhttp://dbpedia.org/ontology/Work/runtime
p19
ssg8
(dp20
Vdatatype
p21
Vhttp://dbpedia.org/datatype/minute
p22
sVtype
p23
Vtyped-literal
p24
sVvalue
p25
V4.416666666666667
p26
ssa(dp27
g7
(dp28
Vtype
p29
Vuri
p30
sVvalue
p31
Vhttp://dbpedia.org/ontology/Work/runtime
p32
ssg8
(dp33
Vdatatype
p34
Vhttp://dbpedia.org/datatype/minute
p35
sVtype
p36
Vtyped-literal
p37
sVvalue
p38
V6.166666666666667
p39
ssa(dp40
g7
(dp41
Vtype
p42
Vuri
p43
sVvalue
p44
Vhttp://dbpedia.org/ontology/Work/runtime
p45
ssg8
(dp46
Vdatatype
p47
Vhttp://dbpedia.org/datatype/minute
p48
sVtype
p49
Vtyped-literal
p50
sVvalue
p51
V5.533333333333333
p52
ssa(dp53
g7
(dp54
Vtype
p55
Vuri
p56
sVvalue
p57
Vhttp://dbpedia.org/ontology/Work/runtime
p58
ssg8
(dp59
Vdatatype
p60
Vhttp://dbpedia.org/datatype/minute
p61
sVtype
p62
Vtyped-literal
p63
sVvalue
p64
V6.683333333333334
p65
ssa(dp66
g7
(dp67
Vtype
p68
Vuri
p69
sVvalue
p70
Vhttp://dbpedia.org/ontology/abstract
p71
ssg8
(dp72
Vxml:lang
p73
Ven
p74
sVtype
p75
Vliteral
p76
sVvalue
p77
V"Isn't Life Strange" is a 1972 single by the English progressive rock band The Moody Blues, which was based on Pachelbel's Canon In D. Written by bassist John Lodge, it was the first of two singles released from their 1972 album Seventh Sojourn, with the other being "I'm Just a Singer (In a Rock and Roll Band)" (also written by Lodge). "Isn't Life Strange" is one of the Moody Blues' longer songs, lasting for over six minutes."Isn't Life Strange" opens with a slow duet of the flute (played by Ray Thomas) and a pump organ, otherwise known as a harmonium (played by Mike Pinder), with John Lodge and Justin Hayward providing vocals. The song's chorus features the band's traditional line-up, and vocals provided by Hayward, Lodge, Pinder, and Thomas.When the Moody Blues perform "Isn't Life Strange" live, John Lodge uses a double neck guitar with a standard 6-string on one neck, and a 4-string bass on the other. He uses this since he generally plays the 6-string guitar during the verses, and the bass during the chorus since Justin Hayward takes over electric guitar during the chorus. Also, whenever the Moody Blues perform live backed by a full orchestra, the orchestra's brass section performs a solo of the chorus twice throughout the song, once in the middle, and once at the end.The original version of "Isn't Life Strange" is extended by two minutes and includes a slow instrumental duet of Ray Thomas' flute and Mike Pinder's Chamberlin which was deleted, possibly due to time restraints. For the re-issue of "Seventh Sojourn" this version has been restored and added as a bonus track."Isn't Life Strange" is one of the Moody Blues' most popular songs, and has been included in virtually all of their compilation and live albums. In addition, the song was re-recorded (along with "Question") in the studio with the London Symphony Orchestra in 1988, for the Greatest Hits album.
p78
ssa(dp79
g7
(dp80
Vtype
p81
Vuri
p82
sVvalue
p83
Vhttp://dbpedia.org/ontology/releaseDate
p84
ssg8
(dp85
Vdatatype
p86
Vhttp://www.w3.org/2001/XMLSchema#date
p87
sVtype
p88
Vtyped-literal
p89
sVvalue
p90
V1972-04-21
p91
ssa(dp92
g7
(dp93
Vtype
p94
Vuri
p95
sVvalue
p96
Vhttp://dbpedia.org/ontology/releaseDate
p97
ssg8
(dp98
Vdatatype
p99
Vhttp://www.w3.org/2001/XMLSchema#date
p100
sVtype
p101
Vtyped-literal
p102
sVvalue
p103
V1989-11-21
p104
ssa(dp105
g7
(dp106
Vtype
p107
Vuri
p108
sVvalue
p109
Vhttp://dbpedia.org/ontology/runtime
p110
ssg8
(dp111
Vdatatype
p112
Vhttp://www.w3.org/2001/XMLSchema#double
p113
sVtype
p114
Vtyped-literal
p115
sVvalue
p116
V265.0
p117
ssa(dp118
g7
(dp119
Vtype
p120
Vuri
p121
sVvalue
p122
Vhttp://dbpedia.org/ontology/runtime
p123
ssg8
(dp124
Vdatatype
p125
Vhttp://www.w3.org/2001/XMLSchema#double
p126
sVtype
p127
Vtyped-literal
p128
sVvalue
p129
V332.0
p130
ssa(dp131
g7
(dp132
Vtype
p133
Vuri
p134
sVvalue
p135
Vhttp://dbpedia.org/ontology/runtime
p136
ssg8
(dp137
Vdatatype
p138
Vhttp://www.w3.org/2001/XMLSchema#double
p139
sVtype
p140
Vtyped-literal
p141
sVvalue
p142
V370.0
p143
ssa(dp144
g7
(dp145
Vtype
p146
Vuri
p147
sVvalue
p148
Vhttp://dbpedia.org/ontology/runtime
p149
ssg8
(dp150
Vdatatype
p151
Vhttp://www.w3.org/2001/XMLSchema#double
p152
sVtype
p153
Vtyped-literal
p154
sVvalue
p155
V401.0
p156
ssa(dp157
g7
(dp158
Vtype
p159
Vuri
p160
sVvalue
p161
Vhttp://dbpedia.org/ontology/wikiPageExtracted
p162
ssg8
(dp163
Vdatatype
p164
Vhttp://www.w3.org/2001/XMLSchema#dateTime
p165
sVtype
p166
Vtyped-literal
p167
sVvalue
p168
V2016-11-01T00:42:54Z
p169
ssa(dp170
g7
(dp171
Vtype
p172
Vuri
p173
sVvalue
p174
Vhttp://dbpedia.org/ontology/wikiPageLength
p175
ssg8
(dp176
Vdatatype
p177
Vhttp://www.w3.org/2001/XMLSchema#nonNegativeInteger
p178
sVtype
p179
Vtyped-literal
p180
sVvalue
p181
V4707
p182
ssa(dp183
g7
(dp184
Vtype
p185
Vuri
p186
sVvalue
p187
Vhttp://dbpedia.org/ontology/wikiPageModified
p188
ssg8
(dp189
Vdatatype
p190
Vhttp://www.w3.org/2001/XMLSchema#dateTime
p191
sVtype
p192
Vtyped-literal
p193
sVvalue
p194
V2016-08-19T21:57:23Z
p195
ssa(dp196
g7
(dp197
Vtype
p198
Vuri
p199
sVvalue
p200
Vhttp://dbpedia.org/ontology/wikiPageOutDegree
p201
ssg8
(dp202
Vdatatype
p203
Vhttp://www.w3.org/2001/XMLSchema#nonNegativeInteger
p204
sVtype
p205
Vtyped-literal
p206
sVvalue
p207
V51
p208
ssa(dp209
g7
(dp210
Vtype
p211
Vuri
p212
sVvalue
p213
Vhttp://dbpedia.org/ontology/bSide
p214
ssg8
(dp215
Vtype
p216
Vliteral
p217
sVvalue
p218
V"After You Came"
p219
ssa(dp220
g7
(dp221
Vtype
p222
Vuri
p223
sVvalue
p224
Vhttp://dbpedia.org/ontology/recordDate
p225
ssg8
(dp226
Vdatatype
p227
Vhttp://www.w3.org/2001/XMLSchema#date
p228
sVtype
p229
Vtyped-literal
p230
sVvalue
p231
V1972-02-14
p232
ssasVordered
p233
I01
ss.