(dp0
Vhead
p1
(dp2
Vlink
p3
(lp4
sVvars
p5
(lp6
Vp
p7
aVo
p8
assVresults
p9
(dp10
Vdistinct
p11
I00
sVbindings
p12
(lp13
(dp14
g7
(dp15
Vtype
p16
Vuri
p17
sVvalue
p18
Vhttp://dbpedia.org/ontology/abstract
p19
ssg8
(dp20
Vxml:lang
p21
Ven
p22
sVtype
p23
Vliteral
p24
sVvalue
p25
VCentre Township was a township that existed in Camden County, New Jersey, United States, from 1855 through 1926.Centre Township was incorporated as a township by an Act of the New Jersey Legislature on March 6, 1855, from portions of the now-defunct Union Township:"Beginning in the middle of Great Timber Creek at the mouth of the southerly branch of Little Timber Creek; thence along the middle of Little Timber Creek to a point where the old King\u2019s Highway crossed the same; thence northerly along the highway to the southwest corner of Cedar Grove Cemetery and corner of James H. Brick\u2019s land; thence along said line and by the lands of Aaron H. Hurley, crossing the Mt. Ephraim Road to the corner of the lands of John Brick, deceased; thence along the lands of Brick and John C. Champion and John R. Brick to Newton Creek, on the line of Newton Township; thence eastwardly by Newton Creek, on the line of Union and Newton, until it strikes the line of the townships of Union and Delaware; thence up the same to Burrough\u2019s Bridge; thence on the middle of the highway and on boundary line between the townships of Union and Gloucester to Clements Bridge, on the Great Timber Creek; thence down the middle of the said creek to the place of beginning."Over the years, portions of Centre Township were taken to create several new municipalities:Haddon Heights on March 2, 1904 (also portions of Haddon Township)Magnolia on April 14, 1915 (also portions of Clementon)Barrington on March 27, 1917Tavistock on February 16, 1921Brooklawn on March 11, 1924Bellmawr on March 23, 1926Mount Ephraim on March 23, 1926Runnemede on March 23, 1926Lawnside on March 24, 1926 (also portions of Barrington)With the creation of Lawnside, Centre Township was officially dissolved.
p26
ssa(dp27
g7
(dp28
Vtype
p29
Vuri
p30
sVvalue
p31
Vhttp://dbpedia.org/ontology/wikiPageExtracted
p32
ssg8
(dp33
Vdatatype
p34
Vhttp://www.w3.org/2001/XMLSchema#dateTime
p35
sVtype
p36
Vtyped-literal
p37
sVvalue
p38
V2016-10-28T19:48:05Z
p39
ssa(dp40
g7
(dp41
Vtype
p42
Vuri
p43
sVvalue
p44
Vhttp://dbpedia.org/ontology/wikiPageLength
p45
ssg8
(dp46
Vdatatype
p47
Vhttp://www.w3.org/2001/XMLSchema#nonNegativeInteger
p48
sVtype
p49
Vtyped-literal
p50
sVvalue
p51
V5314
p52
ssa(dp53
g7
(dp54
Vtype
p55
Vuri
p56
sVvalue
p57
Vhttp://dbpedia.org/ontology/wikiPageModified
p58
ssg8
(dp59
Vdatatype
p60
Vhttp://www.w3.org/2001/XMLSchema#dateTime
p61
sVtype
p62
Vtyped-literal
p63
sVvalue
p64
V2016-10-10T08:49:51Z
p65
ssa(dp66
g7
(dp67
Vtype
p68
Vuri
p69
sVvalue
p70
Vhttp://dbpedia.org/ontology/wikiPageOutDegree
p71
ssg8
(dp72
Vdatatype
p73
Vhttp://www.w3.org/2001/XMLSchema#nonNegativeInteger
p74
sVtype
p75
Vtyped-literal
p76
sVvalue
p77
V34
p78
ssasVordered
p79
I01
ss.