(dp0
Vhead
p1
(dp2
Vlink
p3
(lp4
sVvars
p5
(lp6
Vp
p7
aVo
p8
assVresults
p9
(dp10
Vdistinct
p11
I00
sVbindings
p12
(lp13
(dp14
g7
(dp15
Vtype
p16
Vuri
p17
sVvalue
p18
Vhttp://dbpedia.org/ontology/abstract
p19
ssg8
(dp20
Vxml:lang
p21
Ven
p22
sVtype
p23
Vliteral
p24
sVvalue
p25
VBell Baxter High School is a non-denominational comprehensive state school for 11- to 18-year-olds in Cupar, Fife, Scotland.
p26
ssa(dp27
g7
(dp28
Vtype
p29
Vuri
p30
sVvalue
p31
Vhttp://dbpedia.org/ontology/foundingDate
p32
ssg8
(dp33
Vdatatype
p34
Vhttp://www.w3.org/2001/XMLSchema#date
p35
sVtype
p36
Vtyped-literal
p37
sVvalue
p38
V1889-05-28
p39
ssa(dp40
g7
(dp41
Vtype
p42
Vuri
p43
sVvalue
p44
Vhttp://dbpedia.org/ontology/foundingYear
p45
ssg8
(dp46
Vdatatype
p47
Vhttp://www.w3.org/2001/XMLSchema#gYear
p48
sVtype
p49
Vtyped-literal
p50
sVvalue
p51
V1889
p52
ssa(dp53
g7
(dp54
Vtype
p55
Vuri
p56
sVvalue
p57
Vhttp://dbpedia.org/ontology/motto
p58
ssg8
(dp59
Vtype
p60
Vliteral
p61
sVvalue
p62
VLatin: Ad Vitam Paror
p63
ssa(dp64
g7
(dp65
Vtype
p66
Vuri
p67
sVvalue
p68
Vhttp://dbpedia.org/ontology/numberOfStudents
p69
ssg8
(dp70
Vdatatype
p71
Vhttp://www.w3.org/2001/XMLSchema#nonNegativeInteger
p72
sVtype
p73
Vtyped-literal
p74
sVvalue
p75
V1800
p76
ssa(dp77
g7
(dp78
Vtype
p79
Vuri
p80
sVvalue
p81
Vhttp://dbpedia.org/ontology/officialSchoolColour
p82
ssg8
(dp83
Vtype
p84
Vliteral
p85
sVvalue
p86
VWhite, Navy, Black
p87
ssa(dp88
g7
(dp89
Vtype
p90
Vuri
p91
sVvalue
p92
Vhttp://dbpedia.org/ontology/postalCode
p93
ssg8
(dp94
Vtype
p95
Vliteral
p96
sVvalue
p97
VKY15 4HY
p98
ssa(dp99
g7
(dp100
Vtype
p101
Vuri
p102
sVvalue
p103
Vhttp://dbpedia.org/ontology/staff
p104
ssg8
(dp105
Vdatatype
p106
Vhttp://www.w3.org/2001/XMLSchema#nonNegativeInteger
p107
sVtype
p108
Vtyped-literal
p109
sVvalue
p110
V100
p111
ssa(dp112
g7
(dp113
Vtype
p114
Vuri
p115
sVvalue
p116
Vhttp://dbpedia.org/ontology/wikiPageExtracted
p117
ssg8
(dp118
Vdatatype
p119
Vhttp://www.w3.org/2001/XMLSchema#dateTime
p120
sVtype
p121
Vtyped-literal
p122
sVvalue
p123
V2016-10-28T02:25:32Z
p124
ssa(dp125
g7
(dp126
Vtype
p127
Vuri
p128
sVvalue
p129
Vhttp://dbpedia.org/ontology/wikiPageLength
p130
ssg8
(dp131
Vdatatype
p132
Vhttp://www.w3.org/2001/XMLSchema#nonNegativeInteger
p133
sVtype
p134
Vtyped-literal
p135
sVvalue
p136
V6758
p137
ssa(dp138
g7
(dp139
Vtype
p140
Vuri
p141
sVvalue
p142
Vhttp://dbpedia.org/ontology/wikiPageModified
p143
ssg8
(dp144
Vdatatype
p145
Vhttp://www.w3.org/2001/XMLSchema#dateTime
p146
sVtype
p147
Vtyped-literal
p148
sVvalue
p149
V2016-10-13T13:40:36Z
p150
ssa(dp151
g7
(dp152
Vtype
p153
Vuri
p154
sVvalue
p155
Vhttp://dbpedia.org/ontology/wikiPageOutDegree
p156
ssg8
(dp157
Vdatatype
p158
Vhttp://www.w3.org/2001/XMLSchema#nonNegativeInteger
p159
sVtype
p160
Vtyped-literal
p161
sVvalue
p162
V50
p163
ssa(dp164
g7
(dp165
Vtype
p166
Vuri
p167
sVvalue
p168
Vhttp://dbpedia.org/ontology/headLabel
p169
ssg8
(dp170
Vxml:lang
p171
Ven
p172
sVtype
p173
Vliteral
p174
sVvalue
p175
VRector
p176
ssa(dp177
g7
(dp178
Vtype
p179
Vuri
p180
sVvalue
p181
Vhttp://dbpedia.org/ontology/lowerAge
p182
ssg8
(dp183
Vdatatype
p184
Vhttp://www.w3.org/2001/XMLSchema#nonNegativeInteger
p185
sVtype
p186
Vtyped-literal
p187
sVvalue
p188
V11
p189
ssa(dp190
g7
(dp191
Vtype
p192
Vuri
p193
sVvalue
p194
Vhttp://dbpedia.org/ontology/upperAge
p195
ssg8
(dp196
Vdatatype
p197
Vhttp://www.w3.org/2001/XMLSchema#nonNegativeInteger
p198
sVtype
p199
Vtyped-literal
p200
sVvalue
p201
V18
p202
ssasVordered
p203
I01
ss.