(dp0
Vhead
p1
(dp2
Vlink
p3
(lp4
sVvars
p5
(lp6
Vp
p7
aVo
p8
assVresults
p9
(dp10
Vdistinct
p11
I00
sVbindings
p12
(lp13
(dp14
g7
(dp15
Vtype
p16
Vuri
p17
sVvalue
p18
Vhttp://dbpedia.org/ontology/PopulatedPlace/areaMetro
p19
ssg8
(dp20
Vdatatype
p21
Vhttp://dbpedia.org/datatype/squareKilometre
p22
sVtype
p23
Vtyped-literal
p24
sVvalue
p25
V13838.306473525248
p26
ssa(dp27
g7
(dp28
Vtype
p29
Vuri
p30
sVvalue
p31
Vhttp://dbpedia.org/ontology/PopulatedPlace/areaTotal
p32
ssg8
(dp33
Vdatatype
p34
Vhttp://dbpedia.org/datatype/squareKilometre
p35
sVtype
p36
Vtyped-literal
p37
sVvalue
p38
V150.9963068325888
p39
ssa(dp40
g7
(dp41
Vtype
p42
Vuri
p43
sVvalue
p44
Vhttp://dbpedia.org/ontology/PopulatedPlace/populationDensity
p45
ssg8
(dp46
Vdatatype
p47
Vhttp://dbpedia.org/datatype/inhabitantsPerSquareKilometre
p48
sVtype
p49
Vtyped-literal
p50
sVvalue
p51
V2139.0059583251505
p52
ssa(dp53
g7
(dp54
Vtype
p55
Vuri
p56
sVvalue
p57
Vhttp://dbpedia.org/ontology/abstract
p58
ssg8
(dp59
Vxml:lang
p60
Ven
p61
sVtype
p62
Vliteral
p63
sVvalue
p64
VPittsburgh (/\u02c8p\u026atsb\u0259r\u0261/ PITS-burg) (Traditional abbreviation, Pgh.) is the second-largest city in the Commonwealth of Pennsylvania (only Philadelphia is larger) and the county seat of Allegheny County. The Combined Statistical Area (CSA) population of 2,659,937 is the largest in both the Ohio Valley and Appalachia and the 20th-largest in the U.S. Located at the confluence of the Allegheny and Monongahela rivers, which form the Ohio River, Pittsburgh is known as both "the Steel City" for its more than 300 steel-related businesses, and as the "City of Bridges" for its 446 bridges. The city features 30 skyscrapers, two inclines, a pre-revolutionary fortification and the Point State Park at the confluence of the rivers. The city developed as a vital link of the Atlantic coast and Midwest. The mineral-rich Allegheny Mountains made the area coveted by the French and British empires, Virginia, Whiskey Rebels, and Civil War raiders.Aside from steel, Pittsburgh has led in manufacturing of aluminum, glass, shipbuilding, petroleum, foods, sports, transportation, computing, autos, and electronics. For part of the 20th century, Pittsburgh was behind only New York and Chicago in corporate headquarters employment; it had the most U.S. stockholders per capita. America's 1980s deindustrialization laid off area blue-collar workers and thousands of downtown white-collar workers when the longtime Pittsburgh-based world headquarters of Gulf Oil, Sunbeam, Rockwell and Westinghouse moved out. This heritage left the area with renowned museums, medical centers, parks, research centers, libraries, a diverse cultural district and the most bars per capita in the U.S. In 2015, Pittsburgh was listed among the "eleven most livable cities in the world"; The Economist's Global Liveability Ranking placed Pittsburgh as the first or second most livable city in the United States in 2005, 2009, 2011, 2012 and 2014.Google, Apple, Bosch, Facebook, Uber, Nokia, Autodesk, and IBM are among 1,600 technology firms generating $20.7 billion in annual Pittsburgh payrolls. The area has served also as the long-time federal agency headquarters for cyber defense, software engineering, robotics, energy research and the nuclear navy. The area is home to 68 colleges and universities, including research and development leaders Carnegie Mellon University and the University of Pittsburgh. The nation's fifth-largest bank, eight Fortune 500 companies, and six of the top 300 US law firms make their global headquarters in the Pittsburgh area, while RAND, BNY Mellon, Nova, FedEx, Bayer and NIOSH have regional bases that helped Pittsburgh become the sixth-best area for U.S. job growth.The region is a hub for Leadership in Energy and Environmental Design, sustainable energy, and energy extraction.
p65
ssa(dp66
g7
(dp67
Vtype
p68
Vuri
p69
sVvalue
p70
Vhttp://dbpedia.org/ontology/abstract
p71
ssg8
(dp72
Vxml:lang
p73
Ven
p74
sVtype
p75
Vliteral
p76
sVvalue
p77
VPittsburgh (/\u02c8p\u026atsb\u0259r\u0261/ PITS-burg) is a city in the Commonwealth of Pennsylvania in the United States, and is the county seat of Allegheny County. The Combined Statistical Area (CSA) population of 2,659,937 is the largest in both the Ohio Valley and Appalachia, the second-largest in Pennsylvania after Philadelphia and the 20th-largest in the U.S. Located at the confluence of the Allegheny and Monongahela rivers, which form the Ohio River, Pittsburgh is known as both "the Steel City" for its more than 300 steel-related businesses, and as the "City of Bridges" for its 446 bridges. The city features 30 skyscrapers, two inclines, a pre-revolutionary fortification and the Point State Park at the confluence of the rivers. The city developed as a vital link of the Atlantic coast and Midwest. The mineral-rich Allegheny Mountains made the area coveted by the French and British empires, Virginia, Whiskey Rebels, and Civil War raiders.Aside from steel, Pittsburgh has led in manufacturing of aluminum, glass, shipbuilding, petroleum, foods, sports, transportation, computing, autos, and electronics. For part of the 20th century, Pittsburgh was behind only New York and Chicago in corporate headquarters employment; it had the most U.S. stockholders per capita. America's 1980s deindustrialization laid off area blue-collar workers and thousands of downtown white-collar workers when the longtime Pittsburgh-based world headquarters of Gulf Oil, Sunbeam, Rockwell and Westinghouse moved out. This heritage left the area with renowned museums, medical centers, parks, research centers, libraries, a diverse cultural district and the most bars per capita in the U.S. In 2015, Pittsburgh was listed among the "eleven most livable cities in the world"; The Economist's Global Liveability Ranking placed Pittsburgh as the first- or second-most livable city in the United States in 2005, 2009, 2011, 2012 and 2014.Google, Apple, Bosch, Facebook, Uber, Nokia, Autodesk, and IBM are among 1,600 technology firms generating $20.7 billion in annual Pittsburgh payrolls. The area has served also as the long-time federal agency headquarters for cyber defense, software engineering, robotics, energy research and the nuclear navy. The area is home to 68 colleges and universities, including research and development leaders Carnegie Mellon University and the University of Pittsburgh. The nation's fifth-largest bank, eight Fortune 500 companies, and six of the top 300 US law firms make their global headquarters in the Pittsburgh area, while RAND, BNY Mellon, Nova, FedEx, Bayer and NIOSH have regional bases that helped Pittsburgh become the sixth-best area for U.S. job growth.The region is a hub for Leadership in Energy and Environmental Design, sustainable energy, and energy extraction.
p78
ssa(dp79
g7
(dp80
Vtype
p81
Vuri
p82
sVvalue
p83
Vhttp://dbpedia.org/ontology/areaCode
p84
ssg8
(dp85
Vtype
p86
Vliteral
p87
sVvalue
p88
V412,724,878
p89
ssa(dp90
g7
(dp91
Vtype
p92
Vuri
p93
sVvalue
p94
Vhttp://dbpedia.org/ontology/areaLand
p95
ssg8
(dp96
Vdatatype
p97
Vhttp://www.w3.org/2001/XMLSchema#double
p98
sVtype
p99
Vtyped-literal
p100
sVvalue
p101
V1.43744e+08
p102
ssa(dp103
g7
(dp104
Vtype
p105
Vuri
p106
sVvalue
p107
Vhttp://dbpedia.org/ontology/areaMetro
p108
ssg8
(dp109
Vdatatype
p110
Vhttp://www.w3.org/2001/XMLSchema#double
p111
sVtype
p112
Vtyped-literal
p113
sVvalue
p114
V1.38383e+10
p115
ssa(dp116
g7
(dp117
Vtype
p118
Vuri
p119
sVvalue
p120
Vhttp://dbpedia.org/ontology/areaTotal
p121
ssg8
(dp122
Vdatatype
p123
Vhttp://www.w3.org/2001/XMLSchema#double
p124
sVtype
p125
Vtyped-literal
p126
sVvalue
p127
V1.50996e+08
p128
ssa(dp129
g7
(dp130
Vtype
p131
Vuri
p132
sVvalue
p133
Vhttp://dbpedia.org/ontology/areaWater
p134
ssg8
(dp135
Vdatatype
p136
Vhttp://www.w3.org/2001/XMLSchema#double
p137
sVtype
p138
Vtyped-literal
p139
sVvalue
p140
V7.25197e+06
p141
ssa(dp142
g7
(dp143
Vtype
p144
Vuri
p145
sVvalue
p146
Vhttp://dbpedia.org/ontology/foundingDate
p147
ssg8
(dp148
Vdatatype
p149
Vhttp://www.w3.org/2001/XMLSchema#date
p150
sVtype
p151
Vtyped-literal
p152
sVvalue
p153
V1758-11-27
p154
ssa(dp155
g7
(dp156
Vtype
p157
Vuri
p158
sVvalue
p159
Vhttp://dbpedia.org/ontology/foundingDate
p160
ssg8
(dp161
Vdatatype
p162
Vhttp://www.w3.org/2001/XMLSchema#date
p163
sVtype
p164
Vtyped-literal
p165
sVvalue
p166
V1771-04-16
p167
ssa(dp168
g7
(dp169
Vtype
p170
Vuri
p171
sVvalue
p172
Vhttp://dbpedia.org/ontology/foundingDate
p173
ssg8
(dp174
Vdatatype
p175
Vhttp://www.w3.org/2001/XMLSchema#date
p176
sVtype
p177
Vtyped-literal
p178
sVvalue
p179
V1794-04-22
p180
ssa(dp181
g7
(dp182
Vtype
p183
Vuri
p184
sVvalue
p185
Vhttp://dbpedia.org/ontology/foundingDate
p186
ssg8
(dp187
Vdatatype
p188
Vhttp://www.w3.org/2001/XMLSchema#date
p189
sVtype
p190
Vtyped-literal
p191
sVvalue
p192
V1816-03-18
p193
ssa(dp194
g7
(dp195
Vtype
p196
Vuri
p197
sVvalue
p198
Vhttp://dbpedia.org/ontology/leaderTitle
p199
ssg8
(dp200
Vxml:lang
p201
Ven
p202
sVtype
p203
Vliteral
p204
sVvalue
p205
VCity Council
p206
ssa(dp207
g7
(dp208
Vtype
p209
Vuri
p210
sVvalue
p211
Vhttp://dbpedia.org/ontology/leaderTitle
p212
ssg8
(dp213
Vxml:lang
p214
Ven
p215
sVtype
p216
Vliteral
p217
sVvalue
p218
VMayor
p219
ssa(dp220
g7
(dp221
Vtype
p222
Vuri
p223
sVvalue
p224
Vhttp://dbpedia.org/ontology/leaderTitle
p225
ssg8
(dp226
Vxml:lang
p227
Ven
p228
sVtype
p229
Vliteral
p230
sVvalue
p231
VState Senate
p232
ssa(dp233
g7
(dp234
Vtype
p235
Vuri
p236
sVvalue
p237
Vhttp://dbpedia.org/ontology/leaderTitle
p238
ssg8
(dp239
Vxml:lang
p240
Ven
p241
sVtype
p242
Vliteral
p243
sVvalue
p244
VState House
p245
ssa(dp246
g7
(dp247
Vtype
p248
Vuri
p249
sVvalue
p250
Vhttp://dbpedia.org/ontology/leaderTitle
p251
ssg8
(dp252
Vxml:lang
p253
Ven
p254
sVtype
p255
Vliteral
p256
sVvalue
p257
VU.S. House
p258
ssa(dp259
g7
(dp260
Vtype
p261
Vuri
p262
sVvalue
p263
Vhttp://dbpedia.org/ontology/maximumElevation
p264
ssg8
(dp265
Vdatatype
p266
Vhttp://www.w3.org/2001/XMLSchema#double
p267
sVtype
p268
Vtyped-literal
p269
sVvalue
p270
V417.576
p271
ssa(dp272
g7
(dp273
Vtype
p274
Vuri
p275
sVvalue
p276
Vhttp://dbpedia.org/ontology/minimumElevation
p277
ssg8
(dp278
Vdatatype
p279
Vhttp://www.w3.org/2001/XMLSchema#double
p280
sVtype
p281
Vtyped-literal
p282
sVvalue
p283
V216.408
p284
ssa(dp285
g7
(dp286
Vtype
p287
Vuri
p288
sVvalue
p289
Vhttp://dbpedia.org/ontology/motto
p290
ssg8
(dp291
Vtype
p292
Vliteral
p293
sVvalue
p294
VBenigno Numine
p295
ssa(dp296
g7
(dp297
Vtype
p298
Vuri
p299
sVvalue
p300
Vhttp://dbpedia.org/ontology/percentageOfAreaWater
p301
ssg8
(dp302
Vdatatype
p303
Vhttp://www.w3.org/2001/XMLSchema#float
p304
sVtype
p305
Vtyped-literal
p306
sVvalue
p307
V4.8
p308
ssa(dp309
g7
(dp310
Vtype
p311
Vuri
p312
sVvalue
p313
Vhttp://dbpedia.org/ontology/populationDensity
p314
ssg8
(dp315
Vdatatype
p316
Vhttp://www.w3.org/2001/XMLSchema#double
p317
sVtype
p318
Vtyped-literal
p319
sVvalue
p320
V2139.01
p321
ssa(dp322
g7
(dp323
Vtype
p324
Vuri
p325
sVvalue
p326
Vhttp://dbpedia.org/ontology/populationMetro
p327
ssg8
(dp328
Vdatatype
p329
Vhttp://www.w3.org/2001/XMLSchema#nonNegativeInteger
p330
sVtype
p331
Vtyped-literal
p332
sVvalue
p333
V2360867
p334
ssa(dp335
g7
(dp336
Vtype
p337
Vuri
p338
sVvalue
p339
Vhttp://dbpedia.org/ontology/populationTotal
p340
ssg8
(dp341
Vdatatype
p342
Vhttp://www.w3.org/2001/XMLSchema#nonNegativeInteger
p343
sVtype
p344
Vtyped-literal
p345
sVvalue
p346
V304391
p347
ssa(dp348
g7
(dp349
Vtype
p350
Vuri
p351
sVvalue
p352
Vhttp://dbpedia.org/ontology/populationTotalRanking
p353
ssg8
(dp354
Vdatatype
p355
Vhttp://www.w3.org/2001/XMLSchema#positiveInteger
p356
sVtype
p357
Vtyped-literal
p358
sVvalue
p359
V62
p360
ssa(dp361
g7
(dp362
Vtype
p363
Vuri
p364
sVvalue
p365
Vhttp://dbpedia.org/ontology/populationUrban
p366
ssg8
(dp367
Vdatatype
p368
Vhttp://www.w3.org/2001/XMLSchema#nonNegativeInteger
p369
sVtype
p370
Vtyped-literal
p371
sVvalue
p372
V1733853
p373
ssa(dp374
g7
(dp375
Vtype
p376
Vuri
p377
sVvalue
p378
Vhttp://dbpedia.org/ontology/utcOffset
p379
ssg8
(dp380
Vtype
p381
Vliteral
p382
sVvalue
p383
V\u22125
p384
ssa(dp385
g7
(dp386
Vtype
p387
Vuri
p388
sVvalue
p389
Vhttp://dbpedia.org/ontology/utcOffset
p390
ssg8
(dp391
Vtype
p392
Vliteral
p393
sVvalue
p394
V\u22124
p395
ssa(dp396
g7
(dp397
Vtype
p398
Vuri
p399
sVvalue
p400
Vhttp://dbpedia.org/ontology/wikiPageExtracted
p401
ssg8
(dp402
Vdatatype
p403
Vhttp://www.w3.org/2001/XMLSchema#dateTime
p404
sVtype
p405
Vtyped-literal
p406
sVvalue
p407
V2016-11-04T15:07:04Z
p408
ssa(dp409
g7
(dp410
Vtype
p411
Vuri
p412
sVvalue
p413
Vhttp://dbpedia.org/ontology/wikiPageLength
p414
ssg8
(dp415
Vdatatype
p416
Vhttp://www.w3.org/2001/XMLSchema#nonNegativeInteger
p417
sVtype
p418
Vtyped-literal
p419
sVvalue
p420
V174777
p421
ssa(dp422
g7
(dp423
Vtype
p424
Vuri
p425
sVvalue
p426
Vhttp://dbpedia.org/ontology/wikiPageModified
p427
ssg8
(dp428
Vdatatype
p429
Vhttp://www.w3.org/2001/XMLSchema#dateTime
p430
sVtype
p431
Vtyped-literal
p432
sVvalue
p433
V2016-11-03T15:48:09Z
p434
ssa(dp435
g7
(dp436
Vtype
p437
Vuri
p438
sVvalue
p439
Vhttp://dbpedia.org/ontology/wikiPageOutDegree
p440
ssg8
(dp441
Vdatatype
p442
Vhttp://www.w3.org/2001/XMLSchema#nonNegativeInteger
p443
sVtype
p444
Vtyped-literal
p445
sVvalue
p446
V1356
p447
ssasVordered
p448
I01
ss.