(dp0
Vhead
p1
(dp2
Vlink
p3
(lp4
sVvars
p5
(lp6
Vp
p7
aVo
p8
assVresults
p9
(dp10
Vdistinct
p11
I00
sVbindings
p12
(lp13
(dp14
g7
(dp15
Vtype
p16
Vuri
p17
sVvalue
p18
Vhttp://dbpedia.org/ontology/abstract
p19
ssg8
(dp20
Vxml:lang
p21
Ven
p22
sVtype
p23
Vliteral
p24
sVvalue
p25
VJohn 'Sol' Roper (birth registered July\u2192September 1936 \u2013 14 October 2015) was an English professional rugby league footballer of the 1950s and 1960s, and coach of the 1960s and 1970s, playing at representative level for Cumberland, and at club level captained Hensingham ARLFC, Workington Town, Broughton Moor, and Whitehaven, as a Scrum-half/Halfback, i.e. number 7, and coaching at club level for Whitehaven.
p26
ssa(dp27
g7
(dp28
Vtype
p29
Vuri
p30
sVvalue
p31
Vhttp://dbpedia.org/ontology/abstract
p32
ssg8
(dp33
Vxml:lang
p34
Ven
p35
sVtype
p36
Vliteral
p37
sVvalue
p38
VJohn "Sol" Roper (birth registered July\u2192September 1936 \u2013 14 October 2015) was an English professional rugby league footballer of the 1950s and 1960s, and coach of the 1960s and 1970s, playing at representative level for Cumberland, and at club level captained Hensingham, Workington Town, Broughton Moor and Whitehaven, as a Scrum-half/Halfback, i.e. number 7, and coaching at club level for Whitehaven.
p39
ssa(dp40
g7
(dp41
Vtype
p42
Vuri
p43
sVvalue
p44
Vhttp://dbpedia.org/ontology/activeYearsEndYear
p45
ssg8
(dp46
Vdatatype
p47
Vhttp://www.w3.org/2001/XMLSchema#gYear
p48
sVtype
p49
Vtyped-literal
p50
sVvalue
p51
V0070
p52
ssa(dp53
g7
(dp54
Vtype
p55
Vuri
p56
sVvalue
p57
Vhttp://dbpedia.org/ontology/activeYearsStartYear
p58
ssg8
(dp59
Vdatatype
p60
Vhttp://www.w3.org/2001/XMLSchema#gYear
p61
sVtype
p62
Vtyped-literal
p63
sVvalue
p64
V1970
p65
ssa(dp66
g7
(dp67
Vtype
p68
Vuri
p69
sVvalue
p70
Vhttp://dbpedia.org/ontology/wikiPageExtracted
p71
ssg8
(dp72
Vdatatype
p73
Vhttp://www.w3.org/2001/XMLSchema#dateTime
p74
sVtype
p75
Vtyped-literal
p76
sVvalue
p77
V2016-11-06T02:25:54Z
p78
ssa(dp79
g7
(dp80
Vtype
p81
Vuri
p82
sVvalue
p83
Vhttp://dbpedia.org/ontology/wikiPageLength
p84
ssg8
(dp85
Vdatatype
p86
Vhttp://www.w3.org/2001/XMLSchema#nonNegativeInteger
p87
sVtype
p88
Vtyped-literal
p89
sVvalue
p90
V5923
p91
ssa(dp92
g7
(dp93
Vtype
p94
Vuri
p95
sVvalue
p96
Vhttp://dbpedia.org/ontology/wikiPageModified
p97
ssg8
(dp98
Vdatatype
p99
Vhttp://www.w3.org/2001/XMLSchema#dateTime
p100
sVtype
p101
Vtyped-literal
p102
sVvalue
p103
V2016-10-20T03:04:29Z
p104
ssa(dp105
g7
(dp106
Vtype
p107
Vuri
p108
sVvalue
p109
Vhttp://dbpedia.org/ontology/wikiPageOutDegree
p110
ssg8
(dp111
Vdatatype
p112
Vhttp://www.w3.org/2001/XMLSchema#nonNegativeInteger
p113
sVtype
p114
Vtyped-literal
p115
sVvalue
p116
V38
p117
ssasVordered
p118
I01
ss.