(dp0
Vhead
p1
(dp2
Vlink
p3
(lp4
sVvars
p5
(lp6
Vp
p7
aVo
p8
assVresults
p9
(dp10
Vdistinct
p11
I00
sVbindings
p12
(lp13
(dp14
g7
(dp15
Vtype
p16
Vuri
p17
sVvalue
p18
Vhttp://dbpedia.org/ontology/abstract
p19
ssg8
(dp20
Vxml:lang
p21
Ven
p22
sVtype
p23
Vliteral
p24
sVvalue
p25
VThe 13th Reality is a science fiction book series by James Dashner. The first book in the series (The Journal of Curious Letters) was published in early 2008 by Shadow Mountain Publishing. The second book was released on May 1, 2009 and was titled The Hunt for Dark Infinity, and book three was released April 6, 2010. It was titled The Blade of Shattered Hope. The fourth book (The Void of Mist and Thunder) was released as an eBook on July 10, 2012, and was released as a hardcover in September 2012. A 2096-page boxed set was issued by Aladdin Paperbacks in 2013.
p26
ssa(dp27
g7
(dp28
Vtype
p29
Vuri
p30
sVvalue
p31
Vhttp://dbpedia.org/ontology/isbn
p32
ssg8
(dp33
Vtype
p34
Vliteral
p35
sVvalue
p36
V978-1-59038-831-0
p37
ssa(dp38
g7
(dp39
Vtype
p40
Vuri
p41
sVvalue
p42
Vhttp://dbpedia.org/ontology/isbn
p43
ssg8
(dp44
Vtype
p45
Vliteral
p46
sVvalue
p47
V978-1-60641-034-9
p48
ssa(dp49
g7
(dp50
Vtype
p51
Vuri
p52
sVvalue
p53
Vhttp://dbpedia.org/ontology/numberOfPages
p54
ssg8
(dp55
Vdatatype
p56
Vhttp://www.w3.org/2001/XMLSchema#positiveInteger
p57
sVtype
p58
Vtyped-literal
p59
sVvalue
p60
V417
p61
ssa(dp62
g7
(dp63
Vtype
p64
Vuri
p65
sVvalue
p66
Vhttp://dbpedia.org/ontology/numberOfPages
p67
ssg8
(dp68
Vdatatype
p69
Vhttp://www.w3.org/2001/XMLSchema#positiveInteger
p70
sVtype
p71
Vtyped-literal
p72
sVvalue
p73
V433
p74
ssa(dp75
g7
(dp76
Vtype
p77
Vuri
p78
sVvalue
p79
Vhttp://dbpedia.org/ontology/oclc
p80
ssg8
(dp81
Vtype
p82
Vliteral
p83
sVvalue
p84
V179801453
p85
ssa(dp86
g7
(dp87
Vtype
p88
Vuri
p89
sVvalue
p90
Vhttp://dbpedia.org/ontology/wikiPageExtracted
p91
ssg8
(dp92
Vdatatype
p93
Vhttp://www.w3.org/2001/XMLSchema#dateTime
p94
sVtype
p95
Vtyped-literal
p96
sVvalue
p97
V2016-11-06T19:39:03Z
p98
ssa(dp99
g7
(dp100
Vtype
p101
Vuri
p102
sVvalue
p103
Vhttp://dbpedia.org/ontology/wikiPageLength
p104
ssg8
(dp105
Vdatatype
p106
Vhttp://www.w3.org/2001/XMLSchema#nonNegativeInteger
p107
sVtype
p108
Vtyped-literal
p109
sVvalue
p110
V11333
p111
ssa(dp112
g7
(dp113
Vtype
p114
Vuri
p115
sVvalue
p116
Vhttp://dbpedia.org/ontology/wikiPageModified
p117
ssg8
(dp118
Vdatatype
p119
Vhttp://www.w3.org/2001/XMLSchema#dateTime
p120
sVtype
p121
Vtyped-literal
p122
sVvalue
p123
V2016-09-05T01:02:31Z
p124
ssa(dp125
g7
(dp126
Vtype
p127
Vuri
p128
sVvalue
p129
Vhttp://dbpedia.org/ontology/wikiPageOutDegree
p130
ssg8
(dp131
Vdatatype
p132
Vhttp://www.w3.org/2001/XMLSchema#nonNegativeInteger
p133
sVtype
p134
Vtyped-literal
p135
sVvalue
p136
V21
p137
ssasVordered
p138
I01
ss.