(dp0
Vhead
p1
(dp2
Vlink
p3
(lp4
sVvars
p5
(lp6
Vp
p7
aVo
p8
assVresults
p9
(dp10
Vdistinct
p11
I00
sVbindings
p12
(lp13
(dp14
g7
(dp15
Vtype
p16
Vuri
p17
sVvalue
p18
Vhttp://dbpedia.org/ontology/PopulatedPlace/areaTotal
p19
ssg8
(dp20
Vdatatype
p21
Vhttp://dbpedia.org/datatype/squareKilometre
p22
sVtype
p23
Vtyped-literal
p24
sVvalue
p25
V213.59631945940993
p26
ssa(dp27
g7
(dp28
Vtype
p29
Vuri
p30
sVvalue
p31
Vhttp://dbpedia.org/ontology/PopulatedPlace/areaTotal
p32
ssg8
(dp33
Vdatatype
p34
Vhttp://dbpedia.org/datatype/squareKilometre
p35
sVtype
p36
Vtyped-literal
p37
sVvalue
p38
V213.6
p39
ssa(dp40
g7
(dp41
Vtype
p42
Vuri
p43
sVvalue
p44
Vhttp://dbpedia.org/ontology/PopulatedPlace/populationDensity
p45
ssg8
(dp46
Vdatatype
p47
Vhttp://dbpedia.org/datatype/inhabitantsPerSquareKilometre
p48
sVtype
p49
Vtyped-literal
p50
sVvalue
p51
V1971.8
p52
ssa(dp53
g7
(dp54
Vtype
p55
Vuri
p56
sVvalue
p57
Vhttp://dbpedia.org/ontology/PopulatedPlace/populationDensity
p58
ssg8
(dp59
Vdatatype
p60
Vhttp://dbpedia.org/datatype/inhabitantsPerSquareKilometre
p61
sVtype
p62
Vtyped-literal
p63
sVvalue
p64
V1971.8237236762711
p65
ssa(dp66
g7
(dp67
Vtype
p68
Vuri
p69
sVvalue
p70
Vhttp://dbpedia.org/ontology/abstract
p71
ssg8
(dp72
Vxml:lang
p73
Ven
p74
sVtype
p75
Vliteral
p76
sVvalue
p77
VCleveland (/\u02c8kli\u02d0vl\u0259nd/ KLEEV-l\u0259nd) is a city in the U.S. state of Ohio and the county seat of Cuyahoga County, the most populous county in the state. The city is located in northeastern Ohio on the southern shore of Lake Erie, approximately 60 miles (100 kilometers) west of the Pennsylvania border. It was founded in 1796 near the mouth of the Cuyahoga River, and became a manufacturing center owing to its location on the lake shore, as well as being connected to numerous canals and railroad lines. Cleveland's economy has diversified sectors that include manufacturing, financial services, healthcare, and biomedical. Cleveland is also home to the Rock and Roll Hall of Fame.As of the 2013 Census Estimate, the city proper had a total population of 390,113, making Cleveland the 48th largest city in the United States, and the second largest city in Ohio after Columbus. Greater Cleveland, the Cleveland-Elyria-Mentor, OH Metropolitan Statistical Area, ranked 29th largest in the United States, and second largest in Ohio after Cincinnati with 2,064,725 people in 2013. Cleveland is part of the larger Cleveland-Akron-Canton, OH Combined Statistical Area, which in 2013 had a population of 3,501,538, and ranked as the country's 15th largest CSA. Residents of Cleveland are called "Clevelanders". Cleveland has many nicknames, the oldest of which in contemporary use being "The Forest City".
p78
ssa(dp79
g7
(dp80
Vtype
p81
Vuri
p82
sVvalue
p83
Vhttp://dbpedia.org/ontology/abstract
p84
ssg8
(dp85
Vxml:lang
p86
Ven
p87
sVtype
p88
Vliteral
p89
sVvalue
p90
VCleveland (/\u02c8kli\u02d0vl\u0259nd/ KLEEV-l\u0259nd) is a city in the U.S. state of Ohio and the county seat of Cuyahoga County, the most populous county in the state. The city is located on the southern shore of Lake Erie, approximately 60 miles (100 kilometers) west of the Pennsylvania border. It was founded in 1796 near the mouth of the Cuyahoga River, and became a manufacturing center owing to its location on the lake shore, as well as being connected to numerous canals and railroad lines. Cleveland's economy has diversified sectors that include manufacturing, financial services, healthcare, and biomedical. Cleveland is also home to the Rock and Roll Hall of Fame.As of the 2013 Census Estimate, the city proper had a total population of 390,113, making Cleveland the 48th largest city in the United States, and the second-largest city in Ohio after Columbus. Greater Cleveland, the Cleveland-Elyria-Mentor, OH Metropolitan Statistical Area, ranked 29th largest in the United States, and second largest in Ohio after Cincinnati with 2,064,725 people in 2013. Cleveland is part of the larger Cleveland-Akron-Canton, OH Combined Statistical Area, which in 2013 had a population of 3,501,538, and ranked as the country's 15th largest CSA. Residents of Cleveland are called "Clevelanders". Cleveland has many nicknames, the oldest of which in contemporary use being "The Forest City".
p91
ssa(dp92
g7
(dp93
Vtype
p94
Vuri
p95
sVvalue
p96
Vhttp://dbpedia.org/ontology/areaCode
p97
ssg8
(dp98
Vtype
p99
Vliteral
p100
sVvalue
p101
V216
p102
ssa(dp103
g7
(dp104
Vtype
p105
Vuri
p106
sVvalue
p107
Vhttp://dbpedia.org/ontology/areaLand
p108
ssg8
(dp109
Vdatatype
p110
Vhttp://www.w3.org/2001/XMLSchema#double
p111
sVtype
p112
Vtyped-literal
p113
sVvalue
p114
V2.0124e+08
p115
ssa(dp116
g7
(dp117
Vtype
p118
Vuri
p119
sVvalue
p120
Vhttp://dbpedia.org/ontology/areaLand
p121
ssg8
(dp122
Vdatatype
p123
Vhttp://www.w3.org/2001/XMLSchema#double
p124
sVtype
p125
Vtyped-literal
p126
sVvalue
p127
V2.01242e+08
p128
ssa(dp129
g7
(dp130
Vtype
p131
Vuri
p132
sVvalue
p133
Vhttp://dbpedia.org/ontology/areaTotal
p134
ssg8
(dp135
Vdatatype
p136
Vhttp://www.w3.org/2001/XMLSchema#double
p137
sVtype
p138
Vtyped-literal
p139
sVvalue
p140
V2.13596e+08
p141
ssa(dp142
g7
(dp143
Vtype
p144
Vuri
p145
sVvalue
p146
Vhttp://dbpedia.org/ontology/areaTotal
p147
ssg8
(dp148
Vdatatype
p149
Vhttp://www.w3.org/2001/XMLSchema#double
p150
sVtype
p151
Vtyped-literal
p152
sVvalue
p153
V2.136e+08
p154
ssa(dp155
g7
(dp156
Vtype
p157
Vuri
p158
sVvalue
p159
Vhttp://dbpedia.org/ontology/areaWater
p160
ssg8
(dp161
Vdatatype
p162
Vhttp://www.w3.org/2001/XMLSchema#double
p163
sVtype
p164
Vtyped-literal
p165
sVvalue
p166
V1.235e+07
p167
ssa(dp168
g7
(dp169
Vtype
p170
Vuri
p171
sVvalue
p172
Vhttp://dbpedia.org/ontology/areaWater
p173
ssg8
(dp174
Vdatatype
p175
Vhttp://www.w3.org/2001/XMLSchema#double
p176
sVtype
p177
Vtyped-literal
p178
sVvalue
p179
V1.23542e+07
p180
ssa(dp181
g7
(dp182
Vtype
p183
Vuri
p184
sVvalue
p185
Vhttp://dbpedia.org/ontology/elevation
p186
ssg8
(dp187
Vdatatype
p188
Vhttp://www.w3.org/2001/XMLSchema#double
p189
sVtype
p190
Vtyped-literal
p191
sVvalue
p192
V199.0
p193
ssa(dp194
g7
(dp195
Vtype
p196
Vuri
p197
sVvalue
p198
Vhttp://dbpedia.org/ontology/elevation
p199
ssg8
(dp200
Vdatatype
p201
Vhttp://www.w3.org/2001/XMLSchema#double
p202
sVtype
p203
Vtyped-literal
p204
sVvalue
p205
V199.034
p206
ssa(dp207
g7
(dp208
Vtype
p209
Vuri
p210
sVvalue
p211
Vhttp://dbpedia.org/ontology/foundingDate
p212
ssg8
(dp213
Vdatatype
p214
Vhttp://www.w3.org/2001/XMLSchema#date
p215
sVtype
p216
Vtyped-literal
p217
sVvalue
p218
V1796-07-22
p219
ssa(dp220
g7
(dp221
Vtype
p222
Vuri
p223
sVvalue
p224
Vhttp://dbpedia.org/ontology/foundingDate
p225
ssg8
(dp226
Vdatatype
p227
Vhttp://www.w3.org/2001/XMLSchema#date
p228
sVtype
p229
Vtyped-literal
p230
sVvalue
p231
V1814-12-23
p232
ssa(dp233
g7
(dp234
Vtype
p235
Vuri
p236
sVvalue
p237
Vhttp://dbpedia.org/ontology/foundingDate
p238
ssg8
(dp239
Vdatatype
p240
Vhttp://www.w3.org/2001/XMLSchema#date
p241
sVtype
p242
Vtyped-literal
p243
sVvalue
p244
V1836-03-06
p245
ssa(dp246
g7
(dp247
Vtype
p248
Vuri
p249
sVvalue
p250
Vhttp://dbpedia.org/ontology/leaderTitle
p251
ssg8
(dp252
Vxml:lang
p253
Ven
p254
sVtype
p255
Vliteral
p256
sVvalue
p257
VMayor
p258
ssa(dp259
g7
(dp260
Vtype
p261
Vuri
p262
sVvalue
p263
Vhttp://dbpedia.org/ontology/motto
p264
ssg8
(dp265
Vtype
p266
Vliteral
p267
sVvalue
p268
VProgress & Prosperity
p269
ssa(dp270
g7
(dp271
Vtype
p272
Vuri
p273
sVvalue
p274
Vhttp://dbpedia.org/ontology/populationDensity
p275
ssg8
(dp276
Vdatatype
p277
Vhttp://www.w3.org/2001/XMLSchema#double
p278
sVtype
p279
Vtyped-literal
p280
sVvalue
p281
V1971.8
p282
ssa(dp283
g7
(dp284
Vtype
p285
Vuri
p286
sVvalue
p287
Vhttp://dbpedia.org/ontology/populationDensity
p288
ssg8
(dp289
Vdatatype
p290
Vhttp://www.w3.org/2001/XMLSchema#double
p291
sVtype
p292
Vtyped-literal
p293
sVvalue
p294
V1971.82
p295
ssa(dp296
g7
(dp297
Vtype
p298
Vuri
p299
sVvalue
p300
Vhttp://dbpedia.org/ontology/populationMetro
p301
ssg8
(dp302
Vdatatype
p303
Vhttp://www.w3.org/2001/XMLSchema#nonNegativeInteger
p304
sVtype
p305
Vtyped-literal
p306
sVvalue
p307
V2064725
p308
ssa(dp309
g7
(dp310
Vtype
p311
Vuri
p312
sVvalue
p313
Vhttp://dbpedia.org/ontology/populationTotal
p314
ssg8
(dp315
Vdatatype
p316
Vhttp://www.w3.org/2001/XMLSchema#nonNegativeInteger
p317
sVtype
p318
Vtyped-literal
p319
sVvalue
p320
V396815
p321
ssa(dp322
g7
(dp323
Vtype
p324
Vuri
p325
sVvalue
p326
Vhttp://dbpedia.org/ontology/populationTotalRanking
p327
ssg8
(dp328
Vdatatype
p329
Vhttp://www.w3.org/2001/XMLSchema#positiveInteger
p330
sVtype
p331
Vtyped-literal
p332
sVvalue
p333
V48
p334
ssa(dp335
g7
(dp336
Vtype
p337
Vuri
p338
sVvalue
p339
Vhttp://dbpedia.org/ontology/populationUrban
p340
ssg8
(dp341
Vdatatype
p342
Vhttp://www.w3.org/2001/XMLSchema#nonNegativeInteger
p343
sVtype
p344
Vtyped-literal
p345
sVvalue
p346
V1780673
p347
ssa(dp348
g7
(dp349
Vtype
p350
Vuri
p351
sVvalue
p352
Vhttp://dbpedia.org/ontology/utcOffset
p353
ssg8
(dp354
Vtype
p355
Vliteral
p356
sVvalue
p357
V\u22125
p358
ssa(dp359
g7
(dp360
Vtype
p361
Vuri
p362
sVvalue
p363
Vhttp://dbpedia.org/ontology/utcOffset
p364
ssg8
(dp365
Vtype
p366
Vliteral
p367
sVvalue
p368
V\u22124
p369
ssa(dp370
g7
(dp371
Vtype
p372
Vuri
p373
sVvalue
p374
Vhttp://dbpedia.org/ontology/wikiPageExtracted
p375
ssg8
(dp376
Vdatatype
p377
Vhttp://www.w3.org/2001/XMLSchema#dateTime
p378
sVtype
p379
Vtyped-literal
p380
sVvalue
p381
V2016-10-29T02:46:14Z
p382
ssa(dp383
g7
(dp384
Vtype
p385
Vuri
p386
sVvalue
p387
Vhttp://dbpedia.org/ontology/wikiPageLength
p388
ssg8
(dp389
Vdatatype
p390
Vhttp://www.w3.org/2001/XMLSchema#nonNegativeInteger
p391
sVtype
p392
Vtyped-literal
p393
sVvalue
p394
V153315
p395
ssa(dp396
g7
(dp397
Vtype
p398
Vuri
p399
sVvalue
p400
Vhttp://dbpedia.org/ontology/wikiPageModified
p401
ssg8
(dp402
Vdatatype
p403
Vhttp://www.w3.org/2001/XMLSchema#dateTime
p404
sVtype
p405
Vtyped-literal
p406
sVvalue
p407
V2016-10-28T16:33:22Z
p408
ssa(dp409
g7
(dp410
Vtype
p411
Vuri
p412
sVvalue
p413
Vhttp://dbpedia.org/ontology/wikiPageOutDegree
p414
ssg8
(dp415
Vdatatype
p416
Vhttp://www.w3.org/2001/XMLSchema#nonNegativeInteger
p417
sVtype
p418
Vtyped-literal
p419
sVvalue
p420
V970
p421
ssasVordered
p422
I01
ss.