(dp0
Vhead
p1
(dp2
Vlink
p3
(lp4
sVvars
p5
(lp6
Vp
p7
aVo
p8
assVresults
p9
(dp10
Vdistinct
p11
I00
sVbindings
p12
(lp13
(dp14
g7
(dp15
Vtype
p16
Vuri
p17
sVvalue
p18
Vhttp://dbpedia.org/ontology/abstract
p19
ssg8
(dp20
Vxml:lang
p21
Ven
p22
sVtype
p23
Vliteral
p24
sVvalue
p25
VChicago Union Station is a major railroad station that opened in 1925 in Chicago, Illinois, replacing an earlier station built in 1881. It is the only intercity rail terminal in Chicago, as well as being the city's primary terminal for commuter trains. The station stands on the west side of the Chicago River between West Adams Street and West Jackson Boulevard, just outside the Chicago Loop. Including approach and storage tracks, it is about nine and a half city blocks in size. Its facilities are mostly underground, buried beneath streets and skyscrapers.Chicago Union Station is the third-busiest rail terminal in the United States, after Grand Central Terminal and Penn Station in New York City. It is Amtrak's overall fourth-busiest station. It handles approximately 120,000 passengers on an average weekday and is one of Chicago\u2019s most iconic structures, reflecting the city\u2019s strong architectural heritage and historic achievements. Its combination of Bedford limestone Beaux-Arts facades, massive Corinthian columns, sparkling marble floors, and magnificent Great Hall, all highlighted by brass lamps, create an environment that captures the imagination of passengers and visitors who enter its premises. In addition to standing out architecturally, Union Station has features that reflect its commitment to sustainability. In 2011, its lighting system was replaced with more energy-efficient light bulbs and motion sensors, reducing the station\u2019s carbon footprint by 4 million tons annually.Chicago Union Station was designated as one of America\u2019s \u201cGreat Places\u201d in 2012 by the American Planning Association (APA). The \u201cGreat Places\u201d program by APA highlights places streets, neighborhoods, and public spaces around America that exhibit \u201cexemplary character, quality, and planning.\u201d These places are unique in their cultural and historical significance, sense of community, and vision. Other criteria include \u201carchitectural features, accessibility, functionality, and community involvement.\u201d Chicago Union Station is considered a \u201cGreat Public Space\u201d by APA, for promoting social activity and community cohesiveness. These spaces are safe and inviting, well-maintained, and attractive, both visually and in functionality. In addition, local culture and history are reflected within the space.
p26
ssa(dp27
g7
(dp28
Vtype
p29
Vuri
p30
sVvalue
p31
Vhttp://dbpedia.org/ontology/address
p32
ssg8
(dp33
Vxml:lang
p34
Ven
p35
sVtype
p36
Vliteral
p37
sVvalue
p38
V225 South Canal Street
p39
ssa(dp40
g7
(dp41
Vtype
p42
Vuri
p43
sVvalue
p44
Vhttp://dbpedia.org/ontology/address
p45
ssg8
(dp46
Vxml:lang
p47
Ven
p48
sVtype
p49
Vliteral
p50
sVvalue
p51
VChicago, IL 60606
p52
ssa(dp53
g7
(dp54
Vtype
p55
Vuri
p56
sVvalue
p57
Vhttp://dbpedia.org/ontology/wikiPageExtracted
p58
ssg8
(dp59
Vdatatype
p60
Vhttp://www.w3.org/2001/XMLSchema#dateTime
p61
sVtype
p62
Vtyped-literal
p63
sVvalue
p64
V2016-10-28T22:56:34Z
p65
ssa(dp66
g7
(dp67
Vtype
p68
Vuri
p69
sVvalue
p70
Vhttp://dbpedia.org/ontology/wikiPageLength
p71
ssg8
(dp72
Vdatatype
p73
Vhttp://www.w3.org/2001/XMLSchema#nonNegativeInteger
p74
sVtype
p75
Vtyped-literal
p76
sVvalue
p77
V35698
p78
ssa(dp79
g7
(dp80
Vtype
p81
Vuri
p82
sVvalue
p83
Vhttp://dbpedia.org/ontology/wikiPageModified
p84
ssg8
(dp85
Vdatatype
p86
Vhttp://www.w3.org/2001/XMLSchema#dateTime
p87
sVtype
p88
Vtyped-literal
p89
sVvalue
p90
V2016-10-27T16:50:15Z
p91
ssa(dp92
g7
(dp93
Vtype
p94
Vuri
p95
sVvalue
p96
Vhttp://dbpedia.org/ontology/wikiPageOutDegree
p97
ssg8
(dp98
Vdatatype
p99
Vhttp://www.w3.org/2001/XMLSchema#nonNegativeInteger
p100
sVtype
p101
Vtyped-literal
p102
sVvalue
p103
V187
p104
ssa(dp105
g7
(dp106
Vtype
p107
Vuri
p108
sVvalue
p109
Vhttp://dbpedia.org/ontology/openingYear
p110
ssg8
(dp111
Vdatatype
p112
Vhttp://www.w3.org/2001/XMLSchema#gYear
p113
sVtype
p114
Vtyped-literal
p115
sVvalue
p116
V1925
p117
ssa(dp118
g7
(dp119
Vtype
p120
Vuri
p121
sVvalue
p122
Vhttp://dbpedia.org/ontology/agencyStationCode
p123
ssg8
(dp124
Vtype
p125
Vliteral
p126
sVvalue
p127
VCHI
p128
ssa(dp129
g7
(dp130
Vtype
p131
Vuri
p132
sVvalue
p133
Vhttp://dbpedia.org/ontology/fareZone
p134
ssg8
(dp135
Vtype
p136
Vliteral
p137
sVvalue
p138
VA (Metra only)
p139
ssa(dp140
g7
(dp141
Vtype
p142
Vuri
p143
sVvalue
p144
Vhttp://dbpedia.org/ontology/isHandicappedAccessible
p145
ssg8
(dp146
Vdatatype
p147
Vhttp://www.w3.org/2001/XMLSchema#boolean
p148
sVtype
p149
Vtyped-literal
p150
sVvalue
p151
V1
p152
ssa(dp153
g7
(dp154
Vtype
p155
Vuri
p156
sVvalue
p157
Vhttp://dbpedia.org/ontology/numberOfTracks
p158
ssg8
(dp159
Vdatatype
p160
Vhttp://www.w3.org/2001/XMLSchema#nonNegativeInteger
p161
sVtype
p162
Vtyped-literal
p163
sVvalue
p164
V10
p165
ssa(dp166
g7
(dp167
Vtype
p168
Vuri
p169
sVvalue
p170
Vhttp://dbpedia.org/ontology/numberOfTracks
p171
ssg8
(dp172
Vdatatype
p173
Vhttp://www.w3.org/2001/XMLSchema#nonNegativeInteger
p174
sVtype
p175
Vtyped-literal
p176
sVvalue
p177
V14
p178
ssa(dp179
g7
(dp180
Vtype
p181
Vuri
p182
sVvalue
p183
Vhttp://dbpedia.org/ontology/parkingInformation
p184
ssg8
(dp185
Vtype
p186
Vliteral
p187
sVvalue
p188
VYes; paid
p189
ssa(dp190
g7
(dp191
Vtype
p192
Vuri
p193
sVvalue
p194
Vhttp://dbpedia.org/ontology/passengersPerYear
p195
ssg8
(dp196
Vdatatype
p197
Vhttp://www.w3.org/2001/XMLSchema#nonNegativeInteger
p198
sVtype
p199
Vtyped-literal
p200
sVvalue
p201
V3296000
p202
ssa(dp203
g7
(dp204
Vtype
p205
Vuri
p206
sVvalue
p207
Vhttp://dbpedia.org/ontology/passengersUsedSystem
p208
ssg8
(dp209
Vtype
p210
Vliteral
p211
sVvalue
p212
VAmtrak
p213
ssa(dp214
g7
(dp215
Vtype
p216
Vuri
p217
sVvalue
p218
Vhttp://dbpedia.org/ontology/visitorsPercentageChange
p219
ssg8
(dp220
Vdatatype
p221
Vhttp://www.w3.org/2001/XMLSchema#double
p222
sVtype
p223
Vtyped-literal
p224
sVvalue
p225
V-2.4
p226
ssa(dp227
g7
(dp228
Vtype
p229
Vuri
p230
sVvalue
p231
Vhttp://dbpedia.org/ontology/visitorStatisticsAsOf
p232
ssg8
(dp233
Vdatatype
p234
Vhttp://www.w3.org/2001/XMLSchema#gYear
p235
sVtype
p236
Vtyped-literal
p237
sVvalue
p238
V2015
p239
ssa(dp240
g7
(dp241
Vtype
p242
Vuri
p243
sVvalue
p244
Vhttp://dbpedia.org/ontology/canBaggageChecked
p245
ssg8
(dp246
Vdatatype
p247
Vhttp://www.w3.org/2001/XMLSchema#boolean
p248
sVtype
p249
Vtyped-literal
p250
sVvalue
p251
g152
ssasVordered
p252
I01
ss.