(dp0
Vhead
p1
(dp2
Vlink
p3
(lp4
sVvars
p5
(lp6
Vp
p7
aVo
p8
assVresults
p9
(dp10
Vdistinct
p11
I00
sVbindings
p12
(lp13
(dp14
g7
(dp15
Vtype
p16
Vuri
p17
sVvalue
p18
Vhttp://dbpedia.org/ontology/PopulatedPlace/areaTotal
p19
ssg8
(dp20
Vdatatype
p21
Vhttp://dbpedia.org/datatype/squareKilometre
p22
sVtype
p23
Vtyped-literal
p24
sVvalue
p25
V2.3
p26
ssa(dp27
g7
(dp28
Vtype
p29
Vuri
p30
sVvalue
p31
Vhttp://dbpedia.org/ontology/PopulatedPlace/populationDensity
p32
ssg8
(dp33
Vdatatype
p34
Vhttp://dbpedia.org/datatype/inhabitantsPerSquareKilometre
p35
sVtype
p36
Vtyped-literal
p37
sVvalue
p38
V466.3
p39
ssa(dp40
g7
(dp41
Vtype
p42
Vuri
p43
sVvalue
p44
Vhttp://dbpedia.org/ontology/abstract
p45
ssg8
(dp46
Vxml:lang
p47
Ven
p48
sVtype
p49
Vliteral
p50
sVvalue
p51
VBentley, originally called Oxford, is a town in central, Alberta, Canada within Lacombe County. It is located on Highway 12, approximately 28 km (17 mi) northwest of Red Deer.It was named in honour of George Bentley, an early homesteader.
p52
ssa(dp53
g7
(dp54
Vtype
p55
Vuri
p56
sVvalue
p57
Vhttp://dbpedia.org/ontology/areaCode
p58
ssg8
(dp59
Vtype
p60
Vliteral
p61
sVvalue
p62
V403
p63
ssa(dp64
g7
(dp65
Vtype
p66
Vuri
p67
sVvalue
p68
Vhttp://dbpedia.org/ontology/areaTotal
p69
ssg8
(dp70
Vdatatype
p71
Vhttp://www.w3.org/2001/XMLSchema#double
p72
sVtype
p73
Vtyped-literal
p74
sVvalue
p75
V2.3e+06
p76
ssa(dp77
g7
(dp78
Vtype
p79
Vuri
p80
sVvalue
p81
Vhttp://dbpedia.org/ontology/elevation
p82
ssg8
(dp83
Vdatatype
p84
Vhttp://www.w3.org/2001/XMLSchema#double
p85
sVtype
p86
Vtyped-literal
p87
sVvalue
p88
V910.0
p89
ssa(dp90
g7
(dp91
Vtype
p92
Vuri
p93
sVvalue
p94
Vhttp://dbpedia.org/ontology/foundingDate
p95
ssg8
(dp96
Vdatatype
p97
Vhttp://www.w3.org/2001/XMLSchema#date
p98
sVtype
p99
Vtyped-literal
p100
sVvalue
p101
V1915-03-17
p102
ssa(dp103
g7
(dp104
Vtype
p105
Vuri
p106
sVvalue
p107
Vhttp://dbpedia.org/ontology/foundingDate
p108
ssg8
(dp109
Vdatatype
p110
Vhttp://www.w3.org/2001/XMLSchema#date
p111
sVtype
p112
Vtyped-literal
p113
sVvalue
p114
V2001-01-01
p115
ssa(dp116
g7
(dp117
Vtype
p118
Vuri
p119
sVvalue
p120
Vhttp://dbpedia.org/ontology/leaderTitle
p121
ssg8
(dp122
Vxml:lang
p123
Ven
p124
sVtype
p125
Vliteral
p126
sVvalue
p127
VGoverning body
p128
ssa(dp129
g7
(dp130
Vtype
p131
Vuri
p132
sVvalue
p133
Vhttp://dbpedia.org/ontology/leaderTitle
p134
ssg8
(dp135
Vxml:lang
p136
Ven
p137
sVtype
p138
Vliteral
p139
sVvalue
p140
VMayor
p141
ssa(dp142
g7
(dp143
Vtype
p144
Vuri
p145
sVvalue
p146
Vhttp://dbpedia.org/ontology/populationDensity
p147
ssg8
(dp148
Vdatatype
p149
Vhttp://www.w3.org/2001/XMLSchema#double
p150
sVtype
p151
Vtyped-literal
p152
sVvalue
p153
V466.3
p154
ssa(dp155
g7
(dp156
Vtype
p157
Vuri
p158
sVvalue
p159
Vhttp://dbpedia.org/ontology/populationTotal
p160
ssg8
(dp161
Vdatatype
p162
Vhttp://www.w3.org/2001/XMLSchema#nonNegativeInteger
p163
sVtype
p164
Vtyped-literal
p165
sVvalue
p166
V1073
p167
ssa(dp168
g7
(dp169
Vtype
p170
Vuri
p171
sVvalue
p172
Vhttp://dbpedia.org/ontology/postalCode
p173
ssg8
(dp174
Vtype
p175
Vliteral
p176
sVvalue
p177
VT0C 0J0
p178
ssa(dp179
g7
(dp180
Vtype
p181
Vuri
p182
sVvalue
p183
Vhttp://dbpedia.org/ontology/utcOffset
p184
ssg8
(dp185
Vtype
p186
Vliteral
p187
sVvalue
p188
V-7
p189
ssa(dp190
g7
(dp191
Vtype
p192
Vuri
p193
sVvalue
p194
Vhttp://dbpedia.org/ontology/wikiPageExtracted
p195
ssg8
(dp196
Vdatatype
p197
Vhttp://www.w3.org/2001/XMLSchema#dateTime
p198
sVtype
p199
Vtyped-literal
p200
sVvalue
p201
V2016-10-28T03:07:17Z
p202
ssa(dp203
g7
(dp204
Vtype
p205
Vuri
p206
sVvalue
p207
Vhttp://dbpedia.org/ontology/wikiPageLength
p208
ssg8
(dp209
Vdatatype
p210
Vhttp://www.w3.org/2001/XMLSchema#nonNegativeInteger
p211
sVtype
p212
Vtyped-literal
p213
sVvalue
p214
V9125
p215
ssa(dp216
g7
(dp217
Vtype
p218
Vuri
p219
sVvalue
p220
Vhttp://dbpedia.org/ontology/wikiPageModified
p221
ssg8
(dp222
Vdatatype
p223
Vhttp://www.w3.org/2001/XMLSchema#dateTime
p224
sVtype
p225
Vtyped-literal
p226
sVvalue
p227
V2016-10-17T04:09:52Z
p228
ssa(dp229
g7
(dp230
Vtype
p231
Vuri
p232
sVvalue
p233
Vhttp://dbpedia.org/ontology/wikiPageOutDegree
p234
ssg8
(dp235
Vdatatype
p236
Vhttp://www.w3.org/2001/XMLSchema#nonNegativeInteger
p237
sVtype
p238
Vtyped-literal
p239
sVvalue
p240
V39
p241
ssasVordered
p242
I01
ss.