(dp0
Vhead
p1
(dp2
Vlink
p3
(lp4
sVvars
p5
(lp6
Vp
p7
aVo
p8
assVresults
p9
(dp10
Vdistinct
p11
I00
sVbindings
p12
(lp13
(dp14
g7
(dp15
Vtype
p16
Vuri
p17
sVvalue
p18
Vhttp://dbpedia.org/ontology/abstract
p19
ssg8
(dp20
Vxml:lang
p21
Ven
p22
sVtype
p23
Vliteral
p24
sVvalue
p25
VHannover Airport (IATA: HAJ, ICAO: EDDV) is the international airport of Hannover (English: Hanover), the capital of the German state of Lower Saxony. It is the ninth largest airport in Germany and located in Langenhagen, 11 km (6.8 mi) north of the center of Hannover. The airport features flights to European metropolitan and leisure destinations and serves as a base for Germanwings, Condor, SunExpress Deutschland and TUIfly.
p26
ssa(dp27
g7
(dp28
Vtype
p29
Vuri
p30
sVvalue
p31
Vhttp://dbpedia.org/ontology/elevation
p32
ssg8
(dp33
Vdatatype
p34
Vhttp://www.w3.org/2001/XMLSchema#double
p35
sVtype
p36
Vtyped-literal
p37
sVvalue
p38
V55.7784
p39
ssa(dp40
g7
(dp41
Vtype
p42
Vuri
p43
sVvalue
p44
Vhttp://dbpedia.org/ontology/elevation
p45
ssg8
(dp46
Vdatatype
p47
Vhttp://www.w3.org/2001/XMLSchema#double
p48
sVtype
p49
Vtyped-literal
p50
sVvalue
p51
V56.0
p52
ssa(dp53
g7
(dp54
Vtype
p55
Vuri
p56
sVvalue
p57
Vhttp://dbpedia.org/ontology/icaoLocationIdentifier
p58
ssg8
(dp59
Vtype
p60
Vliteral
p61
sVvalue
p62
VEDDV
p63
ssa(dp64
g7
(dp65
Vtype
p66
Vuri
p67
sVvalue
p68
Vhttp://dbpedia.org/ontology/runwayDesignation
p69
ssg8
(dp70
Vtype
p71
Vliteral
p72
sVvalue
p73
V09L/27R
p74
ssa(dp75
g7
(dp76
Vtype
p77
Vuri
p78
sVvalue
p79
Vhttp://dbpedia.org/ontology/runwayDesignation
p80
ssg8
(dp81
Vtype
p82
Vliteral
p83
sVvalue
p84
V09R/27L
p85
ssa(dp86
g7
(dp87
Vtype
p88
Vuri
p89
sVvalue
p90
Vhttp://dbpedia.org/ontology/runwayDesignation
p91
ssg8
(dp92
Vtype
p93
Vliteral
p94
sVvalue
p95
V09C/27C
p96
ssa(dp97
g7
(dp98
Vtype
p99
Vuri
p100
sVvalue
p101
Vhttp://dbpedia.org/ontology/runwayLength
p102
ssg8
(dp103
Vdatatype
p104
Vhttp://www.w3.org/2001/XMLSchema#double
p105
sVtype
p106
Vtyped-literal
p107
sVvalue
p108
V779.983
p109
ssa(dp110
g7
(dp111
Vtype
p112
Vuri
p113
sVvalue
p114
Vhttp://dbpedia.org/ontology/runwayLength
p115
ssg8
(dp116
Vdatatype
p117
Vhttp://www.w3.org/2001/XMLSchema#double
p118
sVtype
p119
Vtyped-literal
p120
sVvalue
p121
V780.0
p122
ssa(dp123
g7
(dp124
Vtype
p125
Vuri
p126
sVvalue
p127
Vhttp://dbpedia.org/ontology/runwayLength
p128
ssg8
(dp129
Vdatatype
p130
Vhttp://www.w3.org/2001/XMLSchema#double
p131
sVtype
p132
Vtyped-literal
p133
sVvalue
p134
V2339.95
p135
ssa(dp136
g7
(dp137
Vtype
p138
Vuri
p139
sVvalue
p140
Vhttp://dbpedia.org/ontology/runwayLength
p141
ssg8
(dp142
Vdatatype
p143
Vhttp://www.w3.org/2001/XMLSchema#double
p144
sVtype
p145
Vtyped-literal
p146
sVvalue
p147
V2340.0
p148
ssa(dp149
g7
(dp150
Vtype
p151
Vuri
p152
sVvalue
p153
Vhttp://dbpedia.org/ontology/runwayLength
p154
ssg8
(dp155
Vdatatype
p156
Vhttp://www.w3.org/2001/XMLSchema#double
p157
sVtype
p158
Vtyped-literal
p159
sVvalue
p160
V3799.94
p161
ssa(dp162
g7
(dp163
Vtype
p164
Vuri
p165
sVvalue
p166
Vhttp://dbpedia.org/ontology/runwayLength
p167
ssg8
(dp168
Vdatatype
p169
Vhttp://www.w3.org/2001/XMLSchema#double
p170
sVtype
p171
Vtyped-literal
p172
sVvalue
p173
V3800.0
p174
ssa(dp175
g7
(dp176
Vtype
p177
Vuri
p178
sVvalue
p179
Vhttp://dbpedia.org/ontology/runwaySurface
p180
ssg8
(dp181
Vtype
p182
Vliteral
p183
sVvalue
p184
VAsphalt
p185
ssa(dp186
g7
(dp187
Vtype
p188
Vuri
p189
sVvalue
p190
Vhttp://dbpedia.org/ontology/runwaySurface
p191
ssg8
(dp192
Vtype
p193
Vliteral
p194
sVvalue
p195
VConcrete
p196
ssa(dp197
g7
(dp198
Vtype
p199
Vuri
p200
sVvalue
p201
Vhttp://dbpedia.org/ontology/wikiPageExtracted
p202
ssg8
(dp203
Vdatatype
p204
Vhttp://www.w3.org/2001/XMLSchema#dateTime
p205
sVtype
p206
Vtyped-literal
p207
sVvalue
p208
V2016-10-31T08:48:05Z
p209
ssa(dp210
g7
(dp211
Vtype
p212
Vuri
p213
sVvalue
p214
Vhttp://dbpedia.org/ontology/wikiPageLength
p215
ssg8
(dp216
Vdatatype
p217
Vhttp://www.w3.org/2001/XMLSchema#nonNegativeInteger
p218
sVtype
p219
Vtyped-literal
p220
sVvalue
p221
V18004
p222
ssa(dp223
g7
(dp224
Vtype
p225
Vuri
p226
sVvalue
p227
Vhttp://dbpedia.org/ontology/wikiPageModified
p228
ssg8
(dp229
Vdatatype
p230
Vhttp://www.w3.org/2001/XMLSchema#dateTime
p231
sVtype
p232
Vtyped-literal
p233
sVvalue
p234
V2016-10-31T04:51:41Z
p235
ssa(dp236
g7
(dp237
Vtype
p238
Vuri
p239
sVvalue
p240
Vhttp://dbpedia.org/ontology/wikiPageOutDegree
p241
ssg8
(dp242
Vdatatype
p243
Vhttp://www.w3.org/2001/XMLSchema#nonNegativeInteger
p244
sVtype
p245
Vtyped-literal
p246
sVvalue
p247
V244
p248
ssa(dp249
g7
(dp250
Vtype
p251
Vuri
p252
sVvalue
p253
Vhttp://dbpedia.org/ontology/iataLocationIdentifier
p254
ssg8
(dp255
Vtype
p256
Vliteral
p257
sVvalue
p258
VHAJ
p259
ssasVordered
p260
I01
ss.