(dp0
Vhead
p1
(dp2
Vlink
p3
(lp4
sVvars
p5
(lp6
Vp
p7
aVo
p8
assVresults
p9
(dp10
Vdistinct
p11
I00
sVbindings
p12
(lp13
(dp14
g7
(dp15
Vtype
p16
Vuri
p17
sVvalue
p18
Vhttp://dbpedia.org/ontology/abstract
p19
ssg8
(dp20
Vxml:lang
p21
Ven
p22
sVtype
p23
Vliteral
p24
sVvalue
p25
VHenry John Hyde (April 18, 1924 \u2013 November 29, 2007), an American politician, was a Republican member of the United States House of Representatives from 1975 to 2007, representing the 6th District of Illinois, an area of Chicago's northwestern suburbs which included O'Hare International Airport. He chaired the Judiciary Committee from 1995 to 2001, and the House International Relations Committee from 2001 to 2007. He gained national attention for his leadership role in managing the impeachment trial of President Bill Clinton.
p26
ssa(dp27
g7
(dp28
Vtype
p29
Vuri
p30
sVvalue
p31
Vhttp://dbpedia.org/ontology/activeYearsEndDate
p32
ssg8
(dp33
Vdatatype
p34
Vhttp://www.w3.org/2001/XMLSchema#date
p35
sVtype
p36
Vtyped-literal
p37
sVvalue
p38
V1995-01-03
p39
ssa(dp40
g7
(dp41
Vtype
p42
Vuri
p43
sVvalue
p44
Vhttp://dbpedia.org/ontology/activeYearsEndDate
p45
ssg8
(dp46
Vdatatype
p47
Vhttp://www.w3.org/2001/XMLSchema#date
p48
sVtype
p49
Vtyped-literal
p50
sVvalue
p51
V2001-01-03
p52
ssa(dp53
g7
(dp54
Vtype
p55
Vuri
p56
sVvalue
p57
Vhttp://dbpedia.org/ontology/activeYearsEndDate
p58
ssg8
(dp59
Vdatatype
p60
Vhttp://www.w3.org/2001/XMLSchema#date
p61
sVtype
p62
Vtyped-literal
p63
sVvalue
p64
V2007-01-03
p65
ssa(dp66
g7
(dp67
Vtype
p68
Vuri
p69
sVvalue
p70
Vhttp://dbpedia.org/ontology/activeYearsStartDate
p71
ssg8
(dp72
Vdatatype
p73
Vhttp://www.w3.org/2001/XMLSchema#date
p74
sVtype
p75
Vtyped-literal
p76
sVvalue
p77
V1993-01-03
p78
ssa(dp79
g7
(dp80
Vtype
p81
Vuri
p82
sVvalue
p83
Vhttp://dbpedia.org/ontology/activeYearsStartDate
p84
ssg8
(dp85
Vdatatype
p86
Vhttp://www.w3.org/2001/XMLSchema#date
p87
sVtype
p88
Vtyped-literal
p89
sVvalue
p90
V1995-01-03
p91
ssa(dp92
g7
(dp93
Vtype
p94
Vuri
p95
sVvalue
p96
Vhttp://dbpedia.org/ontology/activeYearsStartDate
p97
ssg8
(dp98
Vdatatype
p99
Vhttp://www.w3.org/2001/XMLSchema#date
p100
sVtype
p101
Vtyped-literal
p102
sVvalue
p103
V2001-01-03
p104
ssa(dp105
g7
(dp106
Vtype
p107
Vuri
p108
sVvalue
p109
Vhttp://dbpedia.org/ontology/birthDate
p110
ssg8
(dp111
Vdatatype
p112
Vhttp://www.w3.org/2001/XMLSchema#date
p113
sVtype
p114
Vtyped-literal
p115
sVvalue
p116
V1924-04-18
p117
ssa(dp118
g7
(dp119
Vtype
p120
Vuri
p121
sVvalue
p122
Vhttp://dbpedia.org/ontology/deathDate
p123
ssg8
(dp124
Vdatatype
p125
Vhttp://www.w3.org/2001/XMLSchema#date
p126
sVtype
p127
Vtyped-literal
p128
sVvalue
p129
V2007-11-29
p130
ssa(dp131
g7
(dp132
Vtype
p133
Vuri
p134
sVvalue
p135
Vhttp://dbpedia.org/ontology/office
p136
ssg8
(dp137
Vtype
p138
Vliteral
p139
sVvalue
p140
VMember of theIllinois House of Representatives
p141
ssa(dp142
g7
(dp143
Vtype
p144
Vuri
p145
sVvalue
p146
Vhttp://dbpedia.org/ontology/office
p147
ssg8
(dp148
Vtype
p149
Vliteral
p150
sVvalue
p151
VChairman of theHouse Republican Policy Committee
p152
ssa(dp153
g7
(dp154
Vtype
p155
Vuri
p156
sVvalue
p157
Vhttp://dbpedia.org/ontology/office
p158
ssg8
(dp159
Vtype
p160
Vliteral
p161
sVvalue
p162
VMajority Leader of the Illinois House of Representatives
p163
ssa(dp164
g7
(dp165
Vtype
p166
Vuri
p167
sVvalue
p168
Vhttp://dbpedia.org/ontology/orderInOffice
p169
ssg8
(dp170
Vtype
p171
Vliteral
p172
sVvalue
p173
VChairman of theHouse Committee on the Judiciary
p174
ssa(dp175
g7
(dp176
Vtype
p177
Vuri
p178
sVvalue
p179
Vhttp://dbpedia.org/ontology/orderInOffice
p180
ssg8
(dp181
Vtype
p182
Vliteral
p183
sVvalue
p184
VChairman of theHouse Committee on International Relations
p185
ssa(dp186
g7
(dp187
Vtype
p188
Vuri
p189
sVvalue
p190
Vhttp://dbpedia.org/ontology/serviceEndYear
p191
ssg8
(dp192
Vdatatype
p193
Vhttp://www.w3.org/2001/XMLSchema#gYear
p194
sVtype
p195
Vtyped-literal
p196
sVvalue
p197
V1968
p198
ssa(dp199
g7
(dp200
Vtype
p201
Vuri
p202
sVvalue
p203
Vhttp://dbpedia.org/ontology/serviceStartYear
p204
ssg8
(dp205
Vdatatype
p206
Vhttp://www.w3.org/2001/XMLSchema#gYear
p207
sVtype
p208
Vtyped-literal
p209
sVvalue
p210
V1944
p211
ssa(dp212
g7
(dp213
Vtype
p214
Vuri
p215
sVvalue
p216
Vhttp://dbpedia.org/ontology/wikiPageExtracted
p217
ssg8
(dp218
Vdatatype
p219
Vhttp://www.w3.org/2001/XMLSchema#dateTime
p220
sVtype
p221
Vtyped-literal
p222
sVvalue
p223
V2016-10-31T12:06:09Z
p224
ssa(dp225
g7
(dp226
Vtype
p227
Vuri
p228
sVvalue
p229
Vhttp://dbpedia.org/ontology/wikiPageLength
p230
ssg8
(dp231
Vdatatype
p232
Vhttp://www.w3.org/2001/XMLSchema#nonNegativeInteger
p233
sVtype
p234
Vtyped-literal
p235
sVvalue
p236
V20495
p237
ssa(dp238
g7
(dp239
Vtype
p240
Vuri
p241
sVvalue
p242
Vhttp://dbpedia.org/ontology/wikiPageModified
p243
ssg8
(dp244
Vdatatype
p245
Vhttp://www.w3.org/2001/XMLSchema#dateTime
p246
sVtype
p247
Vtyped-literal
p248
sVvalue
p249
V2016-10-27T23:25:02Z
p250
ssa(dp251
g7
(dp252
Vtype
p253
Vuri
p254
sVvalue
p255
Vhttp://dbpedia.org/ontology/wikiPageOutDegree
p256
ssg8
(dp257
Vdatatype
p258
Vhttp://www.w3.org/2001/XMLSchema#nonNegativeInteger
p259
sVtype
p260
Vtyped-literal
p261
sVvalue
p262
V147
p263
ssasVordered
p264
I01
ss.