(dp0
Vhead
p1
(dp2
Vlink
p3
(lp4
sVvars
p5
(lp6
Vp
p7
aVo
p8
assVresults
p9
(dp10
Vdistinct
p11
I00
sVbindings
p12
(lp13
(dp14
g7
(dp15
Vtype
p16
Vuri
p17
sVvalue
p18
Vhttp://dbpedia.org/ontology/abstract
p19
ssg8
(dp20
Vxml:lang
p21
Ven
p22
sVtype
p23
Vliteral
p24
sVvalue
p25
VMount Kirishima (\u9727\u5cf6\u5c71, Kirishimayama) is a 1700 meter high active volcano group in Kagoshima Prefecture and Miyazaki Prefecture, Kyushu, Japan. Numerous eruptions have been recorded since 742. Very strong eruptions happened in 788, 1716 and 1717. Augite-hypersthene andesite is the dominant rock type.The highest peak is Mount Karakuni (\u97d3\u56fd\u5cb3, Karakunidake) (1700 m). Other peaks are Takachiho-no-mine (\u9ad8\u5343\u7a42\u5cf0) (1573 m) and Shinmoedake (\u65b0\u71c3\u5cb3), both active volcanos. They are part of Kirishima-Yaku National Park near Kirishima City. Upon the summit of Takachiho was stuck the mysterious spear Ama-no-Sakahoko, by the legendary Ninigi-no-Mikoto. Mount Kirishima is considered one of the 100 Famous Japanese Mountains. The area is often foggy, and it is believed that the name Kirishima comes from the mountain looking like an island in the fog.The Kong\u014d-class battlecruiser Kirishima of the Imperial Japanese Navy, and the Kong\u014d-class guided missile destroyer Kirishima of the Japan Maritime Self-Defense Force were both named after this mountain.Shinmoedake erupted in January 2011 and again in March 2011.Kirishima Volcano Group
p26
ssa(dp27
g7
(dp28
Vtype
p29
Vuri
p30
sVvalue
p31
Vhttp://dbpedia.org/ontology/elevation
p32
ssg8
(dp33
Vdatatype
p34
Vhttp://www.w3.org/2001/XMLSchema#double
p35
sVtype
p36
Vtyped-literal
p37
sVvalue
p38
V1700.0
p39
ssa(dp40
g7
(dp41
Vtype
p42
Vuri
p43
sVvalue
p44
Vhttp://dbpedia.org/ontology/wikiPageExtracted
p45
ssg8
(dp46
Vdatatype
p47
Vhttp://www.w3.org/2001/XMLSchema#dateTime
p48
sVtype
p49
Vtyped-literal
p50
sVvalue
p51
V2016-11-03T11:12:55Z
p52
ssa(dp53
g7
(dp54
Vtype
p55
Vuri
p56
sVvalue
p57
Vhttp://dbpedia.org/ontology/wikiPageLength
p58
ssg8
(dp59
Vdatatype
p60
Vhttp://www.w3.org/2001/XMLSchema#nonNegativeInteger
p61
sVtype
p62
Vtyped-literal
p63
sVvalue
p64
V4001
p65
ssa(dp66
g7
(dp67
Vtype
p68
Vuri
p69
sVvalue
p70
Vhttp://dbpedia.org/ontology/wikiPageModified
p71
ssg8
(dp72
Vdatatype
p73
Vhttp://www.w3.org/2001/XMLSchema#dateTime
p74
sVtype
p75
Vtyped-literal
p76
sVvalue
p77
V2016-03-02T11:43:04Z
p78
ssa(dp79
g7
(dp80
Vtype
p81
Vuri
p82
sVvalue
p83
Vhttp://dbpedia.org/ontology/wikiPageOutDegree
p84
ssg8
(dp85
Vdatatype
p86
Vhttp://www.w3.org/2001/XMLSchema#nonNegativeInteger
p87
sVtype
p88
Vtyped-literal
p89
sVvalue
p90
V28
p91
ssasVordered
p92
I01
ss.