(dp0
Vhead
p1
(dp2
Vlink
p3
(lp4
sVvars
p5
(lp6
Vp
p7
aVo
p8
assVresults
p9
(dp10
Vdistinct
p11
I00
sVbindings
p12
(lp13
(dp14
g7
(dp15
Vtype
p16
Vuri
p17
sVvalue
p18
Vhttp://dbpedia.org/ontology/abstract
p19
ssg8
(dp20
Vxml:lang
p21
Ven
p22
sVtype
p23
Vliteral
p24
sVvalue
p25
VKieran Mitchell is a fictional character on the New Zealand soap opera Shortland Street who was portrayed by British actor Adam Rickitt through numerous high-profile storylines from early 2007 to mid-2010.The character arrived to the soap as a mysterious love interest for Claire Solomon (Emily Robins), only to go through a storyline that saw Kieran discover he has a brain tumour, memory losses and is really a pimp from Thailand. His criminal past sends Kieran to the forefront of the show during a storyline which saw Claire and 4 other characters murdered by a psychopathic serial killer who later turned out to be Kieran's flat mate. Kieran's story arc's would often see him portrayed as an antagonist but the character also had numerous romances and light storylines, including two engagements to Libby Jeffries (Fleur Saville) and a short lived marriage to schoolgirl Sophie McKay (Kimberley Crossman). Becoming the owner of the hospital's local bar The I.V, Kieran found himself performing numerous criminal deeds, culmilating in 2009 when he accidentally hit and killed good friend Morgan Braithwaite (Bonnie Soper) in his car. The character's criminal past finally caught up with him in 2010 and he was killed, falling off a cliff while fighting with an ex-enemy in the show's first ever 90-minute episode.
p26
ssa(dp27
g7
(dp28
Vtype
p29
Vuri
p30
sVvalue
p31
Vhttp://dbpedia.org/ontology/wikiPageExtracted
p32
ssg8
(dp33
Vdatatype
p34
Vhttp://www.w3.org/2001/XMLSchema#dateTime
p35
sVtype
p36
Vtyped-literal
p37
sVvalue
p38
V2016-11-01T18:15:14Z
p39
ssa(dp40
g7
(dp41
Vtype
p42
Vuri
p43
sVvalue
p44
Vhttp://dbpedia.org/ontology/wikiPageLength
p45
ssg8
(dp46
Vdatatype
p47
Vhttp://www.w3.org/2001/XMLSchema#nonNegativeInteger
p48
sVtype
p49
Vtyped-literal
p50
sVvalue
p51
V16804
p52
ssa(dp53
g7
(dp54
Vtype
p55
Vuri
p56
sVvalue
p57
Vhttp://dbpedia.org/ontology/wikiPageModified
p58
ssg8
(dp59
Vdatatype
p60
Vhttp://www.w3.org/2001/XMLSchema#dateTime
p61
sVtype
p62
Vtyped-literal
p63
sVvalue
p64
V2016-08-07T22:38:14Z
p65
ssa(dp66
g7
(dp67
Vtype
p68
Vuri
p69
sVvalue
p70
Vhttp://dbpedia.org/ontology/wikiPageOutDegree
p71
ssg8
(dp72
Vdatatype
p73
Vhttp://www.w3.org/2001/XMLSchema#nonNegativeInteger
p74
sVtype
p75
Vtyped-literal
p76
sVvalue
p77
V45
p78
ssasVordered
p79
I01
ss.