(dp0
Vhead
p1
(dp2
Vlink
p3
(lp4
sVvars
p5
(lp6
Vp
p7
aVo
p8
assVresults
p9
(dp10
Vdistinct
p11
I00
sVbindings
p12
(lp13
(dp14
g7
(dp15
Vtype
p16
Vuri
p17
sVvalue
p18
Vhttp://dbpedia.org/ontology/abstract
p19
ssg8
(dp20
Vxml:lang
p21
Ven
p22
sVtype
p23
Vliteral
p24
sVvalue
p25
VBayerische Motoren Werke AG (German pronunciation: [\u02c8ba\u026a\u032f\u0281\u026a\u0283\u0259 m\u0254\u02c8t\u02b0\u0254\u0281n\u0329 \u02c8v\u025b\u0250\u032fk\u0259]; German for Bavarian Motor Works), usually known under its abbreviation BMW (German pronunciation: [\u02c8be\u02d0\u02c8\u0294\u025bm\u02c8ve\u02d0]), is a German luxury vehicles, motorcycle, and engine manufacturing company founded in 1916. Headquartered in Munich, Bavaria, Germany, it also owns and produces Mini cars and serves as the parent company of Rolls-Royce Motor Cars. BMW produces motorcycles under BMW Motorrad, and plug-in electric cars under the BMW i sub-brand and the "iPerformance" model designation within the regular BMW lineup. It is one of the best-selling luxury automakers in the world. The company is a component of the Euro Stoxx 50 stock market index.
p26
ssa(dp27
g7
(dp28
Vtype
p29
Vuri
p30
sVvalue
p31
Vhttp://dbpedia.org/ontology/abstract
p32
ssg8
(dp33
Vxml:lang
p34
Ven
p35
sVtype
p36
Vliteral
p37
sVvalue
p38
VBayerische Motoren Werke AG (German pronunciation: [\u02c8ba\u026a\u032f\u0281\u026a\u0283\u0259 m\u0254\u02c8t\u02b0\u0254\u0281n\u0329 \u02c8v\u025b\u0250\u032fk\u0259]; German for Bavarian Motor Works), usually known under its abbreviation BMW (German pronunciation: [\u02c8be\u02d0\u02c8\u0294\u025bm\u02c8ve\u02d0]), is a German luxury vehicles, motorcycle, and engine manufacturing company founded in 1916. Headquartered in Munich, Bavaria, Germany. BMW owns Mini cars and is the parent company of Rolls-Royce Motor Cars. BMW produces motorcycles under BMW Motorrad, and plug-in electric cars under the BMW i sub-brand and the "iPerformance" model designation within the regular BMW lineup. It is one of the best-selling luxury automakers in the world. The company is a component of the Euro Stoxx 50 stock market index.
p39
ssa(dp40
g7
(dp41
Vtype
p42
Vuri
p43
sVvalue
p44
Vhttp://dbpedia.org/ontology/abstract
p45
ssg8
(dp46
Vxml:lang
p47
Ven
p48
sVtype
p49
Vliteral
p50
sVvalue
p51
VBayerische Motoren Werke AG (German pronunciation: [\u02c8ba\u026a\u032f\u0281\u026a\u0283\u0259 m\u0254\u02c8t\u02b0\u0254\u0281n\u0329 \u02c8v\u025b\u0250\u032fk\u0259]; German for Bavarian Motor Works), usually known under its abbreviation BMW (German pronunciation: [\u02c8be\u02d0\u02c8\u0294\u025bm\u02c8ve\u02d0]), is a German luxury vehicles, motorcycle, and engine manufacturing company founded in 1916. Headquartered in Munich, Bavaria, Germany. BMW owns Mini cars and is the parent company of Rolls-Royce Motor Cars. BMW produces motorcars under the BMW Motorsport division and motorcycles under BMW Motorrad, and plug-in electric cars under the BMW i sub-brand and the "iPerformance" model designation within the regular BMW lineup. It is one of the best-selling luxury automakers in the world. The company is a component of the Euro Stoxx 50 stock market index.
p52
ssa(dp53
g7
(dp54
Vtype
p55
Vuri
p56
sVvalue
p57
Vhttp://dbpedia.org/ontology/assets
p58
ssg8
(dp59
Vdatatype
p60
Vhttp://dbpedia.org/datatype/euro
p61
sVtype
p62
Vtyped-literal
p63
sVvalue
p64
V1.72174E11
p65
ssa(dp66
g7
(dp67
Vtype
p68
Vuri
p69
sVvalue
p70
Vhttp://dbpedia.org/ontology/equity
p71
ssg8
(dp72
Vdatatype
p73
Vhttp://dbpedia.org/datatype/euro
p74
sVtype
p75
Vtyped-literal
p76
sVvalue
p77
V4.2764E10
p78
ssa(dp79
g7
(dp80
Vtype
p81
Vuri
p82
sVvalue
p83
Vhttp://dbpedia.org/ontology/internationally
p84
ssg8
(dp85
Vdatatype
p86
Vhttp://www.w3.org/2001/XMLSchema#boolean
p87
sVtype
p88
Vtyped-literal
p89
sVvalue
p90
V1
p91
ssa(dp92
g7
(dp93
Vtype
p94
Vuri
p95
sVvalue
p96
Vhttp://dbpedia.org/ontology/netIncome
p97
ssg8
(dp98
Vdatatype
p99
Vhttp://dbpedia.org/datatype/euro
p100
sVtype
p101
Vtyped-literal
p102
sVvalue
p103
V6.396E9
p104
ssa(dp105
g7
(dp106
Vtype
p107
Vuri
p108
sVvalue
p109
Vhttp://dbpedia.org/ontology/numberOfEmployees
p110
ssg8
(dp111
Vdatatype
p112
Vhttp://www.w3.org/2001/XMLSchema#nonNegativeInteger
p113
sVtype
p114
Vtyped-literal
p115
sVvalue
p116
V122244
p117
ssa(dp118
g7
(dp119
Vtype
p120
Vuri
p121
sVvalue
p122
Vhttp://dbpedia.org/ontology/operatingIncome
p123
ssg8
(dp124
Vdatatype
p125
Vhttp://dbpedia.org/datatype/euro
p126
sVtype
p127
Vtyped-literal
p128
sVvalue
p129
V9.224E9
p130
ssa(dp131
g7
(dp132
Vtype
p133
Vuri
p134
sVvalue
p135
Vhttp://dbpedia.org/ontology/production
p136
ssg8
(dp137
Vdatatype
p138
Vhttp://www.w3.org/2001/XMLSchema#nonNegativeInteger
p139
sVtype
p140
Vtyped-literal
p141
sVvalue
p142
V2430507
p143
ssa(dp144
g7
(dp145
Vtype
p146
Vuri
p147
sVvalue
p148
Vhttp://dbpedia.org/ontology/revenue
p149
ssg8
(dp150
Vdatatype
p151
Vhttp://dbpedia.org/datatype/euro
p152
sVtype
p153
Vtyped-literal
p154
sVvalue
p155
V9.2175E10
p156
ssa(dp157
g7
(dp158
Vtype
p159
Vuri
p160
sVvalue
p161
Vhttp://dbpedia.org/ontology/wikiPageExtracted
p162
ssg8
(dp163
Vdatatype
p164
Vhttp://www.w3.org/2001/XMLSchema#dateTime
p165
sVtype
p166
Vtyped-literal
p167
sVvalue
p168
V2016-10-27T21:22:46Z
p169
ssa(dp170
g7
(dp171
Vtype
p172
Vuri
p173
sVvalue
p174
Vhttp://dbpedia.org/ontology/wikiPageLength
p175
ssg8
(dp176
Vdatatype
p177
Vhttp://www.w3.org/2001/XMLSchema#nonNegativeInteger
p178
sVtype
p179
Vtyped-literal
p180
sVvalue
p181
V89694
p182
ssa(dp183
g7
(dp184
Vtype
p185
Vuri
p186
sVvalue
p187
Vhttp://dbpedia.org/ontology/wikiPageModified
p188
ssg8
(dp189
Vdatatype
p190
Vhttp://www.w3.org/2001/XMLSchema#dateTime
p191
sVtype
p192
Vtyped-literal
p193
sVvalue
p194
V2016-10-25T09:25:49Z
p195
ssa(dp196
g7
(dp197
Vtype
p198
Vuri
p199
sVvalue
p200
Vhttp://dbpedia.org/ontology/wikiPageOutDegree
p201
ssg8
(dp202
Vdatatype
p203
Vhttp://www.w3.org/2001/XMLSchema#nonNegativeInteger
p204
sVtype
p205
Vtyped-literal
p206
sVvalue
p207
V464
p208
ssasVordered
p209
I01
ss.