(dp0
Vhead
p1
(dp2
Vlink
p3
(lp4
sVvars
p5
(lp6
Vp
p7
aVo
p8
assVresults
p9
(dp10
Vdistinct
p11
I00
sVbindings
p12
(lp13
(dp14
g7
(dp15
Vtype
p16
Vuri
p17
sVvalue
p18
Vhttp://dbpedia.org/ontology/bridgeCarries
p19
ssg8
(dp20
Vtype
p21
Vliteral
p22
sVvalue
p23
VE75 in Serbia
p24
ssa(dp25
g7
(dp26
Vtype
p27
Vuri
p28
sVvalue
p29
Vhttp://dbpedia.org/ontology/numberOfSpans
p30
ssg8
(dp31
Vdatatype
p32
Vhttp://www.w3.org/2001/XMLSchema#nonNegativeInteger
p33
sVtype
p34
Vtyped-literal
p35
sVvalue
p36
V42
p37
ssa(dp38
g7
(dp39
Vtype
p40
Vuri
p41
sVvalue
p42
Vhttp://dbpedia.org/ontology/abstract
p43
ssg8
(dp44
Vxml:lang
p45
Ven
p46
sVtype
p47
Vliteral
p48
sVvalue
p49
VBe\u0161ka Bridge (Serbian: \u041c\u043e\u0441\u0442 \u043a\u043e\u0434 \u0411\u0435\u0448\u043a\u0435 or Most kod Be\u0161ke) crosses the Danube river near Be\u0161ka, Serbia on the A1 motorway, part of the European route E75. It consists of two identical prestressed concrete constructions, the first being completed in 1975 and the second in 2011. With 2,205 m total length, it is the longest bridge over the Danube.The first bridge was designed by architect Branko \u017de\u017eelj, who also designed Belgrade Fair \u2013 Hall 1, \u017de\u017eelj Bridge and the Prokop station. It was built by Mostogradnja from 1971 to 1975. It was bombed twice and partly destroyed during the NATO bombing of Serbia on 1 April and 21 April 1999, but it was temporarily fixed soon after the bombing was over and reopened on 19 July 1999, as it is an important part of the E75.A twin new bridge for northbound traffic was built right next to the old one between 2008 and 2011, by a consortium led by Austrian group Alpine Bau, and was opened on October 3, 2011. After its opening, the old bridge was closed for reconstruction, to be finally opened for the designated traffic in August 2014. The total contracted value of the works was \u20ac33.7 million, and it was financed from an EBRD loan.The bridge carries a full motorway profile, having two traffic lanes, hard shoulder lane and two pedestrian lanes.
p50
ssa(dp51
g7
(dp52
Vtype
p53
Vuri
p54
sVvalue
p55
Vhttp://dbpedia.org/ontology/height
p56
ssg8
(dp57
Vdatatype
p58
Vhttp://www.w3.org/2001/XMLSchema#double
p59
sVtype
p60
Vtyped-literal
p61
sVvalue
p62
V68.2
p63
ssa(dp64
g7
(dp65
Vtype
p66
Vuri
p67
sVvalue
p68
Vhttp://dbpedia.org/ontology/length
p69
ssg8
(dp70
Vdatatype
p71
Vhttp://www.w3.org/2001/XMLSchema#double
p72
sVtype
p73
Vtyped-literal
p74
sVvalue
p75
V2.205
p76
ssa(dp77
g7
(dp78
Vtype
p79
Vuri
p80
sVvalue
p81
Vhttp://dbpedia.org/ontology/width
p82
ssg8
(dp83
Vdatatype
p84
Vhttp://www.w3.org/2001/XMLSchema#double
p85
sVtype
p86
Vtyped-literal
p87
sVvalue
p88
V14.4
p89
ssa(dp90
g7
(dp91
Vtype
p92
Vuri
p93
sVvalue
p94
Vhttp://dbpedia.org/ontology/wikiPageExtracted
p95
ssg8
(dp96
Vdatatype
p97
Vhttp://www.w3.org/2001/XMLSchema#dateTime
p98
sVtype
p99
Vtyped-literal
p100
sVvalue
p101
V2016-09-05T12:13:47Z
p102
ssa(dp103
g7
(dp104
Vtype
p105
Vuri
p106
sVvalue
p107
Vhttp://dbpedia.org/ontology/wikiPageExtracted
p108
ssg8
(dp109
Vdatatype
p110
Vhttp://www.w3.org/2001/XMLSchema#dateTime
p111
sVtype
p112
Vtyped-literal
p113
sVvalue
p114
V2016-10-21T02:54:58Z
p115
ssa(dp116
g7
(dp117
Vtype
p118
Vuri
p119
sVvalue
p120
Vhttp://dbpedia.org/ontology/wikiPageExtracted
p121
ssg8
(dp122
Vdatatype
p123
Vhttp://www.w3.org/2001/XMLSchema#dateTime
p124
sVtype
p125
Vtyped-literal
p126
sVvalue
p127
V2016-10-28T04:09:15Z
p128
ssa(dp129
g7
(dp130
Vtype
p131
Vuri
p132
sVvalue
p133
Vhttp://dbpedia.org/ontology/wikiPageLength
p134
ssg8
(dp135
Vdatatype
p136
Vhttp://www.w3.org/2001/XMLSchema#nonNegativeInteger
p137
sVtype
p138
Vtyped-literal
p139
sVvalue
p140
V3779
p141
ssa(dp142
g7
(dp143
Vtype
p144
Vuri
p145
sVvalue
p146
Vhttp://dbpedia.org/ontology/wikiPageModified
p147
ssg8
(dp148
Vdatatype
p149
Vhttp://www.w3.org/2001/XMLSchema#dateTime
p150
sVtype
p151
Vtyped-literal
p152
sVvalue
p153
V2016-06-17T11:19:18Z
p154
ssa(dp155
g7
(dp156
Vtype
p157
Vuri
p158
sVvalue
p159
Vhttp://dbpedia.org/ontology/wikiPageOutDegree
p160
ssg8
(dp161
Vdatatype
p162
Vhttp://www.w3.org/2001/XMLSchema#nonNegativeInteger
p163
sVtype
p164
Vtyped-literal
p165
sVvalue
p166
V29
p167
ssa(dp168
g7
(dp169
Vtype
p170
Vuri
p171
sVvalue
p172
Vhttp://dbpedia.org/ontology/Infrastructure/length
p173
ssg8
(dp174
Vdatatype
p175
Vhttp://dbpedia.org/datatype/kilometre
p176
sVtype
p177
Vtyped-literal
p178
sVvalue
p179
V0.002205
p180
ssa(dp181
g7
(dp182
Vtype
p183
Vuri
p184
sVvalue
p185
Vhttp://dbpedia.org/ontology/openingYear
p186
ssg8
(dp187
Vdatatype
p188
Vhttp://www.w3.org/2001/XMLSchema#gYear
p189
sVtype
p190
Vtyped-literal
p191
sVvalue
p192
V1975
p193
ssa(dp194
g7
(dp195
Vtype
p196
Vuri
p197
sVvalue
p198
Vhttp://dbpedia.org/ontology/mainspan
p199
ssg8
(dp200
Vdatatype
p201
Vhttp://www.w3.org/2001/XMLSchema#double
p202
sVtype
p203
Vtyped-literal
p204
sVvalue
p205
V210.0
p206
ssasVordered
p207
I01
ss.