(dp0
Vhead
p1
(dp2
Vlink
p3
(lp4
sVvars
p5
(lp6
Vp
p7
aVo
p8
assVresults
p9
(dp10
Vdistinct
p11
I00
sVbindings
p12
(lp13
(dp14
g7
(dp15
Vtype
p16
Vuri
p17
sVvalue
p18
Vhttp://dbpedia.org/ontology/abstract
p19
ssg8
(dp20
Vxml:lang
p21
Ven
p22
sVtype
p23
Vliteral
p24
sVvalue
p25
VWyomissing Area School District is a diminutive, suburban, public school district located in Berks County, Pennsylvania. The Wyomissing Area School District encompasses approximately 4 square miles (10 km2). The district is the smallest one operating in Berks County. According to 2000 federal census data, it serves a resident population of 12,440. By 2010, the district's population declined to 12,359 people. In 2009, the district residents\u2019 per capita income was $35,814, while the median family income was $70,875. In the Commonwealth, the median family income was $49,501  and the United States median family income was $49,445, in 2010. By 2013, the median household income in the United States rose to $52,100.According to District officials, in school year 2007\u201308 the Wyomissing Area School District provided basic educational services to 2,028 pupils through the employment of 171 teachers, 141 full-time and part-time support personnel, and 14 administrators. Wyomissing Area School District received more than $3.4 million in state funding in school year 2007\u201308.Wyomissing Area School District operates three schools: Wyomissing Area Junior Senior High School, West Reading Elementary Center, and Wyomissing Hills Elementary Center. The district is one of 19 public school districts operating in Berks County, Pennsylvania. The district is one of the 500 public school districts of Pennsylvania. The West Reading School District and Wyomissing School District officially merged into the Wyomissing Area School over several years finalizing the process in 1969.
p26
ssa(dp27
g7
(dp28
Vtype
p29
Vuri
p30
sVvalue
p31
Vhttp://dbpedia.org/ontology/wikiPageExtracted
p32
ssg8
(dp33
Vdatatype
p34
Vhttp://www.w3.org/2001/XMLSchema#dateTime
p35
sVtype
p36
Vtyped-literal
p37
sVvalue
p38
V2016-08-23T22:17:19Z
p39
ssa(dp40
g7
(dp41
Vtype
p42
Vuri
p43
sVvalue
p44
Vhttp://dbpedia.org/ontology/wikiPageLength
p45
ssg8
(dp46
Vdatatype
p47
Vhttp://www.w3.org/2001/XMLSchema#nonNegativeInteger
p48
sVtype
p49
Vtyped-literal
p50
sVvalue
p51
V117016
p52
ssa(dp53
g7
(dp54
Vtype
p55
Vuri
p56
sVvalue
p57
Vhttp://dbpedia.org/ontology/wikiPageModified
p58
ssg8
(dp59
Vdatatype
p60
Vhttp://www.w3.org/2001/XMLSchema#dateTime
p61
sVtype
p62
Vtyped-literal
p63
sVvalue
p64
V2016-07-20T19:23:26Z
p65
ssa(dp66
g7
(dp67
Vtype
p68
Vuri
p69
sVvalue
p70
Vhttp://dbpedia.org/ontology/wikiPageOutDegree
p71
ssg8
(dp72
Vdatatype
p73
Vhttp://www.w3.org/2001/XMLSchema#nonNegativeInteger
p74
sVtype
p75
Vtyped-literal
p76
sVvalue
p77
V79
p78
ssasVordered
p79
I01
ss.