(dp0
Vhead
p1
(dp2
Vlink
p3
(lp4
sVvars
p5
(lp6
Vp
p7
aVo
p8
assVresults
p9
(dp10
Vdistinct
p11
I00
sVbindings
p12
(lp13
(dp14
g7
(dp15
Vtype
p16
Vuri
p17
sVvalue
p18
Vhttp://dbpedia.org/ontology/PopulatedPlace/areaTotal
p19
ssg8
(dp20
Vdatatype
p21
Vhttp://dbpedia.org/datatype/squareKilometre
p22
sVtype
p23
Vtyped-literal
p24
sVvalue
p25
V2.32
p26
ssa(dp27
g7
(dp28
Vtype
p29
Vuri
p30
sVvalue
p31
Vhttp://dbpedia.org/ontology/PopulatedPlace/populationDensity
p32
ssg8
(dp33
Vdatatype
p34
Vhttp://dbpedia.org/datatype/inhabitantsPerSquareKilometre
p35
sVtype
p36
Vtyped-literal
p37
sVvalue
p38
V28.0
p39
ssa(dp40
g7
(dp41
Vtype
p42
Vuri
p43
sVvalue
p44
Vhttp://dbpedia.org/ontology/abstract
p45
ssg8
(dp46
Vxml:lang
p47
Ven
p48
sVtype
p49
Vliteral
p50
sVvalue
p51
VRochon Sands is a summer village on Buffalo Lake in central Alberta, Canada. It is south of Rochon Sands Provincial Park. The summer village and the park take their name from the Rochon family who owned the land in the early 1900s.
p52
ssa(dp53
g7
(dp54
Vtype
p55
Vuri
p56
sVvalue
p57
Vhttp://dbpedia.org/ontology/areaTotal
p58
ssg8
(dp59
Vdatatype
p60
Vhttp://www.w3.org/2001/XMLSchema#double
p61
sVtype
p62
Vtyped-literal
p63
sVvalue
p64
V2.32e+06
p65
ssa(dp66
g7
(dp67
Vtype
p68
Vuri
p69
sVvalue
p70
Vhttp://dbpedia.org/ontology/leaderTitle
p71
ssg8
(dp72
Vxml:lang
p73
Ven
p74
sVtype
p75
Vliteral
p76
sVvalue
p77
VGoverning body
p78
ssa(dp79
g7
(dp80
Vtype
p81
Vuri
p82
sVvalue
p83
Vhttp://dbpedia.org/ontology/leaderTitle
p84
ssg8
(dp85
Vxml:lang
p86
Ven
p87
sVtype
p88
Vliteral
p89
sVvalue
p90
VMayor
p91
ssa(dp92
g7
(dp93
Vtype
p94
Vuri
p95
sVvalue
p96
Vhttp://dbpedia.org/ontology/populationDensity
p97
ssg8
(dp98
Vdatatype
p99
Vhttp://www.w3.org/2001/XMLSchema#double
p100
sVtype
p101
Vtyped-literal
p102
sVvalue
p103
V28.0
p104
ssa(dp105
g7
(dp106
Vtype
p107
Vuri
p108
sVvalue
p109
Vhttp://dbpedia.org/ontology/populationTotal
p110
ssg8
(dp111
Vdatatype
p112
Vhttp://www.w3.org/2001/XMLSchema#nonNegativeInteger
p113
sVtype
p114
Vtyped-literal
p115
sVvalue
p116
V65
p117
ssa(dp118
g7
(dp119
Vtype
p120
Vuri
p121
sVvalue
p122
Vhttp://dbpedia.org/ontology/utcOffset
p123
ssg8
(dp124
Vtype
p125
Vliteral
p126
sVvalue
p127
V-7
p128
ssa(dp129
g7
(dp130
Vtype
p131
Vuri
p132
sVvalue
p133
Vhttp://dbpedia.org/ontology/wikiPageExtracted
p134
ssg8
(dp135
Vdatatype
p136
Vhttp://www.w3.org/2001/XMLSchema#dateTime
p137
sVtype
p138
Vtyped-literal
p139
sVvalue
p140
V2016-11-05T06:56:15Z
p141
ssa(dp142
g7
(dp143
Vtype
p144
Vuri
p145
sVvalue
p146
Vhttp://dbpedia.org/ontology/wikiPageLength
p147
ssg8
(dp148
Vdatatype
p149
Vhttp://www.w3.org/2001/XMLSchema#nonNegativeInteger
p150
sVtype
p151
Vtyped-literal
p152
sVvalue
p153
V6511
p154
ssa(dp155
g7
(dp156
Vtype
p157
Vuri
p158
sVvalue
p159
Vhttp://dbpedia.org/ontology/wikiPageModified
p160
ssg8
(dp161
Vdatatype
p162
Vhttp://www.w3.org/2001/XMLSchema#dateTime
p163
sVtype
p164
Vtyped-literal
p165
sVvalue
p166
V2015-05-31T01:19:33Z
p167
ssa(dp168
g7
(dp169
Vtype
p170
Vuri
p171
sVvalue
p172
Vhttp://dbpedia.org/ontology/wikiPageOutDegree
p173
ssg8
(dp174
Vdatatype
p175
Vhttp://www.w3.org/2001/XMLSchema#nonNegativeInteger
p176
sVtype
p177
Vtyped-literal
p178
sVvalue
p179
V20
p180
ssasVordered
p181
I01
ss.