(dp0
Vhead
p1
(dp2
Vlink
p3
(lp4
sVvars
p5
(lp6
Vp
p7
aVo
p8
assVresults
p9
(dp10
Vdistinct
p11
I00
sVbindings
p12
(lp13
(dp14
g7
(dp15
Vtype
p16
Vuri
p17
sVvalue
p18
Vhttp://dbpedia.org/ontology/numberOfSpans
p19
ssg8
(dp20
Vdatatype
p21
Vhttp://www.w3.org/2001/XMLSchema#nonNegativeInteger
p22
sVtype
p23
Vtyped-literal
p24
sVvalue
p25
V6
p26
ssa(dp27
g7
(dp28
Vtype
p29
Vuri
p30
sVvalue
p31
Vhttp://dbpedia.org/ontology/abstract
p32
ssg8
(dp33
Vxml:lang
p34
Ven
p35
sVtype
p36
Vliteral
p37
sVvalue
p38
VThe Anderson Street Bridge, also known as the Cedar Lane Bridge, is a fixed span road bridge over the Hackensack River in Hackensack and Teaneck in Bergen County, New Jersey, U.S. The crossing was built in 1971 to replace an earlier structure. Being structurally deficient, the bridge was given weight restrictions in 2012 and was partially closed in 2016 for interim repairs. It is one of several bridges over the river in Hackensack, including Court Street Bridge, Midtown Bridge and those that carry Interstate 80 and Route 4.
p39
ssa(dp40
g7
(dp41
Vtype
p42
Vuri
p43
sVvalue
p44
Vhttp://dbpedia.org/ontology/length
p45
ssg8
(dp46
Vdatatype
p47
Vhttp://www.w3.org/2001/XMLSchema#double
p48
sVtype
p49
Vtyped-literal
p50
sVvalue
p51
V92.6897
p52
ssa(dp53
g7
(dp54
Vtype
p55
Vuri
p56
sVvalue
p57
Vhttp://dbpedia.org/ontology/width
p58
ssg8
(dp59
Vdatatype
p60
Vhttp://www.w3.org/2001/XMLSchema#double
p61
sVtype
p62
Vtyped-literal
p63
sVvalue
p64
V22.0736
p65
ssa(dp66
g7
(dp67
Vtype
p68
Vuri
p69
sVvalue
p70
Vhttp://dbpedia.org/ontology/wikiPageExtracted
p71
ssg8
(dp72
Vdatatype
p73
Vhttp://www.w3.org/2001/XMLSchema#dateTime
p74
sVtype
p75
Vtyped-literal
p76
sVvalue
p77
V2016-10-27T11:59:42Z
p78
ssa(dp79
g7
(dp80
Vtype
p81
Vuri
p82
sVvalue
p83
Vhttp://dbpedia.org/ontology/wikiPageLength
p84
ssg8
(dp85
Vdatatype
p86
Vhttp://www.w3.org/2001/XMLSchema#nonNegativeInteger
p87
sVtype
p88
Vtyped-literal
p89
sVvalue
p90
V6572
p91
ssa(dp92
g7
(dp93
Vtype
p94
Vuri
p95
sVvalue
p96
Vhttp://dbpedia.org/ontology/wikiPageModified
p97
ssg8
(dp98
Vdatatype
p99
Vhttp://www.w3.org/2001/XMLSchema#dateTime
p100
sVtype
p101
Vtyped-literal
p102
sVvalue
p103
V2016-10-22T06:02:02Z
p104
ssa(dp105
g7
(dp106
Vtype
p107
Vuri
p108
sVvalue
p109
Vhttp://dbpedia.org/ontology/wikiPageOutDegree
p110
ssg8
(dp111
Vdatatype
p112
Vhttp://www.w3.org/2001/XMLSchema#nonNegativeInteger
p113
sVtype
p114
Vtyped-literal
p115
sVvalue
p116
V36
p117
ssa(dp118
g7
(dp119
Vtype
p120
Vuri
p121
sVvalue
p122
Vhttp://dbpedia.org/ontology/Infrastructure/length
p123
ssg8
(dp124
Vdatatype
p125
Vhttp://dbpedia.org/datatype/kilometre
p126
sVtype
p127
Vtyped-literal
p128
sVvalue
p129
V0.09268968
p130
ssa(dp131
g7
(dp132
Vtype
p133
Vuri
p134
sVvalue
p135
Vhttp://dbpedia.org/ontology/buildingEndDate
p136
ssg8
(dp137
Vtype
p138
Vliteral
p139
sVvalue
p140
V1971
p141
ssa(dp142
g7
(dp143
Vtype
p144
Vuri
p145
sVvalue
p146
Vhttp://dbpedia.org/ontology/mainspan
p147
ssg8
(dp148
Vdatatype
p149
Vhttp://www.w3.org/2001/XMLSchema#double
p150
sVtype
p151
Vtyped-literal
p152
sVvalue
p153
V14.9047
p154
ssa(dp155
g7
(dp156
Vtype
p157
Vuri
p158
sVvalue
p159
Vhttp://dbpedia.org/ontology/closingYear
p160
ssg8
(dp161
Vdatatype
p162
Vhttp://www.w3.org/2001/XMLSchema#gYear
p163
sVtype
p164
Vtyped-literal
p165
sVvalue
p166
V2012
p167
ssa(dp168
g7
(dp169
Vtype
p170
Vuri
p171
sVvalue
p172
Vhttp://dbpedia.org/ontology/closingYear
p173
ssg8
(dp174
Vdatatype
p175
Vhttp://www.w3.org/2001/XMLSchema#gYear
p176
sVtype
p177
Vtyped-literal
p178
sVvalue
p179
V2016
p180
ssasVordered
p181
I01
ss.