(dp0
Vhead
p1
(dp2
Vlink
p3
(lp4
sVvars
p5
(lp6
Vp
p7
aVo
p8
assVresults
p9
(dp10
Vdistinct
p11
I00
sVbindings
p12
(lp13
(dp14
g7
(dp15
Vtype
p16
Vuri
p17
sVvalue
p18
Vhttp://dbpedia.org/ontology/abstract
p19
ssg8
(dp20
Vxml:lang
p21
Ven
p22
sVtype
p23
Vliteral
p24
sVvalue
p25
VHanna Marin is a fictional character created by Sara Shepard for the Pretty Little Liars book series, and later developed for the Freeform television series adaptation by I. Marlene King and portrayed by Ashley Benson. The character has also appeared in the spin-off series Ravenswood.Hanna is one of the four protagonists of the franchise, and the stories depicts her life with her friends while they receive messages in form of threats from an omnipresent anonymous person, nicknamed as "A." In both books and television, Hanna is shown as a former overweight shiny girl who becomes a queen-bee after her best friend, Alison DiLaurentis, mysteriously disappear. While in the books, Hanna develops a fierce personality\u2014result of years of psychological torture schematized by "A"\u2014, in the TV show, she grows up as kind as possible.For her portray, Benson won a Teen Choice Award for Choice Summer TV Star: Female in 2014 and 2015.
p26
ssa(dp27
g7
(dp28
Vtype
p29
Vuri
p30
sVvalue
p31
Vhttp://dbpedia.org/ontology/abstract
p32
ssg8
(dp33
Vxml:lang
p34
Ven
p35
sVtype
p36
Vliteral
p37
sVvalue
p38
VHanna Marin is a fictional character created by Sara Shepard for the Pretty Little Liars book series, and later developed for the Freeform television series adaptation by I. Marlene King and portrayed by Ashley Benson. The character has also appeared in the spin-off series Ravenswood.Hanna is one of the four protagonists of the franchise, and the stories depicts her life with her friends while they receive messages in form of threats from an omnipresent anonymous person, nicknamed as "A." In both books and television, Hanna is shown as a former overweight shiny girl who becomes a queen-bee after her best friend, Alison DiLaurentis, mysteriously disappear. While in the books, Hanna develops a fierce personality\u2014result of years of psychological torture schematized by "A"\u2014, in the TV show, she grows up as kind as possible.Benson has received critical acclaim for her performance. Critics have praised her comedic timing along with her dramatic scenes. For her portrayal, she won a Teen Choice Award for Choice Summer TV Star: Female in 2014 and 2015.
p39
ssa(dp40
g7
(dp41
Vtype
p42
Vuri
p43
sVvalue
p44
Vhttp://dbpedia.org/ontology/firstAppearance
p45
ssg8
(dp46
Vtype
p47
Vliteral
p48
sVvalue
p49
V"
p50
ssa(dp51
g7
(dp52
Vtype
p53
Vuri
p54
sVvalue
p55
Vhttp://dbpedia.org/ontology/firstAppearance
p56
ssg8
(dp57
Vtype
p58
Vliteral
p59
sVvalue
p60
VPilot
p61
ssa(dp62
g7
(dp63
Vtype
p64
Vuri
p65
sVvalue
p66
Vhttp://dbpedia.org/ontology/firstAppearance
p67
ssg8
(dp68
Vtype
p69
Vliteral
p70
sVvalue
p71
VNovel:
p72
ssa(dp73
g7
(dp74
Vtype
p75
Vuri
p76
sVvalue
p77
Vhttp://dbpedia.org/ontology/firstAppearance
p78
ssg8
(dp79
Vtype
p80
Vliteral
p81
sVvalue
p82
VTelevision:
p83
ssa(dp84
g7
(dp85
Vtype
p86
Vuri
p87
sVvalue
p88
Vhttp://dbpedia.org/ontology/firstAppearance
p89
ssg8
(dp90
Vtype
p91
Vliteral
p92
sVvalue
p93
VJune 8, 2010
p94
ssa(dp95
g7
(dp96
Vtype
p97
Vuri
p98
sVvalue
p99
Vhttp://dbpedia.org/ontology/firstAppearance
p100
ssg8
(dp101
Vtype
p102
Vliteral
p103
sVvalue
p104
VOctober 3, 2006
p105
ssa(dp106
g7
(dp107
Vtype
p108
Vuri
p109
sVvalue
p110
Vhttp://dbpedia.org/ontology/firstAppearance
p111
ssg8
(dp112
Vtype
p113
Vliteral
p114
sVvalue
p115
VPretty Little Liars
p116
ssa(dp117
g7
(dp118
Vtype
p119
Vuri
p120
sVvalue
p121
Vhttp://dbpedia.org/ontology/firstAppearance
p122
ssg8
(dp123
Vtype
p124
Vliteral
p125
sVvalue
p126
VSeason 1, episode 1
p127
ssa(dp128
g7
(dp129
Vtype
p130
Vuri
p131
sVvalue
p132
Vhttp://dbpedia.org/ontology/wikiPageExtracted
p133
ssg8
(dp134
Vdatatype
p135
Vhttp://www.w3.org/2001/XMLSchema#dateTime
p136
sVtype
p137
Vtyped-literal
p138
sVvalue
p139
V2016-10-31T08:43:55Z
p140
ssa(dp141
g7
(dp142
Vtype
p143
Vuri
p144
sVvalue
p145
Vhttp://dbpedia.org/ontology/wikiPageLength
p146
ssg8
(dp147
Vdatatype
p148
Vhttp://www.w3.org/2001/XMLSchema#nonNegativeInteger
p149
sVtype
p150
Vtyped-literal
p151
sVvalue
p152
V18583
p153
ssa(dp154
g7
(dp155
Vtype
p156
Vuri
p157
sVvalue
p158
Vhttp://dbpedia.org/ontology/wikiPageModified
p159
ssg8
(dp160
Vdatatype
p161
Vhttp://www.w3.org/2001/XMLSchema#dateTime
p162
sVtype
p163
Vtyped-literal
p164
sVvalue
p165
V2016-10-29T16:19:17Z
p166
ssa(dp167
g7
(dp168
Vtype
p169
Vuri
p170
sVvalue
p171
Vhttp://dbpedia.org/ontology/wikiPageOutDegree
p172
ssg8
(dp173
Vdatatype
p174
Vhttp://www.w3.org/2001/XMLSchema#nonNegativeInteger
p175
sVtype
p176
Vtyped-literal
p177
sVvalue
p178
V67
p179
ssasVordered
p180
I01
ss.