(dp0
Vhead
p1
(dp2
Vlink
p3
(lp4
sVvars
p5
(lp6
Vp
p7
aVo
p8
assVresults
p9
(dp10
Vdistinct
p11
I00
sVbindings
p12
(lp13
(dp14
g7
(dp15
Vtype
p16
Vuri
p17
sVvalue
p18
Vhttp://dbpedia.org/ontology/bridgeCarries
p19
ssg8
(dp20
Vtype
p21
Vliteral
p22
sVvalue
p23
V10 Lanes of;light-railorbus-way-ready
p24
ssa(dp25
g7
(dp26
Vtype
p27
Vuri
p28
sVvalue
p29
Vhttp://dbpedia.org/ontology/abstract
p30
ssg8
(dp31
Vxml:lang
p32
Ven
p33
sVtype
p34
Vliteral
p35
sVvalue
p36
VThe I-35W Saint Anthony Falls Bridge crosses the Saint Anthony Falls of the Mississippi River in Minneapolis, Minnesota in the U.S., carrying north-south traffic on Interstate Highway 35W. The ten-lane bridge replaced the I-35W Mississippi River bridge, which collapsed on August 1, 2007. It was planned and is maintained by the Minnesota Department of Transportation (Mn/DOT). The planning, design, and construction processes were completed faster than normal because Interstate 35W is a critical artery for commuters and truck freight. The bridge opened September 18, 2008, well ahead of the original goal of December 24.
p37
ssa(dp38
g7
(dp39
Vtype
p40
Vuri
p41
sVvalue
p42
Vhttp://dbpedia.org/ontology/buildingStartDate
p43
ssg8
(dp44
Vtype
p45
Vliteral
p46
sVvalue
p47
VOctober 30, 2007
p48
ssa(dp49
g7
(dp50
Vtype
p51
Vuri
p52
sVvalue
p53
Vhttp://dbpedia.org/ontology/height
p54
ssg8
(dp55
Vdatatype
p56
Vhttp://www.w3.org/2001/XMLSchema#double
p57
sVtype
p58
Vtyped-literal
p59
sVvalue
p60
V36.576
p61
ssa(dp62
g7
(dp63
Vtype
p64
Vuri
p65
sVvalue
p66
Vhttp://dbpedia.org/ontology/length
p67
ssg8
(dp68
Vdatatype
p69
Vhttp://www.w3.org/2001/XMLSchema#double
p70
sVtype
p71
Vtyped-literal
p72
sVvalue
p73
V370.637
p74
ssa(dp75
g7
(dp76
Vtype
p77
Vuri
p78
sVvalue
p79
Vhttp://dbpedia.org/ontology/openingDate
p80
ssg8
(dp81
Vdatatype
p82
Vhttp://www.w3.org/2001/XMLSchema#date
p83
sVtype
p84
Vtyped-literal
p85
sVvalue
p86
V2008-09-18
p87
ssa(dp88
g7
(dp89
Vtype
p90
Vuri
p91
sVvalue
p92
Vhttp://dbpedia.org/ontology/width
p93
ssg8
(dp94
Vdatatype
p95
Vhttp://www.w3.org/2001/XMLSchema#double
p96
sVtype
p97
Vtyped-literal
p98
sVvalue
p99
V54.864
p100
ssa(dp101
g7
(dp102
Vtype
p103
Vuri
p104
sVvalue
p105
Vhttp://dbpedia.org/ontology/wikiPageExtracted
p106
ssg8
(dp107
Vdatatype
p108
Vhttp://www.w3.org/2001/XMLSchema#dateTime
p109
sVtype
p110
Vtyped-literal
p111
sVvalue
p112
V2016-10-31T18:42:51Z
p113
ssa(dp114
g7
(dp115
Vtype
p116
Vuri
p117
sVvalue
p118
Vhttp://dbpedia.org/ontology/wikiPageLength
p119
ssg8
(dp120
Vdatatype
p121
Vhttp://www.w3.org/2001/XMLSchema#nonNegativeInteger
p122
sVtype
p123
Vtyped-literal
p124
sVvalue
p125
V23691
p126
ssa(dp127
g7
(dp128
Vtype
p129
Vuri
p130
sVvalue
p131
Vhttp://dbpedia.org/ontology/wikiPageModified
p132
ssg8
(dp133
Vdatatype
p134
Vhttp://www.w3.org/2001/XMLSchema#dateTime
p135
sVtype
p136
Vtyped-literal
p137
sVvalue
p138
V2016-10-15T17:50:14Z
p139
ssa(dp140
g7
(dp141
Vtype
p142
Vuri
p143
sVvalue
p144
Vhttp://dbpedia.org/ontology/wikiPageOutDegree
p145
ssg8
(dp146
Vdatatype
p147
Vhttp://www.w3.org/2001/XMLSchema#nonNegativeInteger
p148
sVtype
p149
Vtyped-literal
p150
sVvalue
p151
V73
p152
ssa(dp153
g7
(dp154
Vtype
p155
Vuri
p156
sVvalue
p157
Vhttp://dbpedia.org/ontology/Infrastructure/length
p158
ssg8
(dp159
Vdatatype
p160
Vhttp://dbpedia.org/datatype/kilometre
p161
sVtype
p162
Vtyped-literal
p163
sVvalue
p164
V0.3706368
p165
ssa(dp166
g7
(dp167
Vtype
p168
Vuri
p169
sVvalue
p170
Vhttp://dbpedia.org/ontology/openingYear
p171
ssg8
(dp172
Vdatatype
p173
Vhttp://www.w3.org/2001/XMLSchema#gYear
p174
sVtype
p175
Vtyped-literal
p176
sVvalue
p177
V2008
p178
ssa(dp179
g7
(dp180
Vtype
p181
Vuri
p182
sVvalue
p183
Vhttp://dbpedia.org/ontology/mainspan
p184
ssg8
(dp185
Vdatatype
p186
Vhttp://www.w3.org/2001/XMLSchema#double
p187
sVtype
p188
Vtyped-literal
p189
sVvalue
p190
V153.619
p191
ssa(dp192
g7
(dp193
Vtype
p194
Vuri
p195
sVvalue
p196
Vhttp://dbpedia.org/ontology/unitedStatesNationalBridgeId
p197
ssg8
(dp198
Vtype
p199
Vliteral
p200
sVvalue
p201
VNBI 27410 (Northbound), 27409 (Southbound)
p202
ssa(dp203
g7
(dp204
Vtype
p205
Vuri
p206
sVvalue
p207
Vhttp://dbpedia.org/ontology/vehiclesPerDay
p208
ssg8
(dp209
Vdatatype
p210
Vhttp://www.w3.org/2001/XMLSchema#nonNegativeInteger
p211
sVtype
p212
Vtyped-literal
p213
sVvalue
p214
V141000
p215
ssasVordered
p216
I01
ss.