(dp0
Vhead
p1
(dp2
Vlink
p3
(lp4
sVvars
p5
(lp6
Vp
p7
aVo
p8
assVresults
p9
(dp10
Vdistinct
p11
I00
sVbindings
p12
(lp13
(dp14
g7
(dp15
Vtype
p16
Vuri
p17
sVvalue
p18
Vhttp://dbpedia.org/ontology/abstract
p19
ssg8
(dp20
Vxml:lang
p21
Ven
p22
sVtype
p23
Vliteral
p24
sVvalue
p25
VFrancis Eugene George OMI (January 16, 1937 \u2013 April 17, 2015) was an American cardinal of the Roman Catholic Church and Archbishop Emeritus of Chicago. He was the eighth Archbishop of Chicago (1997\u20132014) and previously served as Bishop of Yakima (1990\u20131996) and Archbishop of Portland, Oregon (1996\u20131997).A member of the Missionary Oblates of Mary Immaculate, George was created a cardinal by Pope John Paul II in 1998. He served as president of the United States Conference of Catholic Bishops from 2007 to 2010.On September 20, 2014, Pope Francis accepted George's resignation and appointed Bishop Blase J. Cupich of Spokane, Washington, to succeed him as Archbishop of the Archdiocese of Chicago. In this unusual circumstance, George was permitted to remain as the incumbent archbishop until Cupich was installed to succeed him on November 18, 2014. He was initially diagnosed with cancer in 2006, and died from the disease in 2015.
p26
ssa(dp27
g7
(dp28
Vtype
p29
Vuri
p30
sVvalue
p31
Vhttp://dbpedia.org/ontology/activeYearsEndYear
p32
ssg8
(dp33
Vdatatype
p34
Vhttp://www.w3.org/2001/XMLSchema#gYear
p35
sVtype
p36
Vtyped-literal
p37
sVvalue
p38
V2014
p39
ssa(dp40
g7
(dp41
Vtype
p42
Vuri
p43
sVvalue
p44
Vhttp://dbpedia.org/ontology/activeYearsStartYear
p45
ssg8
(dp46
Vdatatype
p47
Vhttp://www.w3.org/2001/XMLSchema#gYear
p48
sVtype
p49
Vtyped-literal
p50
sVvalue
p51
V1997
p52
ssa(dp53
g7
(dp54
Vtype
p55
Vuri
p56
sVvalue
p57
Vhttp://dbpedia.org/ontology/birthDate
p58
ssg8
(dp59
Vdatatype
p60
Vhttp://www.w3.org/2001/XMLSchema#date
p61
sVtype
p62
Vtyped-literal
p63
sVvalue
p64
V1937-01-16
p65
ssa(dp66
g7
(dp67
Vtype
p68
Vuri
p69
sVvalue
p70
Vhttp://dbpedia.org/ontology/deathDate
p71
ssg8
(dp72
Vdatatype
p73
Vhttp://www.w3.org/2001/XMLSchema#date
p74
sVtype
p75
Vtyped-literal
p76
sVvalue
p77
V2015-04-17
p78
ssa(dp79
g7
(dp80
Vtype
p81
Vuri
p82
sVvalue
p83
Vhttp://dbpedia.org/ontology/wikiPageExtracted
p84
ssg8
(dp85
Vdatatype
p86
Vhttp://www.w3.org/2001/XMLSchema#dateTime
p87
sVtype
p88
Vtyped-literal
p89
sVvalue
p90
V2016-10-30T15:08:13Z
p91
ssa(dp92
g7
(dp93
Vtype
p94
Vuri
p95
sVvalue
p96
Vhttp://dbpedia.org/ontology/wikiPageLength
p97
ssg8
(dp98
Vdatatype
p99
Vhttp://www.w3.org/2001/XMLSchema#nonNegativeInteger
p100
sVtype
p101
Vtyped-literal
p102
sVvalue
p103
V49937
p104
ssa(dp105
g7
(dp106
Vtype
p107
Vuri
p108
sVvalue
p109
Vhttp://dbpedia.org/ontology/wikiPageModified
p110
ssg8
(dp111
Vdatatype
p112
Vhttp://www.w3.org/2001/XMLSchema#dateTime
p113
sVtype
p114
Vtyped-literal
p115
sVvalue
p116
V2016-10-16T20:02:49Z
p117
ssa(dp118
g7
(dp119
Vtype
p120
Vuri
p121
sVvalue
p122
Vhttp://dbpedia.org/ontology/wikiPageOutDegree
p123
ssg8
(dp124
Vdatatype
p125
Vhttp://www.w3.org/2001/XMLSchema#nonNegativeInteger
p126
sVtype
p127
Vtyped-literal
p128
sVvalue
p129
V276
p130
ssasVordered
p131
I01
ss.