(dp0
Vhead
p1
(dp2
Vlink
p3
(lp4
sVvars
p5
(lp6
Vp
p7
aVo
p8
assVresults
p9
(dp10
Vdistinct
p11
I00
sVbindings
p12
(lp13
(dp14
g7
(dp15
Vtype
p16
Vuri
p17
sVvalue
p18
Vhttp://dbpedia.org/ontology/bridgeCarries
p19
ssg8
(dp20
Vtype
p21
Vliteral
p22
sVvalue
p23
VMotor vehicles,Pedestrians,Bicycles
p24
ssa(dp25
g7
(dp26
Vtype
p27
Vuri
p28
sVvalue
p29
Vhttp://dbpedia.org/ontology/abstract
p30
ssg8
(dp31
Vxml:lang
p32
Ven
p33
sVtype
p34
Vliteral
p35
sVvalue
p36
VThe Pupin Bridge (Serbian Cyrillic: \u041f\u0443\u043f\u0438\u043d\u043e\u0432 \u043c\u043e\u0441\u0442, Pupinov most) is a road bridge over the Danube River in Belgrade, Serbia. The bridge is located upstream of the city center and connects Belgrade neighbourhoods of Zemun and Bor\u010da. Opened in December 2014, it became the second bridge over the Danube in Belgrade, after the Pan\u010devo Bridge. During the construction, its tentative name was Zemun\u2013Bor\u010da bridge, but later it got named after Serbian scientist and inventor Mihajlo Pupin.The bridge and 21.6 km of new access roads will help to divert heavy traffic from Belgrade city centre. The bridge is designed as two independent bridge structures of three car lanes 3.5 meters wide and pedestrian-bicycle paths on both sides.The bridge construction costs of EUR 170 million were provided by the Exim Bank of China (85%) and the Government of Serbia and the City of Belgrade (15%). The Chinese-built bridge was also China\u2019s first big infrastructure investment on the European continent.The bridge was opened by Premier of the People's Republic of China Li Keqiang on 18 December 2014.
p37
ssa(dp38
g7
(dp39
Vtype
p40
Vuri
p41
sVvalue
p42
Vhttp://dbpedia.org/ontology/buildingStartDate
p43
ssg8
(dp44
Vtype
p45
Vliteral
p46
sVvalue
p47
VOctober 2011
p48
ssa(dp49
g7
(dp50
Vtype
p51
Vuri
p52
sVvalue
p53
Vhttp://dbpedia.org/ontology/height
p54
ssg8
(dp55
Vdatatype
p56
Vhttp://www.w3.org/2001/XMLSchema#double
p57
sVtype
p58
Vtyped-literal
p59
sVvalue
p60
V22.8
p61
ssa(dp62
g7
(dp63
Vtype
p64
Vuri
p65
sVvalue
p66
Vhttp://dbpedia.org/ontology/length
p67
ssg8
(dp68
Vdatatype
p69
Vhttp://www.w3.org/2001/XMLSchema#double
p70
sVtype
p71
Vtyped-literal
p72
sVvalue
p73
V1507.0
p74
ssa(dp75
g7
(dp76
Vtype
p77
Vuri
p78
sVvalue
p79
Vhttp://dbpedia.org/ontology/width
p80
ssg8
(dp81
Vdatatype
p82
Vhttp://www.w3.org/2001/XMLSchema#double
p83
sVtype
p84
Vtyped-literal
p85
sVvalue
p86
V29.1
p87
ssa(dp88
g7
(dp89
Vtype
p90
Vuri
p91
sVvalue
p92
Vhttp://dbpedia.org/ontology/wikiPageExtracted
p93
ssg8
(dp94
Vdatatype
p95
Vhttp://www.w3.org/2001/XMLSchema#dateTime
p96
sVtype
p97
Vtyped-literal
p98
sVvalue
p99
V2016-11-04T21:07:05Z
p100
ssa(dp101
g7
(dp102
Vtype
p103
Vuri
p104
sVvalue
p105
Vhttp://dbpedia.org/ontology/wikiPageLength
p106
ssg8
(dp107
Vdatatype
p108
Vhttp://www.w3.org/2001/XMLSchema#nonNegativeInteger
p109
sVtype
p110
Vtyped-literal
p111
sVvalue
p112
V4328
p113
ssa(dp114
g7
(dp115
Vtype
p116
Vuri
p117
sVvalue
p118
Vhttp://dbpedia.org/ontology/wikiPageModified
p119
ssg8
(dp120
Vdatatype
p121
Vhttp://www.w3.org/2001/XMLSchema#dateTime
p122
sVtype
p123
Vtyped-literal
p124
sVvalue
p125
V2015-10-10T16:07:44Z
p126
ssa(dp127
g7
(dp128
Vtype
p129
Vuri
p130
sVvalue
p131
Vhttp://dbpedia.org/ontology/wikiPageOutDegree
p132
ssg8
(dp133
Vdatatype
p134
Vhttp://www.w3.org/2001/XMLSchema#nonNegativeInteger
p135
sVtype
p136
Vtyped-literal
p137
sVvalue
p138
V33
p139
ssa(dp140
g7
(dp141
Vtype
p142
Vuri
p143
sVvalue
p144
Vhttp://dbpedia.org/ontology/Infrastructure/length
p145
ssg8
(dp146
Vdatatype
p147
Vhttp://dbpedia.org/datatype/kilometre
p148
sVtype
p149
Vtyped-literal
p150
sVvalue
p151
V1.507
p152
ssa(dp153
g7
(dp154
Vtype
p155
Vuri
p156
sVvalue
p157
Vhttp://dbpedia.org/ontology/buildingEndDate
p158
ssg8
(dp159
Vtype
p160
Vliteral
p161
sVvalue
p162
V18 December 2014
p163
ssa(dp164
g7
(dp165
Vtype
p166
Vuri
p167
sVvalue
p168
Vhttp://dbpedia.org/ontology/mainspan
p169
ssg8
(dp170
Vdatatype
p171
Vhttp://www.w3.org/2001/XMLSchema#double
p172
sVtype
p173
Vtyped-literal
p174
sVvalue
p175
V172.0
p176
ssasVordered
p177
I01
ss.