(dp0
Vhead
p1
(dp2
Vlink
p3
(lp4
sVvars
p5
(lp6
Vp
p7
aVo
p8
assVresults
p9
(dp10
Vdistinct
p11
I00
sVbindings
p12
(lp13
(dp14
g7
(dp15
Vtype
p16
Vuri
p17
sVvalue
p18
Vhttp://dbpedia.org/ontology/abstract
p19
ssg8
(dp20
Vxml:lang
p21
Ven
p22
sVtype
p23
Vliteral
p24
sVvalue
p25
VKili Airport is a public use airstrip on Kili Island, Marshall Islands. This airstrip is assigned the location identifier Q51 by the FAA and KIO by the IATA.
p26
ssa(dp27
g7
(dp28
Vtype
p29
Vuri
p30
sVvalue
p31
Vhttp://dbpedia.org/ontology/elevation
p32
ssg8
(dp33
Vdatatype
p34
Vhttp://www.w3.org/2001/XMLSchema#double
p35
sVtype
p36
Vtyped-literal
p37
sVvalue
p38
V1.524
p39
ssa(dp40
g7
(dp41
Vtype
p42
Vuri
p43
sVvalue
p44
Vhttp://dbpedia.org/ontology/elevation
p45
ssg8
(dp46
Vdatatype
p47
Vhttp://www.w3.org/2001/XMLSchema#double
p48
sVtype
p49
Vtyped-literal
p50
sVvalue
p51
V2.0
p52
ssa(dp53
g7
(dp54
Vtype
p55
Vuri
p56
sVvalue
p57
Vhttp://dbpedia.org/ontology/runwayDesignation
p58
ssg8
(dp59
Vtype
p60
Vliteral
p61
sVvalue
p62
V04/22
p63
ssa(dp64
g7
(dp65
Vtype
p66
Vuri
p67
sVvalue
p68
Vhttp://dbpedia.org/ontology/runwayLength
p69
ssg8
(dp70
Vdatatype
p71
Vhttp://www.w3.org/2001/XMLSchema#double
p72
sVtype
p73
Vtyped-literal
p74
sVvalue
p75
V1341.0
p76
ssa(dp77
g7
(dp78
Vtype
p79
Vuri
p80
sVvalue
p81
Vhttp://dbpedia.org/ontology/runwayLength
p82
ssg8
(dp83
Vdatatype
p84
Vhttp://www.w3.org/2001/XMLSchema#double
p85
sVtype
p86
Vtyped-literal
p87
sVvalue
p88
V1341.12
p89
ssa(dp90
g7
(dp91
Vtype
p92
Vuri
p93
sVvalue
p94
Vhttp://dbpedia.org/ontology/runwaySurface
p95
ssg8
(dp96
Vtype
p97
Vliteral
p98
sVvalue
p99
VCoral gravel
p100
ssa(dp101
g7
(dp102
Vtype
p103
Vuri
p104
sVvalue
p105
Vhttp://dbpedia.org/ontology/wikiPageExtracted
p106
ssg8
(dp107
Vdatatype
p108
Vhttp://www.w3.org/2001/XMLSchema#dateTime
p109
sVtype
p110
Vtyped-literal
p111
sVvalue
p112
V2016-11-01T18:21:42Z
p113
ssa(dp114
g7
(dp115
Vtype
p116
Vuri
p117
sVvalue
p118
Vhttp://dbpedia.org/ontology/wikiPageLength
p119
ssg8
(dp120
Vdatatype
p121
Vhttp://www.w3.org/2001/XMLSchema#nonNegativeInteger
p122
sVtype
p123
Vtyped-literal
p124
sVvalue
p125
V1804
p126
ssa(dp127
g7
(dp128
Vtype
p129
Vuri
p130
sVvalue
p131
Vhttp://dbpedia.org/ontology/wikiPageModified
p132
ssg8
(dp133
Vdatatype
p134
Vhttp://www.w3.org/2001/XMLSchema#dateTime
p135
sVtype
p136
Vtyped-literal
p137
sVvalue
p138
V2016-05-04T19:51:36Z
p139
ssa(dp140
g7
(dp141
Vtype
p142
Vuri
p143
sVvalue
p144
Vhttp://dbpedia.org/ontology/wikiPageOutDegree
p145
ssg8
(dp146
Vdatatype
p147
Vhttp://www.w3.org/2001/XMLSchema#nonNegativeInteger
p148
sVtype
p149
Vtyped-literal
p150
sVvalue
p151
V19
p152
ssa(dp153
g7
(dp154
Vtype
p155
Vuri
p156
sVvalue
p157
Vhttp://dbpedia.org/ontology/iataLocationIdentifier
p158
ssg8
(dp159
Vtype
p160
Vliteral
p161
sVvalue
p162
VKIO
p163
ssa(dp164
g7
(dp165
Vtype
p166
Vuri
p167
sVvalue
p168
Vhttp://dbpedia.org/ontology/faaLocationIdentifier
p169
ssg8
(dp170
Vtype
p171
Vliteral
p172
sVvalue
p173
VQ51
p174
ssasVordered
p175
I01
ss.