(dp0
Vhead
p1
(dp2
Vlink
p3
(lp4
sVvars
p5
(lp6
Vp
p7
aVo
p8
assVresults
p9
(dp10
Vdistinct
p11
I00
sVbindings
p12
(lp13
(dp14
g7
(dp15
Vtype
p16
Vuri
p17
sVvalue
p18
Vhttp://dbpedia.org/ontology/abstract
p19
ssg8
(dp20
Vxml:lang
p21
Ven
p22
sVtype
p23
Vliteral
p24
sVvalue
p25
VHMS Lark was a 32-gun Richmond-class fifth-rate frigate of the Royal Navy. She was launched in 1762 and destroyed in Narragansett Bay in 1778, during the American Revolutionary War.Between 29 May and 18 July, the British captured a number of vessels: the sloops Sally and Fancy, snow Baron D'Ozell, Olive Branch, sloop Betsey, and schooner Sally. Lark shared the prize money with Kingfisher, Hope, Sphinx, and the Pigot galley.French Admiral d'Estaing's squadron arrived in Narragansett Bay on 29 July 1778 to support the American army under General George Washington during the battle of Rhode Island. On 30 July, four French ships of the line entered Narrangansett Bay and positioned themselves north of Conanicut Island to support the American and French forces in the battle of Rhode Island. The arrival of the French vessels trapped several British vessels, Lark among them. On 5 August 1778, as Lark lay off Newport, Captain Richard Smith had her set on fire and her cables cut. She then drifted on to shore. The Royal Navy ended up having to destroy ten of their own vessels in all.The remains of Lark are now part of a site listed on the National Register of Historic Places, the "Wreck Sites of HMS Cerberus and HMS Lark."
p26
ssa(dp27
g7
(dp28
Vtype
p29
Vuri
p30
sVvalue
p31
Vhttp://dbpedia.org/ontology/length
p32
ssg8
(dp33
Vdatatype
p34
Vhttp://www.w3.org/2001/XMLSchema#double
p35
sVtype
p36
Vtyped-literal
p37
sVvalue
p38
V38.7096
p39
ssa(dp40
g7
(dp41
Vtype
p42
Vuri
p43
sVvalue
p44
Vhttp://dbpedia.org/ontology/wikiPageExtracted
p45
ssg8
(dp46
Vdatatype
p47
Vhttp://www.w3.org/2001/XMLSchema#dateTime
p48
sVtype
p49
Vtyped-literal
p50
sVvalue
p51
V2016-10-31T06:48:29Z
p52
ssa(dp53
g7
(dp54
Vtype
p55
Vuri
p56
sVvalue
p57
Vhttp://dbpedia.org/ontology/wikiPageLength
p58
ssg8
(dp59
Vdatatype
p60
Vhttp://www.w3.org/2001/XMLSchema#nonNegativeInteger
p61
sVtype
p62
Vtyped-literal
p63
sVvalue
p64
V4736
p65
ssa(dp66
g7
(dp67
Vtype
p68
Vuri
p69
sVvalue
p70
Vhttp://dbpedia.org/ontology/wikiPageModified
p71
ssg8
(dp72
Vdatatype
p73
Vhttp://www.w3.org/2001/XMLSchema#dateTime
p74
sVtype
p75
Vtyped-literal
p76
sVvalue
p77
V2015-10-31T19:50:52Z
p78
ssa(dp79
g7
(dp80
Vtype
p81
Vuri
p82
sVvalue
p83
Vhttp://dbpedia.org/ontology/wikiPageOutDegree
p84
ssg8
(dp85
Vdatatype
p86
Vhttp://www.w3.org/2001/XMLSchema#nonNegativeInteger
p87
sVtype
p88
Vtyped-literal
p89
sVvalue
p90
V30
p91
ssa(dp92
g7
(dp93
Vtype
p94
Vuri
p95
sVvalue
p96
Vhttp://dbpedia.org/ontology/MeanOfTransportation/length
p97
ssg8
(dp98
Vdatatype
p99
Vhttp://dbpedia.org/datatype/millimetre
p100
sVtype
p101
Vtyped-literal
p102
sVvalue
p103
V38709.6
p104
ssa(dp105
g7
(dp106
Vtype
p107
Vuri
p108
sVvalue
p109
Vhttp://dbpedia.org/ontology/shipBeam
p110
ssg8
(dp111
Vdatatype
p112
Vhttp://www.w3.org/2001/XMLSchema#double
p113
sVtype
p114
Vtyped-literal
p115
sVvalue
p116
V10.3632
p117
ssasVordered
p118
I01
ss.