(dp0
Vhead
p1
(dp2
Vlink
p3
(lp4
sVvars
p5
(lp6
Vp
p7
aVo
p8
assVresults
p9
(dp10
Vdistinct
p11
I00
sVbindings
p12
(lp13
(dp14
g7
(dp15
Vtype
p16
Vuri
p17
sVvalue
p18
Vhttp://dbpedia.org/ontology/Person/height
p19
ssg8
(dp20
Vdatatype
p21
Vhttp://dbpedia.org/datatype/centimetre
p22
sVtype
p23
Vtyped-literal
p24
sVvalue
p25
V178.0
p26
ssa(dp27
g7
(dp28
Vtype
p29
Vuri
p30
sVvalue
p31
Vhttp://dbpedia.org/ontology/Person/weight
p32
ssg8
(dp33
Vdatatype
p34
Vhttp://dbpedia.org/datatype/kilogram
p35
sVtype
p36
Vtyped-literal
p37
sVvalue
p38
V73.0
p39
ssa(dp40
g7
(dp41
Vtype
p42
Vuri
p43
sVvalue
p44
Vhttp://dbpedia.org/ontology/abstract
p45
ssg8
(dp46
Vxml:lang
p47
Ven
p48
sVtype
p49
Vliteral
p50
sVvalue
p51
VJeffrey Henderson (born February 19, 1989) is an American track and field athlete who competes in the long jump and 100 meter dash. He has a personal record of 8.54 m (28 ft 0 in) for the long jump by winning the 2015 Pan Am Games gold medal. Other top results include becoming the 2014 USA Outdoor national long jump champion, and is a member of the United States 2010 and 2014 IAAF World Indoor Championships teams. On August 13 ,2016, Jeff Henderson came through on his final jump to claim the gold medal in the men's long jump on Saturday at the Rio Olympics. It's the first gold in the event for the USA since 2004. Henderson leaped 8.38 meters (27 feet, 6 inches) to edge past Luvo Manyonga (8.37 m) of South Africa by 1 centimeter.
p52
ssa(dp53
g7
(dp54
Vtype
p55
Vuri
p56
sVvalue
p57
Vhttp://dbpedia.org/ontology/abstract
p58
ssg8
(dp59
Vxml:lang
p60
Ven
p61
sVtype
p62
Vliteral
p63
sVvalue
p64
VJeffrey Henderson (born February 19, 1989) is an American track and field athlete who competes in the long jump and 100 meter dash. He has a personal record of 8.54 m (28 ft 0 in) for the long jump by winning the 2015 Pan Am Games gold medal. Other top results include becoming the 2014 USA Outdoor national long jump champion, and is a member of the United States 2010 and 2014 IAAF World Indoor Championships teams. On August 13, 2016, Jeff Henderson came through on his final jump to claim the gold medal in the men's long jump at the Rio Olympics. It's the first gold in the event for the USA since 2004. Henderson leaped 8.38 meters (27 feet, 6 inches) to edge past Luvo Manyonga (8.37 m) of South Africa by 1 centimeter.
p65
ssa(dp66
g7
(dp67
Vtype
p68
Vuri
p69
sVvalue
p70
Vhttp://dbpedia.org/ontology/birthDate
p71
ssg8
(dp72
Vdatatype
p73
Vhttp://www.w3.org/2001/XMLSchema#date
p74
sVtype
p75
Vtyped-literal
p76
sVvalue
p77
V1989-02-19
p78
ssa(dp79
g7
(dp80
Vtype
p81
Vuri
p82
sVvalue
p83
Vhttp://dbpedia.org/ontology/height
p84
ssg8
(dp85
Vdatatype
p86
Vhttp://www.w3.org/2001/XMLSchema#double
p87
sVtype
p88
Vtyped-literal
p89
sVvalue
p90
V1.78
p91
ssa(dp92
g7
(dp93
Vtype
p94
Vuri
p95
sVvalue
p96
Vhttp://dbpedia.org/ontology/weight
p97
ssg8
(dp98
Vdatatype
p99
Vhttp://www.w3.org/2001/XMLSchema#double
p100
sVtype
p101
Vtyped-literal
p102
sVvalue
p103
V73000.0
p104
ssa(dp105
g7
(dp106
Vtype
p107
Vuri
p108
sVvalue
p109
Vhttp://dbpedia.org/ontology/wikiPageExtracted
p110
ssg8
(dp111
Vdatatype
p112
Vhttp://www.w3.org/2001/XMLSchema#dateTime
p113
sVtype
p114
Vtyped-literal
p115
sVvalue
p116
V2016-11-01T05:37:44Z
p117
ssa(dp118
g7
(dp119
Vtype
p120
Vuri
p121
sVvalue
p122
Vhttp://dbpedia.org/ontology/wikiPageLength
p123
ssg8
(dp124
Vdatatype
p125
Vhttp://www.w3.org/2001/XMLSchema#nonNegativeInteger
p126
sVtype
p127
Vtyped-literal
p128
sVvalue
p129
V7497
p130
ssa(dp131
g7
(dp132
Vtype
p133
Vuri
p134
sVvalue
p135
Vhttp://dbpedia.org/ontology/wikiPageModified
p136
ssg8
(dp137
Vdatatype
p138
Vhttp://www.w3.org/2001/XMLSchema#dateTime
p139
sVtype
p140
Vtyped-literal
p141
sVvalue
p142
V2016-10-22T19:27:52Z
p143
ssa(dp144
g7
(dp145
Vtype
p146
Vuri
p147
sVvalue
p148
Vhttp://dbpedia.org/ontology/wikiPageOutDegree
p149
ssg8
(dp150
Vdatatype
p151
Vhttp://www.w3.org/2001/XMLSchema#nonNegativeInteger
p152
sVtype
p153
Vtyped-literal
p154
sVvalue
p155
V55
p156
ssasVordered
p157
I01
ss.