(dp0
Vhead
p1
(dp2
Vlink
p3
(lp4
sVvars
p5
(lp6
Vp
p7
aVo
p8
assVresults
p9
(dp10
Vdistinct
p11
I00
sVbindings
p12
(lp13
(dp14
g7
(dp15
Vtype
p16
Vuri
p17
sVvalue
p18
Vhttp://dbpedia.org/ontology/Person/height
p19
ssg8
(dp20
Vdatatype
p21
Vhttp://dbpedia.org/datatype/centimetre
p22
sVtype
p23
Vtyped-literal
p24
sVvalue
p25
V185.0
p26
ssa(dp27
g7
(dp28
Vtype
p29
Vuri
p30
sVvalue
p31
Vhttp://dbpedia.org/ontology/Person/weight
p32
ssg8
(dp33
Vdatatype
p34
Vhttp://dbpedia.org/datatype/kilogram
p35
sVtype
p36
Vtyped-literal
p37
sVvalue
p38
V92.988
p39
ssa(dp40
g7
(dp41
Vtype
p42
Vuri
p43
sVvalue
p44
Vhttp://dbpedia.org/ontology/abstract
p45
ssg8
(dp46
Vxml:lang
p47
Ven
p48
sVtype
p49
Vliteral
p50
sVvalue
p51
VViktor Nemkov (Russian: \u0412\u0438\u043a\u0442\u043e\u0440 \u0410\u043b\u0435\u043a\u0441\u0430\u043d\u0434\u0440\u043e\u0432\u0438\u0447 \u041d\u0435\u043c\u043a\u043e\u0432; born January 26, 1987 in Kazakhstan) is a Russian-Kazakh sambist, judoka competitor and mixed martial artist. Nemkov won the 2011 World Sambo Championships in Combat Sambo Events. According to the global-mma.com rankings, he is the number 10 ranked fighter in the world outside of the UFC.
p52
ssa(dp53
g7
(dp54
Vtype
p55
Vuri
p56
sVvalue
p57
Vhttp://dbpedia.org/ontology/height
p58
ssg8
(dp59
Vdatatype
p60
Vhttp://www.w3.org/2001/XMLSchema#double
p61
sVtype
p62
Vtyped-literal
p63
sVvalue
p64
V1.85
p65
ssa(dp66
g7
(dp67
Vtype
p68
Vuri
p69
sVvalue
p70
Vhttp://dbpedia.org/ontology/weight
p71
ssg8
(dp72
Vdatatype
p73
Vhttp://www.w3.org/2001/XMLSchema#double
p74
sVtype
p75
Vtyped-literal
p76
sVvalue
p77
V92988.0
p78
ssa(dp79
g7
(dp80
Vtype
p81
Vuri
p82
sVvalue
p83
Vhttp://dbpedia.org/ontology/wikiPageExtracted
p84
ssg8
(dp85
Vdatatype
p86
Vhttp://www.w3.org/2001/XMLSchema#dateTime
p87
sVtype
p88
Vtyped-literal
p89
sVvalue
p90
V2016-08-24T17:10:43Z
p91
ssa(dp92
g7
(dp93
Vtype
p94
Vuri
p95
sVvalue
p96
Vhttp://dbpedia.org/ontology/wikiPageLength
p97
ssg8
(dp98
Vdatatype
p99
Vhttp://www.w3.org/2001/XMLSchema#nonNegativeInteger
p100
sVtype
p101
Vtyped-literal
p102
sVvalue
p103
V14618
p104
ssa(dp105
g7
(dp106
Vtype
p107
Vuri
p108
sVvalue
p109
Vhttp://dbpedia.org/ontology/wikiPageModified
p110
ssg8
(dp111
Vdatatype
p112
Vhttp://www.w3.org/2001/XMLSchema#dateTime
p113
sVtype
p114
Vtyped-literal
p115
sVvalue
p116
V2016-07-01T08:20:27Z
p117
ssa(dp118
g7
(dp119
Vtype
p120
Vuri
p121
sVvalue
p122
Vhttp://dbpedia.org/ontology/wikiPageOutDegree
p123
ssg8
(dp124
Vdatatype
p125
Vhttp://www.w3.org/2001/XMLSchema#nonNegativeInteger
p126
sVtype
p127
Vtyped-literal
p128
sVvalue
p129
V81
p130
ssasVordered
p131
I01
ss.