(dp0
Vhead
p1
(dp2
Vlink
p3
(lp4
sVvars
p5
(lp6
Vp
p7
aVo
p8
assVresults
p9
(dp10
Vdistinct
p11
I00
sVbindings
p12
(lp13
(dp14
g7
(dp15
Vtype
p16
Vuri
p17
sVvalue
p18
Vhttp://dbpedia.org/ontology/abstract
p19
ssg8
(dp20
Vxml:lang
p21
Ven
p22
sVtype
p23
Vliteral
p24
sVvalue
p25
VThe Chevrolet Cobalt SS is a line of three sport compact versions of the Chevrolet Cobalt built on the General Motors Delta platform at Lordstown Assembly in Ohio, United States. It featured two forced induction inline-four Ecotec engines, as well as a third naturally aspirated engine in 1SS trim, later called the Cobalt Sport.The Cobalt SS was GM's first foray into the tuner market, launching with a 205 hp (153 kW; 208 PS) supercharged 2.0 L engine in late 2004 as a 2005 model, paired with the F35 manual of Opel. The following year, a naturally aspirated 1SS model equipped with GM's new 2.4 L,171 hp (128 kW; 173 PS) engine was added; it had both automatic and manual transmission options. The supercharged version continued until it was discontinued after 2007 for a more economical turbocharged 2.0 L engine producing 260 hp (194 kW; 264 PS) making it the manual only, highest trim Cobalt in the second quarter of 2008 (See timeline).The powertrain of the Cobalt SS received generally positive reviews, especially the turbocharged version, the car drew criticism for its interior quality, and its exterior styling, which was described as too reminiscent of its predecessor, the Cavalier. Reports surfaced in May 2009 that General Motors planned to eliminate the Cobalt SS as soon as December 2009, but they proved to be untrue. Production continued, but ordering options for late 2010 models were limited, and production of all Cobalts ended in June 2010. The car has been replaced by the Cruze, but a high performance version to directly replace the Cobalt SS has not yet been announced, nor any possible powertrains.
p26
ssa(dp27
g7
(dp28
Vtype
p29
Vuri
p30
sVvalue
p31
Vhttp://dbpedia.org/ontology/weight
p32
ssg8
(dp33
Vdatatype
p34
Vhttp://www.w3.org/2001/XMLSchema#double
p35
sVtype
p36
Vtyped-literal
p37
sVvalue
p38
V1.27688e+06
p39
ssa(dp40
g7
(dp41
Vtype
p42
Vuri
p43
sVvalue
p44
Vhttp://dbpedia.org/ontology/wikiPageExtracted
p45
ssg8
(dp46
Vdatatype
p47
Vhttp://www.w3.org/2001/XMLSchema#dateTime
p48
sVtype
p49
Vtyped-literal
p50
sVvalue
p51
V2016-10-28T22:47:19Z
p52
ssa(dp53
g7
(dp54
Vtype
p55
Vuri
p56
sVvalue
p57
Vhttp://dbpedia.org/ontology/wikiPageLength
p58
ssg8
(dp59
Vdatatype
p60
Vhttp://www.w3.org/2001/XMLSchema#nonNegativeInteger
p61
sVtype
p62
Vtyped-literal
p63
sVvalue
p64
V29108
p65
ssa(dp66
g7
(dp67
Vtype
p68
Vuri
p69
sVvalue
p70
Vhttp://dbpedia.org/ontology/wikiPageModified
p71
ssg8
(dp72
Vdatatype
p73
Vhttp://www.w3.org/2001/XMLSchema#dateTime
p74
sVtype
p75
Vtyped-literal
p76
sVvalue
p77
V2016-10-04T02:51:17Z
p78
ssa(dp79
g7
(dp80
Vtype
p81
Vuri
p82
sVvalue
p83
Vhttp://dbpedia.org/ontology/wikiPageOutDegree
p84
ssg8
(dp85
Vdatatype
p86
Vhttp://www.w3.org/2001/XMLSchema#nonNegativeInteger
p87
sVtype
p88
Vtyped-literal
p89
sVvalue
p90
V117
p91
ssa(dp92
g7
(dp93
Vtype
p94
Vuri
p95
sVvalue
p96
Vhttp://dbpedia.org/ontology/MeanOfTransportation/weight
p97
ssg8
(dp98
Vdatatype
p99
Vhttp://dbpedia.org/datatype/kilogram
p100
sVtype
p101
Vtyped-literal
p102
sVvalue
p103
V1276.884
p104
ssa(dp105
g7
(dp106
Vtype
p107
Vuri
p108
sVvalue
p109
Vhttp://dbpedia.org/ontology/transmission
p110
ssg8
(dp111
Vtype
p112
Vliteral
p113
sVvalue
p114
V4-speed 4T45automatic
p115
ssa(dp116
g7
(dp117
Vtype
p118
Vuri
p119
sVvalue
p120
Vhttp://dbpedia.org/ontology/transmission
p121
ssg8
(dp122
Vtype
p123
Vliteral
p124
sVvalue
p125
V5-speed Getrag F23 manual
p126
ssa(dp127
g7
(dp128
Vtype
p129
Vuri
p130
sVvalue
p131
Vhttp://dbpedia.org/ontology/transmission
p132
ssg8
(dp133
Vtype
p134
Vliteral
p135
sVvalue
p136
V5-speedSaab F35manual
p137
ssa(dp138
g7
(dp139
Vtype
p140
Vuri
p141
sVvalue
p142
Vhttp://dbpedia.org/ontology/modelEndYear
p143
ssg8
(dp144
Vdatatype
p145
Vhttp://www.w3.org/2001/XMLSchema#gYear
p146
sVtype
p147
Vtyped-literal
p148
sVvalue
p149
V2005
p150
ssa(dp151
g7
(dp152
Vtype
p153
Vuri
p154
sVvalue
p155
Vhttp://dbpedia.org/ontology/modelStartYear
p156
ssg8
(dp157
Vdatatype
p158
Vhttp://www.w3.org/2001/XMLSchema#gYear
p159
sVtype
p160
Vtyped-literal
p161
sVvalue
p162
V2005
p163
ssasVordered
p164
I01
ss.