(dp0
Vhead
p1
(dp2
Vlink
p3
(lp4
sVvars
p5
(lp6
Vp
p7
aVo
p8
assVresults
p9
(dp10
Vdistinct
p11
I00
sVbindings
p12
(lp13
(dp14
g7
(dp15
Vtype
p16
Vuri
p17
sVvalue
p18
Vhttp://dbpedia.org/ontology/abstract
p19
ssg8
(dp20
Vxml:lang
p21
Ven
p22
sVtype
p23
Vliteral
p24
sVvalue
p25
VNashville International Airport (IATA: BNA, ICAO: KBNA, FAA LID: BNA) is a public and military use airport in the southeastern section of Nashville in the U.S. state of Tennessee. It is included in the National Plan of Integrated Airport Systems for 2011\u20132015, which categorized it as a primary commercial service airport (more than 10,000 daily arriving and departing flights per year). Established in 1937, its original name was Berry Field, from which its ICAO and IATA identifiers are derived. The current terminal was constructed in 1987, and the airport took its current name in 1988. Nashville International Airport has four runways, the longest of which is 11,030 feet (3,360 m) long, a size adequate to handle all aircraft in service in 2014.Nashville International Airport (BNA) as of 2014 ranks as the 32nd-busiest airport in the United States in terms of passengers. A total of 12,293,924 passengers traveled into and out of BNA during 2015, a 9.8 percent increase over calendar year 2014, setting a new all-time passenger record. The month of June 2015 set a new record for passenger traffic at Nashville International, including a monthly record 1,071,025 total passengers. Nashville International classifies as a medium-sized airport in terms of 2015 passengers, and is the second largest of this category (behind only St. Louis). The airport is currently served by 10 airlines and offers 390 daily arriving and departing flights with nonstop flights to more than 55 markets in the US, Canada, Mexico, Bahamas, Jamaica, Dominican Republic and Cuba.The airport terminal complex includes an over 1,000,000-square-foot (93,000 m2) passenger terminal with 47 air carrier gates and up to 78 commuter parking positions. BNA serves a trade area of 79 counties in Middle Tennessee, southern Kentucky, and northern Alabama. The airport is a focus city for Southwest Airlines and was previously a hub for American Airlines. Berry Field Air National Guard Base is located at Nashville International Airport. The base is home to the 118th Airlift Wing and is the headquarters of the Tennessee Air National Guard.
p26
ssa(dp27
g7
(dp28
Vtype
p29
Vuri
p30
sVvalue
p31
Vhttp://dbpedia.org/ontology/elevation
p32
ssg8
(dp33
Vdatatype
p34
Vhttp://www.w3.org/2001/XMLSchema#double
p35
sVtype
p36
Vtyped-literal
p37
sVvalue
p38
V182.575
p39
ssa(dp40
g7
(dp41
Vtype
p42
Vuri
p43
sVvalue
p44
Vhttp://dbpedia.org/ontology/icaoLocationIdentifier
p45
ssg8
(dp46
Vtype
p47
Vliteral
p48
sVvalue
p49
VKBNA
p50
ssa(dp51
g7
(dp52
Vtype
p53
Vuri
p54
sVvalue
p55
Vhttp://dbpedia.org/ontology/runwayDesignation
p56
ssg8
(dp57
Vtype
p58
Vliteral
p59
sVvalue
p60
V13/31
p61
ssa(dp62
g7
(dp63
Vtype
p64
Vuri
p65
sVvalue
p66
Vhttp://dbpedia.org/ontology/runwayDesignation
p67
ssg8
(dp68
Vtype
p69
Vliteral
p70
sVvalue
p71
V2L/20R
p72
ssa(dp73
g7
(dp74
Vtype
p75
Vuri
p76
sVvalue
p77
Vhttp://dbpedia.org/ontology/runwayDesignation
p78
ssg8
(dp79
Vtype
p80
Vliteral
p81
sVvalue
p82
V2R/20L
p83
ssa(dp84
g7
(dp85
Vtype
p86
Vuri
p87
sVvalue
p88
Vhttp://dbpedia.org/ontology/runwayDesignation
p89
ssg8
(dp90
Vtype
p91
Vliteral
p92
sVvalue
p93
V2C/20C
p94
ssa(dp95
g7
(dp96
Vtype
p97
Vuri
p98
sVvalue
p99
Vhttp://dbpedia.org/ontology/runwayLength
p100
ssg8
(dp101
Vdatatype
p102
Vhttp://www.w3.org/2001/XMLSchema#double
p103
sVtype
p104
Vtyped-literal
p105
sVvalue
p106
V2347.87
p107
ssa(dp108
g7
(dp109
Vtype
p110
Vuri
p111
sVvalue
p112
Vhttp://dbpedia.org/ontology/runwayLength
p113
ssg8
(dp114
Vdatatype
p115
Vhttp://www.w3.org/2001/XMLSchema#double
p116
sVtype
p117
Vtyped-literal
p118
sVvalue
p119
V2438.4
p120
ssa(dp121
g7
(dp122
Vtype
p123
Vuri
p124
sVvalue
p125
Vhttp://dbpedia.org/ontology/runwayLength
p126
ssg8
(dp127
Vdatatype
p128
Vhttp://www.w3.org/2001/XMLSchema#double
p129
sVtype
p130
Vtyped-literal
p131
sVvalue
p132
V2438.7
p133
ssa(dp134
g7
(dp135
Vtype
p136
Vuri
p137
sVvalue
p138
Vhttp://dbpedia.org/ontology/runwayLength
p139
ssg8
(dp140
Vdatatype
p141
Vhttp://www.w3.org/2001/XMLSchema#double
p142
sVtype
p143
Vtyped-literal
p144
sVvalue
p145
V3361.94
p146
ssa(dp147
g7
(dp148
Vtype
p149
Vuri
p150
sVvalue
p151
Vhttp://dbpedia.org/ontology/runwaySurface
p152
ssg8
(dp153
Vtype
p154
Vliteral
p155
sVvalue
p156
VConcrete
p157
ssa(dp158
g7
(dp159
Vtype
p160
Vuri
p161
sVvalue
p162
Vhttp://dbpedia.org/ontology/wikiPageExtracted
p163
ssg8
(dp164
Vdatatype
p165
Vhttp://www.w3.org/2001/XMLSchema#dateTime
p166
sVtype
p167
Vtyped-literal
p168
sVvalue
p169
V2016-11-03T15:54:17Z
p170
ssa(dp171
g7
(dp172
Vtype
p173
Vuri
p174
sVvalue
p175
Vhttp://dbpedia.org/ontology/wikiPageLength
p176
ssg8
(dp177
Vdatatype
p178
Vhttp://www.w3.org/2001/XMLSchema#nonNegativeInteger
p179
sVtype
p180
Vtyped-literal
p181
sVvalue
p182
V45920
p183
ssa(dp184
g7
(dp185
Vtype
p186
Vuri
p187
sVvalue
p188
Vhttp://dbpedia.org/ontology/wikiPageModified
p189
ssg8
(dp190
Vdatatype
p191
Vhttp://www.w3.org/2001/XMLSchema#dateTime
p192
sVtype
p193
Vtyped-literal
p194
sVvalue
p195
V2016-10-16T03:55:14Z
p196
ssa(dp197
g7
(dp198
Vtype
p199
Vuri
p200
sVvalue
p201
Vhttp://dbpedia.org/ontology/wikiPageOutDegree
p202
ssg8
(dp203
Vdatatype
p204
Vhttp://www.w3.org/2001/XMLSchema#nonNegativeInteger
p205
sVtype
p206
Vtyped-literal
p207
sVvalue
p208
V239
p209
ssa(dp210
g7
(dp211
Vtype
p212
Vuri
p213
sVvalue
p214
Vhttp://dbpedia.org/ontology/iataLocationIdentifier
p215
ssg8
(dp216
Vtype
p217
Vliteral
p218
sVvalue
p219
VBNA
p220
ssa(dp221
g7
(dp222
Vtype
p223
Vuri
p224
sVvalue
p225
Vhttp://dbpedia.org/ontology/faaLocationIdentifier
p226
ssg8
(dp227
Vtype
p228
Vliteral
p229
sVvalue
p230
VBNA
p231
ssasVordered
p232
I01
ss.