(dp0
Vhead
p1
(dp2
Vlink
p3
(lp4
sVvars
p5
(lp6
Vp
p7
aVo
p8
assVresults
p9
(dp10
Vdistinct
p11
I00
sVbindings
p12
(lp13
(dp14
g7
(dp15
Vtype
p16
Vuri
p17
sVvalue
p18
Vhttp://dbpedia.org/ontology/PopulatedPlace/areaTotal
p19
ssg8
(dp20
Vdatatype
p21
Vhttp://dbpedia.org/datatype/squareKilometre
p22
sVtype
p23
Vtyped-literal
p24
sVvalue
p25
V17.04730174223155
p26
ssa(dp27
g7
(dp28
Vtype
p29
Vuri
p30
sVvalue
p31
Vhttp://dbpedia.org/ontology/PopulatedPlace/areaTotal
p32
ssg8
(dp33
Vdatatype
p34
Vhttp://dbpedia.org/datatype/squareKilometre
p35
sVtype
p36
Vtyped-literal
p37
sVvalue
p38
V17.048
p39
ssa(dp40
g7
(dp41
Vtype
p42
Vuri
p43
sVvalue
p44
Vhttp://dbpedia.org/ontology/abstract
p45
ssg8
(dp46
Vxml:lang
p47
Ven
p48
sVtype
p49
Vliteral
p50
sVvalue
p51
VPlacentia is a city in northern Orange County, California. The population was 50,533 during the 2010 census, up from 46,488 in the 2000 census. This includes the community of Atwood, which is included in the city of Placentia, and is located in its southernmost quadrant. Primarily known as a bedroom community, Placentia is known for its quiet neighborhoods and strong public safety.
p52
ssa(dp53
g7
(dp54
Vtype
p55
Vuri
p56
sVvalue
p57
Vhttp://dbpedia.org/ontology/areaCode
p58
ssg8
(dp59
Vtype
p60
Vliteral
p61
sVvalue
p62
V714
p63
ssa(dp64
g7
(dp65
Vtype
p66
Vuri
p67
sVvalue
p68
Vhttp://dbpedia.org/ontology/areaLand
p69
ssg8
(dp70
Vdatatype
p71
Vhttp://www.w3.org/2001/XMLSchema#double
p72
sVtype
p73
Vtyped-literal
p74
sVvalue
p75
V1.7011e+07
p76
ssa(dp77
g7
(dp78
Vtype
p79
Vuri
p80
sVvalue
p81
Vhttp://dbpedia.org/ontology/areaLand
p82
ssg8
(dp83
Vdatatype
p84
Vhttp://www.w3.org/2001/XMLSchema#double
p85
sVtype
p86
Vtyped-literal
p87
sVvalue
p88
V1.7011e+07
p89
ssa(dp90
g7
(dp91
Vtype
p92
Vuri
p93
sVvalue
p94
Vhttp://dbpedia.org/ontology/areaTotal
p95
ssg8
(dp96
Vdatatype
p97
Vhttp://www.w3.org/2001/XMLSchema#double
p98
sVtype
p99
Vtyped-literal
p100
sVvalue
p101
V1.70473e+07
p102
ssa(dp103
g7
(dp104
Vtype
p105
Vuri
p106
sVvalue
p107
Vhttp://dbpedia.org/ontology/areaTotal
p108
ssg8
(dp109
Vdatatype
p110
Vhttp://www.w3.org/2001/XMLSchema#double
p111
sVtype
p112
Vtyped-literal
p113
sVvalue
p114
V1.7048e+07
p115
ssa(dp116
g7
(dp117
Vtype
p118
Vuri
p119
sVvalue
p120
Vhttp://dbpedia.org/ontology/areaWater
p121
ssg8
(dp122
Vdatatype
p123
Vhttp://www.w3.org/2001/XMLSchema#double
p124
sVtype
p125
Vtyped-literal
p126
sVvalue
p127
V36259.8
p128
ssa(dp129
g7
(dp130
Vtype
p131
Vuri
p132
sVvalue
p133
Vhttp://dbpedia.org/ontology/areaWater
p134
ssg8
(dp135
Vdatatype
p136
Vhttp://www.w3.org/2001/XMLSchema#double
p137
sVtype
p138
Vtyped-literal
p139
sVvalue
p140
V37000.0
p141
ssa(dp142
g7
(dp143
Vtype
p144
Vuri
p145
sVvalue
p146
Vhttp://dbpedia.org/ontology/elevation
p147
ssg8
(dp148
Vdatatype
p149
Vhttp://www.w3.org/2001/XMLSchema#double
p150
sVtype
p151
Vtyped-literal
p152
sVvalue
p153
V82.9056
p154
ssa(dp155
g7
(dp156
Vtype
p157
Vuri
p158
sVvalue
p159
Vhttp://dbpedia.org/ontology/elevation
p160
ssg8
(dp161
Vdatatype
p162
Vhttp://www.w3.org/2001/XMLSchema#double
p163
sVtype
p164
Vtyped-literal
p165
sVvalue
p166
V83.0
p167
ssa(dp168
g7
(dp169
Vtype
p170
Vuri
p171
sVvalue
p172
Vhttp://dbpedia.org/ontology/foundingDate
p173
ssg8
(dp174
Vdatatype
p175
Vhttp://www.w3.org/2001/XMLSchema#date
p176
sVtype
p177
Vtyped-literal
p178
sVvalue
p179
V1926-12-02
p180
ssa(dp181
g7
(dp182
Vtype
p183
Vuri
p184
sVvalue
p185
Vhttp://dbpedia.org/ontology/leaderTitle
p186
ssg8
(dp187
Vxml:lang
p188
Ven
p189
sVtype
p190
Vliteral
p191
sVvalue
p192
VCity council
p193
ssa(dp194
g7
(dp195
Vtype
p196
Vuri
p197
sVvalue
p198
Vhttp://dbpedia.org/ontology/leaderTitle
p199
ssg8
(dp200
Vxml:lang
p201
Ven
p202
sVtype
p203
Vliteral
p204
sVvalue
p205
VCity administrator
p206
ssa(dp207
g7
(dp208
Vtype
p209
Vuri
p210
sVvalue
p211
Vhttp://dbpedia.org/ontology/leaderTitle
p212
ssg8
(dp213
Vxml:lang
p214
Ven
p215
sVtype
p216
Vliteral
p217
sVvalue
p218
VTreasurer
p219
ssa(dp220
g7
(dp221
Vtype
p222
Vuri
p223
sVvalue
p224
Vhttp://dbpedia.org/ontology/leaderTitle
p225
ssg8
(dp226
Vxml:lang
p227
Ven
p228
sVtype
p229
Vliteral
p230
sVvalue
p231
VCity clerk
p232
ssa(dp233
g7
(dp234
Vtype
p235
Vuri
p236
sVvalue
p237
Vhttp://dbpedia.org/ontology/leaderTitle
p238
ssg8
(dp239
Vxml:lang
p240
Ven
p241
sVtype
p242
Vliteral
p243
sVvalue
p244
VActing city administrator
p245
ssa(dp246
g7
(dp247
Vtype
p248
Vuri
p249
sVvalue
p250
Vhttp://dbpedia.org/ontology/motto
p251
ssg8
(dp252
Vtype
p253
Vliteral
p254
sVvalue
p255
V"A pleasant place to live."
p256
ssa(dp257
g7
(dp258
Vtype
p259
Vuri
p260
sVvalue
p261
Vhttp://dbpedia.org/ontology/percentageOfAreaWater
p262
ssg8
(dp263
Vdatatype
p264
Vhttp://www.w3.org/2001/XMLSchema#float
p265
sVtype
p266
Vtyped-literal
p267
sVvalue
p268
V0.22
p269
ssa(dp270
g7
(dp271
Vtype
p272
Vuri
p273
sVvalue
p274
Vhttp://dbpedia.org/ontology/populationAsOf
p275
ssg8
(dp276
Vdatatype
p277
Vhttp://www.w3.org/2001/XMLSchema#date
p278
sVtype
p279
Vtyped-literal
p280
sVvalue
p281
V2010-04-01
p282
ssa(dp283
g7
(dp284
Vtype
p285
Vuri
p286
sVvalue
p287
Vhttp://dbpedia.org/ontology/populationTotal
p288
ssg8
(dp289
Vdatatype
p290
Vhttp://www.w3.org/2001/XMLSchema#nonNegativeInteger
p291
sVtype
p292
Vtyped-literal
p293
sVvalue
p294
V50533
p295
ssa(dp296
g7
(dp297
Vtype
p298
Vuri
p299
sVvalue
p300
Vhttp://dbpedia.org/ontology/postalCode
p301
ssg8
(dp302
Vtype
p303
Vliteral
p304
sVvalue
p305
V92870\u201392871
p306
ssa(dp307
g7
(dp308
Vtype
p309
Vuri
p310
sVvalue
p311
Vhttp://dbpedia.org/ontology/utcOffset
p312
ssg8
(dp313
Vtype
p314
Vliteral
p315
sVvalue
p316
V-7
p317
ssa(dp318
g7
(dp319
Vtype
p320
Vuri
p321
sVvalue
p322
Vhttp://dbpedia.org/ontology/utcOffset
p323
ssg8
(dp324
Vtype
p325
Vliteral
p326
sVvalue
p327
V-8
p328
ssa(dp329
g7
(dp330
Vtype
p331
Vuri
p332
sVvalue
p333
Vhttp://dbpedia.org/ontology/wikiPageExtracted
p334
ssg8
(dp335
Vdatatype
p336
Vhttp://www.w3.org/2001/XMLSchema#dateTime
p337
sVtype
p338
Vtyped-literal
p339
sVvalue
p340
V2016-11-04T15:14:40Z
p341
ssa(dp342
g7
(dp343
Vtype
p344
Vuri
p345
sVvalue
p346
Vhttp://dbpedia.org/ontology/wikiPageLength
p347
ssg8
(dp348
Vdatatype
p349
Vhttp://www.w3.org/2001/XMLSchema#nonNegativeInteger
p350
sVtype
p351
Vtyped-literal
p352
sVvalue
p353
V26725
p354
ssa(dp355
g7
(dp356
Vtype
p357
Vuri
p358
sVvalue
p359
Vhttp://dbpedia.org/ontology/wikiPageModified
p360
ssg8
(dp361
Vdatatype
p362
Vhttp://www.w3.org/2001/XMLSchema#dateTime
p363
sVtype
p364
Vtyped-literal
p365
sVvalue
p366
V2016-10-26T18:02:22Z
p367
ssa(dp368
g7
(dp369
Vtype
p370
Vuri
p371
sVvalue
p372
Vhttp://dbpedia.org/ontology/wikiPageOutDegree
p373
ssg8
(dp374
Vdatatype
p375
Vhttp://www.w3.org/2001/XMLSchema#nonNegativeInteger
p376
sVtype
p377
Vtyped-literal
p378
sVvalue
p379
V126
p380
ssasVordered
p381
I01
ss.