(dp0
Vhead
p1
(dp2
Vlink
p3
(lp4
sVvars
p5
(lp6
Vp
p7
aVo
p8
assVresults
p9
(dp10
Vdistinct
p11
I00
sVbindings
p12
(lp13
(dp14
g7
(dp15
Vtype
p16
Vuri
p17
sVvalue
p18
Vhttp://dbpedia.org/ontology/abstract
p19
ssg8
(dp20
Vxml:lang
p21
Ven
p22
sVtype
p23
Vliteral
p24
sVvalue
p25
VThe Old Forge School District is a diminutive, suburban, public school district serving the municipality of Old Forge, Pennsylvania, a suburb of Scranton in Lackawanna County. The District is one of the 500 public school districts of Pennsylvania. The District encompasses 3 square miles (7.8 km2). According to 2000 federal census data, it served a resident population of 8,798. By 2010, the District's population declined to 8,310 people. The educational attainment levels for the Old Forge School District population (25 years old and over) were 89.4% high school graduates and 22.6% college graduates.According to the Pennsylvania Budget and Policy Center, 41.7% of the District\u2019s pupils lived at 185% or below the Federal Poverty level as shown by their eligibility for the federal free or reduced price school meal programs in 2012. In 2009, the Old Forge School District residents' per capita income was $19,228, while the median family income was just $46,152. In Lackawanna County, the median household income was $43,673. In the Commonwealth, the median family income was $49,501  and the United States median family income was $49,445, in 2010.According to District officials, in school year 2007-08, the Old Forge School District provided basic educational services to 932 pupils. It employed 65 teachers, 35 full-time and part-time support personnel, and 6 administrators. In 2011 the enrollment K-12 was 925 pupils. In school year 2009-10, the Old Forge School District provided basic educational services to 933 pupils. The District employed: 70 teachers, 38 full-time and part-time support personnel, and increased to 7 administrators. Old Forge School District received more than $4.4 million in state funding in school year 2009-10.Old Forge School District has a cooperative agreement with Luzerne County Community College.Old Forge School District operates two schools: Old Forge Elementary School (K-6th) and Old Forge Junior Senior High School (7th-12th). The Northeastern Educational Intermediate Unit IU19 provides the District with a wide variety of services like specialized education for disabled students and hearing, speech and visual disability services and professional development for staff and faculty. Old Forge High School students do not have access to Career Technology Center of Lackawanna County which is the region's vocational technical school.
p26
ssa(dp27
g7
(dp28
Vtype
p29
Vuri
p30
sVvalue
p31
Vhttp://dbpedia.org/ontology/abstract
p32
ssg8
(dp33
Vxml:lang
p34
Ven
p35
sVtype
p36
Vliteral
p37
sVvalue
p38
VThe Old Forge School District is a diminutive, suburban, public school district serving the municipality of Old Forge, Pennsylvania, a suburb of Scranton in Lackawanna County. The District is one of the 500 public school districts of Pennsylvania. The District encompasses 3 square miles (7.8 km2). According to 2000 federal census data, it served a resident population of 8,798. By 2010, the District's population declined to 8,310 people. The educational attainment levels for the Old Forge School District population (25 years old and over) were 89.4% high school graduates and 22.6% college graduates.According to the Pennsylvania Budget and Policy Center, 41.7% of the District\u2019s pupils lived at 185% or below the Federal Poverty level as shown by their eligibility for the federal free or reduced price school meal programs in 2012. In 2009, the Old Forge School District residents' per capita income was $19,228, while the median family income was just $46,152. In Lackawanna County, the median household income was $43,673. In the Commonwealth, the median family income was $49,501  and the United States median family income was $49,445, in 2010.According to District officials, in school year 2007-08, the Old Forge School District provided basic educational services to 932 pupils. It employed 65 teachers, 35 full-time and part-time support personnel, and 6 administrators. In 2011 the enrollment K-12 was 925 pupils. In school year 2009-10, the Old Forge School District provided basic educational services to 933 pupils. The District employed: 70 teachers, 38 full-time and part-time support personnel, and increased to 7 administrators. Old Forge School District received more than $4.4 million in state funding in school year 2009-10.Old Forge School District has a cooperative agreement with Luzerne County Community College.Old Forge School District operates two schools: Old Forge Elementary School (K-6th) and Old Forge Junior Senior High School (7th-12th).The Northeastern Educational Intermediate Unit IU19 provides the District with a wide variety of services like specialized education for disabled students and hearing, speech and visual disability services and professional development for staff and faculty. Old Forge High School students do not have access to Career Technology Center of Lackawanna County which is the region's vocational technical school.
p39
ssa(dp40
g7
(dp41
Vtype
p42
Vuri
p43
sVvalue
p44
Vhttp://dbpedia.org/ontology/budget
p45
ssg8
(dp46
Vdatatype
p47
Vhttp://dbpedia.org/datatype/usDollar
p48
sVtype
p49
Vtyped-literal
p50
sVvalue
p51
V1.1440978E7
p52
ssa(dp53
g7
(dp54
Vtype
p55
Vuri
p56
sVvalue
p57
Vhttp://dbpedia.org/ontology/budget
p58
ssg8
(dp59
Vdatatype
p60
Vhttp://dbpedia.org/datatype/usDollar
p61
sVtype
p62
Vtyped-literal
p63
sVvalue
p64
V1.1761809E7
p65
ssa(dp66
g7
(dp67
Vtype
p68
Vuri
p69
sVvalue
p70
Vhttp://dbpedia.org/ontology/budget
p71
ssg8
(dp72
Vdatatype
p73
Vhttp://dbpedia.org/datatype/usDollar
p74
sVtype
p75
Vtyped-literal
p76
sVvalue
p77
V1.1965703E7
p78
ssa(dp79
g7
(dp80
Vtype
p81
Vuri
p82
sVvalue
p83
Vhttp://dbpedia.org/ontology/budget
p84
ssg8
(dp85
Vdatatype
p86
Vhttp://dbpedia.org/datatype/usDollar
p87
sVtype
p88
Vtyped-literal
p89
sVvalue
p90
V1.198E7
p91
ssa(dp92
g7
(dp93
Vtype
p94
Vuri
p95
sVvalue
p96
Vhttp://dbpedia.org/ontology/facultySize
p97
ssg8
(dp98
Vdatatype
p99
Vhttp://www.w3.org/2001/XMLSchema#nonNegativeInteger
p100
sVtype
p101
Vtyped-literal
p102
sVvalue
p103
V67
p104
ssa(dp105
g7
(dp106
Vtype
p107
Vuri
p108
sVvalue
p109
Vhttp://dbpedia.org/ontology/foundingYear
p110
ssg8
(dp111
Vdatatype
p112
Vhttp://www.w3.org/2001/XMLSchema#gYear
p113
sVtype
p114
Vtyped-literal
p115
sVvalue
p116
V1910
p117
ssa(dp118
g7
(dp119
Vtype
p120
Vuri
p121
sVvalue
p122
Vhttp://dbpedia.org/ontology/mascot
p123
ssg8
(dp124
Vtype
p125
Vliteral
p126
sVvalue
p127
VBlue Devil
p128
ssa(dp129
g7
(dp130
Vtype
p131
Vuri
p132
sVvalue
p133
Vhttp://dbpedia.org/ontology/motto
p134
ssg8
(dp135
Vtype
p136
Vliteral
p137
sVvalue
p138
VHome of the Blue Devils
p139
ssa(dp140
g7
(dp141
Vtype
p142
Vuri
p143
sVvalue
p144
Vhttp://dbpedia.org/ontology/numberOfStudents
p145
ssg8
(dp146
Vdatatype
p147
Vhttp://www.w3.org/2001/XMLSchema#nonNegativeInteger
p148
sVtype
p149
Vtyped-literal
p150
sVvalue
p151
V900
p152
ssa(dp153
g7
(dp154
Vtype
p155
Vuri
p156
sVvalue
p157
Vhttp://dbpedia.org/ontology/numberOfStudents
p158
ssg8
(dp159
Vdatatype
p160
Vhttp://www.w3.org/2001/XMLSchema#nonNegativeInteger
p161
sVtype
p162
Vtyped-literal
p163
sVvalue
p164
V903
p165
ssa(dp166
g7
(dp167
Vtype
p168
Vuri
p169
sVvalue
p170
Vhttp://dbpedia.org/ontology/numberOfStudents
p171
ssg8
(dp172
Vdatatype
p173
Vhttp://www.w3.org/2001/XMLSchema#nonNegativeInteger
p174
sVtype
p175
Vtyped-literal
p176
sVvalue
p177
V918
p178
ssa(dp179
g7
(dp180
Vtype
p181
Vuri
p182
sVvalue
p183
Vhttp://dbpedia.org/ontology/numberOfStudents
p184
ssg8
(dp185
Vdatatype
p186
Vhttp://www.w3.org/2001/XMLSchema#nonNegativeInteger
p187
sVtype
p188
Vtyped-literal
p189
sVvalue
p190
V927
p191
ssa(dp192
g7
(dp193
Vtype
p194
Vuri
p195
sVvalue
p196
Vhttp://dbpedia.org/ontology/numberOfStudents
p197
ssg8
(dp198
Vdatatype
p199
Vhttp://www.w3.org/2001/XMLSchema#nonNegativeInteger
p200
sVtype
p201
Vtyped-literal
p202
sVvalue
p203
V940
p204
ssa(dp205
g7
(dp206
Vtype
p207
Vuri
p208
sVvalue
p209
Vhttp://dbpedia.org/ontology/staff
p210
ssg8
(dp211
Vdatatype
p212
Vhttp://www.w3.org/2001/XMLSchema#nonNegativeInteger
p213
sVtype
p214
Vtyped-literal
p215
sVvalue
p216
V47
p217
ssa(dp218
g7
(dp219
Vtype
p220
Vuri
p221
sVvalue
p222
Vhttp://dbpedia.org/ontology/wikiPageExtracted
p223
ssg8
(dp224
Vdatatype
p225
Vhttp://www.w3.org/2001/XMLSchema#dateTime
p226
sVtype
p227
Vtyped-literal
p228
sVvalue
p229
V2016-11-04T01:59:32Z
p230
ssa(dp231
g7
(dp232
Vtype
p233
Vuri
p234
sVvalue
p235
Vhttp://dbpedia.org/ontology/wikiPageLength
p236
ssg8
(dp237
Vdatatype
p238
Vhttp://www.w3.org/2001/XMLSchema#nonNegativeInteger
p239
sVtype
p240
Vtyped-literal
p241
sVvalue
p242
V150369
p243
ssa(dp244
g7
(dp245
Vtype
p246
Vuri
p247
sVvalue
p248
Vhttp://dbpedia.org/ontology/wikiPageModified
p249
ssg8
(dp250
Vdatatype
p251
Vhttp://www.w3.org/2001/XMLSchema#dateTime
p252
sVtype
p253
Vtyped-literal
p254
sVvalue
p255
V2016-10-20T05:21:38Z
p256
ssa(dp257
g7
(dp258
Vtype
p259
Vuri
p260
sVvalue
p261
Vhttp://dbpedia.org/ontology/wikiPageOutDegree
p262
ssg8
(dp263
Vdatatype
p264
Vhttp://www.w3.org/2001/XMLSchema#nonNegativeInteger
p265
sVtype
p266
Vtyped-literal
p267
sVvalue
p268
V106
p269
ssa(dp270
g7
(dp271
Vtype
p272
Vuri
p273
sVvalue
p274
Vhttp://dbpedia.org/ontology/lowerAge
p275
ssg8
(dp276
Vdatatype
p277
Vhttp://www.w3.org/2001/XMLSchema#nonNegativeInteger
p278
sVtype
p279
Vtyped-literal
p280
sVvalue
p281
V5
p282
ssa(dp283
g7
(dp284
Vtype
p285
Vuri
p286
sVvalue
p287
Vhttp://dbpedia.org/ontology/upperAge
p288
ssg8
(dp289
Vdatatype
p290
Vhttp://www.w3.org/2001/XMLSchema#nonNegativeInteger
p291
sVtype
p292
Vtyped-literal
p293
sVvalue
p294
V21
p295
ssa(dp296
g7
(dp297
Vtype
p298
Vuri
p299
sVvalue
p300
Vhttp://dbpedia.org/ontology/campusType
p301
ssg8
(dp302
Vxml:lang
p303
Ven
p304
sVtype
p305
Vliteral
p306
sVvalue
p307
VSuburban
p308
ssasVordered
p309
I01
ss.