(dp0
Vhead
p1
(dp2
Vlink
p3
(lp4
sVvars
p5
(lp6
Vp
p7
aVo
p8
assVresults
p9
(dp10
Vdistinct
p11
I00
sVbindings
p12
(lp13
(dp14
g7
(dp15
Vtype
p16
Vuri
p17
sVvalue
p18
Vhttp://dbpedia.org/ontology/abstract
p19
ssg8
(dp20
Vxml:lang
p21
Ven
p22
sVtype
p23
Vliteral
p24
sVvalue
p25
VField Marshal Henry Seymour Conway (1721 \u2013 9 July 1795) was a British general and statesman. A brother of the 1st Marquess of Hertford, and cousin of Horace Walpole, he began his military career in the War of the Austrian Succession. He held various political offices including Chief Secretary for Ireland, Secretary of State for the Southern Department, Leader of the House of Commons and Secretary of State for the Northern Department. He eventually rose to the position of Commander-in-Chief of the Forces.
p26
ssa(dp27
g7
(dp28
Vtype
p29
Vuri
p30
sVvalue
p31
Vhttp://dbpedia.org/ontology/deathDate
p32
ssg8
(dp33
Vdatatype
p34
Vhttp://www.w3.org/2001/XMLSchema#date
p35
sVtype
p36
Vtyped-literal
p37
sVvalue
p38
V1795-07-09
p39
ssa(dp40
g7
(dp41
Vtype
p42
Vuri
p43
sVvalue
p44
Vhttp://dbpedia.org/ontology/orderInOffice
p45
ssg8
(dp46
Vtype
p47
Vliteral
p48
sVvalue
p49
VLeader of the House of Commons
p50
ssa(dp51
g7
(dp52
Vtype
p53
Vuri
p54
sVvalue
p55
Vhttp://dbpedia.org/ontology/orderInOffice
p56
ssg8
(dp57
Vtype
p58
Vliteral
p59
sVvalue
p60
VChief Secretary for Ireland
p61
ssa(dp62
g7
(dp63
Vtype
p64
Vuri
p65
sVvalue
p66
Vhttp://dbpedia.org/ontology/orderInOffice
p67
ssg8
(dp68
Vtype
p69
Vliteral
p70
sVvalue
p71
VSecretary of State for the Northern Department
p72
ssa(dp73
g7
(dp74
Vtype
p75
Vuri
p76
sVvalue
p77
Vhttp://dbpedia.org/ontology/orderInOffice
p78
ssg8
(dp79
Vtype
p80
Vliteral
p81
sVvalue
p82
VSecretary of State for the Southern Department
p83
ssa(dp84
g7
(dp85
Vtype
p86
Vuri
p87
sVvalue
p88
Vhttp://dbpedia.org/ontology/serviceEndYear
p89
ssg8
(dp90
Vdatatype
p91
Vhttp://www.w3.org/2001/XMLSchema#gYear
p92
sVtype
p93
Vtyped-literal
p94
sVvalue
p95
V1793
p96
ssa(dp97
g7
(dp98
Vtype
p99
Vuri
p100
sVvalue
p101
Vhttp://dbpedia.org/ontology/serviceStartYear
p102
ssg8
(dp103
Vdatatype
p104
Vhttp://www.w3.org/2001/XMLSchema#gYear
p105
sVtype
p106
Vtyped-literal
p107
sVvalue
p108
V1737
p109
ssa(dp110
g7
(dp111
Vtype
p112
Vuri
p113
sVvalue
p114
Vhttp://dbpedia.org/ontology/wikiPageExtracted
p115
ssg8
(dp116
Vdatatype
p117
Vhttp://www.w3.org/2001/XMLSchema#dateTime
p118
sVtype
p119
Vtyped-literal
p120
sVvalue
p121
V2016-10-31T12:15:28Z
p122
ssa(dp123
g7
(dp124
Vtype
p125
Vuri
p126
sVvalue
p127
Vhttp://dbpedia.org/ontology/wikiPageLength
p128
ssg8
(dp129
Vdatatype
p130
Vhttp://www.w3.org/2001/XMLSchema#nonNegativeInteger
p131
sVtype
p132
Vtyped-literal
p133
sVvalue
p134
V22135
p135
ssa(dp136
g7
(dp137
Vtype
p138
Vuri
p139
sVvalue
p140
Vhttp://dbpedia.org/ontology/wikiPageModified
p141
ssg8
(dp142
Vdatatype
p143
Vhttp://www.w3.org/2001/XMLSchema#dateTime
p144
sVtype
p145
Vtyped-literal
p146
sVvalue
p147
V2016-09-21T11:08:31Z
p148
ssa(dp149
g7
(dp150
Vtype
p151
Vuri
p152
sVvalue
p153
Vhttp://dbpedia.org/ontology/wikiPageOutDegree
p154
ssg8
(dp155
Vdatatype
p156
Vhttp://www.w3.org/2001/XMLSchema#nonNegativeInteger
p157
sVtype
p158
Vtyped-literal
p159
sVvalue
p160
V254
p161
ssasVordered
p162
I01
ss.