(dp0
Vhead
p1
(dp2
Vlink
p3
(lp4
sVvars
p5
(lp6
Vp
p7
aVo
p8
assVresults
p9
(dp10
Vdistinct
p11
I00
sVbindings
p12
(lp13
(dp14
g7
(dp15
Vtype
p16
Vuri
p17
sVvalue
p18
Vhttp://dbpedia.org/ontology/abstract
p19
ssg8
(dp20
Vxml:lang
p21
Ven
p22
sVtype
p23
Vliteral
p24
sVvalue
p25
VNew South Wales (abbreviated as NSW) is a state on the east coast of Australia. It borders Queensland to the north, Victoria to the south, South Australia to the west, the Tasman Sea to the east and surrounds the whole of the Australian Capital Territory. New South Wales' capital city is Sydney, which is also the nation's most populous city. In March 2014, the estimated population of New South Wales was 7.5 million, making it Australia's most populous state. Just under two-thirds of the state's population, 4.67 million, live in the Greater Sydney area. Inhabitants of New South Wales are referred to as New South Welshmen.The colony of New South Wales was founded in 1788. It originally comprised a much larger area of the Australian mainland and also included Lord Howe Island, New Zealand, Norfolk Island and Van Diemen's Land. During the 19th century, large areas were separated to form the British colonies of Tasmania, South Australia, New Zealand, Victoria, Queensland and the Northern Territory (1863).Lord Howe Island remains part of New South Wales, while Norfolk Island has become a federal Territory, as have the areas now known as the Australian Capital Territory and the Jervis Bay Territory.
p26
ssa(dp27
g7
(dp28
Vtype
p29
Vuri
p30
sVvalue
p31
Vhttp://dbpedia.org/ontology/foundingDate
p32
ssg8
(dp33
Vdatatype
p34
Vhttp://www.w3.org/2001/XMLSchema#date
p35
sVtype
p36
Vtyped-literal
p37
sVvalue
p38
V1788-01-26
p39
ssa(dp40
g7
(dp41
Vtype
p42
Vuri
p43
sVvalue
p44
Vhttp://dbpedia.org/ontology/foundingDate
p45
ssg8
(dp46
Vdatatype
p47
Vhttp://www.w3.org/2001/XMLSchema#date
p48
sVtype
p49
Vtyped-literal
p50
sVvalue
p51
V1856-06-06
p52
ssa(dp53
g7
(dp54
Vtype
p55
Vuri
p56
sVvalue
p57
Vhttp://dbpedia.org/ontology/foundingDate
p58
ssg8
(dp59
Vdatatype
p60
Vhttp://www.w3.org/2001/XMLSchema#date
p61
sVtype
p62
Vtyped-literal
p63
sVvalue
p64
V1901-01-01
p65
ssa(dp66
g7
(dp67
Vtype
p68
Vuri
p69
sVvalue
p70
Vhttp://dbpedia.org/ontology/motto
p71
ssg8
(dp72
Vtype
p73
Vliteral
p74
sVvalue
p75
V(Newly Risen, How Brightly You Shine)
p76
ssa(dp77
g7
(dp78
Vtype
p79
Vuri
p80
sVvalue
p81
Vhttp://dbpedia.org/ontology/motto
p82
ssg8
(dp83
Vtype
p84
Vliteral
p85
sVvalue
p86
VOrta Recens Quam Pura Nites
p87
ssa(dp88
g7
(dp89
Vtype
p90
Vuri
p91
sVvalue
p92
Vhttp://dbpedia.org/ontology/wikiPageExtracted
p93
ssg8
(dp94
Vdatatype
p95
Vhttp://www.w3.org/2001/XMLSchema#dateTime
p96
sVtype
p97
Vtyped-literal
p98
sVvalue
p99
V2016-11-03T19:10:57Z
p100
ssa(dp101
g7
(dp102
Vtype
p103
Vuri
p104
sVvalue
p105
Vhttp://dbpedia.org/ontology/wikiPageLength
p106
ssg8
(dp107
Vdatatype
p108
Vhttp://www.w3.org/2001/XMLSchema#nonNegativeInteger
p109
sVtype
p110
Vtyped-literal
p111
sVvalue
p112
V73082
p113
ssa(dp114
g7
(dp115
Vtype
p116
Vuri
p117
sVvalue
p118
Vhttp://dbpedia.org/ontology/wikiPageModified
p119
ssg8
(dp120
Vdatatype
p121
Vhttp://www.w3.org/2001/XMLSchema#dateTime
p122
sVtype
p123
Vtyped-literal
p124
sVvalue
p125
V2016-10-29T15:08:46Z
p126
ssa(dp127
g7
(dp128
Vtype
p129
Vuri
p130
sVvalue
p131
Vhttp://dbpedia.org/ontology/wikiPageOutDegree
p132
ssg8
(dp133
Vdatatype
p134
Vhttp://www.w3.org/2001/XMLSchema#nonNegativeInteger
p135
sVtype
p136
Vtyped-literal
p137
sVvalue
p138
V482
p139
ssasVordered
p140
I01
ss.