(dp0
Vhead
p1
(dp2
Vlink
p3
(lp4
sVvars
p5
(lp6
Vp
p7
aVo
p8
assVresults
p9
(dp10
Vdistinct
p11
I00
sVbindings
p12
(lp13
(dp14
g7
(dp15
Vtype
p16
Vuri
p17
sVvalue
p18
Vhttp://dbpedia.org/ontology/abstract
p19
ssg8
(dp20
Vxml:lang
p21
Ven
p22
sVtype
p23
Vliteral
p24
sVvalue
p25
VThe Looking Glass Wars is a series of novels by Frank Beddor, heavily inspired by Lewis Carroll's Alice's Adventures in Wonderland and Through the Looking-Glass. The basic premise is that the two books written by Lewis Carroll are a distortion of the 'true story' portrayed in these novels. It features twists and turns on the original story, such as the white rabbit really being Alyss's (Alice's) tutor, Bibwit Harte, and the Mad Hatter is really a very agile, somber bodyguard called Hatter Madigan.The Looking Glass Wars is the first book in a trilogy by the same name. It is currently going through further developments in a variety of fields, such as a spin-off comic book series entitled Hatter M. First released in the United Kingdom in 2004, The Looking Glass Wars was released in the United States on September 26, 2006. The second book in the trilogy, Seeing Redd, was released on August 21, 2007. The third book, ArchEnemy, was released on October 15, 2009.
p26
ssa(dp27
g7
(dp28
Vtype
p29
Vuri
p30
sVvalue
p31
Vhttp://dbpedia.org/ontology/isbn
p32
ssg8
(dp33
Vtype
p34
Vliteral
p35
sVvalue
p36
V0-8037-3153-1
p37
ssa(dp38
g7
(dp39
Vtype
p40
Vuri
p41
sVvalue
p42
Vhttp://dbpedia.org/ontology/lcc
p43
ssg8
(dp44
Vtype
p45
Vliteral
p46
sVvalue
p47
VPZ7.B3817982 Lo 2006
p48
ssa(dp49
g7
(dp50
Vtype
p51
Vuri
p52
sVvalue
p53
Vhttp://dbpedia.org/ontology/numberOfPages
p54
ssg8
(dp55
Vdatatype
p56
Vhttp://www.w3.org/2001/XMLSchema#positiveInteger
p57
sVtype
p58
Vtyped-literal
p59
sVvalue
p60
V384
p61
ssa(dp62
g7
(dp63
Vtype
p64
Vuri
p65
sVvalue
p66
Vhttp://dbpedia.org/ontology/oclc
p67
ssg8
(dp68
Vtype
p69
Vliteral
p70
sVvalue
p71
V64442735
p72
ssa(dp73
g7
(dp74
Vtype
p75
Vuri
p76
sVvalue
p77
Vhttp://dbpedia.org/ontology/wikiPageExtracted
p78
ssg8
(dp79
Vdatatype
p80
Vhttp://www.w3.org/2001/XMLSchema#dateTime
p81
sVtype
p82
Vtyped-literal
p83
sVvalue
p84
V2016-11-06T22:49:07Z
p85
ssa(dp86
g7
(dp87
Vtype
p88
Vuri
p89
sVvalue
p90
Vhttp://dbpedia.org/ontology/wikiPageLength
p91
ssg8
(dp92
Vdatatype
p93
Vhttp://www.w3.org/2001/XMLSchema#nonNegativeInteger
p94
sVtype
p95
Vtyped-literal
p96
sVvalue
p97
V25437
p98
ssa(dp99
g7
(dp100
Vtype
p101
Vuri
p102
sVvalue
p103
Vhttp://dbpedia.org/ontology/wikiPageModified
p104
ssg8
(dp105
Vdatatype
p106
Vhttp://www.w3.org/2001/XMLSchema#dateTime
p107
sVtype
p108
Vtyped-literal
p109
sVvalue
p110
V2016-10-04T19:35:13Z
p111
ssa(dp112
g7
(dp113
Vtype
p114
Vuri
p115
sVvalue
p116
Vhttp://dbpedia.org/ontology/wikiPageOutDegree
p117
ssg8
(dp118
Vdatatype
p119
Vhttp://www.w3.org/2001/XMLSchema#nonNegativeInteger
p120
sVtype
p121
Vtyped-literal
p122
sVvalue
p123
V86
p124
ssasVordered
p125
I01
ss.