(dp0
Vhead
p1
(dp2
Vlink
p3
(lp4
sVvars
p5
(lp6
Vp
p7
aVo
p8
assVresults
p9
(dp10
Vdistinct
p11
I00
sVbindings
p12
(lp13
(dp14
g7
(dp15
Vtype
p16
Vuri
p17
sVvalue
p18
Vhttp://dbpedia.org/ontology/abstract
p19
ssg8
(dp20
Vxml:lang
p21
Ven
p22
sVtype
p23
Vliteral
p24
sVvalue
p25
VThe Hugo Awards are a set of awards given annually for the best science fiction or fantasy works and achievements of the previous year. The awards are named after Hugo Gernsback, the founder of the pioneering science fiction magazine Amazing Stories, and were officially named the Science Fiction Achievement Awards until 1992. Organized and overseen by the World Science Fiction Society, the awards are given each year at the annual World Science Fiction Convention as the central focus of the event. They were first given in 1953, at the 11th World Science Fiction Convention, and have been awarded every year since 1955. Over the years that the award has been given, the categories presented have changed; currently Hugo Awards are given in more than a dozen categories, and include both written and dramatic works of various types.One of the most prestigious science fiction awards, the Hugo Awards have been termed as "among the highest honors bestowed in science fiction and fantasy writing". Works that have won have been published in special collections, and the official logo of the Hugo Awards is often placed on the winning books' cover as a promotional tool. The 2016 awards were presented at the 74th Worldcon, MidAmeriCon II, in Kansas City, United States, on August 20, 2016. The 2017 Hugos will be presented at the 75th Worldcon, Worldcon 75, in Helsinki, Finland, on August 12, 2017.For lists of winners and nominees for each category, see the list of award categories below.
p26
ssa(dp27
g7
(dp28
Vtype
p29
Vuri
p30
sVvalue
p31
Vhttp://dbpedia.org/ontology/abstract
p32
ssg8
(dp33
Vxml:lang
p34
Ven
p35
sVtype
p36
Vliteral
p37
sVvalue
p38
VThe Hugo Awards are a set of awards given annually for the best science fiction or fantasy works and achievements of the previous year. The awards are named after Hugo Gernsback, the founder of the pioneering science fiction magazine Amazing Stories, and were officially named the Science Fiction Achievement Awards until 1992. Organized and overseen by the World Science Fiction Society, the awards are given each year at the annual World Science Fiction Convention as the central focus of the event. They were first given in 1953, at the 11th World Science Fiction Convention, and have been awarded every year since 1955. Over the years that the award has been given, the categories presented have changed; currently Hugo Awards are given in more than a dozen categories, and include both written and dramatic works of various types.The Hugo Awards have been termed as "among the highest honors bestowed in science fiction and fantasy writing". Works that have won have been published in special collections, and the official logo of the Hugo Awards is often placed on the winning books' cover as a promotional tool. The 2016 awards were presented at the 74th Worldcon, MidAmeriCon II, in Kansas City, United States, on August 20, 2016. The 2017 Hugos will be presented at the 75th Worldcon, Worldcon 75, in Helsinki, Finland, on August 12, 2017.For lists of winners and nominees for each category, see the list of award categories below.
p39
ssa(dp40
g7
(dp41
Vtype
p42
Vuri
p43
sVvalue
p44
Vhttp://dbpedia.org/ontology/wikiPageExtracted
p45
ssg8
(dp46
Vdatatype
p47
Vhttp://www.w3.org/2001/XMLSchema#dateTime
p48
sVtype
p49
Vtyped-literal
p50
sVvalue
p51
V2016-10-31T17:18:19Z
p52
ssa(dp53
g7
(dp54
Vtype
p55
Vuri
p56
sVvalue
p57
Vhttp://dbpedia.org/ontology/wikiPageLength
p58
ssg8
(dp59
Vdatatype
p60
Vhttp://www.w3.org/2001/XMLSchema#nonNegativeInteger
p61
sVtype
p62
Vtyped-literal
p63
sVvalue
p64
V47597
p65
ssa(dp66
g7
(dp67
Vtype
p68
Vuri
p69
sVvalue
p70
Vhttp://dbpedia.org/ontology/wikiPageModified
p71
ssg8
(dp72
Vdatatype
p73
Vhttp://www.w3.org/2001/XMLSchema#dateTime
p74
sVtype
p75
Vtyped-literal
p76
sVvalue
p77
V2016-10-02T06:45:20Z
p78
ssa(dp79
g7
(dp80
Vtype
p81
Vuri
p82
sVvalue
p83
Vhttp://dbpedia.org/ontology/wikiPageOutDegree
p84
ssg8
(dp85
Vdatatype
p86
Vhttp://www.w3.org/2001/XMLSchema#nonNegativeInteger
p87
sVtype
p88
Vtyped-literal
p89
sVvalue
p90
V116
p91
ssa(dp92
g7
(dp93
Vtype
p94
Vuri
p95
sVvalue
p96
Vhttp://dbpedia.org/ontology/year
p97
ssg8
(dp98
Vdatatype
p99
Vhttp://www.w3.org/2001/XMLSchema#gYear
p100
sVtype
p101
Vtyped-literal
p102
sVvalue
p103
V1953
p104
ssasVordered
p105
I01
ss.