(dp0
Vhead
p1
(dp2
Vlink
p3
(lp4
sVvars
p5
(lp6
Vp
p7
aVo
p8
assVresults
p9
(dp10
Vdistinct
p11
I00
sVbindings
p12
(lp13
(dp14
g7
(dp15
Vtype
p16
Vuri
p17
sVvalue
p18
Vhttp://dbpedia.org/ontology/abstract
p19
ssg8
(dp20
Vxml:lang
p21
Ven
p22
sVtype
p23
Vliteral
p24
sVvalue
p25
VThe New Zealand National Party (M\u0101ori: R\u014dp\u016b N\u0101hinara) is a centre-right political party in New Zealand, and one of the two major parties in New Zealand politics. The party was founded in 1936 with the formal merger of the United and Reform parties, which had previously been in coalition making it the nation's second-oldest political party.Since November 2008, it has been the incumbent governing party, forming a minority government with support from the pro-indigenous rights M\u0101ori Party, the liberal ACT and the centrist party United Future. With 47% of votes in the 2014 New Zealand general election, the National Party's MPs represent 41 out of 71 electorates in New Zealand and currently hold 59 of the 121 seats in the House of Representatives.
p26
ssa(dp27
g7
(dp28
Vtype
p29
Vuri
p30
sVvalue
p31
Vhttp://dbpedia.org/ontology/abstract
p32
ssg8
(dp33
Vxml:lang
p34
Ven
p35
sVtype
p36
Vliteral
p37
sVvalue
p38
VThe New Zealand National Party (M\u0101ori: R\u014dp\u016b N\u0101hinara) is a centre-right political party in New Zealand, and one of the two major parties in New Zealand politics. The party leader is John Key, the Prime Minister of New Zealand.The party was founded in 1936 with the formal merger of the United and Reform parties, which had previously been in a coalition, making it the nation's second-oldest political party. National was in government for four periods of the 20th century. It has favoured economic liberal policies since the 1990s.Since November 2008, it has been the incumbent governing party, forming a minority government with support from the centrist United Future, the liberal ACT Party and the indigenous rights-based M\u0101ori Party. With 47% of votes in the 2014 New Zealand general election, the National Party's MPs represent 41 out of 71 electorates in New Zealand and currently hold 59 of the 121 seats in the House of Representatives.
p39
ssa(dp40
g7
(dp41
Vtype
p42
Vuri
p43
sVvalue
p44
Vhttp://dbpedia.org/ontology/wikiPageExtracted
p45
ssg8
(dp46
Vdatatype
p47
Vhttp://www.w3.org/2001/XMLSchema#dateTime
p48
sVtype
p49
Vtyped-literal
p50
sVvalue
p51
V2016-11-03T19:27:02Z
p52
ssa(dp53
g7
(dp54
Vtype
p55
Vuri
p56
sVvalue
p57
Vhttp://dbpedia.org/ontology/wikiPageLength
p58
ssg8
(dp59
Vdatatype
p60
Vhttp://www.w3.org/2001/XMLSchema#nonNegativeInteger
p61
sVtype
p62
Vtyped-literal
p63
sVvalue
p64
V46659
p65
ssa(dp66
g7
(dp67
Vtype
p68
Vuri
p69
sVvalue
p70
Vhttp://dbpedia.org/ontology/wikiPageModified
p71
ssg8
(dp72
Vdatatype
p73
Vhttp://www.w3.org/2001/XMLSchema#dateTime
p74
sVtype
p75
Vtyped-literal
p76
sVvalue
p77
V2016-10-30T09:50:14Z
p78
ssa(dp79
g7
(dp80
Vtype
p81
Vuri
p82
sVvalue
p83
Vhttp://dbpedia.org/ontology/wikiPageOutDegree
p84
ssg8
(dp85
Vdatatype
p86
Vhttp://www.w3.org/2001/XMLSchema#nonNegativeInteger
p87
sVtype
p88
Vtyped-literal
p89
sVvalue
p90
V314
p91
ssasVordered
p92
I01
ss.