(dp0
Vhead
p1
(dp2
Vlink
p3
(lp4
sVvars
p5
(lp6
Vp
p7
aVo
p8
assVresults
p9
(dp10
Vdistinct
p11
I00
sVbindings
p12
(lp13
(dp14
g7
(dp15
Vtype
p16
Vuri
p17
sVvalue
p18
Vhttp://dbpedia.org/ontology/abstract
p19
ssg8
(dp20
Vxml:lang
p21
Ven
p22
sVtype
p23
Vliteral
p24
sVvalue
p25
VSophie Lauren Webster is a fictional character in the UK television ITV soap opera, Coronation Street. She was born on screen during the episode broadcast on 4 November 1994. She was played by Ashleigh Middleton from 1994 until 1997 and by Emma Woodward from 8 June 1997 until 25 April 2004. Brooke Vincent took over the role on 12 May 2004.Sophie is the second daughter born to Kevin (Michael Le Vell) and Sally Webster (Sally Dynevor) and younger sister to Rosie Webster (Emma Collinge, Helen Flanagan) and elder sister to half siblings Jack Webster and deceased Jake Webster. Sophie's storylines have included her constant rivalry with Rosie, her converting to Christianity and her lesbian relationships with both Sian Powers (Sacha Parkinson) and Maddie Heath (Amy James-Kelly). In 2015, it was announced that Vincent would take a three-month break from the show at the end of her contract, which was set to end in spring 2016, to work on a theatre project. Vincent then clarified in an interview on This Morning that she will be gone from the beginning of September to the end of October.
p26
ssa(dp27
g7
(dp28
Vtype
p29
Vuri
p30
sVvalue
p31
Vhttp://dbpedia.org/ontology/abstract
p32
ssg8
(dp33
Vxml:lang
p34
Ven
p35
sVtype
p36
Vliteral
p37
sVvalue
p38
VSophie Lauren Webster is a fictional character in the UK television ITV soap opera, Coronation Street. She was born on screen during the episode broadcast on 4 November 1994. She was played by Ashleigh Middleton from 1994 until 1997 and by Emma Woodward from 8 June 1997 until 25 April 2004. Brooke Vincent took over the role on 12 May 2004.Sophie is the second daughter born to Kevin (Michael Le Vell) and Sally Webster (Sally Dynevor) and younger sister to Rosie Webster (Emma Collinge, Helen Flanagan) and elder sister to half siblings Jack Webster and deceased Jake Webster. Sophie's storylines have included her constant rivalry with Rosie, her converting to Christianity and her lesbian relationships with both Sian Powers (Sacha Parkinson) and Maddie Heath (Amy James-Kelly). In 2015, it was announced that Vincent would take a three-month break from the show at the end of her contract, departing in October 2016. Vincent will return as Sophie in early 2017.
p39
ssa(dp40
g7
(dp41
Vtype
p42
Vuri
p43
sVvalue
p44
Vhttp://dbpedia.org/ontology/wikiPageExtracted
p45
ssg8
(dp46
Vdatatype
p47
Vhttp://www.w3.org/2001/XMLSchema#dateTime
p48
sVtype
p49
Vtyped-literal
p50
sVvalue
p51
V2016-11-06T03:20:26Z
p52
ssa(dp53
g7
(dp54
Vtype
p55
Vuri
p56
sVvalue
p57
Vhttp://dbpedia.org/ontology/wikiPageLength
p58
ssg8
(dp59
Vdatatype
p60
Vhttp://www.w3.org/2001/XMLSchema#nonNegativeInteger
p61
sVtype
p62
Vtyped-literal
p63
sVvalue
p64
V24264
p65
ssa(dp66
g7
(dp67
Vtype
p68
Vuri
p69
sVvalue
p70
Vhttp://dbpedia.org/ontology/wikiPageModified
p71
ssg8
(dp72
Vdatatype
p73
Vhttp://www.w3.org/2001/XMLSchema#dateTime
p74
sVtype
p75
Vtyped-literal
p76
sVvalue
p77
V2016-10-28T17:21:26Z
p78
ssa(dp79
g7
(dp80
Vtype
p81
Vuri
p82
sVvalue
p83
Vhttp://dbpedia.org/ontology/wikiPageOutDegree
p84
ssg8
(dp85
Vdatatype
p86
Vhttp://www.w3.org/2001/XMLSchema#nonNegativeInteger
p87
sVtype
p88
Vtyped-literal
p89
sVvalue
p90
V93
p91
ssasVordered
p92
I01
ss.