(dp0
Vhead
p1
(dp2
Vlink
p3
(lp4
sVvars
p5
(lp6
Vp
p7
aVo
p8
assVresults
p9
(dp10
Vdistinct
p11
I00
sVbindings
p12
(lp13
(dp14
g7
(dp15
Vtype
p16
Vuri
p17
sVvalue
p18
Vhttp://dbpedia.org/ontology/PopulatedPlace/areaTotal
p19
ssg8
(dp20
Vdatatype
p21
Vhttp://dbpedia.org/datatype/squareKilometre
p22
sVtype
p23
Vtyped-literal
p24
sVvalue
p25
V88.8365921845248
p26
ssa(dp27
g7
(dp28
Vtype
p29
Vuri
p30
sVvalue
p31
Vhttp://dbpedia.org/ontology/PopulatedPlace/populationDensity
p32
ssg8
(dp33
Vdatatype
p34
Vhttp://dbpedia.org/datatype/inhabitantsPerSquareKilometre
p35
sVtype
p36
Vtyped-literal
p37
sVvalue
p38
V32.162309806585746
p39
ssa(dp40
g7
(dp41
Vtype
p42
Vuri
p43
sVvalue
p44
Vhttp://dbpedia.org/ontology/abstract
p45
ssg8
(dp46
Vxml:lang
p47
Ven
p48
sVtype
p49
Vliteral
p50
sVvalue
p51
VEllington Township is one of twenty-two townships in Adams County, Illinois, United States. As of the 2010 census, its population was 2,855 and it contained 1,097 housing units. The southwest corner of the township is now part of Quincy Township.
p52
ssa(dp53
g7
(dp54
Vtype
p55
Vuri
p56
sVvalue
p57
Vhttp://dbpedia.org/ontology/areaLand
p58
ssg8
(dp59
Vdatatype
p60
Vhttp://www.w3.org/2001/XMLSchema#double
p61
sVtype
p62
Vtyped-literal
p63
sVvalue
p64
V8.87589e+07
p65
ssa(dp66
g7
(dp67
Vtype
p68
Vuri
p69
sVvalue
p70
Vhttp://dbpedia.org/ontology/areaTotal
p71
ssg8
(dp72
Vdatatype
p73
Vhttp://www.w3.org/2001/XMLSchema#double
p74
sVtype
p75
Vtyped-literal
p76
sVvalue
p77
V8.88366e+07
p78
ssa(dp79
g7
(dp80
Vtype
p81
Vuri
p82
sVvalue
p83
Vhttp://dbpedia.org/ontology/areaWater
p84
ssg8
(dp85
Vdatatype
p86
Vhttp://www.w3.org/2001/XMLSchema#double
p87
sVtype
p88
Vtyped-literal
p89
sVvalue
p90
V77699.6
p91
ssa(dp92
g7
(dp93
Vtype
p94
Vuri
p95
sVvalue
p96
Vhttp://dbpedia.org/ontology/elevation
p97
ssg8
(dp98
Vdatatype
p99
Vhttp://www.w3.org/2001/XMLSchema#double
p100
sVtype
p101
Vtyped-literal
p102
sVvalue
p103
V220.0
p104
ssa(dp105
g7
(dp106
Vtype
p107
Vuri
p108
sVvalue
p109
Vhttp://dbpedia.org/ontology/elevation
p110
ssg8
(dp111
Vdatatype
p112
Vhttp://www.w3.org/2001/XMLSchema#double
p113
sVtype
p114
Vtyped-literal
p115
sVvalue
p116
V220.066
p117
ssa(dp118
g7
(dp119
Vtype
p120
Vuri
p121
sVvalue
p122
Vhttp://dbpedia.org/ontology/foundingDate
p123
ssg8
(dp124
Vdatatype
p125
Vhttp://www.w3.org/2001/XMLSchema#date
p126
sVtype
p127
Vtyped-literal
p128
sVvalue
p129
V1849-11-06
p130
ssa(dp131
g7
(dp132
Vtype
p133
Vuri
p134
sVvalue
p135
Vhttp://dbpedia.org/ontology/percentageOfAreaWater
p136
ssg8
(dp137
Vdatatype
p138
Vhttp://www.w3.org/2001/XMLSchema#float
p139
sVtype
p140
Vtyped-literal
p141
sVvalue
p142
V0.09
p143
ssa(dp144
g7
(dp145
Vtype
p146
Vuri
p147
sVvalue
p148
Vhttp://dbpedia.org/ontology/populationDensity
p149
ssg8
(dp150
Vdatatype
p151
Vhttp://www.w3.org/2001/XMLSchema#double
p152
sVtype
p153
Vtyped-literal
p154
sVvalue
p155
V32.1623
p156
ssa(dp157
g7
(dp158
Vtype
p159
Vuri
p160
sVvalue
p161
Vhttp://dbpedia.org/ontology/populationTotal
p162
ssg8
(dp163
Vdatatype
p164
Vhttp://www.w3.org/2001/XMLSchema#nonNegativeInteger
p165
sVtype
p166
Vtyped-literal
p167
sVvalue
p168
V2855
p169
ssa(dp170
g7
(dp171
Vtype
p172
Vuri
p173
sVvalue
p174
Vhttp://dbpedia.org/ontology/postalCode
p175
ssg8
(dp176
Vtype
p177
Vliteral
p178
sVvalue
p179
V62301, 62338, 62359
p180
ssa(dp181
g7
(dp182
Vtype
p183
Vuri
p184
sVvalue
p185
Vhttp://dbpedia.org/ontology/utcOffset
p186
ssg8
(dp187
Vtype
p188
Vliteral
p189
sVvalue
p190
V-5
p191
ssa(dp192
g7
(dp193
Vtype
p194
Vuri
p195
sVvalue
p196
Vhttp://dbpedia.org/ontology/utcOffset
p197
ssg8
(dp198
Vtype
p199
Vliteral
p200
sVvalue
p201
V-6
p202
ssa(dp203
g7
(dp204
Vtype
p205
Vuri
p206
sVvalue
p207
Vhttp://dbpedia.org/ontology/wikiPageExtracted
p208
ssg8
(dp209
Vdatatype
p210
Vhttp://www.w3.org/2001/XMLSchema#dateTime
p211
sVtype
p212
Vtyped-literal
p213
sVvalue
p214
V2016-10-30T03:26:00Z
p215
ssa(dp216
g7
(dp217
Vtype
p218
Vuri
p219
sVvalue
p220
Vhttp://dbpedia.org/ontology/wikiPageLength
p221
ssg8
(dp222
Vdatatype
p223
Vhttp://www.w3.org/2001/XMLSchema#nonNegativeInteger
p224
sVtype
p225
Vtyped-literal
p226
sVvalue
p227
V5881
p228
ssa(dp229
g7
(dp230
Vtype
p231
Vuri
p232
sVvalue
p233
Vhttp://dbpedia.org/ontology/wikiPageModified
p234
ssg8
(dp235
Vdatatype
p236
Vhttp://www.w3.org/2001/XMLSchema#dateTime
p237
sVtype
p238
Vtyped-literal
p239
sVvalue
p240
V2016-10-26T13:19:04Z
p241
ssa(dp242
g7
(dp243
Vtype
p244
Vuri
p245
sVvalue
p246
Vhttp://dbpedia.org/ontology/wikiPageOutDegree
p247
ssg8
(dp248
Vdatatype
p249
Vhttp://www.w3.org/2001/XMLSchema#nonNegativeInteger
p250
sVtype
p251
Vtyped-literal
p252
sVvalue
p253
V39
p254
ssasVordered
p255
I01
ss.