(dp0
Vhead
p1
(dp2
Vlink
p3
(lp4
sVvars
p5
(lp6
Vp
p7
aVo
p8
assVresults
p9
(dp10
Vdistinct
p11
I00
sVbindings
p12
(lp13
(dp14
g7
(dp15
Vtype
p16
Vuri
p17
sVvalue
p18
Vhttp://dbpedia.org/ontology/bridgeCarries
p19
ssg8
(dp20
Vtype
p21
Vliteral
p22
sVvalue
p23
V25pxAutostrada A3 (Italy)
p24
ssa(dp25
g7
(dp26
Vtype
p27
Vuri
p28
sVvalue
p29
Vhttp://dbpedia.org/ontology/abstract
p30
ssg8
(dp31
Vxml:lang
p32
Ven
p33
sVtype
p34
Vliteral
p35
sVvalue
p36
VItalia Viaduct is a 259-metre-high (850 ft) viaduct near Laino Borgo, Calabria, Italy. It is the highest bridge in Italy, and was the second highest bridge in the world when it opened in 1974. As of 2012, it is among the twenty highest bridges in the world. The bridge is located on Autostrada A3 Napoli-Reggio Calabria Motorway between Laino Borgo and Mormanno and crosses the Lao River Gorge.
p37
ssa(dp38
g7
(dp39
Vtype
p40
Vuri
p41
sVvalue
p42
Vhttp://dbpedia.org/ontology/height
p43
ssg8
(dp44
Vdatatype
p45
Vhttp://www.w3.org/2001/XMLSchema#double
p46
sVtype
p47
Vtyped-literal
p48
sVvalue
p49
V259.0
p50
ssa(dp51
g7
(dp52
Vtype
p53
Vuri
p54
sVvalue
p55
Vhttp://dbpedia.org/ontology/length
p56
ssg8
(dp57
Vdatatype
p58
Vhttp://www.w3.org/2001/XMLSchema#double
p59
sVtype
p60
Vtyped-literal
p61
sVvalue
p62
V1161.0
p63
ssa(dp64
g7
(dp65
Vtype
p66
Vuri
p67
sVvalue
p68
Vhttp://dbpedia.org/ontology/wikiPageExtracted
p69
ssg8
(dp70
Vdatatype
p71
Vhttp://www.w3.org/2001/XMLSchema#dateTime
p72
sVtype
p73
Vtyped-literal
p74
sVvalue
p75
V2016-11-01T01:06:46Z
p76
ssa(dp77
g7
(dp78
Vtype
p79
Vuri
p80
sVvalue
p81
Vhttp://dbpedia.org/ontology/wikiPageLength
p82
ssg8
(dp83
Vdatatype
p84
Vhttp://www.w3.org/2001/XMLSchema#nonNegativeInteger
p85
sVtype
p86
Vtyped-literal
p87
sVvalue
p88
V2450
p89
ssa(dp90
g7
(dp91
Vtype
p92
Vuri
p93
sVvalue
p94
Vhttp://dbpedia.org/ontology/wikiPageModified
p95
ssg8
(dp96
Vdatatype
p97
Vhttp://www.w3.org/2001/XMLSchema#dateTime
p98
sVtype
p99
Vtyped-literal
p100
sVvalue
p101
V2014-11-27T01:15:08Z
p102
ssa(dp103
g7
(dp104
Vtype
p105
Vuri
p106
sVvalue
p107
Vhttp://dbpedia.org/ontology/wikiPageOutDegree
p108
ssg8
(dp109
Vdatatype
p110
Vhttp://www.w3.org/2001/XMLSchema#nonNegativeInteger
p111
sVtype
p112
Vtyped-literal
p113
sVvalue
p114
V19
p115
ssa(dp116
g7
(dp117
Vtype
p118
Vuri
p119
sVvalue
p120
Vhttp://dbpedia.org/ontology/Infrastructure/length
p121
ssg8
(dp122
Vdatatype
p123
Vhttp://dbpedia.org/datatype/kilometre
p124
sVtype
p125
Vtyped-literal
p126
sVvalue
p127
V1.161
p128
ssa(dp129
g7
(dp130
Vtype
p131
Vuri
p132
sVvalue
p133
Vhttp://dbpedia.org/ontology/openingYear
p134
ssg8
(dp135
Vdatatype
p136
Vhttp://www.w3.org/2001/XMLSchema#gYear
p137
sVtype
p138
Vtyped-literal
p139
sVvalue
p140
V1974
p141
ssa(dp142
g7
(dp143
Vtype
p144
Vuri
p145
sVvalue
p146
Vhttp://dbpedia.org/ontology/mainspan
p147
ssg8
(dp148
Vdatatype
p149
Vhttp://www.w3.org/2001/XMLSchema#double
p150
sVtype
p151
Vtyped-literal
p152
sVvalue
p153
V175.0
p154
ssasVordered
p155
I01
ss.