(dp0
Vhead
p1
(dp2
Vlink
p3
(lp4
sVvars
p5
(lp6
Vp
p7
aVo
p8
assVresults
p9
(dp10
Vdistinct
p11
I00
sVbindings
p12
(lp13
(dp14
g7
(dp15
Vtype
p16
Vuri
p17
sVvalue
p18
Vhttp://dbpedia.org/ontology/abstract
p19
ssg8
(dp20
Vxml:lang
p21
Ven
p22
sVtype
p23
Vliteral
p24
sVvalue
p25
VThe Chestnut Ridge School District covers the Boroughs of New Paris, Pleasantville, St. Clairsville and Schellsburg and East St. Clair Township, Juniata Township, King Township, Lincoln Township, Napier Township, Pavia Township and West St. Clair Township in Bedford County, Pennsylvania. It encompasses approximately 225 square miles. According to 2000 federal census data, it serves a resident population of 10,727. By 2010, the District's population declined to 10,677 people. The educational attainment levels for the Chestnut Ridge School District population (25 years old and over) were 89.1% high school graduates and 10.5% college graduates. The District is one of the 500 public school districts of Pennsylvania.According to the Pennsylvania Budget and Policy Center, 44.7% of the Chestnut Ridge School District\u2019s pupils lived at 185% or below the Federal Poverty Level as shown by their eligibility for the federal free or reduced price school meal programs in 2012. In 2009, the District residents\u2019 per capita income was $15,142, while the median family income was $36,724. In the Commonwealth, the median family income was $49,501 and the United States median family income was $49,445, in 2010. In Bedford County, the median household income was $43,290. By 2013, the median household income in the United States rose to $52,100. In 2014, the median household income in the USA was $53,700.According to District officials, in school year 2009\u201310 the Chestnut Ridge School District provided basic educational services to 1,592 pupils through the employment of 129 teachers, 86 full-time and part-time support personnel, and 10 administrators. Chestnut Ridge School District received more than $12 million in state funding in school year 2009-10. In school year 2005\u201306, Chestnut Ridge School District enrollment was 1,779 pupils. Chestnut Ridge School District employed: 122 teachers, 78 full-time and part-time support personnel, and 10 administrators. Chestnut Ridge School District received more than $10 million in state funding in school year 2005\u201306.High school students may choose to attend the Bedford County Career and Technology Center for training in the construction and mechanical trades. The Appalachia Intermediate Unit IU8 provides the District with a wide variety of services like specialized education for disabled students and hearing, background checks for employees, state mandated recognizing and reporting child abuse training, speech and visual disability services and criminal background check processing for prospective employees and professional development for staff and faculty.
p26
ssa(dp27
g7
(dp28
Vtype
p29
Vuri
p30
sVvalue
p31
Vhttp://dbpedia.org/ontology/wikiPageExtracted
p32
ssg8
(dp33
Vdatatype
p34
Vhttp://www.w3.org/2001/XMLSchema#dateTime
p35
sVtype
p36
Vtyped-literal
p37
sVvalue
p38
V2016-10-28T22:44:36Z
p39
ssa(dp40
g7
(dp41
Vtype
p42
Vuri
p43
sVvalue
p44
Vhttp://dbpedia.org/ontology/wikiPageLength
p45
ssg8
(dp46
Vdatatype
p47
Vhttp://www.w3.org/2001/XMLSchema#nonNegativeInteger
p48
sVtype
p49
Vtyped-literal
p50
sVvalue
p51
V161725
p52
ssa(dp53
g7
(dp54
Vtype
p55
Vuri
p56
sVvalue
p57
Vhttp://dbpedia.org/ontology/wikiPageModified
p58
ssg8
(dp59
Vdatatype
p60
Vhttp://www.w3.org/2001/XMLSchema#dateTime
p61
sVtype
p62
Vtyped-literal
p63
sVvalue
p64
V2016-05-28T22:55:54Z
p65
ssa(dp66
g7
(dp67
Vtype
p68
Vuri
p69
sVvalue
p70
Vhttp://dbpedia.org/ontology/wikiPageOutDegree
p71
ssg8
(dp72
Vdatatype
p73
Vhttp://www.w3.org/2001/XMLSchema#nonNegativeInteger
p74
sVtype
p75
Vtyped-literal
p76
sVvalue
p77
V97
p78
ssasVordered
p79
I01
ss.