(dp0
Vhead
p1
(dp2
Vlink
p3
(lp4
sVvars
p5
(lp6
Vp
p7
aVo
p8
assVresults
p9
(dp10
Vdistinct
p11
I00
sVbindings
p12
(lp13
(dp14
g7
(dp15
Vtype
p16
Vuri
p17
sVvalue
p18
Vhttp://dbpedia.org/ontology/abstract
p19
ssg8
(dp20
Vxml:lang
p21
Ven
p22
sVtype
p23
Vliteral
p24
sVvalue
p25
VThe Central Greene School District is a small, rural public school district located in Greene County, Pennsylvania. The District serves: the Borough of Waynesburg and Franklin Township, Perry Township, Washington Township, Wayne Township and Whiteley Township. It encompasses approximately 168 square miles (440 km2). In 1962, the District was created through an agreed joining of school administrations in each six townships served. The District is located about sixty miles south of Pittsburgh and twenty miles north of Morgantown, West Virginia. According to the 2000 federal census data, Central Greene School District served a resident population of 16,681. By 2010, the District's population declined to 15,902 people. In 2009 the District residents' per capita income was $14,354, while the median family income was $39,358. The educational attainment levels for the population 25 and over were 84.8% high school graduates and 15.8% college graduates.According to Central Greene School District officials, in school year 2007-08, the District provided basic educational services to 2,180 pupils. It employed 180 teachers, 98 full-time and part-time support personnel, and 13 administrators. Per District officials, in school year 2009-10, Central Greene School District provided basic educational services to 2,101 pupils. The District employed: 186 teachers, 102 full-time and part-time support personnel, and 13 administrators. Central Greene School District received more than $13 million in state funding in school year 2009-10.Central Greene School District operates three (3) schools: Waynesburg Central Elementary School, Margaret Bell Miller Middle School and Waynesburg Central High School. The facilities include a pool, a football stadium, an auditorium, a soccer field and indoor basketball courts that are used as a community center for the Waynesburg area. High school students may choose to attend Greene County Career and Technology Center for training in the construction and mechanical trades. The Intermediate Unit IU1 provides the District with a wide variety of services like specialized education for disabled students and hearing, speech and visual disability services and professional development for staff and faculty.
p26
ssa(dp27
g7
(dp28
Vtype
p29
Vuri
p30
sVvalue
p31
Vhttp://dbpedia.org/ontology/wikiPageExtracted
p32
ssg8
(dp33
Vdatatype
p34
Vhttp://www.w3.org/2001/XMLSchema#dateTime
p35
sVtype
p36
Vtyped-literal
p37
sVvalue
p38
V2016-10-28T19:40:35Z
p39
ssa(dp40
g7
(dp41
Vtype
p42
Vuri
p43
sVvalue
p44
Vhttp://dbpedia.org/ontology/wikiPageLength
p45
ssg8
(dp46
Vdatatype
p47
Vhttp://www.w3.org/2001/XMLSchema#nonNegativeInteger
p48
sVtype
p49
Vtyped-literal
p50
sVvalue
p51
V112182
p52
ssa(dp53
g7
(dp54
Vtype
p55
Vuri
p56
sVvalue
p57
Vhttp://dbpedia.org/ontology/wikiPageModified
p58
ssg8
(dp59
Vdatatype
p60
Vhttp://www.w3.org/2001/XMLSchema#dateTime
p61
sVtype
p62
Vtyped-literal
p63
sVvalue
p64
V2016-07-09T21:52:23Z
p65
ssa(dp66
g7
(dp67
Vtype
p68
Vuri
p69
sVvalue
p70
Vhttp://dbpedia.org/ontology/wikiPageOutDegree
p71
ssg8
(dp72
Vdatatype
p73
Vhttp://www.w3.org/2001/XMLSchema#nonNegativeInteger
p74
sVtype
p75
Vtyped-literal
p76
sVvalue
p77
V90
p78
ssasVordered
p79
I01
ss.