(dp0
Vhead
p1
(dp2
Vlink
p3
(lp4
sVvars
p5
(lp6
Vp
p7
aVo
p8
assVresults
p9
(dp10
Vdistinct
p11
I00
sVbindings
p12
(lp13
(dp14
g7
(dp15
Vtype
p16
Vuri
p17
sVvalue
p18
Vhttp://dbpedia.org/ontology/abstract
p19
ssg8
(dp20
Vxml:lang
p21
Ven
p22
sVtype
p23
Vliteral
p24
sVvalue
p25
VStone Lagoon is the second of three similar lagoons within Humboldt Lagoons State Park, along the coast of Humboldt County, California.It is located between Trinidad to the south and Orick at the mouth of Redwood Creek to the north.The lagoons are shallow bays between rocky headlands where coastal wave action has formed a sandy bar separating each lagoon from the Pacific Ocean. The lagoons are resting areas for migratory waterfowl using the Pacific Flyway between Lake Earl on the Smith River estuarine wetlands 40 miles (70 kilometers) to the north and Humboldt Bay on the Mad River estuarine wetlands 30 miles (50 kilometers) to the south.
p26
ssa(dp27
g7
(dp28
Vtype
p29
Vuri
p30
sVvalue
p31
Vhttp://dbpedia.org/ontology/length
p32
ssg8
(dp33
Vdatatype
p34
Vhttp://www.w3.org/2001/XMLSchema#double
p35
sVtype
p36
Vtyped-literal
p37
sVvalue
p38
V3218.69
p39
ssa(dp40
g7
(dp41
Vtype
p42
Vuri
p43
sVvalue
p44
Vhttp://dbpedia.org/ontology/width
p45
ssg8
(dp46
Vdatatype
p47
Vhttp://www.w3.org/2001/XMLSchema#double
p48
sVtype
p49
Vtyped-literal
p50
sVvalue
p51
V1126.54
p52
ssa(dp53
g7
(dp54
Vtype
p55
Vuri
p56
sVvalue
p57
Vhttp://dbpedia.org/ontology/wikiPageExtracted
p58
ssg8
(dp59
Vdatatype
p60
Vhttp://www.w3.org/2001/XMLSchema#dateTime
p61
sVtype
p62
Vtyped-literal
p63
sVvalue
p64
V2016-11-06T09:56:07Z
p65
ssa(dp66
g7
(dp67
Vtype
p68
Vuri
p69
sVvalue
p70
Vhttp://dbpedia.org/ontology/wikiPageLength
p71
ssg8
(dp72
Vdatatype
p73
Vhttp://www.w3.org/2001/XMLSchema#nonNegativeInteger
p74
sVtype
p75
Vtyped-literal
p76
sVvalue
p77
V4086
p78
ssa(dp79
g7
(dp80
Vtype
p81
Vuri
p82
sVvalue
p83
Vhttp://dbpedia.org/ontology/wikiPageModified
p84
ssg8
(dp85
Vdatatype
p86
Vhttp://www.w3.org/2001/XMLSchema#dateTime
p87
sVtype
p88
Vtyped-literal
p89
sVvalue
p90
V2015-12-14T03:09:39Z
p91
ssa(dp92
g7
(dp93
Vtype
p94
Vuri
p95
sVvalue
p96
Vhttp://dbpedia.org/ontology/wikiPageOutDegree
p97
ssg8
(dp98
Vdatatype
p99
Vhttp://www.w3.org/2001/XMLSchema#nonNegativeInteger
p100
sVtype
p101
Vtyped-literal
p102
sVvalue
p103
V42
p104
ssasVordered
p105
I01
ss.