(dp0
Vhead
p1
(dp2
Vlink
p3
(lp4
sVvars
p5
(lp6
Vp
p7
aVo
p8
assVresults
p9
(dp10
Vdistinct
p11
I00
sVbindings
p12
(lp13
(dp14
g7
(dp15
Vtype
p16
Vuri
p17
sVvalue
p18
Vhttp://dbpedia.org/ontology/Work/runtime
p19
ssg8
(dp20
Vdatatype
p21
Vhttp://dbpedia.org/datatype/minute
p22
sVtype
p23
Vtyped-literal
p24
sVvalue
p25
V95.0
p26
ssa(dp27
g7
(dp28
Vtype
p29
Vuri
p30
sVvalue
p31
Vhttp://dbpedia.org/ontology/abstract
p32
ssg8
(dp33
Vxml:lang
p34
Ven
p35
sVtype
p36
Vliteral
p37
sVvalue
p38
VDespicable Me is a 2010 American 3D computer-animated comedy film from Universal Pictures and Illumination Entertainment that was released on July 9, 2010 in the United States. It is Illumination Entertainment's first film. The film was animated by the French animation studio Mac Guff, which was later acquired by Illumination Entertainment. It was directed by Pierre Coffin and Chris Renaud as their feature debut film, with a story by Sergio Pablos. The film stars the voice of Steve Carell as Felonious Gru, a supervillain who adopts three girls (voiced by Miranda Cosgrove, Dana Gaier, and Elsie Fisher) from an orphanage; and the voice of Jason Segel as Vector, a rival of Gru who steals the Great Pyramid of Giza. When Gru learns of Vector's heist, he plans an even greater heist: to shrink and steal the Earth's moon.The film earned positive reviews from critics, and grossed over $543 million worldwide, against a budget of $69 million. It launched the Despicable Me franchise with a series of films, including the sequel Despicable Me 2 in 2013, and the prequel Minions released in 2015 and featuring Gru's Minions as the main characters. Another sequel, Despicable Me 3, is scheduled for release in 2017.
p39
ssa(dp40
g7
(dp41
Vtype
p42
Vuri
p43
sVvalue
p44
Vhttp://dbpedia.org/ontology/budget
p45
ssg8
(dp46
Vdatatype
p47
Vhttp://dbpedia.org/datatype/usDollar
p48
sVtype
p49
Vtyped-literal
p50
sVvalue
p51
V6.9E7
p52
ssa(dp53
g7
(dp54
Vtype
p55
Vuri
p56
sVvalue
p57
Vhttp://dbpedia.org/ontology/runtime
p58
ssg8
(dp59
Vdatatype
p60
Vhttp://www.w3.org/2001/XMLSchema#double
p61
sVtype
p62
Vtyped-literal
p63
sVvalue
p64
V5700.0
p65
ssa(dp66
g7
(dp67
Vtype
p68
Vuri
p69
sVvalue
p70
Vhttp://dbpedia.org/ontology/wikiPageExtracted
p71
ssg8
(dp72
Vdatatype
p73
Vhttp://www.w3.org/2001/XMLSchema#dateTime
p74
sVtype
p75
Vtyped-literal
p76
sVvalue
p77
V2016-10-29T16:30:49Z
p78
ssa(dp79
g7
(dp80
Vtype
p81
Vuri
p82
sVvalue
p83
Vhttp://dbpedia.org/ontology/wikiPageLength
p84
ssg8
(dp85
Vdatatype
p86
Vhttp://www.w3.org/2001/XMLSchema#nonNegativeInteger
p87
sVtype
p88
Vtyped-literal
p89
sVvalue
p90
V46148
p91
ssa(dp92
g7
(dp93
Vtype
p94
Vuri
p95
sVvalue
p96
Vhttp://dbpedia.org/ontology/wikiPageModified
p97
ssg8
(dp98
Vdatatype
p99
Vhttp://www.w3.org/2001/XMLSchema#dateTime
p100
sVtype
p101
Vtyped-literal
p102
sVvalue
p103
V2016-10-14T14:42:09Z
p104
ssa(dp105
g7
(dp106
Vtype
p107
Vuri
p108
sVvalue
p109
Vhttp://dbpedia.org/ontology/wikiPageOutDegree
p110
ssg8
(dp111
Vdatatype
p112
Vhttp://www.w3.org/2001/XMLSchema#nonNegativeInteger
p113
sVtype
p114
Vtyped-literal
p115
sVvalue
p116
V203
p117
ssa(dp118
g7
(dp119
Vtype
p120
Vuri
p121
sVvalue
p122
Vhttp://dbpedia.org/ontology/gross
p123
ssg8
(dp124
Vdatatype
p125
Vhttp://dbpedia.org/datatype/usDollar
p126
sVtype
p127
Vtyped-literal
p128
sVvalue
p129
V5.431E8
p130
ssasVordered
p131
I01
ss.