(dp0
Vhead
p1
(dp2
Vlink
p3
(lp4
sVvars
p5
(lp6
Vp
p7
aVo
p8
assVresults
p9
(dp10
Vdistinct
p11
I00
sVbindings
p12
(lp13
(dp14
g7
(dp15
Vtype
p16
Vuri
p17
sVvalue
p18
Vhttp://dbpedia.org/ontology/abstract
p19
ssg8
(dp20
Vxml:lang
p21
Ven
p22
sVtype
p23
Vliteral
p24
sVvalue
p25
VThe Chennai Suburban Railway is a commuter rail system in the city of Chennai (Madras), Tamil Nadu, India operated by the Southern Railway, one of the operating railway zones of Indian Railways.Chennai has a complex railway network. The system uses electrical multiple units (EMUs) operating on alternating current (AC) drawn from over-head cables through the catenary system. The total system spans around 900 km of which only 286 km have dedicated dual tracks for suburban EMUs, the rest share tracks with other trains and are called mainline EMUs (MEMUs). As of 2013, the suburban sector has 580 services, including 250 in the Beach\u2013Tambaram section, 240 services in the Central\u2013Tiruvallur section, and 90 in the Central\u2013Gummidipoondi. As of 2011\u20132012, 1.46 million people use the suburban train services daily. This includes 500,000 in the Beach\u2013Tambaram section, 350,000 in the Central\u2013Tiruvallur section, and 100,000 in the Central\u2013Gummidipoondi section. This is a 13.2 percent increase over the previous year. A total of 65 stations in the suburban section have cycle stands.
p26
ssa(dp27
g7
(dp28
Vtype
p29
Vuri
p30
sVvalue
p31
Vhttp://dbpedia.org/ontology/wikiPageExtracted
p32
ssg8
(dp33
Vdatatype
p34
Vhttp://www.w3.org/2001/XMLSchema#dateTime
p35
sVtype
p36
Vtyped-literal
p37
sVvalue
p38
V2016-10-28T22:29:58Z
p39
ssa(dp40
g7
(dp41
Vtype
p42
Vuri
p43
sVvalue
p44
Vhttp://dbpedia.org/ontology/wikiPageLength
p45
ssg8
(dp46
Vdatatype
p47
Vhttp://www.w3.org/2001/XMLSchema#nonNegativeInteger
p48
sVtype
p49
Vtyped-literal
p50
sVvalue
p51
V39645
p52
ssa(dp53
g7
(dp54
Vtype
p55
Vuri
p56
sVvalue
p57
Vhttp://dbpedia.org/ontology/wikiPageModified
p58
ssg8
(dp59
Vdatatype
p60
Vhttp://www.w3.org/2001/XMLSchema#dateTime
p61
sVtype
p62
Vtyped-literal
p63
sVvalue
p64
V2016-10-23T06:40:48Z
p65
ssa(dp66
g7
(dp67
Vtype
p68
Vuri
p69
sVvalue
p70
Vhttp://dbpedia.org/ontology/wikiPageOutDegree
p71
ssg8
(dp72
Vdatatype
p73
Vhttp://www.w3.org/2001/XMLSchema#nonNegativeInteger
p74
sVtype
p75
Vtyped-literal
p76
sVvalue
p77
V206
p78
ssasVordered
p79
I01
ss.