(dp0
Vhead
p1
(dp2
Vlink
p3
(lp4
sVvars
p5
(lp6
Vp
p7
aVo
p8
assVresults
p9
(dp10
Vdistinct
p11
I00
sVbindings
p12
(lp13
(dp14
g7
(dp15
Vtype
p16
Vuri
p17
sVvalue
p18
Vhttp://dbpedia.org/ontology/PopulatedPlace/area
p19
ssg8
(dp20
Vdatatype
p21
Vhttp://dbpedia.org/datatype/squareKilometre
p22
sVtype
p23
Vtyped-literal
p24
sVvalue
p25
V1.0E-6
p26
ssa(dp27
g7
(dp28
Vtype
p29
Vuri
p30
sVvalue
p31
Vhttp://dbpedia.org/ontology/PopulatedPlace/areaMetro
p32
ssg8
(dp33
Vdatatype
p34
Vhttp://dbpedia.org/datatype/squareKilometre
p35
sVtype
p36
Vtyped-literal
p37
sVvalue
p38
V26060.46036620083
p39
ssa(dp40
g7
(dp41
Vtype
p42
Vuri
p43
sVvalue
p44
Vhttp://dbpedia.org/ontology/PopulatedPlace/areaTotal
p45
ssg8
(dp46
Vdatatype
p47
Vhttp://dbpedia.org/datatype/squareKilometre
p48
sVtype
p49
Vtyped-literal
p50
sVvalue
p51
V1625.2
p52
ssa(dp53
g7
(dp54
Vtype
p55
Vuri
p56
sVvalue
p57
Vhttp://dbpedia.org/ontology/PopulatedPlace/areaTotal
p58
ssg8
(dp59
Vdatatype
p60
Vhttp://dbpedia.org/datatype/squareKilometre
p61
sVtype
p62
Vtyped-literal
p63
sVvalue
p64
V1625.994535668941
p65
ssa(dp66
g7
(dp67
Vtype
p68
Vuri
p69
sVvalue
p70
Vhttp://dbpedia.org/ontology/PopulatedPlace/populationDensity
p71
ssg8
(dp72
Vdatatype
p73
Vhttp://dbpedia.org/datatype/inhabitantsPerSquareKilometre
p74
sVtype
p75
Vtyped-literal
p76
sVvalue
p77
V1413.906104582437
p78
ssa(dp79
g7
(dp80
Vtype
p81
Vuri
p82
sVvalue
p83
Vhttp://dbpedia.org/ontology/PopulatedPlace/populationDensity
p84
ssg8
(dp85
Vdatatype
p86
Vhttp://dbpedia.org/datatype/inhabitantsPerSquareKilometre
p87
sVtype
p88
Vtyped-literal
p89
sVvalue
p90
V1414.0
p91
ssa(dp92
g7
(dp93
Vtype
p94
Vuri
p95
sVvalue
p96
Vhttp://dbpedia.org/ontology/abstract
p97
ssg8
(dp98
Vxml:lang
p99
Ven
p100
sVtype
p101
Vliteral
p102
sVvalue
p103
VHouston (/\u02c8hju\u02d0st\u0259n/ HYOO-st\u0259n) is the most populous city in Texas and the fourth-most populous city in the United States, located in Southeast Texas near the Gulf of Mexico. With a census-estimated 2014 population of 2.239 million within a land area of 599.6 square miles (1,553 km2), it also is the largest city in the Southern United States, as well as the seat of Harris County. It is the principal city of Houston\u2013The Woodlands\u2013Sugar Land, which is the fifth-most populated metropolitan area in the United States.Houston was founded in 1836 near the banks of Buffalo Bayou (now known as Allen's Landing) and incorporated as a city on June 5, 1837. The city was named after former General Sam Houston, who was president of the Republic of Texas and had commanded and won at the Battle of San Jacinto 25 miles (40 km) east of where the city was established. The burgeoning port and railroad industry, combined with oil discovery in 1901, has induced continual surges in the city's population. In the mid-20th century, Houston became the home of the Texas Medical Center\u2014the world's largest concentration of healthcare and research institutions\u2014and NASA's Johnson Space Center, where the Mission Control Center is located.Houston's economy has a broad industrial base in energy, manufacturing, aeronautics, and transportation. It is also leading in health care sectors and building oilfield equipment; only New York City is home to more Fortune 500 headquarters within its city limits. The Port of Houston ranks first in the United States in international waterborne tonnage handled and second in total cargo tonnage handled. Nicknamed the "Space City", Houston is a global city, with strengths in business, international trade, entertainment, culture, media, fashion, science, sports, technology, education, medicine, and research. The city has a population from various ethnic and religious backgrounds and a large and growing international community. Houston is the most diverse city in Texas and has been described as the most diverse in the United States. It is home to many cultural institutions and exhibits, which attract more than 7 million visitors a year to the Museum District. Houston has an active visual and performing arts scene in the Theater District and offers year-round resident companies in all major performing arts.
p104
ssa(dp105
g7
(dp106
Vtype
p107
Vuri
p108
sVvalue
p109
Vhttp://dbpedia.org/ontology/abstract
p110
ssg8
(dp111
Vxml:lang
p112
Ven
p113
sVtype
p114
Vliteral
p115
sVvalue
p116
VHouston (/\u02c8hju\u02d0st\u0259n/ HYOO-st\u0259n) is the most populous city in Texas and the fourth-most populous city in the United States, located in Southeast Texas near the Gulf of Mexico. With a census-estimated 2014 population of 2.239 million within a land area of 599.6 square miles (1,553 km2), it also is the largest city in the Southern United States, as well as the seat of Harris County. It is the principal city of Houston\u2013The Woodlands\u2013Sugar Land, which is the fifth-most populated metropolitan area in the United States.Houston was founded on August 28, 1836 near the banks of Buffalo Bayou (now known as Allen's Landing) and incorporated as a city on June 5, 1837. The city was named after former General Sam Houston, who was president of the Republic of Texas and had commanded and won at the Battle of San Jacinto 25 miles (40 km) east of where the city was established. The burgeoning port and railroad industry, combined with oil discovery in 1901, has induced continual surges in the city's population. In the mid-20th century, Houston became the home of the Texas Medical Center\u2014the world's largest concentration of healthcare and research institutions\u2014and NASA's Johnson Space Center, where the Mission Control Center is located.Houston's economy has a broad industrial base in energy, manufacturing, aeronautics, and transportation. It is also leading in health care sectors and building oilfield equipment; only New York City is home to more Fortune 500 headquarters within its city limits. The Port of Houston ranks first in the United States in international waterborne tonnage handled and second in total cargo tonnage handled. Nicknamed the "Space City", Houston is a global city, with strengths in business, international trade, entertainment, culture, media, fashion, science, sports, technology, education, medicine, and research. The city has a population from various ethnic and religious backgrounds and a large and growing international community. Houston is the most diverse city in Texas and has been described as the most diverse in the United States. It is home to many cultural institutions and exhibits, which attract more than 7 million visitors a year to the Museum District. Houston has an active visual and performing arts scene in the Theater District and offers year-round resident companies in all major performing arts.
p117
ssa(dp118
g7
(dp119
Vtype
p120
Vuri
p121
sVvalue
p122
Vhttp://dbpedia.org/ontology/area
p123
ssg8
(dp124
Vdatatype
p125
Vhttp://www.w3.org/2001/XMLSchema#double
p126
sVtype
p127
Vtyped-literal
p128
sVvalue
p129
VNAN
p130
ssa(dp131
g7
(dp132
Vtype
p133
Vuri
p134
sVvalue
p135
Vhttp://dbpedia.org/ontology/areaCode
p136
ssg8
(dp137
Vtype
p138
Vliteral
p139
sVvalue
p140
V713,832,281,346
p141
ssa(dp142
g7
(dp143
Vtype
p144
Vuri
p145
sVvalue
p146
Vhttp://dbpedia.org/ontology/areaLand
p147
ssg8
(dp148
Vdatatype
p149
Vhttp://www.w3.org/2001/XMLSchema#double
p150
sVtype
p151
Vtyped-literal
p152
sVvalue
p153
V1.55296e+09
p154
ssa(dp155
g7
(dp156
Vtype
p157
Vuri
p158
sVvalue
p159
Vhttp://dbpedia.org/ontology/areaLand
p160
ssg8
(dp161
Vdatatype
p162
Vhttp://www.w3.org/2001/XMLSchema#double
p163
sVtype
p164
Vtyped-literal
p165
sVvalue
p166
V1.6421e+09
p167
ssa(dp168
g7
(dp169
Vtype
p170
Vuri
p171
sVvalue
p172
Vhttp://dbpedia.org/ontology/areaMetro
p173
ssg8
(dp174
Vdatatype
p175
Vhttp://www.w3.org/2001/XMLSchema#double
p176
sVtype
p177
Vtyped-literal
p178
sVvalue
p179
V2.60605e+10
p180
ssa(dp181
g7
(dp182
Vtype
p183
Vuri
p184
sVvalue
p185
Vhttp://dbpedia.org/ontology/areaTotal
p186
ssg8
(dp187
Vdatatype
p188
Vhttp://www.w3.org/2001/XMLSchema#double
p189
sVtype
p190
Vtyped-literal
p191
sVvalue
p192
V1.6252e+09
p193
ssa(dp194
g7
(dp195
Vtype
p196
Vuri
p197
sVvalue
p198
Vhttp://dbpedia.org/ontology/areaTotal
p199
ssg8
(dp200
Vdatatype
p201
Vhttp://www.w3.org/2001/XMLSchema#double
p202
sVtype
p203
Vtyped-literal
p204
sVvalue
p205
V1.62599e+09
p206
ssa(dp207
g7
(dp208
Vtype
p209
Vuri
p210
sVvalue
p211
Vhttp://dbpedia.org/ontology/areaWater
p212
ssg8
(dp213
Vdatatype
p214
Vhttp://www.w3.org/2001/XMLSchema#double
p215
sVtype
p216
Vtyped-literal
p217
sVvalue
p218
V7.22607e+07
p219
ssa(dp220
g7
(dp221
Vtype
p222
Vuri
p223
sVvalue
p224
Vhttp://dbpedia.org/ontology/areaWater
p225
ssg8
(dp226
Vdatatype
p227
Vhttp://www.w3.org/2001/XMLSchema#double
p228
sVtype
p229
Vtyped-literal
p230
sVvalue
p231
V7.23e+07
p232
ssa(dp233
g7
(dp234
Vtype
p235
Vuri
p236
sVvalue
p237
Vhttp://dbpedia.org/ontology/elevation
p238
ssg8
(dp239
Vdatatype
p240
Vhttp://www.w3.org/2001/XMLSchema#double
p241
sVtype
p242
Vtyped-literal
p243
sVvalue
p244
V24.384
p245
ssa(dp246
g7
(dp247
Vtype
p248
Vuri
p249
sVvalue
p250
Vhttp://dbpedia.org/ontology/elevation
p251
ssg8
(dp252
Vdatatype
p253
Vhttp://www.w3.org/2001/XMLSchema#double
p254
sVtype
p255
Vtyped-literal
p256
sVvalue
p257
V32.0
p258
ssa(dp259
g7
(dp260
Vtype
p261
Vuri
p262
sVvalue
p263
Vhttp://dbpedia.org/ontology/foundingDate
p264
ssg8
(dp265
Vdatatype
p266
Vhttp://www.w3.org/2001/XMLSchema#date
p267
sVtype
p268
Vtyped-literal
p269
sVvalue
p270
V1837-06-05
p271
ssa(dp272
g7
(dp273
Vtype
p274
Vuri
p275
sVvalue
p276
Vhttp://dbpedia.org/ontology/leaderTitle
p277
ssg8
(dp278
Vxml:lang
p279
Ven
p280
sVtype
p281
Vliteral
p282
sVvalue
p283
VMayor
p284
ssa(dp285
g7
(dp286
Vtype
p287
Vuri
p288
sVvalue
p289
Vhttp://dbpedia.org/ontology/populationDensity
p290
ssg8
(dp291
Vdatatype
p292
Vhttp://www.w3.org/2001/XMLSchema#double
p293
sVtype
p294
Vtyped-literal
p295
sVvalue
p296
V1413.91
p297
ssa(dp298
g7
(dp299
Vtype
p300
Vuri
p301
sVvalue
p302
Vhttp://dbpedia.org/ontology/populationDensity
p303
ssg8
(dp304
Vdatatype
p305
Vhttp://www.w3.org/2001/XMLSchema#double
p306
sVtype
p307
Vtyped-literal
p308
sVvalue
p309
V1414.0
p310
ssa(dp311
g7
(dp312
Vtype
p313
Vuri
p314
sVvalue
p315
Vhttp://dbpedia.org/ontology/populationMetro
p316
ssg8
(dp317
Vdatatype
p318
Vhttp://www.w3.org/2001/XMLSchema#nonNegativeInteger
p319
sVtype
p320
Vtyped-literal
p321
sVvalue
p322
V6313158
p323
ssa(dp324
g7
(dp325
Vtype
p326
Vuri
p327
sVvalue
p328
Vhttp://dbpedia.org/ontology/populationTotal
p329
ssg8
(dp330
Vdatatype
p331
Vhttp://www.w3.org/2001/XMLSchema#nonNegativeInteger
p332
sVtype
p333
Vtyped-literal
p334
sVvalue
p335
V2099451
p336
ssa(dp337
g7
(dp338
Vtype
p339
Vuri
p340
sVvalue
p341
Vhttp://dbpedia.org/ontology/populationTotalRanking
p342
ssg8
(dp343
Vdatatype
p344
Vhttp://www.w3.org/2001/XMLSchema#positiveInteger
p345
sVtype
p346
Vtyped-literal
p347
sVvalue
p348
V4
p349
ssa(dp350
g7
(dp351
Vtype
p352
Vuri
p353
sVvalue
p354
Vhttp://dbpedia.org/ontology/populationUrban
p355
ssg8
(dp356
Vdatatype
p357
Vhttp://www.w3.org/2001/XMLSchema#nonNegativeInteger
p358
sVtype
p359
Vtyped-literal
p360
sVvalue
p361
V4944332
p362
ssa(dp363
g7
(dp364
Vtype
p365
Vuri
p366
sVvalue
p367
Vhttp://dbpedia.org/ontology/postalCode
p368
ssg8
(dp369
Vtype
p370
Vliteral
p371
sVvalue
p372
V770XX, 772XX (P.O. Boxes)
p373
ssa(dp374
g7
(dp375
Vtype
p376
Vuri
p377
sVvalue
p378
Vhttp://dbpedia.org/ontology/utcOffset
p379
ssg8
(dp380
Vtype
p381
Vliteral
p382
sVvalue
p383
V-5
p384
ssa(dp385
g7
(dp386
Vtype
p387
Vuri
p388
sVvalue
p389
Vhttp://dbpedia.org/ontology/utcOffset
p390
ssg8
(dp391
Vtype
p392
Vliteral
p393
sVvalue
p394
V-6
p395
ssa(dp396
g7
(dp397
Vtype
p398
Vuri
p399
sVvalue
p400
Vhttp://dbpedia.org/ontology/wikiPageExtracted
p401
ssg8
(dp402
Vdatatype
p403
Vhttp://www.w3.org/2001/XMLSchema#dateTime
p404
sVtype
p405
Vtyped-literal
p406
sVvalue
p407
V2016-10-31T16:39:02Z
p408
ssa(dp409
g7
(dp410
Vtype
p411
Vuri
p412
sVvalue
p413
Vhttp://dbpedia.org/ontology/wikiPageLength
p414
ssg8
(dp415
Vdatatype
p416
Vhttp://www.w3.org/2001/XMLSchema#nonNegativeInteger
p417
sVtype
p418
Vtyped-literal
p419
sVvalue
p420
V128005
p421
ssa(dp422
g7
(dp423
Vtype
p424
Vuri
p425
sVvalue
p426
Vhttp://dbpedia.org/ontology/wikiPageModified
p427
ssg8
(dp428
Vdatatype
p429
Vhttp://www.w3.org/2001/XMLSchema#dateTime
p430
sVtype
p431
Vtyped-literal
p432
sVvalue
p433
V2016-10-25T18:00:13Z
p434
ssa(dp435
g7
(dp436
Vtype
p437
Vuri
p438
sVvalue
p439
Vhttp://dbpedia.org/ontology/wikiPageOutDegree
p440
ssg8
(dp441
Vdatatype
p442
Vhttp://www.w3.org/2001/XMLSchema#nonNegativeInteger
p443
sVtype
p444
Vtyped-literal
p445
sVvalue
p446
V572
p447
ssasVordered
p448
I01
ss.