(dp0
Vhead
p1
(dp2
Vlink
p3
(lp4
sVvars
p5
(lp6
Vp
p7
aVo
p8
assVresults
p9
(dp10
Vdistinct
p11
I00
sVbindings
p12
(lp13
(dp14
g7
(dp15
Vtype
p16
Vuri
p17
sVvalue
p18
Vhttp://dbpedia.org/ontology/abbreviation
p19
ssg8
(dp20
Vtype
p21
Vliteral
p22
sVvalue
p23
VCUPP
p24
ssa(dp25
g7
(dp26
Vtype
p27
Vuri
p28
sVvalue
p29
Vhttp://dbpedia.org/ontology/abstract
p30
ssg8
(dp31
Vxml:lang
p32
Ven
p33
sVtype
p34
Vliteral
p35
sVvalue
p36
VThe Canada-Ukraine Parliamentary Program (French: Programme Parlamentaire Canada-Ukraine, Ukrainian: \u041f\u0430\u0440\u043b\u044f\u043c\u0435\u043d\u0442\u0430\u0440\u043d\u0430 \u043f\u0440\u043e\u0433\u0440\u0430\u043c\u0430 \u041a\u0430\u043d\u0430\u0434\u0430-\u0423\u043a\u0440\u0430\u0457\u043d\u0430) or CUPP is a parliamentary internship program for Ukrainian students, established by the Ukrainian Canadians in Canada. The Program provides an opportunity for Ukrainian students to learn about the principles of democratic government and parliamentary procedures in Canada. During the Program, Ukrainian students work and study in Parliament of Canada, as well as gain experience from which generations of Canadian, American and West European students have benefited. On the basis of academic excellence, knowledge of the English or French and Ukrainian languages, and an interest in the parliamentary system of government, undergraduate university students from Ukraine and Ukrainian diaspora can apply for a CUPP scholarship. It is hoped that CUPP will contribute to the education of future leaders of Ukraine. Since the first CUPP program over 400 students from Ukraine and 24 Canadian students have participated in the CUPP program.
p37
ssa(dp38
g7
(dp39
Vtype
p40
Vuri
p41
sVvalue
p42
Vhttp://dbpedia.org/ontology/formationYear
p43
ssg8
(dp44
Vdatatype
p45
Vhttp://www.w3.org/2001/XMLSchema#gYear
p46
sVtype
p47
Vtyped-literal
p48
sVvalue
p49
V1991
p50
ssa(dp51
g7
(dp52
Vtype
p53
Vuri
p54
sVvalue
p55
Vhttp://dbpedia.org/ontology/purpose
p56
ssg8
(dp57
Vtype
p58
Vliteral
p59
sVvalue
p60
VEducational
p61
ssa(dp62
g7
(dp63
Vtype
p64
Vuri
p65
sVvalue
p66
Vhttp://dbpedia.org/ontology/wikiPageExtracted
p67
ssg8
(dp68
Vdatatype
p69
Vhttp://www.w3.org/2001/XMLSchema#dateTime
p70
sVtype
p71
Vtyped-literal
p72
sVvalue
p73
V2016-10-28T15:58:29Z
p74
ssa(dp75
g7
(dp76
Vtype
p77
Vuri
p78
sVvalue
p79
Vhttp://dbpedia.org/ontology/wikiPageLength
p80
ssg8
(dp81
Vdatatype
p82
Vhttp://www.w3.org/2001/XMLSchema#nonNegativeInteger
p83
sVtype
p84
Vtyped-literal
p85
sVvalue
p86
V5680
p87
ssa(dp88
g7
(dp89
Vtype
p90
Vuri
p91
sVvalue
p92
Vhttp://dbpedia.org/ontology/wikiPageModified
p93
ssg8
(dp94
Vdatatype
p95
Vhttp://www.w3.org/2001/XMLSchema#dateTime
p96
sVtype
p97
Vtyped-literal
p98
sVvalue
p99
V2016-01-28T15:36:43Z
p100
ssa(dp101
g7
(dp102
Vtype
p103
Vuri
p104
sVvalue
p105
Vhttp://dbpedia.org/ontology/wikiPageOutDegree
p106
ssg8
(dp107
Vdatatype
p108
Vhttp://www.w3.org/2001/XMLSchema#nonNegativeInteger
p109
sVtype
p110
Vtyped-literal
p111
sVvalue
p112
V27
p113
ssasVordered
p114
I01
ss.