(dp0
Vhead
p1
(dp2
Vlink
p3
(lp4
sVvars
p5
(lp6
Vp
p7
aVo
p8
assVresults
p9
(dp10
Vdistinct
p11
I00
sVbindings
p12
(lp13
(dp14
g7
(dp15
Vtype
p16
Vuri
p17
sVvalue
p18
Vhttp://dbpedia.org/ontology/abstract
p19
ssg8
(dp20
Vxml:lang
p21
Ven
p22
sVtype
p23
Vliteral
p24
sVvalue
p25
VSouth Middleton School District is a mid-sized, rural, public school district located in Boiling Springs, Pennsylvania. It also serves residents of South Middleton Township. South Middleton School District encompasses approximately 51 square miles (130 km2). South Middleton School District serves grades (K-12). According to 2000 federal census data, it served a resident population of 12,939. By 2010 the population had risen to 14,695 residents. The educational attainment levels for the School District population (25 years old and over) were 92.9% high school graduates and 33.1% college graduates.In 2009, South Middleton School District residents' per capita income was $24,370, while the median family income was $60,511 a year. In the Commonwealth, the median family income was $49,501  and the United States median family income was $49,445, in 2010. In Cumberland County, the median household income was $51,035. By 2013, the median household income in the United States rose to $52,100.In school year 2007-2008, the South Middleton School District provided basic educational services to 2,227 pupils. It employed 183 teachers, 118 full-time and part-time support personnel, and 16 administrators. South Middleton School District received more than $7.6 million in state funding in school year 2007-2008. South Middleton School District provided basic educational services to 2,172 pupils. The District employed: 185 teachers, 117 full-time and part-time support personnel, and 19 administrators during the 2011-2012 school year. The District received more than $7.8 million in state funding in 2011-2012 school yearSouth Middleton School District operates four schools: W.G. Rice Elementary School, Iron Forge Educational Center, Yellow Breeches Middle School and Boiling Springs High School. High school students may choose to attend Cumberland Perry Area Vocational Technical School for training in the construction and mechanical trades. The District is served by the Capital Area Intermediate Unit 15 which offers a variety of services, including a completely developed K-12 curriculum that is mapped and aligned with the Pennsylvania Academic Standards (available online), shared services, a group purchasing program and a wide variety of special education and special needs services.
p26
ssa(dp27
g7
(dp28
Vtype
p29
Vuri
p30
sVvalue
p31
Vhttp://dbpedia.org/ontology/wikiPageExtracted
p32
ssg8
(dp33
Vdatatype
p34
Vhttp://www.w3.org/2001/XMLSchema#dateTime
p35
sVtype
p36
Vtyped-literal
p37
sVvalue
p38
V2016-11-06T03:57:06Z
p39
ssa(dp40
g7
(dp41
Vtype
p42
Vuri
p43
sVvalue
p44
Vhttp://dbpedia.org/ontology/wikiPageLength
p45
ssg8
(dp46
Vdatatype
p47
Vhttp://www.w3.org/2001/XMLSchema#nonNegativeInteger
p48
sVtype
p49
Vtyped-literal
p50
sVvalue
p51
V118743
p52
ssa(dp53
g7
(dp54
Vtype
p55
Vuri
p56
sVvalue
p57
Vhttp://dbpedia.org/ontology/wikiPageModified
p58
ssg8
(dp59
Vdatatype
p60
Vhttp://www.w3.org/2001/XMLSchema#dateTime
p61
sVtype
p62
Vtyped-literal
p63
sVvalue
p64
V2016-08-22T21:07:39Z
p65
ssa(dp66
g7
(dp67
Vtype
p68
Vuri
p69
sVvalue
p70
Vhttp://dbpedia.org/ontology/wikiPageOutDegree
p71
ssg8
(dp72
Vdatatype
p73
Vhttp://www.w3.org/2001/XMLSchema#nonNegativeInteger
p74
sVtype
p75
Vtyped-literal
p76
sVvalue
p77
V93
p78
ssasVordered
p79
I01
ss.