(dp0
Vhead
p1
(dp2
Vlink
p3
(lp4
sVvars
p5
(lp6
Vp
p7
aVo
p8
assVresults
p9
(dp10
Vdistinct
p11
I00
sVbindings
p12
(lp13
(dp14
g7
(dp15
Vtype
p16
Vuri
p17
sVvalue
p18
Vhttp://dbpedia.org/ontology/PopulatedPlace/areaTotal
p19
ssg8
(dp20
Vdatatype
p21
Vhttp://dbpedia.org/datatype/squareKilometre
p22
sVtype
p23
Vtyped-literal
p24
sVvalue
p25
V8.5469607641088
p26
ssa(dp27
g7
(dp28
Vtype
p29
Vuri
p30
sVvalue
p31
Vhttp://dbpedia.org/ontology/PopulatedPlace/areaTotal
p32
ssg8
(dp33
Vdatatype
p34
Vhttp://dbpedia.org/datatype/squareKilometre
p35
sVtype
p36
Vtyped-literal
p37
sVvalue
p38
V8.5
p39
ssa(dp40
g7
(dp41
Vtype
p42
Vuri
p43
sVvalue
p44
Vhttp://dbpedia.org/ontology/PopulatedPlace/populationDensity
p45
ssg8
(dp46
Vdatatype
p47
Vhttp://dbpedia.org/datatype/inhabitantsPerSquareKilometre
p48
sVtype
p49
Vtyped-literal
p50
sVvalue
p51
V138.14735232648715
p52
ssa(dp53
g7
(dp54
Vtype
p55
Vuri
p56
sVvalue
p57
Vhttp://dbpedia.org/ontology/PopulatedPlace/populationDensity
p58
ssg8
(dp59
Vdatatype
p60
Vhttp://dbpedia.org/datatype/inhabitantsPerSquareKilometre
p61
sVtype
p62
Vtyped-literal
p63
sVvalue
p64
V138.9
p65
ssa(dp66
g7
(dp67
Vtype
p68
Vuri
p69
sVvalue
p70
Vhttp://dbpedia.org/ontology/abstract
p71
ssg8
(dp72
Vxml:lang
p73
Ven
p74
sVtype
p75
Vliteral
p76
sVvalue
p77
VMount Gilead is a town in Montgomery County, North Carolina, United States. The population was 1,181 at the 2010 census.
p78
ssa(dp79
g7
(dp80
Vtype
p81
Vuri
p82
sVvalue
p83
Vhttp://dbpedia.org/ontology/areaCode
p84
ssg8
(dp85
Vtype
p86
Vliteral
p87
sVvalue
p88
V910
p89
ssa(dp90
g7
(dp91
Vtype
p92
Vuri
p93
sVvalue
p94
Vhttp://dbpedia.org/ontology/areaLand
p95
ssg8
(dp96
Vdatatype
p97
Vhttp://www.w3.org/2001/XMLSchema#double
p98
sVtype
p99
Vtyped-literal
p100
sVvalue
p101
V8.5e+06
p102
ssa(dp103
g7
(dp104
Vtype
p105
Vuri
p106
sVvalue
p107
Vhttp://dbpedia.org/ontology/areaLand
p108
ssg8
(dp109
Vdatatype
p110
Vhttp://www.w3.org/2001/XMLSchema#double
p111
sVtype
p112
Vtyped-literal
p113
sVvalue
p114
V8.54696e+06
p115
ssa(dp116
g7
(dp117
Vtype
p118
Vuri
p119
sVvalue
p120
Vhttp://dbpedia.org/ontology/areaTotal
p121
ssg8
(dp122
Vdatatype
p123
Vhttp://www.w3.org/2001/XMLSchema#double
p124
sVtype
p125
Vtyped-literal
p126
sVvalue
p127
V8.5e+06
p128
ssa(dp129
g7
(dp130
Vtype
p131
Vuri
p132
sVvalue
p133
Vhttp://dbpedia.org/ontology/areaTotal
p134
ssg8
(dp135
Vdatatype
p136
Vhttp://www.w3.org/2001/XMLSchema#double
p137
sVtype
p138
Vtyped-literal
p139
sVvalue
p140
V8.54696e+06
p141
ssa(dp142
g7
(dp143
Vtype
p144
Vuri
p145
sVvalue
p146
Vhttp://dbpedia.org/ontology/areaWater
p147
ssg8
(dp148
Vdatatype
p149
Vhttp://www.w3.org/2001/XMLSchema#double
p150
sVtype
p151
Vtyped-literal
p152
sVvalue
p153
V0.0
p154
ssa(dp155
g7
(dp156
Vtype
p157
Vuri
p158
sVvalue
p159
Vhttp://dbpedia.org/ontology/elevation
p160
ssg8
(dp161
Vdatatype
p162
Vhttp://www.w3.org/2001/XMLSchema#double
p163
sVtype
p164
Vtyped-literal
p165
sVvalue
p166
V130.0
p167
ssa(dp168
g7
(dp169
Vtype
p170
Vuri
p171
sVvalue
p172
Vhttp://dbpedia.org/ontology/elevation
p173
ssg8
(dp174
Vdatatype
p175
Vhttp://www.w3.org/2001/XMLSchema#double
p176
sVtype
p177
Vtyped-literal
p178
sVvalue
p179
V130.15
p180
ssa(dp181
g7
(dp182
Vtype
p183
Vuri
p184
sVvalue
p185
Vhttp://dbpedia.org/ontology/leaderTitle
p186
ssg8
(dp187
Vxml:lang
p188
Ven
p189
sVtype
p190
Vliteral
p191
sVvalue
p192
VMayor
p193
ssa(dp194
g7
(dp195
Vtype
p196
Vuri
p197
sVvalue
p198
Vhttp://dbpedia.org/ontology/leaderTitle
p199
ssg8
(dp200
Vxml:lang
p201
Ven
p202
sVtype
p203
Vliteral
p204
sVvalue
p205
VTown Manager
p206
ssa(dp207
g7
(dp208
Vtype
p209
Vuri
p210
sVvalue
p211
Vhttp://dbpedia.org/ontology/motto
p212
ssg8
(dp213
Vtype
p214
Vliteral
p215
sVvalue
p216
V"Surrounded by nature - forests, lakes, rivers...Embedded with culture, history..."
p217
ssa(dp218
g7
(dp219
Vtype
p220
Vuri
p221
sVvalue
p222
Vhttp://dbpedia.org/ontology/populationDensity
p223
ssg8
(dp224
Vdatatype
p225
Vhttp://www.w3.org/2001/XMLSchema#double
p226
sVtype
p227
Vtyped-literal
p228
sVvalue
p229
V138.147
p230
ssa(dp231
g7
(dp232
Vtype
p233
Vuri
p234
sVvalue
p235
Vhttp://dbpedia.org/ontology/populationDensity
p236
ssg8
(dp237
Vdatatype
p238
Vhttp://www.w3.org/2001/XMLSchema#double
p239
sVtype
p240
Vtyped-literal
p241
sVvalue
p242
V138.9
p243
ssa(dp244
g7
(dp245
Vtype
p246
Vuri
p247
sVvalue
p248
Vhttp://dbpedia.org/ontology/populationTotal
p249
ssg8
(dp250
Vdatatype
p251
Vhttp://www.w3.org/2001/XMLSchema#nonNegativeInteger
p252
sVtype
p253
Vtyped-literal
p254
sVvalue
p255
V1181
p256
ssa(dp257
g7
(dp258
Vtype
p259
Vuri
p260
sVvalue
p261
Vhttp://dbpedia.org/ontology/postalCode
p262
ssg8
(dp263
Vtype
p264
Vliteral
p265
sVvalue
p266
V27306
p267
ssa(dp268
g7
(dp269
Vtype
p270
Vuri
p271
sVvalue
p272
Vhttp://dbpedia.org/ontology/utcOffset
p273
ssg8
(dp274
Vtype
p275
Vliteral
p276
sVvalue
p277
V-4
p278
ssa(dp279
g7
(dp280
Vtype
p281
Vuri
p282
sVvalue
p283
Vhttp://dbpedia.org/ontology/utcOffset
p284
ssg8
(dp285
Vtype
p286
Vliteral
p287
sVvalue
p288
V-5
p289
ssa(dp290
g7
(dp291
Vtype
p292
Vuri
p293
sVvalue
p294
Vhttp://dbpedia.org/ontology/wikiPageExtracted
p295
ssg8
(dp296
Vdatatype
p297
Vhttp://www.w3.org/2001/XMLSchema#dateTime
p298
sVtype
p299
Vtyped-literal
p300
sVvalue
p301
V2016-11-03T11:09:48Z
p302
ssa(dp303
g7
(dp304
Vtype
p305
Vuri
p306
sVvalue
p307
Vhttp://dbpedia.org/ontology/wikiPageLength
p308
ssg8
(dp309
Vdatatype
p310
Vhttp://www.w3.org/2001/XMLSchema#nonNegativeInteger
p311
sVtype
p312
Vtyped-literal
p313
sVvalue
p314
V11157
p315
ssa(dp316
g7
(dp317
Vtype
p318
Vuri
p319
sVvalue
p320
Vhttp://dbpedia.org/ontology/wikiPageModified
p321
ssg8
(dp322
Vdatatype
p323
Vhttp://www.w3.org/2001/XMLSchema#dateTime
p324
sVtype
p325
Vtyped-literal
p326
sVvalue
p327
V2016-07-10T22:43:35Z
p328
ssa(dp329
g7
(dp330
Vtype
p331
Vuri
p332
sVvalue
p333
Vhttp://dbpedia.org/ontology/wikiPageOutDegree
p334
ssg8
(dp335
Vdatatype
p336
Vhttp://www.w3.org/2001/XMLSchema#nonNegativeInteger
p337
sVtype
p338
Vtyped-literal
p339
sVvalue
p340
V41
p341
ssasVordered
p342
I01
ss.