(dp0
Vhead
p1
(dp2
Vlink
p3
(lp4
sVvars
p5
(lp6
Vp
p7
aVo
p8
assVresults
p9
(dp10
Vdistinct
p11
I00
sVbindings
p12
(lp13
(dp14
g7
(dp15
Vtype
p16
Vuri
p17
sVvalue
p18
Vhttp://dbpedia.org/ontology/abstract
p19
ssg8
(dp20
Vxml:lang
p21
Ven
p22
sVtype
p23
Vliteral
p24
sVvalue
p25
VFootball Club Mika (Armenian: \u0556\u0578\u0582\u057f\u0562\u0578\u056c\u0561\u0575\u056b\u0576 \u0531\u056f\u0578\u0582\u0574\u0562 \u0544\u056b\u056f\u0561), commonly known as Mika, is a defunct Armenian football club from the capital Yerevan. It was owned by the Mika Corporation LLC headed by the Russia-based Armenian businessman Mikhail Baghdasarov. The club headquarters were located on Manandyan street 41, Yerevan.
p26
ssa(dp27
g7
(dp28
Vtype
p29
Vuri
p30
sVvalue
p31
Vhttp://dbpedia.org/ontology/capacity
p32
ssg8
(dp33
Vdatatype
p34
Vhttp://www.w3.org/2001/XMLSchema#nonNegativeInteger
p35
sVtype
p36
Vtyped-literal
p37
sVvalue
p38
V7250
p39
ssa(dp40
g7
(dp41
Vtype
p42
Vuri
p43
sVvalue
p44
Vhttp://dbpedia.org/ontology/wikiPageExtracted
p45
ssg8
(dp46
Vdatatype
p47
Vhttp://www.w3.org/2001/XMLSchema#dateTime
p48
sVtype
p49
Vtyped-literal
p50
sVvalue
p51
V2016-10-30T08:59:41Z
p52
ssa(dp53
g7
(dp54
Vtype
p55
Vuri
p56
sVvalue
p57
Vhttp://dbpedia.org/ontology/wikiPageLength
p58
ssg8
(dp59
Vdatatype
p60
Vhttp://www.w3.org/2001/XMLSchema#nonNegativeInteger
p61
sVtype
p62
Vtyped-literal
p63
sVvalue
p64
V19825
p65
ssa(dp66
g7
(dp67
Vtype
p68
Vuri
p69
sVvalue
p70
Vhttp://dbpedia.org/ontology/wikiPageModified
p71
ssg8
(dp72
Vdatatype
p73
Vhttp://www.w3.org/2001/XMLSchema#dateTime
p74
sVtype
p75
Vtyped-literal
p76
sVvalue
p77
V2016-09-02T09:18:44Z
p78
ssa(dp79
g7
(dp80
Vtype
p81
Vuri
p82
sVvalue
p83
Vhttp://dbpedia.org/ontology/wikiPageOutDegree
p84
ssg8
(dp85
Vdatatype
p86
Vhttp://www.w3.org/2001/XMLSchema#nonNegativeInteger
p87
sVtype
p88
Vtyped-literal
p89
sVvalue
p90
V198
p91
ssasVordered
p92
I01
ss.