(dp0
Vhead
p1
(dp2
Vlink
p3
(lp4
sVvars
p5
(lp6
Vp
p7
aVo
p8
assVresults
p9
(dp10
Vdistinct
p11
I00
sVbindings
p12
(lp13
(dp14
g7
(dp15
Vtype
p16
Vuri
p17
sVvalue
p18
Vhttp://dbpedia.org/ontology/PopulatedPlace/areaTotal
p19
ssg8
(dp20
Vdatatype
p21
Vhttp://dbpedia.org/datatype/squareKilometre
p22
sVtype
p23
Vtyped-literal
p24
sVvalue
p25
V93.239571972096
p26
ssa(dp27
g7
(dp28
Vtype
p29
Vuri
p30
sVvalue
p31
Vhttp://dbpedia.org/ontology/PopulatedPlace/areaTotal
p32
ssg8
(dp33
Vdatatype
p34
Vhttp://dbpedia.org/datatype/squareKilometre
p35
sVtype
p36
Vtyped-literal
p37
sVvalue
p38
V93.24
p39
ssa(dp40
g7
(dp41
Vtype
p42
Vuri
p43
sVvalue
p44
Vhttp://dbpedia.org/ontology/PopulatedPlace/populationDensity
p45
ssg8
(dp46
Vdatatype
p47
Vhttp://dbpedia.org/datatype/inhabitantsPerSquareKilometre
p48
sVtype
p49
Vtyped-literal
p50
sVvalue
p51
V7.799263602557407
p52
ssa(dp53
g7
(dp54
Vtype
p55
Vuri
p56
sVvalue
p57
Vhttp://dbpedia.org/ontology/PopulatedPlace/populationDensity
p58
ssg8
(dp59
Vdatatype
p60
Vhttp://dbpedia.org/datatype/inhabitantsPerSquareKilometre
p61
sVtype
p62
Vtyped-literal
p63
sVvalue
p64
V7.8
p65
ssa(dp66
g7
(dp67
Vtype
p68
Vuri
p69
sVvalue
p70
Vhttp://dbpedia.org/ontology/abstract
p71
ssg8
(dp72
Vxml:lang
p73
Ven
p74
sVtype
p75
Vliteral
p76
sVvalue
p77
VJefferson Township is one of sixteen townships in Buchanan County, Iowa, USA. As of the 2000 census, its population was 726.
p78
ssa(dp79
g7
(dp80
Vtype
p81
Vuri
p82
sVvalue
p83
Vhttp://dbpedia.org/ontology/areaLand
p84
ssg8
(dp85
Vdatatype
p86
Vhttp://www.w3.org/2001/XMLSchema#double
p87
sVtype
p88
Vtyped-literal
p89
sVvalue
p90
V9.31878e+07
p91
ssa(dp92
g7
(dp93
Vtype
p94
Vuri
p95
sVvalue
p96
Vhttp://dbpedia.org/ontology/areaLand
p97
ssg8
(dp98
Vdatatype
p99
Vhttp://www.w3.org/2001/XMLSchema#double
p100
sVtype
p101
Vtyped-literal
p102
sVvalue
p103
V9.319e+07
p104
ssa(dp105
g7
(dp106
Vtype
p107
Vuri
p108
sVvalue
p109
Vhttp://dbpedia.org/ontology/areaTotal
p110
ssg8
(dp111
Vdatatype
p112
Vhttp://www.w3.org/2001/XMLSchema#double
p113
sVtype
p114
Vtyped-literal
p115
sVvalue
p116
V9.32396e+07
p117
ssa(dp118
g7
(dp119
Vtype
p120
Vuri
p121
sVvalue
p122
Vhttp://dbpedia.org/ontology/areaTotal
p123
ssg8
(dp124
Vdatatype
p125
Vhttp://www.w3.org/2001/XMLSchema#double
p126
sVtype
p127
Vtyped-literal
p128
sVvalue
p129
V9.324e+07
p130
ssa(dp131
g7
(dp132
Vtype
p133
Vuri
p134
sVvalue
p135
Vhttp://dbpedia.org/ontology/areaWater
p136
ssg8
(dp137
Vdatatype
p138
Vhttp://www.w3.org/2001/XMLSchema#double
p139
sVtype
p140
Vtyped-literal
p141
sVvalue
p142
V50000.0
p143
ssa(dp144
g7
(dp145
Vtype
p146
Vuri
p147
sVvalue
p148
Vhttp://dbpedia.org/ontology/areaWater
p149
ssg8
(dp150
Vdatatype
p151
Vhttp://www.w3.org/2001/XMLSchema#double
p152
sVtype
p153
Vtyped-literal
p154
sVvalue
p155
V51799.8
p156
ssa(dp157
g7
(dp158
Vtype
p159
Vuri
p160
sVvalue
p161
Vhttp://dbpedia.org/ontology/elevation
p162
ssg8
(dp163
Vdatatype
p164
Vhttp://www.w3.org/2001/XMLSchema#double
p165
sVtype
p166
Vtyped-literal
p167
sVvalue
p168
V280.0
p169
ssa(dp170
g7
(dp171
Vtype
p172
Vuri
p173
sVvalue
p174
Vhttp://dbpedia.org/ontology/elevation
p175
ssg8
(dp176
Vdatatype
p177
Vhttp://www.w3.org/2001/XMLSchema#double
p178
sVtype
p179
Vtyped-literal
p180
sVvalue
p181
V280.111
p182
ssa(dp183
g7
(dp184
Vtype
p185
Vuri
p186
sVvalue
p187
Vhttp://dbpedia.org/ontology/populationDensity
p188
ssg8
(dp189
Vdatatype
p190
Vhttp://www.w3.org/2001/XMLSchema#double
p191
sVtype
p192
Vtyped-literal
p193
sVvalue
p194
V7.79926
p195
ssa(dp196
g7
(dp197
Vtype
p198
Vuri
p199
sVvalue
p200
Vhttp://dbpedia.org/ontology/populationDensity
p201
ssg8
(dp202
Vdatatype
p203
Vhttp://www.w3.org/2001/XMLSchema#double
p204
sVtype
p205
Vtyped-literal
p206
sVvalue
p207
V7.8
p208
ssa(dp209
g7
(dp210
Vtype
p211
Vuri
p212
sVvalue
p213
Vhttp://dbpedia.org/ontology/populationTotal
p214
ssg8
(dp215
Vdatatype
p216
Vhttp://www.w3.org/2001/XMLSchema#nonNegativeInteger
p217
sVtype
p218
Vtyped-literal
p219
sVvalue
p220
V726
p221
ssa(dp222
g7
(dp223
Vtype
p224
Vuri
p225
sVvalue
p226
Vhttp://dbpedia.org/ontology/wikiPageExtracted
p227
ssg8
(dp228
Vdatatype
p229
Vhttp://www.w3.org/2001/XMLSchema#dateTime
p230
sVtype
p231
Vtyped-literal
p232
sVvalue
p233
V2016-11-01T05:42:18Z
p234
ssa(dp235
g7
(dp236
Vtype
p237
Vuri
p238
sVvalue
p239
Vhttp://dbpedia.org/ontology/wikiPageLength
p240
ssg8
(dp241
Vdatatype
p242
Vhttp://www.w3.org/2001/XMLSchema#nonNegativeInteger
p243
sVtype
p244
Vtyped-literal
p245
sVvalue
p246
V4127
p247
ssa(dp248
g7
(dp249
Vtype
p250
Vuri
p251
sVvalue
p252
Vhttp://dbpedia.org/ontology/wikiPageModified
p253
ssg8
(dp254
Vdatatype
p255
Vhttp://www.w3.org/2001/XMLSchema#dateTime
p256
sVtype
p257
Vtyped-literal
p258
sVvalue
p259
V2014-07-29T19:08:46Z
p260
ssa(dp261
g7
(dp262
Vtype
p263
Vuri
p264
sVvalue
p265
Vhttp://dbpedia.org/ontology/wikiPageOutDegree
p266
ssg8
(dp267
Vdatatype
p268
Vhttp://www.w3.org/2001/XMLSchema#nonNegativeInteger
p269
sVtype
p270
Vtyped-literal
p271
sVvalue
p272
V18
p273
ssasVordered
p274
I01
ss.