(dp0
Vhead
p1
(dp2
Vlink
p3
(lp4
sVvars
p5
(lp6
Vp
p7
aVo
p8
assVresults
p9
(dp10
Vdistinct
p11
I00
sVbindings
p12
(lp13
(dp14
g7
(dp15
Vtype
p16
Vuri
p17
sVvalue
p18
Vhttp://dbpedia.org/ontology/abstract
p19
ssg8
(dp20
Vxml:lang
p21
Ven
p22
sVtype
p23
Vliteral
p24
sVvalue
p25
VThe Canadian Football League (CFL; French: Ligue canadienne de football, LCF) is a professional sports league in Canada. The CFL is the highest level of competition in Canadian football, a form of gridiron football closely related to American football. Its nine current teams, which are located in nine separate cities, are divided into two divisions: the East Division, with four teams, and the West Division with five teams. As of 2015, the league features a 20-week regular season, which traditionally runs from late June to early November; each team plays 18 games with at least two bye weeks. Following the regular season, six teams compete in the league's three-week divisional playoffs, which culminate in the late-November Grey Cup championship, the country's largest annual sports and television event.The CFL was officially founded on January 19, 1958, making it the second oldest professional gridiron football league in North America still in operation. However, most of its teams long predate the modern formation of the league, and many of them have been playing each other since the 1920s.
p26
ssa(dp27
g7
(dp28
Vtype
p29
Vuri
p30
sVvalue
p31
Vhttp://dbpedia.org/ontology/formationDate
p32
ssg8
(dp33
Vdatatype
p34
Vhttp://www.w3.org/2001/XMLSchema#date
p35
sVtype
p36
Vtyped-literal
p37
sVvalue
p38
V1958-01-17
p39
ssa(dp40
g7
(dp41
Vtype
p42
Vuri
p43
sVvalue
p44
Vhttp://dbpedia.org/ontology/foundingYear
p45
ssg8
(dp46
Vdatatype
p47
Vhttp://www.w3.org/2001/XMLSchema#gYear
p48
sVtype
p49
Vtyped-literal
p50
sVvalue
p51
V1958
p52
ssa(dp53
g7
(dp54
Vtype
p55
Vuri
p56
sVvalue
p57
Vhttp://dbpedia.org/ontology/motto
p58
ssg8
(dp59
Vtype
p60
Vliteral
p61
sVvalue
p62
VWhat We're Made Of
p63
ssa(dp64
g7
(dp65
Vtype
p66
Vuri
p67
sVvalue
p68
Vhttp://dbpedia.org/ontology/participant
p69
ssg8
(dp70
Vtype
p71
Vliteral
p72
sVvalue
p73
VEdmonton Eskimos(11)
p74
ssa(dp75
g7
(dp76
Vtype
p77
Vuri
p78
sVvalue
p79
Vhttp://dbpedia.org/ontology/participant
p80
ssg8
(dp81
Vtype
p82
Vliteral
p83
sVvalue
p84
VEdmonton Eskimos(11th title)
p85
ssa(dp86
g7
(dp87
Vtype
p88
Vuri
p89
sVvalue
p90
Vhttp://dbpedia.org/ontology/participant
p91
ssg8
(dp92
Vtype
p93
Vliteral
p94
sVvalue
p95
V[[#Teams
p96
ssa(dp97
g7
(dp98
Vtype
p99
Vuri
p100
sVvalue
p101
Vhttp://dbpedia.org/ontology/title
p102
ssg8
(dp103
Vxml:lang
p104
Ven
p105
sVtype
p106
Vliteral
p107
sVvalue
p108
VCanadian Football League
p109
ssa(dp110
g7
(dp111
Vtype
p112
Vuri
p113
sVvalue
p114
Vhttp://dbpedia.org/ontology/wikiPageExtracted
p115
ssg8
(dp116
Vdatatype
p117
Vhttp://www.w3.org/2001/XMLSchema#dateTime
p118
sVtype
p119
Vtyped-literal
p120
sVvalue
p121
V2016-10-28T16:02:57Z
p122
ssa(dp123
g7
(dp124
Vtype
p125
Vuri
p126
sVvalue
p127
Vhttp://dbpedia.org/ontology/wikiPageLength
p128
ssg8
(dp129
Vdatatype
p130
Vhttp://www.w3.org/2001/XMLSchema#nonNegativeInteger
p131
sVtype
p132
Vtyped-literal
p133
sVvalue
p134
V85490
p135
ssa(dp136
g7
(dp137
Vtype
p138
Vuri
p139
sVvalue
p140
Vhttp://dbpedia.org/ontology/wikiPageModified
p141
ssg8
(dp142
Vdatatype
p143
Vhttp://www.w3.org/2001/XMLSchema#dateTime
p144
sVtype
p145
Vtyped-literal
p146
sVvalue
p147
V2016-10-15T23:40:13Z
p148
ssa(dp149
g7
(dp150
Vtype
p151
Vuri
p152
sVvalue
p153
Vhttp://dbpedia.org/ontology/wikiPageOutDegree
p154
ssg8
(dp155
Vdatatype
p156
Vhttp://www.w3.org/2001/XMLSchema#nonNegativeInteger
p157
sVtype
p158
Vtyped-literal
p159
sVvalue
p160
V466
p161
ssa(dp162
g7
(dp163
Vtype
p164
Vuri
p165
sVvalue
p166
Vhttp://dbpedia.org/ontology/currentSeason
p167
ssg8
(dp168
Vtype
p169
Vliteral
p170
sVvalue
p171
V2016 CFL season
p172
ssasVordered
p173
I01
ss.