(dp0
Vhead
p1
(dp2
Vlink
p3
(lp4
sVvars
p5
(lp6
Vp
p7
aVo
p8
assVresults
p9
(dp10
Vdistinct
p11
I00
sVbindings
p12
(lp13
(dp14
g7
(dp15
Vtype
p16
Vuri
p17
sVvalue
p18
Vhttp://dbpedia.org/ontology/PopulatedPlace/areaTotal
p19
ssg8
(dp20
Vdatatype
p21
Vhttp://dbpedia.org/datatype/squareKilometre
p22
sVtype
p23
Vtyped-literal
p24
sVvalue
p25
V1401.183567691776
p26
ssa(dp27
g7
(dp28
Vtype
p29
Vuri
p30
sVvalue
p31
Vhttp://dbpedia.org/ontology/PopulatedPlace/populationDensity
p32
ssg8
(dp33
Vdatatype
p34
Vhttp://dbpedia.org/datatype/inhabitantsPerSquareKilometre
p35
sVtype
p36
Vtyped-literal
p37
sVvalue
p38
V50.96548492760286
p39
ssa(dp40
g7
(dp41
Vtype
p42
Vuri
p43
sVvalue
p44
Vhttp://dbpedia.org/ontology/abstract
p45
ssg8
(dp46
Vxml:lang
p47
Ven
p48
sVtype
p49
Vliteral
p50
sVvalue
p51
VBelmont County is a county located in the U.S. state of Ohio. As of the 2010 census, the population was 70,400. Its county seat is St. Clairsville. The county was created in 1801 and later organized in 1815. It takes its name from the French for "beautiful mountain".Belmont County is part of the Wheeling, WV-OH Metropolitan Statistical Area. It is the only Belmont County nationwide.
p52
ssa(dp53
g7
(dp54
Vtype
p55
Vuri
p56
sVvalue
p57
Vhttp://dbpedia.org/ontology/areaLand
p58
ssg8
(dp59
Vdatatype
p60
Vhttp://www.w3.org/2001/XMLSchema#double
p61
sVtype
p62
Vtyped-literal
p63
sVvalue
p64
V1.37787e+09
p65
ssa(dp66
g7
(dp67
Vtype
p68
Vuri
p69
sVvalue
p70
Vhttp://dbpedia.org/ontology/areaTotal
p71
ssg8
(dp72
Vdatatype
p73
Vhttp://www.w3.org/2001/XMLSchema#double
p74
sVtype
p75
Vtyped-literal
p76
sVvalue
p77
V1.40118e+09
p78
ssa(dp79
g7
(dp80
Vtype
p81
Vuri
p82
sVvalue
p83
Vhttp://dbpedia.org/ontology/areaWater
p84
ssg8
(dp85
Vdatatype
p86
Vhttp://www.w3.org/2001/XMLSchema#double
p87
sVtype
p88
Vtyped-literal
p89
sVvalue
p90
V2.35689e+07
p91
ssa(dp92
g7
(dp93
Vtype
p94
Vuri
p95
sVvalue
p96
Vhttp://dbpedia.org/ontology/foundingDate
p97
ssg8
(dp98
Vdatatype
p99
Vhttp://www.w3.org/2001/XMLSchema#date
p100
sVtype
p101
Vtyped-literal
p102
sVvalue
p103
V1815-03-01
p104
ssa(dp105
g7
(dp106
Vtype
p107
Vuri
p108
sVvalue
p109
Vhttp://dbpedia.org/ontology/motto
p110
ssg8
(dp111
Vtype
p112
Vliteral
p113
sVvalue
p114
V''
p115
ssa(dp116
g7
(dp117
Vtype
p118
Vuri
p119
sVvalue
p120
Vhttp://dbpedia.org/ontology/motto
p121
ssg8
(dp122
Vtype
p123
Vliteral
p124
sVvalue
p125
V(Latin, "He has planted one better than the one fallen")
p126
ssa(dp127
g7
(dp128
Vtype
p129
Vuri
p130
sVvalue
p131
Vhttp://dbpedia.org/ontology/percentageOfAreaWater
p132
ssg8
(dp133
Vdatatype
p134
Vhttp://www.w3.org/2001/XMLSchema#float
p135
sVtype
p136
Vtyped-literal
p137
sVvalue
p138
V1.7
p139
ssa(dp140
g7
(dp141
Vtype
p142
Vuri
p143
sVvalue
p144
Vhttp://dbpedia.org/ontology/populationDensity
p145
ssg8
(dp146
Vdatatype
p147
Vhttp://www.w3.org/2001/XMLSchema#double
p148
sVtype
p149
Vtyped-literal
p150
sVvalue
p151
V50.9655
p152
ssa(dp153
g7
(dp154
Vtype
p155
Vuri
p156
sVvalue
p157
Vhttp://dbpedia.org/ontology/populationTotal
p158
ssg8
(dp159
Vdatatype
p160
Vhttp://www.w3.org/2001/XMLSchema#nonNegativeInteger
p161
sVtype
p162
Vtyped-literal
p163
sVvalue
p164
V70400
p165
ssa(dp166
g7
(dp167
Vtype
p168
Vuri
p169
sVvalue
p170
Vhttp://dbpedia.org/ontology/wikiPageExtracted
p171
ssg8
(dp172
Vdatatype
p173
Vhttp://www.w3.org/2001/XMLSchema#dateTime
p174
sVtype
p175
Vtyped-literal
p176
sVvalue
p177
V2016-10-28T02:33:47Z
p178
ssa(dp179
g7
(dp180
Vtype
p181
Vuri
p182
sVvalue
p183
Vhttp://dbpedia.org/ontology/wikiPageLength
p184
ssg8
(dp185
Vdatatype
p186
Vhttp://www.w3.org/2001/XMLSchema#nonNegativeInteger
p187
sVtype
p188
Vtyped-literal
p189
sVvalue
p190
V21527
p191
ssa(dp192
g7
(dp193
Vtype
p194
Vuri
p195
sVvalue
p196
Vhttp://dbpedia.org/ontology/wikiPageModified
p197
ssg8
(dp198
Vdatatype
p199
Vhttp://www.w3.org/2001/XMLSchema#dateTime
p200
sVtype
p201
Vtyped-literal
p202
sVvalue
p203
V2016-09-14T00:56:47Z
p204
ssa(dp205
g7
(dp206
Vtype
p207
Vuri
p208
sVvalue
p209
Vhttp://dbpedia.org/ontology/wikiPageOutDegree
p210
ssg8
(dp211
Vdatatype
p212
Vhttp://www.w3.org/2001/XMLSchema#nonNegativeInteger
p213
sVtype
p214
Vtyped-literal
p215
sVvalue
p216
V176
p217
ssa(dp218
g7
(dp219
Vtype
p220
Vuri
p221
sVvalue
p222
Vhttp://dbpedia.org/ontology/censusYear
p223
ssg8
(dp224
Vdatatype
p225
Vhttp://www.w3.org/2001/XMLSchema#gYear
p226
sVtype
p227
Vtyped-literal
p228
sVvalue
p229
V2010
p230
ssasVordered
p231
I01
ss.