(dp0
Vhead
p1
(dp2
Vlink
p3
(lp4
sVvars
p5
(lp6
Vp
p7
aVo
p8
assVresults
p9
(dp10
Vdistinct
p11
I00
sVbindings
p12
(lp13
(dp14
g7
(dp15
Vtype
p16
Vuri
p17
sVvalue
p18
Vhttp://dbpedia.org/ontology/PopulatedPlace/area
p19
ssg8
(dp20
Vdatatype
p21
Vhttp://dbpedia.org/datatype/squareKilometre
p22
sVtype
p23
Vtyped-literal
p24
sVvalue
p25
V1.0E-6
p26
ssa(dp27
g7
(dp28
Vtype
p29
Vuri
p30
sVvalue
p31
Vhttp://dbpedia.org/ontology/PopulatedPlace/areaTotal
p32
ssg8
(dp33
Vdatatype
p34
Vhttp://dbpedia.org/datatype/squareKilometre
p35
sVtype
p36
Vtyped-literal
p37
sVvalue
p38
V250.71
p39
ssa(dp40
g7
(dp41
Vtype
p42
Vuri
p43
sVvalue
p44
Vhttp://dbpedia.org/ontology/PopulatedPlace/areaTotal
p45
ssg8
(dp46
Vdatatype
p47
Vhttp://dbpedia.org/datatype/squareKilometre
p48
sVtype
p49
Vtyped-literal
p50
sVvalue
p51
V250.7108490805248
p52
ssa(dp53
g7
(dp54
Vtype
p55
Vuri
p56
sVvalue
p57
Vhttp://dbpedia.org/ontology/PopulatedPlace/populationDensity
p58
ssg8
(dp59
Vdatatype
p60
Vhttp://dbpedia.org/datatype/inhabitantsPerSquareKilometre
p61
sVtype
p62
Vtyped-literal
p63
sVvalue
p64
V2389.354597924072
p65
ssa(dp66
g7
(dp67
Vtype
p68
Vuri
p69
sVvalue
p70
Vhttp://dbpedia.org/ontology/PopulatedPlace/populationDensity
p71
ssg8
(dp72
Vdatatype
p73
Vhttp://dbpedia.org/datatype/inhabitantsPerSquareKilometre
p74
sVtype
p75
Vtyped-literal
p76
sVvalue
p77
V2389.4
p78
ssa(dp79
g7
(dp80
Vtype
p81
Vuri
p82
sVvalue
p83
Vhttp://dbpedia.org/ontology/abstract
p84
ssg8
(dp85
Vxml:lang
p86
Ven
p87
sVtype
p88
Vliteral
p89
sVvalue
p90
VMilwaukee (/m\u026al\u02c8w\u0254\u02d0ki\u02d0/, /\u02c8mw\u0254\u02d0ki/) is the largest city in the state of Wisconsin and the fifth-largest city in the Midwestern United States. The county seat of Milwaukee County, it is on Lake Michigan's western shore. According to the 2010 census, Milwaukee has a population of 594,833. Milwaukee is the main cultural and economic center of the Milwaukee\u2013Racine\u2013Waukesha Metropolitan Area with a population of 2,043,904 as of an official 2014 estimate.The first Europeans to pass through the area were French Catholic missionaries and fur traders. In 1818, the French Canadian explorer Solomon Juneau settled in the area, and in 1846 Juneau's town combined with two neighboring towns to incorporate as the City of Milwaukee. Large numbers of German immigrants helped increase the city's population during the 1840s, with Poles and other immigrants arriving in the following decades.Known for its brewing traditions, major new additions to the city include the Milwaukee Riverwalk, the Wisconsin Center, Miller Park, an expansion to the Milwaukee Art Museum, Milwaukee Repertory Theater, and Pier Wisconsin, as well as major renovations to the UW\u2013Milwaukee Panther Arena and the planned Milwaukee Bucks Arena, scheduled to open in 2018. In addition, many new skyscrapers, condos, lofts and apartments have been built in neighborhoods on and near the lakefront and riverbanks.
p91
ssa(dp92
g7
(dp93
Vtype
p94
Vuri
p95
sVvalue
p96
Vhttp://dbpedia.org/ontology/area
p97
ssg8
(dp98
Vdatatype
p99
Vhttp://www.w3.org/2001/XMLSchema#double
p100
sVtype
p101
Vtyped-literal
p102
sVvalue
p103
V1.0
p104
ssa(dp105
g7
(dp106
Vtype
p107
Vuri
p108
sVvalue
p109
Vhttp://dbpedia.org/ontology/areaCode
p110
ssg8
(dp111
Vtype
p112
Vliteral
p113
sVvalue
p114
V414
p115
ssa(dp116
g7
(dp117
Vtype
p118
Vuri
p119
sVvalue
p120
Vhttp://dbpedia.org/ontology/areaLand
p121
ssg8
(dp122
Vdatatype
p123
Vhttp://www.w3.org/2001/XMLSchema#double
p124
sVtype
p125
Vtyped-literal
p126
sVvalue
p127
V2.4895e+08
p128
ssa(dp129
g7
(dp130
Vtype
p131
Vuri
p132
sVvalue
p133
Vhttp://dbpedia.org/ontology/areaLand
p134
ssg8
(dp135
Vdatatype
p136
Vhttp://www.w3.org/2001/XMLSchema#double
p137
sVtype
p138
Vtyped-literal
p139
sVvalue
p140
V2.4895e+08
p141
ssa(dp142
g7
(dp143
Vtype
p144
Vuri
p145
sVvalue
p146
Vhttp://dbpedia.org/ontology/areaTotal
p147
ssg8
(dp148
Vdatatype
p149
Vhttp://www.w3.org/2001/XMLSchema#double
p150
sVtype
p151
Vtyped-literal
p152
sVvalue
p153
V2.5071e+08
p154
ssa(dp155
g7
(dp156
Vtype
p157
Vuri
p158
sVvalue
p159
Vhttp://dbpedia.org/ontology/areaTotal
p160
ssg8
(dp161
Vdatatype
p162
Vhttp://www.w3.org/2001/XMLSchema#double
p163
sVtype
p164
Vtyped-literal
p165
sVvalue
p166
V2.50711e+08
p167
ssa(dp168
g7
(dp169
Vtype
p170
Vuri
p171
sVvalue
p172
Vhttp://dbpedia.org/ontology/areaWater
p173
ssg8
(dp174
Vdatatype
p175
Vhttp://www.w3.org/2001/XMLSchema#double
p176
sVtype
p177
Vtyped-literal
p178
sVvalue
p179
V1.76e+06
p180
ssa(dp181
g7
(dp182
Vtype
p183
Vuri
p184
sVvalue
p185
Vhttp://dbpedia.org/ontology/areaWater
p186
ssg8
(dp187
Vdatatype
p188
Vhttp://www.w3.org/2001/XMLSchema#double
p189
sVtype
p190
Vtyped-literal
p191
sVvalue
p192
V1.76119e+06
p193
ssa(dp194
g7
(dp195
Vtype
p196
Vuri
p197
sVvalue
p198
Vhttp://dbpedia.org/ontology/elevation
p199
ssg8
(dp200
Vdatatype
p201
Vhttp://www.w3.org/2001/XMLSchema#double
p202
sVtype
p203
Vtyped-literal
p204
sVvalue
p205
V188.0
p206
ssa(dp207
g7
(dp208
Vtype
p209
Vuri
p210
sVvalue
p211
Vhttp://dbpedia.org/ontology/elevation
p212
ssg8
(dp213
Vdatatype
p214
Vhttp://www.w3.org/2001/XMLSchema#double
p215
sVtype
p216
Vtyped-literal
p217
sVvalue
p218
V188.062
p219
ssa(dp220
g7
(dp221
Vtype
p222
Vuri
p223
sVvalue
p224
Vhttp://dbpedia.org/ontology/leaderTitle
p225
ssg8
(dp226
Vxml:lang
p227
Ven
p228
sVtype
p229
Vliteral
p230
sVvalue
p231
VMayor
p232
ssa(dp233
g7
(dp234
Vtype
p235
Vuri
p236
sVvalue
p237
Vhttp://dbpedia.org/ontology/populationDensity
p238
ssg8
(dp239
Vdatatype
p240
Vhttp://www.w3.org/2001/XMLSchema#double
p241
sVtype
p242
Vtyped-literal
p243
sVvalue
p244
V2389.35
p245
ssa(dp246
g7
(dp247
Vtype
p248
Vuri
p249
sVvalue
p250
Vhttp://dbpedia.org/ontology/populationDensity
p251
ssg8
(dp252
Vdatatype
p253
Vhttp://www.w3.org/2001/XMLSchema#double
p254
sVtype
p255
Vtyped-literal
p256
sVvalue
p257
V2389.4
p258
ssa(dp259
g7
(dp260
Vtype
p261
Vuri
p262
sVvalue
p263
Vhttp://dbpedia.org/ontology/populationMetro
p264
ssg8
(dp265
Vdatatype
p266
Vhttp://www.w3.org/2001/XMLSchema#nonNegativeInteger
p267
sVtype
p268
Vtyped-literal
p269
sVvalue
p270
V1572245
p271
ssa(dp272
g7
(dp273
Vtype
p274
Vuri
p275
sVvalue
p276
Vhttp://dbpedia.org/ontology/populationTotal
p277
ssg8
(dp278
Vdatatype
p279
Vhttp://www.w3.org/2001/XMLSchema#nonNegativeInteger
p280
sVtype
p281
Vtyped-literal
p282
sVvalue
p283
V594833
p284
ssa(dp285
g7
(dp286
Vtype
p287
Vuri
p288
sVvalue
p289
Vhttp://dbpedia.org/ontology/populationTotalRanking
p290
ssg8
(dp291
Vdatatype
p292
Vhttp://www.w3.org/2001/XMLSchema#positiveInteger
p293
sVtype
p294
Vtyped-literal
p295
sVvalue
p296
V1
p297
ssa(dp298
g7
(dp299
Vtype
p300
Vuri
p301
sVvalue
p302
Vhttp://dbpedia.org/ontology/populationTotalRanking
p303
ssg8
(dp304
Vdatatype
p305
Vhttp://www.w3.org/2001/XMLSchema#positiveInteger
p306
sVtype
p307
Vtyped-literal
p308
sVvalue
p309
V31
p310
ssa(dp311
g7
(dp312
Vtype
p313
Vuri
p314
sVvalue
p315
Vhttp://dbpedia.org/ontology/populationUrban
p316
ssg8
(dp317
Vdatatype
p318
Vhttp://www.w3.org/2001/XMLSchema#nonNegativeInteger
p319
sVtype
p320
Vtyped-literal
p321
sVvalue
p322
V1376476
p323
ssa(dp324
g7
(dp325
Vtype
p326
Vuri
p327
sVvalue
p328
Vhttp://dbpedia.org/ontology/postalCode
p329
ssg8
(dp330
Vtype
p331
Vliteral
p332
sVvalue
p333
V532XX
p334
ssa(dp335
g7
(dp336
Vtype
p337
Vuri
p338
sVvalue
p339
Vhttp://dbpedia.org/ontology/utcOffset
p340
ssg8
(dp341
Vtype
p342
Vliteral
p343
sVvalue
p344
V-5
p345
ssa(dp346
g7
(dp347
Vtype
p348
Vuri
p349
sVvalue
p350
Vhttp://dbpedia.org/ontology/utcOffset
p351
ssg8
(dp352
Vtype
p353
Vliteral
p354
sVvalue
p355
V-6
p356
ssa(dp357
g7
(dp358
Vtype
p359
Vuri
p360
sVvalue
p361
Vhttp://dbpedia.org/ontology/wikiPageExtracted
p362
ssg8
(dp363
Vdatatype
p364
Vhttp://www.w3.org/2001/XMLSchema#dateTime
p365
sVtype
p366
Vtyped-literal
p367
sVvalue
p368
V2016-11-03T06:41:36Z
p369
ssa(dp370
g7
(dp371
Vtype
p372
Vuri
p373
sVvalue
p374
Vhttp://dbpedia.org/ontology/wikiPageLength
p375
ssg8
(dp376
Vdatatype
p377
Vhttp://www.w3.org/2001/XMLSchema#nonNegativeInteger
p378
sVtype
p379
Vtyped-literal
p380
sVvalue
p381
V132422
p382
ssa(dp383
g7
(dp384
Vtype
p385
Vuri
p386
sVvalue
p387
Vhttp://dbpedia.org/ontology/wikiPageModified
p388
ssg8
(dp389
Vdatatype
p390
Vhttp://www.w3.org/2001/XMLSchema#dateTime
p391
sVtype
p392
Vtyped-literal
p393
sVvalue
p394
V2016-11-02T17:53:16Z
p395
ssa(dp396
g7
(dp397
Vtype
p398
Vuri
p399
sVvalue
p400
Vhttp://dbpedia.org/ontology/wikiPageOutDegree
p401
ssg8
(dp402
Vdatatype
p403
Vhttp://www.w3.org/2001/XMLSchema#nonNegativeInteger
p404
sVtype
p405
Vtyped-literal
p406
sVvalue
p407
V977
p408
ssasVordered
p409
I01
ss.