(dp0
Vhead
p1
(dp2
Vlink
p3
(lp4
sVvars
p5
(lp6
Vp
p7
aVo
p8
assVresults
p9
(dp10
Vdistinct
p11
I00
sVbindings
p12
(lp13
(dp14
g7
(dp15
Vtype
p16
Vuri
p17
sVvalue
p18
Vhttp://dbpedia.org/ontology/abstract
p19
ssg8
(dp20
Vxml:lang
p21
Ven
p22
sVtype
p23
Vliteral
p24
sVvalue
p25
VThe H class was a series of battleship designs for Nazi Germany's Kriegsmarine, intended to fulfill the requirements of Plan Z in the late 1930s and early 1940s. The first variation, "H-39," called for six ships to be built, essentially as enlarged Bismarck-class battleships with 40.6 cm (16.0 in) guns. The "H-41" design improved the "H-39" ship with still larger main guns, with eight 42 cm (16.5 in) weapons. Two subsequent plans, "H-42" and "H-43", increased the main battery yet again, with 48 cm (19 in) pieces, and the enormous "H-44" design ultimately resulted with 50.8 cm (20.0 in) guns. The ships ranged in size from the "H-39", which was 277.8 m (911 ft 5 in) long on a displacement of 56,444 t (55,553 long tons), to the "H-44", at 345 m (1,131 ft 11 in) on a displacement of 131,000 t (129,000 long tons). Most of the designs had a top speed in excess of 30 knots (56 km/h).Due to the outbreak of World War II in September 1939, none of the ships were ever built; only the first two of the "H-39" ships were laid down. What work that had been accomplished was halted; the assembled steel remained on the slipway until November 1941, when the Oberkommando der Marine ordered it be scrapped for other purposes. Contracts for the other four "H-39" type ships had been awarded, but no work was begun on any of them before they were canceled. None of the subsequent designs progressed further than planning stages.
p26
ssa(dp27
g7
(dp28
Vtype
p29
Vuri
p30
sVvalue
p31
Vhttp://dbpedia.org/ontology/length
p32
ssg8
(dp33
Vdatatype
p34
Vhttp://www.w3.org/2001/XMLSchema#double
p35
sVtype
p36
Vtyped-literal
p37
sVvalue
p38
V277.8
p39
ssa(dp40
g7
(dp41
Vtype
p42
Vuri
p43
sVvalue
p44
Vhttp://dbpedia.org/ontology/wikiPageExtracted
p45
ssg8
(dp46
Vdatatype
p47
Vhttp://www.w3.org/2001/XMLSchema#dateTime
p48
sVtype
p49
Vtyped-literal
p50
sVvalue
p51
V2016-10-31T06:15:51Z
p52
ssa(dp53
g7
(dp54
Vtype
p55
Vuri
p56
sVvalue
p57
Vhttp://dbpedia.org/ontology/wikiPageLength
p58
ssg8
(dp59
Vdatatype
p60
Vhttp://www.w3.org/2001/XMLSchema#nonNegativeInteger
p61
sVtype
p62
Vtyped-literal
p63
sVvalue
p64
V39919
p65
ssa(dp66
g7
(dp67
Vtype
p68
Vuri
p69
sVvalue
p70
Vhttp://dbpedia.org/ontology/wikiPageModified
p71
ssg8
(dp72
Vdatatype
p73
Vhttp://www.w3.org/2001/XMLSchema#dateTime
p74
sVtype
p75
Vtyped-literal
p76
sVvalue
p77
V2016-10-30T06:45:58Z
p78
ssa(dp79
g7
(dp80
Vtype
p81
Vuri
p82
sVvalue
p83
Vhttp://dbpedia.org/ontology/wikiPageOutDegree
p84
ssg8
(dp85
Vdatatype
p86
Vhttp://www.w3.org/2001/XMLSchema#nonNegativeInteger
p87
sVtype
p88
Vtyped-literal
p89
sVvalue
p90
V72
p91
ssa(dp92
g7
(dp93
Vtype
p94
Vuri
p95
sVvalue
p96
Vhttp://dbpedia.org/ontology/MeanOfTransportation/length
p97
ssg8
(dp98
Vdatatype
p99
Vhttp://dbpedia.org/datatype/millimetre
p100
sVtype
p101
Vtyped-literal
p102
sVvalue
p103
V277800.0
p104
ssa(dp105
g7
(dp106
Vtype
p107
Vuri
p108
sVvalue
p109
Vhttp://dbpedia.org/ontology/shipBeam
p110
ssg8
(dp111
Vdatatype
p112
Vhttp://www.w3.org/2001/XMLSchema#double
p113
sVtype
p114
Vtyped-literal
p115
sVvalue
p116
V37.0
p117
ssa(dp118
g7
(dp119
Vtype
p120
Vuri
p121
sVvalue
p122
Vhttp://dbpedia.org/ontology/shipBeam
p123
ssg8
(dp124
Vdatatype
p125
Vhttp://www.w3.org/2001/XMLSchema#double
p126
sVtype
p127
Vtyped-literal
p128
sVvalue
p129
V39.0
p130
ssa(dp131
g7
(dp132
Vtype
p133
Vuri
p134
sVvalue
p135
Vhttp://dbpedia.org/ontology/shipBeam
p136
ssg8
(dp137
Vdatatype
p138
Vhttp://www.w3.org/2001/XMLSchema#double
p139
sVtype
p140
Vtyped-literal
p141
sVvalue
p142
V42.8
p143
ssa(dp144
g7
(dp145
Vtype
p146
Vuri
p147
sVvalue
p148
Vhttp://dbpedia.org/ontology/shipBeam
p149
ssg8
(dp150
Vdatatype
p151
Vhttp://www.w3.org/2001/XMLSchema#double
p152
sVtype
p153
Vtyped-literal
p154
sVvalue
p155
V48.0
p156
ssa(dp157
g7
(dp158
Vtype
p159
Vuri
p160
sVvalue
p161
Vhttp://dbpedia.org/ontology/shipBeam
p162
ssg8
(dp163
Vdatatype
p164
Vhttp://www.w3.org/2001/XMLSchema#double
p165
sVtype
p166
Vtyped-literal
p167
sVvalue
p168
V51.5
p169
ssa(dp170
g7
(dp171
Vtype
p172
Vuri
p173
sVvalue
p174
Vhttp://dbpedia.org/ontology/topSpeed
p175
ssg8
(dp176
Vdatatype
p177
Vhttp://www.w3.org/2001/XMLSchema#double
p178
sVtype
p179
Vtyped-literal
p180
sVvalue
p181
V55.56
p182
ssa(dp183
g7
(dp184
Vtype
p185
Vuri
p186
sVvalue
p187
Vhttp://dbpedia.org/ontology/shipDraft
p188
ssg8
(dp189
Vdatatype
p190
Vhttp://www.w3.org/2001/XMLSchema#double
p191
sVtype
p192
Vtyped-literal
p193
sVvalue
p194
V10.0
p195
ssa(dp196
g7
(dp197
Vtype
p198
Vuri
p199
sVvalue
p200
Vhttp://dbpedia.org/ontology/shipDraft
p201
ssg8
(dp202
Vdatatype
p203
Vhttp://www.w3.org/2001/XMLSchema#double
p204
sVtype
p205
Vtyped-literal
p206
sVvalue
p207
V11.1
p208
ssa(dp209
g7
(dp210
Vtype
p211
Vuri
p212
sVvalue
p213
Vhttp://dbpedia.org/ontology/shipDraft
p214
ssg8
(dp215
Vdatatype
p216
Vhttp://www.w3.org/2001/XMLSchema#double
p217
sVtype
p218
Vtyped-literal
p219
sVvalue
p220
V11.8
p221
ssa(dp222
g7
(dp223
Vtype
p224
Vuri
p225
sVvalue
p226
Vhttp://dbpedia.org/ontology/shipDraft
p227
ssg8
(dp228
Vdatatype
p229
Vhttp://www.w3.org/2001/XMLSchema#double
p230
sVtype
p231
Vtyped-literal
p232
sVvalue
p233
V12.0
p234
ssa(dp235
g7
(dp236
Vtype
p237
Vuri
p238
sVvalue
p239
Vhttp://dbpedia.org/ontology/shipDraft
p240
ssg8
(dp241
Vdatatype
p242
Vhttp://www.w3.org/2001/XMLSchema#double
p243
sVtype
p244
Vtyped-literal
p245
sVvalue
p246
V12.7
p247
ssasVordered
p248
I01
ss.