(dp0
Vhead
p1
(dp2
Vlink
p3
(lp4
sVvars
p5
(lp6
Vp
p7
aVo
p8
assVresults
p9
(dp10
Vdistinct
p11
I00
sVbindings
p12
(lp13
(dp14
g7
(dp15
Vtype
p16
Vuri
p17
sVvalue
p18
Vhttp://dbpedia.org/ontology/Work/runtime
p19
ssg8
(dp20
Vdatatype
p21
Vhttp://dbpedia.org/datatype/minute
p22
sVtype
p23
Vtyped-literal
p24
sVvalue
p25
V85.0
p26
ssa(dp27
g7
(dp28
Vtype
p29
Vuri
p30
sVvalue
p31
Vhttp://dbpedia.org/ontology/abstract
p32
ssg8
(dp33
Vxml:lang
p34
Ven
p35
sVtype
p36
Vliteral
p37
sVvalue
p38
VRed Butterfly is a postmodern romantic tragedy written & directed by Jon Alston and starring Diogo Morgado, Christine Evangelista, Wilson Jermaine Heredia, Laurence Mason, and Byrdie Bell. Red Butterfly is an original screenplay written by Jon Alston. It is an independently produced feature with subject matter not typical of independent feature film. Alston claims the film's primary audience to be "regular folk who like heavy entertainment." The story is inspired by the works of both Carl Jung and Joseph Campbell; it explores the consequences of the unchecked human ego. "Vice is Tragedy" is a theme that Alston claims to have had significance to him upon personal reflection of his time in the NFL. The film premiered at the St. Louis International Film Festival and is slated to for domestic and international release in the fall of 2015.
p39
ssa(dp40
g7
(dp41
Vtype
p42
Vuri
p43
sVvalue
p44
Vhttp://dbpedia.org/ontology/runtime
p45
ssg8
(dp46
Vdatatype
p47
Vhttp://www.w3.org/2001/XMLSchema#double
p48
sVtype
p49
Vtyped-literal
p50
sVvalue
p51
V5100.0
p52
ssa(dp53
g7
(dp54
Vtype
p55
Vuri
p56
sVvalue
p57
Vhttp://dbpedia.org/ontology/wikiPageExtracted
p58
ssg8
(dp59
Vdatatype
p60
Vhttp://www.w3.org/2001/XMLSchema#dateTime
p61
sVtype
p62
Vtyped-literal
p63
sVvalue
p64
V2016-11-05T02:10:03Z
p65
ssa(dp66
g7
(dp67
Vtype
p68
Vuri
p69
sVvalue
p70
Vhttp://dbpedia.org/ontology/wikiPageLength
p71
ssg8
(dp72
Vdatatype
p73
Vhttp://www.w3.org/2001/XMLSchema#nonNegativeInteger
p74
sVtype
p75
Vtyped-literal
p76
sVvalue
p77
V2434
p78
ssa(dp79
g7
(dp80
Vtype
p81
Vuri
p82
sVvalue
p83
Vhttp://dbpedia.org/ontology/wikiPageModified
p84
ssg8
(dp85
Vdatatype
p86
Vhttp://www.w3.org/2001/XMLSchema#dateTime
p87
sVtype
p88
Vtyped-literal
p89
sVvalue
p90
V2016-08-18T16:30:45Z
p91
ssa(dp92
g7
(dp93
Vtype
p94
Vuri
p95
sVvalue
p96
Vhttp://dbpedia.org/ontology/wikiPageOutDegree
p97
ssg8
(dp98
Vdatatype
p99
Vhttp://www.w3.org/2001/XMLSchema#nonNegativeInteger
p100
sVtype
p101
Vtyped-literal
p102
sVvalue
p103
V22
p104
ssasVordered
p105
I01
ss.