(dp0
Vhead
p1
(dp2
Vlink
p3
(lp4
sVvars
p5
(lp6
Vp
p7
aVo
p8
assVresults
p9
(dp10
Vdistinct
p11
I00
sVbindings
p12
(lp13
(dp14
g7
(dp15
Vtype
p16
Vuri
p17
sVvalue
p18
Vhttp://dbpedia.org/ontology/abstract
p19
ssg8
(dp20
Vxml:lang
p21
Ven
p22
sVtype
p23
Vliteral
p24
sVvalue
p25
VRCAF Station Gimli was an air station of the Royal Canadian Air Force (RCAF) located near Gimli, Manitoba, Canada.On September 6, 1943, the British Commonwealth Air Training Plan established No. 18 Service Flying Training School (No. 18 SFTS) to train aircrew for Second World War operations using the Avro Anson. No. 18 SFTS ceased operation on May 30, 1945.During the Cold War period, many Second World War air stations were reactivated. Gimli was one of these, and was reopened in 1950 to become a jet aircraft training station. Flying training schools located here include No. 2 Flying Training School, No. 3 Advanced Flying School (redesignated in 1964 to No. 1 Flying Training School), and No. 1 Advanced Flying Training School.After unification of the three services in 1968, RCAF Station Gimli became a Canadian Forces Base (CFB). CFB Gimli closed in September 1971 and the flying schools moved to other Canadian forces bases. Part of the aerodrome is now used as an industrial park and a racetrack. Flying related activities include use by Manitoba Provincial Government water bomber squadron, the Regional Gliding School (Prairie), and two private flying schools. Gimli is also used by No. 435 Transport and Rescue Squadron based at 17 Wing Winnipeg, for training purposes.
p26
ssa(dp27
g7
(dp28
Vtype
p29
Vuri
p30
sVvalue
p31
Vhttp://dbpedia.org/ontology/elevation
p32
ssg8
(dp33
Vdatatype
p34
Vhttp://www.w3.org/2001/XMLSchema#double
p35
sVtype
p36
Vtyped-literal
p37
sVvalue
p38
V229.0
p39
ssa(dp40
g7
(dp41
Vtype
p42
Vuri
p43
sVvalue
p44
Vhttp://dbpedia.org/ontology/elevation
p45
ssg8
(dp46
Vdatatype
p47
Vhttp://www.w3.org/2001/XMLSchema#double
p48
sVtype
p49
Vtyped-literal
p50
sVvalue
p51
V229.514
p52
ssa(dp53
g7
(dp54
Vtype
p55
Vuri
p56
sVvalue
p57
Vhttp://dbpedia.org/ontology/runwayDesignation
p58
ssg8
(dp59
Vtype
p60
Vliteral
p61
sVvalue
p62
V14L/32R
p63
ssa(dp64
g7
(dp65
Vtype
p66
Vuri
p67
sVvalue
p68
Vhttp://dbpedia.org/ontology/runwayDesignation
p69
ssg8
(dp70
Vtype
p71
Vliteral
p72
sVvalue
p73
V15R/33L
p74
ssa(dp75
g7
(dp76
Vtype
p77
Vuri
p78
sVvalue
p79
Vhttp://dbpedia.org/ontology/runwayLength
p80
ssg8
(dp81
Vdatatype
p82
Vhttp://www.w3.org/2001/XMLSchema#double
p83
sVtype
p84
Vtyped-literal
p85
sVvalue
p86
V2068.0
p87
ssa(dp88
g7
(dp89
Vtype
p90
Vuri
p91
sVvalue
p92
Vhttp://dbpedia.org/ontology/runwayLength
p93
ssg8
(dp94
Vdatatype
p95
Vhttp://www.w3.org/2001/XMLSchema#double
p96
sVtype
p97
Vtyped-literal
p98
sVvalue
p99
V2068.98
p100
ssa(dp101
g7
(dp102
Vtype
p103
Vuri
p104
sVvalue
p105
Vhttp://dbpedia.org/ontology/runwayLength
p106
ssg8
(dp107
Vdatatype
p108
Vhttp://www.w3.org/2001/XMLSchema#double
p109
sVtype
p110
Vtyped-literal
p111
sVvalue
p112
V2090.32
p113
ssa(dp114
g7
(dp115
Vtype
p116
Vuri
p117
sVvalue
p118
Vhttp://dbpedia.org/ontology/runwayLength
p119
ssg8
(dp120
Vdatatype
p121
Vhttp://www.w3.org/2001/XMLSchema#double
p122
sVtype
p123
Vtyped-literal
p124
sVvalue
p125
V2286.0
p126
ssa(dp127
g7
(dp128
Vtype
p129
Vuri
p130
sVvalue
p131
Vhttp://dbpedia.org/ontology/runwaySurface
p132
ssg8
(dp133
Vtype
p134
Vliteral
p135
sVvalue
p136
VAsphalt
p137
ssa(dp138
g7
(dp139
Vtype
p140
Vuri
p141
sVvalue
p142
Vhttp://dbpedia.org/ontology/wikiPageExtracted
p143
ssg8
(dp144
Vdatatype
p145
Vhttp://www.w3.org/2001/XMLSchema#dateTime
p146
sVtype
p147
Vtyped-literal
p148
sVvalue
p149
V2016-11-04T23:07:35Z
p150
ssa(dp151
g7
(dp152
Vtype
p153
Vuri
p154
sVvalue
p155
Vhttp://dbpedia.org/ontology/wikiPageLength
p156
ssg8
(dp157
Vdatatype
p158
Vhttp://www.w3.org/2001/XMLSchema#nonNegativeInteger
p159
sVtype
p160
Vtyped-literal
p161
sVvalue
p162
V4053
p163
ssa(dp164
g7
(dp165
Vtype
p166
Vuri
p167
sVvalue
p168
Vhttp://dbpedia.org/ontology/wikiPageModified
p169
ssg8
(dp170
Vdatatype
p171
Vhttp://www.w3.org/2001/XMLSchema#dateTime
p172
sVtype
p173
Vtyped-literal
p174
sVvalue
p175
V2016-02-05T09:55:27Z
p176
ssa(dp177
g7
(dp178
Vtype
p179
Vuri
p180
sVvalue
p181
Vhttp://dbpedia.org/ontology/wikiPageOutDegree
p182
ssg8
(dp183
Vdatatype
p184
Vhttp://www.w3.org/2001/XMLSchema#nonNegativeInteger
p185
sVtype
p186
Vtyped-literal
p187
sVvalue
p188
V26
p189
ssasVordered
p190
I01
ss.