(dp0
Vhead
p1
(dp2
Vlink
p3
(lp4
sVvars
p5
(lp6
Vp
p7
aVo
p8
assVresults
p9
(dp10
Vdistinct
p11
I00
sVbindings
p12
(lp13
(dp14
g7
(dp15
Vtype
p16
Vuri
p17
sVvalue
p18
Vhttp://dbpedia.org/ontology/abstract
p19
ssg8
(dp20
Vxml:lang
p21
Ven
p22
sVtype
p23
Vliteral
p24
sVvalue
p25
VMohe Gulian Airport (Chinese: \u6f20\u6cb3\u53e4\u83b2\u673a\u573a) (IATA: OHE, ICAO: ZYMH) is an airport serving Mohe County in Heilongjiang Province, China. It is the northernmost airport in China and the first Chinese airport built on permafrost. Construction started in June 2006 with a total investment of 236 million yuan, and the airport was opened in June 2008.
p26
ssa(dp27
g7
(dp28
Vtype
p29
Vuri
p30
sVvalue
p31
Vhttp://dbpedia.org/ontology/elevation
p32
ssg8
(dp33
Vdatatype
p34
Vhttp://www.w3.org/2001/XMLSchema#double
p35
sVtype
p36
Vtyped-literal
p37
sVvalue
p38
V579.0
p39
ssa(dp40
g7
(dp41
Vtype
p42
Vuri
p43
sVvalue
p44
Vhttp://dbpedia.org/ontology/elevation
p45
ssg8
(dp46
Vdatatype
p47
Vhttp://www.w3.org/2001/XMLSchema#double
p48
sVtype
p49
Vtyped-literal
p50
sVvalue
p51
V579.12
p52
ssa(dp53
g7
(dp54
Vtype
p55
Vuri
p56
sVvalue
p57
Vhttp://dbpedia.org/ontology/icaoLocationIdentifier
p58
ssg8
(dp59
Vtype
p60
Vliteral
p61
sVvalue
p62
VZYMH
p63
ssa(dp64
g7
(dp65
Vtype
p66
Vuri
p67
sVvalue
p68
Vhttp://dbpedia.org/ontology/runwayDesignation
p69
ssg8
(dp70
Vtype
p71
Vliteral
p72
sVvalue
p73
V15/33
p74
ssa(dp75
g7
(dp76
Vtype
p77
Vuri
p78
sVvalue
p79
Vhttp://dbpedia.org/ontology/runwayLength
p80
ssg8
(dp81
Vdatatype
p82
Vhttp://www.w3.org/2001/XMLSchema#double
p83
sVtype
p84
Vtyped-literal
p85
sVvalue
p86
V2200.0
p87
ssa(dp88
g7
(dp89
Vtype
p90
Vuri
p91
sVvalue
p92
Vhttp://dbpedia.org/ontology/runwaySurface
p93
ssg8
(dp94
Vtype
p95
Vliteral
p96
sVvalue
p97
VConcrete
p98
ssa(dp99
g7
(dp100
Vtype
p101
Vuri
p102
sVvalue
p103
Vhttp://dbpedia.org/ontology/wikiPageExtracted
p104
ssg8
(dp105
Vdatatype
p106
Vhttp://www.w3.org/2001/XMLSchema#dateTime
p107
sVtype
p108
Vtyped-literal
p109
sVvalue
p110
V2016-11-03T08:57:55Z
p111
ssa(dp112
g7
(dp113
Vtype
p114
Vuri
p115
sVvalue
p116
Vhttp://dbpedia.org/ontology/wikiPageLength
p117
ssg8
(dp118
Vdatatype
p119
Vhttp://www.w3.org/2001/XMLSchema#nonNegativeInteger
p120
sVtype
p121
Vtyped-literal
p122
sVvalue
p123
V2307
p124
ssa(dp125
g7
(dp126
Vtype
p127
Vuri
p128
sVvalue
p129
Vhttp://dbpedia.org/ontology/wikiPageModified
p130
ssg8
(dp131
Vdatatype
p132
Vhttp://www.w3.org/2001/XMLSchema#dateTime
p133
sVtype
p134
Vtyped-literal
p135
sVvalue
p136
V2016-01-27T07:54:35Z
p137
ssa(dp138
g7
(dp139
Vtype
p140
Vuri
p141
sVvalue
p142
Vhttp://dbpedia.org/ontology/wikiPageOutDegree
p143
ssg8
(dp144
Vdatatype
p145
Vhttp://www.w3.org/2001/XMLSchema#nonNegativeInteger
p146
sVtype
p147
Vtyped-literal
p148
sVvalue
p149
V22
p150
ssa(dp151
g7
(dp152
Vtype
p153
Vuri
p154
sVvalue
p155
Vhttp://dbpedia.org/ontology/iataLocationIdentifier
p156
ssg8
(dp157
Vtype
p158
Vliteral
p159
sVvalue
p160
VOHE
p161
ssasVordered
p162
I01
ss.