(dp0
Vhead
p1
(dp2
Vlink
p3
(lp4
sVvars
p5
(lp6
Vp
p7
aVo
p8
assVresults
p9
(dp10
Vdistinct
p11
I00
sVbindings
p12
(lp13
(dp14
g7
(dp15
Vtype
p16
Vuri
p17
sVvalue
p18
Vhttp://dbpedia.org/ontology/abstract
p19
ssg8
(dp20
Vxml:lang
p21
Ven
p22
sVtype
p23
Vliteral
p24
sVvalue
p25
VRobert Lee "Bob" Stump (April 4, 1927 \u2013 June 20, 2003) was a U.S. Congressman from Arizona. He served as a member from the Democratic Party from 1977 to 1983 and then later a member of the Republican Party until the end of his tenure as congressman.
p26
ssa(dp27
g7
(dp28
Vtype
p29
Vuri
p30
sVvalue
p31
Vhttp://dbpedia.org/ontology/activeYearsEndDate
p32
ssg8
(dp33
Vdatatype
p34
Vhttp://www.w3.org/2001/XMLSchema#date
p35
sVtype
p36
Vtyped-literal
p37
sVvalue
p38
V2001-01-04
p39
ssa(dp40
g7
(dp41
Vtype
p42
Vuri
p43
sVvalue
p44
Vhttp://dbpedia.org/ontology/activeYearsEndDate
p45
ssg8
(dp46
Vdatatype
p47
Vhttp://www.w3.org/2001/XMLSchema#date
p48
sVtype
p49
Vtyped-literal
p50
sVvalue
p51
V2003-01-03
p52
ssa(dp53
g7
(dp54
Vtype
p55
Vuri
p56
sVvalue
p57
Vhttp://dbpedia.org/ontology/activeYearsStartDate
p58
ssg8
(dp59
Vdatatype
p60
Vhttp://www.w3.org/2001/XMLSchema#date
p61
sVtype
p62
Vtyped-literal
p63
sVvalue
p64
V1977-01-03
p65
ssa(dp66
g7
(dp67
Vtype
p68
Vuri
p69
sVvalue
p70
Vhttp://dbpedia.org/ontology/activeYearsStartDate
p71
ssg8
(dp72
Vdatatype
p73
Vhttp://www.w3.org/2001/XMLSchema#date
p74
sVtype
p75
Vtyped-literal
p76
sVvalue
p77
V1995-01-04
p78
ssa(dp79
g7
(dp80
Vtype
p81
Vuri
p82
sVvalue
p83
Vhttp://dbpedia.org/ontology/activeYearsStartDate
p84
ssg8
(dp85
Vdatatype
p86
Vhttp://www.w3.org/2001/XMLSchema#date
p87
sVtype
p88
Vtyped-literal
p89
sVvalue
p90
V2001-01-04
p91
ssa(dp92
g7
(dp93
Vtype
p94
Vuri
p95
sVvalue
p96
Vhttp://dbpedia.org/ontology/birthDate
p97
ssg8
(dp98
Vdatatype
p99
Vhttp://www.w3.org/2001/XMLSchema#date
p100
sVtype
p101
Vtyped-literal
p102
sVvalue
p103
V1927-04-04
p104
ssa(dp105
g7
(dp106
Vtype
p107
Vuri
p108
sVvalue
p109
Vhttp://dbpedia.org/ontology/deathDate
p110
ssg8
(dp111
Vdatatype
p112
Vhttp://www.w3.org/2001/XMLSchema#date
p113
sVtype
p114
Vtyped-literal
p115
sVvalue
p116
V2003-06-20
p117
ssa(dp118
g7
(dp119
Vtype
p120
Vuri
p121
sVvalue
p122
Vhttp://dbpedia.org/ontology/office
p123
ssg8
(dp124
Vtype
p125
Vliteral
p126
sVvalue
p127
VMember of theArizona House of Representatives
p128
ssa(dp129
g7
(dp130
Vtype
p131
Vuri
p132
sVvalue
p133
Vhttp://dbpedia.org/ontology/office
p134
ssg8
(dp135
Vtype
p136
Vliteral
p137
sVvalue
p138
VMember of theArizona Senate
p139
ssa(dp140
g7
(dp141
Vtype
p142
Vuri
p143
sVvalue
p144
Vhttp://dbpedia.org/ontology/orderInOffice
p145
ssg8
(dp146
Vtype
p147
Vliteral
p148
sVvalue
p149
VChairman of theHouse Committee on Armed Services
p150
ssa(dp151
g7
(dp152
Vtype
p153
Vuri
p154
sVvalue
p155
Vhttp://dbpedia.org/ontology/orderInOffice
p156
ssg8
(dp157
Vtype
p158
Vliteral
p159
sVvalue
p160
VChairman of theHouse Committee on Veterans' Affairs
p161
ssa(dp162
g7
(dp163
Vtype
p164
Vuri
p165
sVvalue
p166
Vhttp://dbpedia.org/ontology/serviceEndYear
p167
ssg8
(dp168
Vdatatype
p169
Vhttp://www.w3.org/2001/XMLSchema#gYear
p170
sVtype
p171
Vtyped-literal
p172
sVvalue
p173
V1946
p174
ssa(dp175
g7
(dp176
Vtype
p177
Vuri
p178
sVvalue
p179
Vhttp://dbpedia.org/ontology/serviceStartYear
p180
ssg8
(dp181
Vdatatype
p182
Vhttp://www.w3.org/2001/XMLSchema#gYear
p183
sVtype
p184
Vtyped-literal
p185
sVvalue
p186
V1943
p187
ssa(dp188
g7
(dp189
Vtype
p190
Vuri
p191
sVvalue
p192
Vhttp://dbpedia.org/ontology/wikiPageExtracted
p193
ssg8
(dp194
Vdatatype
p195
Vhttp://www.w3.org/2001/XMLSchema#dateTime
p196
sVtype
p197
Vtyped-literal
p198
sVvalue
p199
V2016-10-28T07:20:31Z
p200
ssa(dp201
g7
(dp202
Vtype
p203
Vuri
p204
sVvalue
p205
Vhttp://dbpedia.org/ontology/wikiPageLength
p206
ssg8
(dp207
Vdatatype
p208
Vhttp://www.w3.org/2001/XMLSchema#nonNegativeInteger
p209
sVtype
p210
Vtyped-literal
p211
sVvalue
p212
V12507
p213
ssa(dp214
g7
(dp215
Vtype
p216
Vuri
p217
sVvalue
p218
Vhttp://dbpedia.org/ontology/wikiPageModified
p219
ssg8
(dp220
Vdatatype
p221
Vhttp://www.w3.org/2001/XMLSchema#dateTime
p222
sVtype
p223
Vtyped-literal
p224
sVvalue
p225
V2016-10-24T05:04:03Z
p226
ssa(dp227
g7
(dp228
Vtype
p229
Vuri
p230
sVvalue
p231
Vhttp://dbpedia.org/ontology/wikiPageOutDegree
p232
ssg8
(dp233
Vdatatype
p234
Vhttp://www.w3.org/2001/XMLSchema#nonNegativeInteger
p235
sVtype
p236
Vtyped-literal
p237
sVvalue
p238
V98
p239
ssasVordered
p240
I01
ss.