(dp0
Vhead
p1
(dp2
Vlink
p3
(lp4
sVvars
p5
(lp6
Vp
p7
aVo
p8
assVresults
p9
(dp10
Vdistinct
p11
I00
sVbindings
p12
(lp13
(dp14
g7
(dp15
Vtype
p16
Vuri
p17
sVvalue
p18
Vhttp://dbpedia.org/ontology/abstract
p19
ssg8
(dp20
Vxml:lang
p21
Ven
p22
sVtype
p23
Vliteral
p24
sVvalue
p25
VThe Sharpsville Area School District is a small, suburban/rural, public school district serving parts of Mercer County, Pennsylvania. The District is one of the 500 public school districts of Pennsylvania. The District's attendance area encompasses the communities of: Sharpsville, Clark, and Pymatuning Township. The Sharpsville Area School District encompasses approximately 29 square miles (75 km2). According to 2010 federal census data, it serves a resident population of 7,408. In 2009, the Sharpsville Area School District residents\u2019 per capita income was $19,471, while the median family income was $44,213. In the Commonwealth, the median family income was $49,501  and the United States median family income was $49,445, in 2010.According to Sharpsville Area School District officials, in school year 2009-10 the Sharpsville Area School District provided basic educational services to 1,334 pupils. It employed: 87 teachers, 55 full-time and part-time support personnel, and 7 administrators. Sharpsville Area School District received more than $8.3 million in state funding in school year 2009-10. In school year 2007-08, the SASD provided basic educational services to 1,232 pupils. The District employed: 87 teachers, 59 full-time and part-time support personnel, and 7 administrators. Sharpsville Area School District received more than $8.1 million in state funding in school year 2007-08.Sharpsville Area School District operates: Sharpsville Area Elementary School, Sharpsville Area Middle School, and Sharpsville Area Senior High School. The middle and high schools are connected- and as a direct result, many staff members and several rooms are shared between the two. The cafeteria in the middle school underwent a major renovation in 2011.
p26
ssa(dp27
g7
(dp28
Vtype
p29
Vuri
p30
sVvalue
p31
Vhttp://dbpedia.org/ontology/wikiPageExtracted
p32
ssg8
(dp33
Vdatatype
p34
Vhttp://www.w3.org/2001/XMLSchema#dateTime
p35
sVtype
p36
Vtyped-literal
p37
sVvalue
p38
V2016-11-05T20:37:02Z
p39
ssa(dp40
g7
(dp41
Vtype
p42
Vuri
p43
sVvalue
p44
Vhttp://dbpedia.org/ontology/wikiPageLength
p45
ssg8
(dp46
Vdatatype
p47
Vhttp://www.w3.org/2001/XMLSchema#nonNegativeInteger
p48
sVtype
p49
Vtyped-literal
p50
sVvalue
p51
V99596
p52
ssa(dp53
g7
(dp54
Vtype
p55
Vuri
p56
sVvalue
p57
Vhttp://dbpedia.org/ontology/wikiPageModified
p58
ssg8
(dp59
Vdatatype
p60
Vhttp://www.w3.org/2001/XMLSchema#dateTime
p61
sVtype
p62
Vtyped-literal
p63
sVvalue
p64
V2016-06-09T10:13:28Z
p65
ssa(dp66
g7
(dp67
Vtype
p68
Vuri
p69
sVvalue
p70
Vhttp://dbpedia.org/ontology/wikiPageOutDegree
p71
ssg8
(dp72
Vdatatype
p73
Vhttp://www.w3.org/2001/XMLSchema#nonNegativeInteger
p74
sVtype
p75
Vtyped-literal
p76
sVvalue
p77
V70
p78
ssasVordered
p79
I01
ss.