(dp0
Vhead
p1
(dp2
Vlink
p3
(lp4
sVvars
p5
(lp6
Vp
p7
aVo
p8
assVresults
p9
(dp10
Vdistinct
p11
I00
sVbindings
p12
(lp13
(dp14
g7
(dp15
Vtype
p16
Vuri
p17
sVvalue
p18
Vhttp://dbpedia.org/ontology/abstract
p19
ssg8
(dp20
Vxml:lang
p21
Ven
p22
sVtype
p23
Vliteral
p24
sVvalue
p25
VWilliam Stevens Meredith (1960 \u2013 Lake Worth, Florida) is an American music and sports writer, journalist, drummer, percussionist and singer. He is best known with his extensive work as music writer in music magazines such as Jazziz which is an international Jazz magazine, Maryland-based JazzTimes, JazzBluesFlorida and Palm Beach Post.Bill Meredith was born in Lake Worth, Florida. He had big interest in both, writing and music. His first official writing assignments were for The Kaleidoscope at now Dreyfoos School of the Arts in West Palm Beach. After the high school, he attended Palm Beach Community College where he also served as editor-in-chief for The Beachcomber. The University of Florida followed. In the 1980s, completing his prime education, Bill started two careers simultaneously, in journalism and music.In the 1990s, while he was playing with different bands, he wrote for Modern Drummer, allmusic and Free Press magazines. Meredith has played drums with the band Acoustic Remedy since 2002 and the group won Best Local Band Award in The Palm Beaches and Treasure Coast. This event is being organized annually by Cityvoter. Meredith started a still-standing association with the international jazz monthly Jazziz in 2000, working as an assistant editor from 2004 to 2006. He continues to write CD reviews, stories and Q&As for the magazine. In 2001, he was hired for the still-standing bi-weekly Local Music column in the Palm Beach Post. Other publications include, Closer and the West Palm Tribune. His recording credits include a release by Andy Stein, Strings of ConsciousnessHis name was included in the Jazzinstitut Darmstadt's (Germany) bibliographical information.In 2006, Meredith became a feature story and reviews contributor to Maryland-based jazz magazine JazzTimes and started writing sports for the Palm Beach Post. Other current magazine endeavors include the jazz and blues online monthly JazzBluesFlorida and Palm Beach Arts Paper, an online blog and monthly print publication.Since 2007, Meredith has recorded the CDs Black Finger Forever and Where's My Parade with Black Finger, filmed music videos for the songs "Hold On" and "Sugar."Bill's recent article, an interview with Billy Cobham, Billy Cobham A&Q was published in Jazziz, winther 2010 issue. He is a member of the Authors Guild in New York.His wife Ginny, a violinist and singer, is the executive director of Inspirit, a South Florida-based nonprofit that takes musicians to perform for people in restricted environments like pediatric wards, hospitals, rehabilitation centers, shelters and retirement homes.
p26
ssa(dp27
g7
(dp28
Vtype
p29
Vuri
p30
sVvalue
p31
Vhttp://dbpedia.org/ontology/activeYearsEndYear
p32
ssg8
(dp33
Vdatatype
p34
Vhttp://www.w3.org/2001/XMLSchema#gYear
p35
sVtype
p36
Vtyped-literal
p37
sVvalue
p38
V1980
p39
ssa(dp40
g7
(dp41
Vtype
p42
Vuri
p43
sVvalue
p44
Vhttp://dbpedia.org/ontology/activeYearsStartYear
p45
ssg8
(dp46
Vdatatype
p47
Vhttp://www.w3.org/2001/XMLSchema#gYear
p48
sVtype
p49
Vtyped-literal
p50
sVvalue
p51
V1980
p52
ssa(dp53
g7
(dp54
Vtype
p55
Vuri
p56
sVvalue
p57
Vhttp://dbpedia.org/ontology/background
p58
ssg8
(dp59
Vtype
p60
Vliteral
p61
sVvalue
p62
Vsolo_singer
p63
ssa(dp64
g7
(dp65
Vtype
p66
Vuri
p67
sVvalue
p68
Vhttp://dbpedia.org/ontology/wikiPageExtracted
p69
ssg8
(dp70
Vdatatype
p71
Vhttp://www.w3.org/2001/XMLSchema#dateTime
p72
sVtype
p73
Vtyped-literal
p74
sVvalue
p75
V2016-10-28T05:00:56Z
p76
ssa(dp77
g7
(dp78
Vtype
p79
Vuri
p80
sVvalue
p81
Vhttp://dbpedia.org/ontology/wikiPageLength
p82
ssg8
(dp83
Vdatatype
p84
Vhttp://www.w3.org/2001/XMLSchema#nonNegativeInteger
p85
sVtype
p86
Vtyped-literal
p87
sVvalue
p88
V7128
p89
ssa(dp90
g7
(dp91
Vtype
p92
Vuri
p93
sVvalue
p94
Vhttp://dbpedia.org/ontology/wikiPageModified
p95
ssg8
(dp96
Vdatatype
p97
Vhttp://www.w3.org/2001/XMLSchema#dateTime
p98
sVtype
p99
Vtyped-literal
p100
sVvalue
p101
V2016-05-06T07:02:08Z
p102
ssa(dp103
g7
(dp104
Vtype
p105
Vuri
p106
sVvalue
p107
Vhttp://dbpedia.org/ontology/wikiPageOutDegree
p108
ssg8
(dp109
Vdatatype
p110
Vhttp://www.w3.org/2001/XMLSchema#nonNegativeInteger
p111
sVtype
p112
Vtyped-literal
p113
sVvalue
p114
V27
p115
ssasVordered
p116
I01
ss.