(dp0
Vhead
p1
(dp2
Vlink
p3
(lp4
sVvars
p5
(lp6
Vp
p7
aVo
p8
assVresults
p9
(dp10
Vdistinct
p11
I00
sVbindings
p12
(lp13
(dp14
g7
(dp15
Vtype
p16
Vuri
p17
sVvalue
p18
Vhttp://dbpedia.org/ontology/abstract
p19
ssg8
(dp20
Vxml:lang
p21
Ven
p22
sVtype
p23
Vliteral
p24
sVvalue
p25
VGeneral Sir John Lionel Kotelawala CH KBE KStJ PC (Sinhalese: \u0dc1\u0dca\u200d\u0dbb\u0dd2\u0db8\u0dad\u0dca \u0da2\u0ddd\u0db1\u0dca \u0dbd\u0dba\u0db1\u0dbd\u0dca \u0d9a\u0ddc\u0dad\u0dbd\u0dcf\u0dc0\u0dbd; 4 April 1895 \u2013 2 October 1980) was a Sri Lankan soldier and politician, most notable for serving as the 3rd Prime Minister of Ceylon (Sri Lanka) from 1953 to 1956.
p26
ssa(dp27
g7
(dp28
Vtype
p29
Vuri
p30
sVvalue
p31
Vhttp://dbpedia.org/ontology/activeYearsEndDate
p32
ssg8
(dp33
Vdatatype
p34
Vhttp://www.w3.org/2001/XMLSchema#date
p35
sVtype
p36
Vtyped-literal
p37
sVvalue
p38
V1956-04-12
p39
ssa(dp40
g7
(dp41
Vtype
p42
Vuri
p43
sVvalue
p44
Vhttp://dbpedia.org/ontology/activeYearsEndDate
p45
ssg8
(dp46
Vdatatype
p47
Vhttp://www.w3.org/2001/XMLSchema#date
p48
sVtype
p49
Vtyped-literal
p50
sVvalue
p51
V1959-12-05
p52
ssa(dp53
g7
(dp54
Vtype
p55
Vuri
p56
sVvalue
p57
Vhttp://dbpedia.org/ontology/activeYearsStartDate
p58
ssg8
(dp59
Vdatatype
p60
Vhttp://www.w3.org/2001/XMLSchema#date
p61
sVtype
p62
Vtyped-literal
p63
sVvalue
p64
V1947-10-14
p65
ssa(dp66
g7
(dp67
Vtype
p68
Vuri
p69
sVvalue
p70
Vhttp://dbpedia.org/ontology/activeYearsStartDate
p71
ssg8
(dp72
Vdatatype
p73
Vhttp://www.w3.org/2001/XMLSchema#date
p74
sVtype
p75
Vtyped-literal
p76
sVvalue
p77
V1953-10-12
p78
ssa(dp79
g7
(dp80
Vtype
p81
Vuri
p82
sVvalue
p83
Vhttp://dbpedia.org/ontology/birthDate
p84
ssg8
(dp85
Vdatatype
p86
Vhttp://www.w3.org/2001/XMLSchema#date
p87
sVtype
p88
Vtyped-literal
p89
sVvalue
p90
V1895-04-04
p91
ssa(dp92
g7
(dp93
Vtype
p94
Vuri
p95
sVvalue
p96
Vhttp://dbpedia.org/ontology/deathDate
p97
ssg8
(dp98
Vdatatype
p99
Vhttp://www.w3.org/2001/XMLSchema#date
p100
sVtype
p101
Vtyped-literal
p102
sVvalue
p103
V1980-10-02
p104
ssa(dp105
g7
(dp106
Vtype
p107
Vuri
p108
sVvalue
p109
Vhttp://dbpedia.org/ontology/orderInOffice
p110
ssg8
(dp111
Vtype
p112
Vliteral
p113
sVvalue
p114
VPrime Minister of Ceylon
p115
ssa(dp116
g7
(dp117
Vtype
p118
Vuri
p119
sVvalue
p120
Vhttp://dbpedia.org/ontology/serviceEndYear
p121
ssg8
(dp122
Vdatatype
p123
Vhttp://www.w3.org/2001/XMLSchema#gYear
p124
sVtype
p125
Vtyped-literal
p126
sVvalue
p127
V0023
p128
ssa(dp129
g7
(dp130
Vtype
p131
Vuri
p132
sVvalue
p133
Vhttp://dbpedia.org/ontology/serviceStartYear
p134
ssg8
(dp135
Vdatatype
p136
Vhttp://www.w3.org/2001/XMLSchema#gYear
p137
sVtype
p138
Vtyped-literal
p139
sVvalue
p140
V0023
p141
ssa(dp142
g7
(dp143
Vtype
p144
Vuri
p145
sVvalue
p146
Vhttp://dbpedia.org/ontology/wikiPageExtracted
p147
ssg8
(dp148
Vdatatype
p149
Vhttp://www.w3.org/2001/XMLSchema#dateTime
p150
sVtype
p151
Vtyped-literal
p152
sVvalue
p153
V2016-11-01T08:50:22Z
p154
ssa(dp155
g7
(dp156
Vtype
p157
Vuri
p158
sVvalue
p159
Vhttp://dbpedia.org/ontology/wikiPageLength
p160
ssg8
(dp161
Vdatatype
p162
Vhttp://www.w3.org/2001/XMLSchema#nonNegativeInteger
p163
sVtype
p164
Vtyped-literal
p165
sVvalue
p166
V16075
p167
ssa(dp168
g7
(dp169
Vtype
p170
Vuri
p171
sVvalue
p172
Vhttp://dbpedia.org/ontology/wikiPageModified
p173
ssg8
(dp174
Vdatatype
p175
Vhttp://www.w3.org/2001/XMLSchema#dateTime
p176
sVtype
p177
Vtyped-literal
p178
sVvalue
p179
V2016-09-08T12:57:05Z
p180
ssa(dp181
g7
(dp182
Vtype
p183
Vuri
p184
sVvalue
p185
Vhttp://dbpedia.org/ontology/wikiPageOutDegree
p186
ssg8
(dp187
Vdatatype
p188
Vhttp://www.w3.org/2001/XMLSchema#nonNegativeInteger
p189
sVtype
p190
Vtyped-literal
p191
sVvalue
p192
V157
p193
ssasVordered
p194
I01
ss.