(dp0
Vhead
p1
(dp2
Vlink
p3
(lp4
sVvars
p5
(lp6
Vp
p7
aVo
p8
assVresults
p9
(dp10
Vdistinct
p11
I00
sVbindings
p12
(lp13
(dp14
g7
(dp15
Vtype
p16
Vuri
p17
sVvalue
p18
Vhttp://dbpedia.org/ontology/abstract
p19
ssg8
(dp20
Vxml:lang
p21
Ven
p22
sVtype
p23
Vliteral
p24
sVvalue
p25
VAl Qoubaiyat (Arabic: \u0627\u0644\u0642\u0628\u064a\u0627\u062a) is the biggest Christian village in Akkar District of North Governorate, Lebanon. All its population are Maronites numbering around 12000 persons according to the civil state registers. (among them were 8300 registered voters in 1992). It is usually full with people during summer but a few stay during the winter. The village rigorous terrain and snowy winters supported the creation of an active Off Road driving community and an ATV group.
p26
ssa(dp27
g7
(dp28
Vtype
p29
Vuri
p30
sVvalue
p31
Vhttp://dbpedia.org/ontology/areaCode
p32
ssg8
(dp33
Vtype
p34
Vliteral
p35
sVvalue
p36
V+961
p37
ssa(dp38
g7
(dp39
Vtype
p40
Vuri
p41
sVvalue
p42
Vhttp://dbpedia.org/ontology/elevation
p43
ssg8
(dp44
Vdatatype
p45
Vhttp://www.w3.org/2001/XMLSchema#double
p46
sVtype
p47
Vtyped-literal
p48
sVvalue
p49
V700.0
p50
ssa(dp51
g7
(dp52
Vtype
p53
Vuri
p54
sVvalue
p55
Vhttp://dbpedia.org/ontology/maximumElevation
p56
ssg8
(dp57
Vdatatype
p58
Vhttp://www.w3.org/2001/XMLSchema#double
p59
sVtype
p60
Vtyped-literal
p61
sVvalue
p62
V1900.0
p63
ssa(dp64
g7
(dp65
Vtype
p66
Vuri
p67
sVvalue
p68
Vhttp://dbpedia.org/ontology/minimumElevation
p69
ssg8
(dp70
Vdatatype
p71
Vhttp://www.w3.org/2001/XMLSchema#double
p72
sVtype
p73
Vtyped-literal
p74
sVvalue
p75
V550.0
p76
ssa(dp77
g7
(dp78
Vtype
p79
Vuri
p80
sVvalue
p81
Vhttp://dbpedia.org/ontology/populationTotal
p82
ssg8
(dp83
Vdatatype
p84
Vhttp://www.w3.org/2001/XMLSchema#nonNegativeInteger
p85
sVtype
p86
Vtyped-literal
p87
sVvalue
p88
V12000
p89
ssa(dp90
g7
(dp91
Vtype
p92
Vuri
p93
sVvalue
p94
Vhttp://dbpedia.org/ontology/utcOffset
p95
ssg8
(dp96
Vtype
p97
Vliteral
p98
sVvalue
p99
V+2
p100
ssa(dp101
g7
(dp102
Vtype
p103
Vuri
p104
sVvalue
p105
Vhttp://dbpedia.org/ontology/utcOffset
p106
ssg8
(dp107
Vtype
p108
Vliteral
p109
sVvalue
p110
V+3
p111
ssa(dp112
g7
(dp113
Vtype
p114
Vuri
p115
sVvalue
p116
Vhttp://dbpedia.org/ontology/wikiPageExtracted
p117
ssg8
(dp118
Vdatatype
p119
Vhttp://www.w3.org/2001/XMLSchema#dateTime
p120
sVtype
p121
Vtyped-literal
p122
sVvalue
p123
V2016-10-27T06:22:57Z
p124
ssa(dp125
g7
(dp126
Vtype
p127
Vuri
p128
sVvalue
p129
Vhttp://dbpedia.org/ontology/wikiPageLength
p130
ssg8
(dp131
Vdatatype
p132
Vhttp://www.w3.org/2001/XMLSchema#nonNegativeInteger
p133
sVtype
p134
Vtyped-literal
p135
sVvalue
p136
V7218
p137
ssa(dp138
g7
(dp139
Vtype
p140
Vuri
p141
sVvalue
p142
Vhttp://dbpedia.org/ontology/wikiPageModified
p143
ssg8
(dp144
Vdatatype
p145
Vhttp://www.w3.org/2001/XMLSchema#dateTime
p146
sVtype
p147
Vtyped-literal
p148
sVvalue
p149
V2016-10-02T23:40:53Z
p150
ssa(dp151
g7
(dp152
Vtype
p153
Vuri
p154
sVvalue
p155
Vhttp://dbpedia.org/ontology/wikiPageOutDegree
p156
ssg8
(dp157
Vdatatype
p158
Vhttp://www.w3.org/2001/XMLSchema#nonNegativeInteger
p159
sVtype
p160
Vtyped-literal
p161
sVvalue
p162
V23
p163
ssasVordered
p164
I01
ss.