(dp0
Vhead
p1
(dp2
Vlink
p3
(lp4
sVvars
p5
(lp6
Vp
p7
aVo
p8
assVresults
p9
(dp10
Vdistinct
p11
I00
sVbindings
p12
(lp13
(dp14
g7
(dp15
Vtype
p16
Vuri
p17
sVvalue
p18
Vhttp://dbpedia.org/ontology/PopulatedPlace/areaTotal
p19
ssg8
(dp20
Vdatatype
p21
Vhttp://dbpedia.org/datatype/squareKilometre
p22
sVtype
p23
Vtyped-literal
p24
sVvalue
p25
V2.27918953709568
p26
ssa(dp27
g7
(dp28
Vtype
p29
Vuri
p30
sVvalue
p31
Vhttp://dbpedia.org/ontology/PopulatedPlace/areaTotal
p32
ssg8
(dp33
Vdatatype
p34
Vhttp://dbpedia.org/datatype/squareKilometre
p35
sVtype
p36
Vtyped-literal
p37
sVvalue
p38
V2.28
p39
ssa(dp40
g7
(dp41
Vtype
p42
Vuri
p43
sVvalue
p44
Vhttp://dbpedia.org/ontology/PopulatedPlace/populationDensity
p45
ssg8
(dp46
Vdatatype
p47
Vhttp://dbpedia.org/datatype/inhabitantsPerSquareKilometre
p48
sVtype
p49
Vtyped-literal
p50
sVvalue
p51
V406.29530143421584
p52
ssa(dp53
g7
(dp54
Vtype
p55
Vuri
p56
sVvalue
p57
Vhttp://dbpedia.org/ontology/PopulatedPlace/populationDensity
p58
ssg8
(dp59
Vdatatype
p60
Vhttp://dbpedia.org/datatype/inhabitantsPerSquareKilometre
p61
sVtype
p62
Vtyped-literal
p63
sVvalue
p64
V406.3
p65
ssa(dp66
g7
(dp67
Vtype
p68
Vuri
p69
sVvalue
p70
Vhttp://dbpedia.org/ontology/abstract
p71
ssg8
(dp72
Vxml:lang
p73
Ven
p74
sVtype
p75
Vliteral
p76
sVvalue
p77
VArmstrong is a city in Emmet County, Iowa, United States. The population was 926 at the 2010 census. It was originally known as Armstrong Grove.
p78
ssa(dp79
g7
(dp80
Vtype
p81
Vuri
p82
sVvalue
p83
Vhttp://dbpedia.org/ontology/areaCode
p84
ssg8
(dp85
Vtype
p86
Vliteral
p87
sVvalue
p88
V712
p89
ssa(dp90
g7
(dp91
Vtype
p92
Vuri
p93
sVvalue
p94
Vhttp://dbpedia.org/ontology/areaLand
p95
ssg8
(dp96
Vdatatype
p97
Vhttp://www.w3.org/2001/XMLSchema#double
p98
sVtype
p99
Vtyped-literal
p100
sVvalue
p101
V2.27919e+06
p102
ssa(dp103
g7
(dp104
Vtype
p105
Vuri
p106
sVvalue
p107
Vhttp://dbpedia.org/ontology/areaLand
p108
ssg8
(dp109
Vdatatype
p110
Vhttp://www.w3.org/2001/XMLSchema#double
p111
sVtype
p112
Vtyped-literal
p113
sVvalue
p114
V2.28e+06
p115
ssa(dp116
g7
(dp117
Vtype
p118
Vuri
p119
sVvalue
p120
Vhttp://dbpedia.org/ontology/areaTotal
p121
ssg8
(dp122
Vdatatype
p123
Vhttp://www.w3.org/2001/XMLSchema#double
p124
sVtype
p125
Vtyped-literal
p126
sVvalue
p127
V2.27919e+06
p128
ssa(dp129
g7
(dp130
Vtype
p131
Vuri
p132
sVvalue
p133
Vhttp://dbpedia.org/ontology/areaTotal
p134
ssg8
(dp135
Vdatatype
p136
Vhttp://www.w3.org/2001/XMLSchema#double
p137
sVtype
p138
Vtyped-literal
p139
sVvalue
p140
V2.28e+06
p141
ssa(dp142
g7
(dp143
Vtype
p144
Vuri
p145
sVvalue
p146
Vhttp://dbpedia.org/ontology/areaWater
p147
ssg8
(dp148
Vdatatype
p149
Vhttp://www.w3.org/2001/XMLSchema#double
p150
sVtype
p151
Vtyped-literal
p152
sVvalue
p153
V0.0
p154
ssa(dp155
g7
(dp156
Vtype
p157
Vuri
p158
sVvalue
p159
Vhttp://dbpedia.org/ontology/elevation
p160
ssg8
(dp161
Vdatatype
p162
Vhttp://www.w3.org/2001/XMLSchema#double
p163
sVtype
p164
Vtyped-literal
p165
sVvalue
p166
V381.0
p167
ssa(dp168
g7
(dp169
Vtype
p170
Vuri
p171
sVvalue
p172
Vhttp://dbpedia.org/ontology/populationDensity
p173
ssg8
(dp174
Vdatatype
p175
Vhttp://www.w3.org/2001/XMLSchema#double
p176
sVtype
p177
Vtyped-literal
p178
sVvalue
p179
V406.295
p180
ssa(dp181
g7
(dp182
Vtype
p183
Vuri
p184
sVvalue
p185
Vhttp://dbpedia.org/ontology/populationDensity
p186
ssg8
(dp187
Vdatatype
p188
Vhttp://www.w3.org/2001/XMLSchema#double
p189
sVtype
p190
Vtyped-literal
p191
sVvalue
p192
V406.3
p193
ssa(dp194
g7
(dp195
Vtype
p196
Vuri
p197
sVvalue
p198
Vhttp://dbpedia.org/ontology/populationTotal
p199
ssg8
(dp200
Vdatatype
p201
Vhttp://www.w3.org/2001/XMLSchema#nonNegativeInteger
p202
sVtype
p203
Vtyped-literal
p204
sVvalue
p205
V926
p206
ssa(dp207
g7
(dp208
Vtype
p209
Vuri
p210
sVvalue
p211
Vhttp://dbpedia.org/ontology/postalCode
p212
ssg8
(dp213
Vtype
p214
Vliteral
p215
sVvalue
p216
V50514
p217
ssa(dp218
g7
(dp219
Vtype
p220
Vuri
p221
sVvalue
p222
Vhttp://dbpedia.org/ontology/utcOffset
p223
ssg8
(dp224
Vtype
p225
Vliteral
p226
sVvalue
p227
V-5
p228
ssa(dp229
g7
(dp230
Vtype
p231
Vuri
p232
sVvalue
p233
Vhttp://dbpedia.org/ontology/utcOffset
p234
ssg8
(dp235
Vtype
p236
Vliteral
p237
sVvalue
p238
V-6
p239
ssa(dp240
g7
(dp241
Vtype
p242
Vuri
p243
sVvalue
p244
Vhttp://dbpedia.org/ontology/wikiPageExtracted
p245
ssg8
(dp246
Vdatatype
p247
Vhttp://www.w3.org/2001/XMLSchema#dateTime
p248
sVtype
p249
Vtyped-literal
p250
sVvalue
p251
V2016-10-27T16:42:48Z
p252
ssa(dp253
g7
(dp254
Vtype
p255
Vuri
p256
sVvalue
p257
Vhttp://dbpedia.org/ontology/wikiPageLength
p258
ssg8
(dp259
Vdatatype
p260
Vhttp://www.w3.org/2001/XMLSchema#nonNegativeInteger
p261
sVtype
p262
Vtyped-literal
p263
sVvalue
p264
V9539
p265
ssa(dp266
g7
(dp267
Vtype
p268
Vuri
p269
sVvalue
p270
Vhttp://dbpedia.org/ontology/wikiPageModified
p271
ssg8
(dp272
Vdatatype
p273
Vhttp://www.w3.org/2001/XMLSchema#dateTime
p274
sVtype
p275
Vtyped-literal
p276
sVvalue
p277
V2016-10-18T07:47:58Z
p278
ssa(dp279
g7
(dp280
Vtype
p281
Vuri
p282
sVvalue
p283
Vhttp://dbpedia.org/ontology/wikiPageOutDegree
p284
ssg8
(dp285
Vdatatype
p286
Vhttp://www.w3.org/2001/XMLSchema#nonNegativeInteger
p287
sVtype
p288
Vtyped-literal
p289
sVvalue
p290
V41
p291
ssasVordered
p292
I01
ss.