(dp0
Vhead
p1
(dp2
Vlink
p3
(lp4
sVvars
p5
(lp6
Vp
p7
aVo
p8
assVresults
p9
(dp10
Vdistinct
p11
I00
sVbindings
p12
(lp13
(dp14
g7
(dp15
Vtype
p16
Vuri
p17
sVvalue
p18
Vhttp://dbpedia.org/ontology/abstract
p19
ssg8
(dp20
Vxml:lang
p21
Ven
p22
sVtype
p23
Vliteral
p24
sVvalue
p25
VRoxanne Lizette "Roxy" Mitchell (also Slater and Moon) is a fictional character from the BBC soap opera EastEnders, portrayed by Rita Simons. Roxy arrived in Walford with her sister Ronnie (played by Samantha Womack) on 24 July 2007 and decided to move permanently to Walford from Ibiza where they ran a bar together. Roxy is the younger of the two sisters. She is described as the "fire", as opposed to Ronnie's "ice".During Roxy's time on the show she has been married twice - to Sean Slater (Robert Kazinsky) and Alfie Moon (Shane Richie) - and engaged an additional three times - to Damian (James Hiller), Aleks Shirovs (Kristian Kiehling) and Dean Wicks (Matt Di Angelo). Her major storylines have included the paternity of her daughter Amy Mitchell (Abbie Knowles), becoming landlady of The Queen Victoria, becoming a millionairess before squandering all the money on frivolous spending, her popular friendship with Christian Clarke (John Partridge), a feud with Alfie's ex-wife Kat Moon (Jessie Wallace), one-night stands with both her sister's husbands (Jack Branning (Scott Maslen) and Charlie Cotton (Declan Bennett), Dean's rape attempt of her, and becoming a drugs mule. The character has proved popular with viewers, with Simons winning the "Best Newcomer" award at the Digital Spy Soap Awards in 2008 for her role in the soap opera.Simons took a temporary hiatus from the soap opera in 2015, with Roxy off screen from 1 January 2016 until 4 May 2016.
p26
ssa(dp27
g7
(dp28
Vtype
p29
Vuri
p30
sVvalue
p31
Vhttp://dbpedia.org/ontology/abstract
p32
ssg8
(dp33
Vxml:lang
p34
Ven
p35
sVtype
p36
Vliteral
p37
sVvalue
p38
VRoxanne Lizette "Roxy" Mitchell (previously Slater and Moon) is a fictional character from the BBC soap opera EastEnders, portrayed by Rita Simons. Roxy arrived in Walford with her sister Ronnie (played by Samantha Womack) on 24 July 2007 and decided to move permanently to Walford from Ibiza where they ran a bar together. Roxy is the younger of the two sisters. She is described as the "fire", as opposed to Ronnie's "ice". Simons took a temporary hiatus in 2015, with Roxy off screen from 1 January  until 4 May 2016. In August 2016, it was announced that Simons would be departing along with Womack. It was later reported that Roxy and Ronnie will both be killed-off, although this has not officially been confirmed by show bosses.During Roxy's time on the show she has been married twice - to Sean Slater (Robert Kazinsky) and Alfie Moon (Shane Richie) - and engaged an additional three times - to Damian (James Hiller), Aleks Shirovs (Kristian Kiehling) and Dean Wicks (Matt Di Angelo). Her major storylines have included the paternity of her daughter Amy Mitchell (Abbie Knowles), becoming landlady of The Queen Victoria, becoming a millionairess before squandering all the money on frivolous spending, her popular friendship with Christian Clarke (John Partridge), a feud with Alfie's ex-wife Kat Moon (Jessie Wallace), one-night stands with both her sister's husbands (Jack Branning (Scott Maslen) and Charlie Cotton (Declan Bennett), Dean's rape attempt of her, and becoming a drugs mule. The character has proved popular with viewers, with Simons winning the "Best Newcomer" award at the Digital Spy Soap Awards in 2008 for her role in the soap opera.
p39
ssa(dp40
g7
(dp41
Vtype
p42
Vuri
p43
sVvalue
p44
Vhttp://dbpedia.org/ontology/wikiPageExtracted
p45
ssg8
(dp46
Vdatatype
p47
Vhttp://www.w3.org/2001/XMLSchema#dateTime
p48
sVtype
p49
Vtyped-literal
p50
sVvalue
p51
V2016-11-05T09:03:18Z
p52
ssa(dp53
g7
(dp54
Vtype
p55
Vuri
p56
sVvalue
p57
Vhttp://dbpedia.org/ontology/wikiPageLength
p58
ssg8
(dp59
Vdatatype
p60
Vhttp://www.w3.org/2001/XMLSchema#nonNegativeInteger
p61
sVtype
p62
Vtyped-literal
p63
sVvalue
p64
V43415
p65
ssa(dp66
g7
(dp67
Vtype
p68
Vuri
p69
sVvalue
p70
Vhttp://dbpedia.org/ontology/wikiPageModified
p71
ssg8
(dp72
Vdatatype
p73
Vhttp://www.w3.org/2001/XMLSchema#dateTime
p74
sVtype
p75
Vtyped-literal
p76
sVvalue
p77
V2016-11-01T11:20:29Z
p78
ssa(dp79
g7
(dp80
Vtype
p81
Vuri
p82
sVvalue
p83
Vhttp://dbpedia.org/ontology/wikiPageOutDegree
p84
ssg8
(dp85
Vdatatype
p86
Vhttp://www.w3.org/2001/XMLSchema#nonNegativeInteger
p87
sVtype
p88
Vtyped-literal
p89
sVvalue
p90
V192
p91
ssasVordered
p92
I01
ss.