(dp0
Vhead
p1
(dp2
Vlink
p3
(lp4
sVvars
p5
(lp6
Vp
p7
aVo
p8
assVresults
p9
(dp10
Vdistinct
p11
I00
sVbindings
p12
(lp13
(dp14
g7
(dp15
Vtype
p16
Vuri
p17
sVvalue
p18
Vhttp://dbpedia.org/ontology/abstract
p19
ssg8
(dp20
Vxml:lang
p21
Ven
p22
sVtype
p23
Vliteral
p24
sVvalue
p25
VKilcoo (from Irish: Cill Chua, meaning "church of mourning" \u2013 from the legend that Saint Patrick's body stayed there while on its way to Downpatrick to be buried) is a small village and civil parish in County Down, Northern Ireland. It lies between Rathfriland and Castlewellan and is within the Newry, Mourne and Down District Council area. Kilcoo had a population 1415 people in the 2001 Census.
p26
ssa(dp27
g7
(dp28
Vtype
p29
Vuri
p30
sVvalue
p31
Vhttp://dbpedia.org/ontology/areaCode
p32
ssg8
(dp33
Vtype
p34
Vliteral
p35
sVvalue
p36
V028
p37
ssa(dp38
g7
(dp39
Vtype
p40
Vuri
p41
sVvalue
p42
Vhttp://dbpedia.org/ontology/populationTotal
p43
ssg8
(dp44
Vdatatype
p45
Vhttp://www.w3.org/2001/XMLSchema#nonNegativeInteger
p46
sVtype
p47
Vtyped-literal
p48
sVvalue
p49
V1415
p50
ssa(dp51
g7
(dp52
Vtype
p53
Vuri
p54
sVvalue
p55
Vhttp://dbpedia.org/ontology/wikiPageExtracted
p56
ssg8
(dp57
Vdatatype
p58
Vhttp://www.w3.org/2001/XMLSchema#dateTime
p59
sVtype
p60
Vtyped-literal
p61
sVvalue
p62
V2016-11-01T18:20:46Z
p63
ssa(dp64
g7
(dp65
Vtype
p66
Vuri
p67
sVvalue
p68
Vhttp://dbpedia.org/ontology/wikiPageLength
p69
ssg8
(dp70
Vdatatype
p71
Vhttp://www.w3.org/2001/XMLSchema#nonNegativeInteger
p72
sVtype
p73
Vtyped-literal
p74
sVvalue
p75
V3625
p76
ssa(dp77
g7
(dp78
Vtype
p79
Vuri
p80
sVvalue
p81
Vhttp://dbpedia.org/ontology/wikiPageModified
p82
ssg8
(dp83
Vdatatype
p84
Vhttp://www.w3.org/2001/XMLSchema#dateTime
p85
sVtype
p86
Vtyped-literal
p87
sVvalue
p88
V2016-10-25T18:58:32Z
p89
ssa(dp90
g7
(dp91
Vtype
p92
Vuri
p93
sVvalue
p94
Vhttp://dbpedia.org/ontology/wikiPageOutDegree
p95
ssg8
(dp96
Vdatatype
p97
Vhttp://www.w3.org/2001/XMLSchema#nonNegativeInteger
p98
sVtype
p99
Vtyped-literal
p100
sVvalue
p101
V46
p102
ssasVordered
p103
I01
ss.