(dp0
Vhead
p1
(dp2
Vlink
p3
(lp4
sVvars
p5
(lp6
Vp
p7
aVo
p8
assVresults
p9
(dp10
Vdistinct
p11
I00
sVbindings
p12
(lp13
(dp14
g7
(dp15
Vtype
p16
Vuri
p17
sVvalue
p18
Vhttp://dbpedia.org/ontology/abstract
p19
ssg8
(dp20
Vxml:lang
p21
Ven
p22
sVtype
p23
Vliteral
p24
sVvalue
p25
VSymon Vasylyovych Petliura (Ukrainian: \u0421\u0438\u0301\u043c\u043e\u043d \u0412\u0430\u0441\u0438\u0301\u043b\u044c\u043e\u0432\u0438\u0447 \u041f\u0435\u0442\u043b\u044e\u0301\u0440\u0430, Russian: \u0421\u0438\u043c\u043e\u0301\u043d \u0412\u0430\u0441\u0438\u0301\u043b\u044c\u0435\u0432\u0438\u0447 \u041f\u0435\u0442\u043b\u044e\u0301\u0440\u0430; May 22, 1879 \u2013 May 25, 1926) was a publicist, writer, journalist, Ukrainian politician, statesman of the Ukrainian People's Republic, and nationalist leader who led Ukraine's struggle for independence following the Russian Revolution of 1917 (1918\u20131921).Petliura has been a controversial figure connected with pogroms of Jews in the Russian Empire. On May 25, 1926 he was killed with five shots from a handgun in broad daylight by the Russian anarchist of Jewish origin Sholom Schwartzbard in the center of Paris.
p26
ssa(dp27
g7
(dp28
Vtype
p29
Vuri
p30
sVvalue
p31
Vhttp://dbpedia.org/ontology/abstract
p32
ssg8
(dp33
Vxml:lang
p34
Ven
p35
sVtype
p36
Vliteral
p37
sVvalue
p38
VSymon Vasylyovych Petliura (Ukrainian: \u0421\u0438\u0301\u043c\u043e\u043d \u0412\u0430\u0441\u0438\u0301\u043b\u044c\u043e\u0432\u0438\u0447 \u041f\u0435\u0442\u043b\u044e\u0301\u0440\u0430, Russian: \u0421\u0438\u043c\u043e\u0301\u043d \u0412\u0430\u0441\u0438\u0301\u043b\u044c\u0435\u0432\u0438\u0447 \u041f\u0435\u0442\u043b\u044e\u0301\u0440\u0430; May 22, 1879 \u2013 May 25, 1926) was a publicist, writer, journalist, Ukrainian politician, statesman of the Ukrainian People's Republic, and nationalist leader who led Ukraine's struggle for independence following the Russian Revolution of 1917 (1918\u20131921).Petliura has been a controversial figure connected with pogroms of Jews in the Russian Empire. On May 25, 1926 he was killed in the center of Paris by the Russian anarchist of Jewish origin Sholom Schwartzbard.
p39
ssa(dp40
g7
(dp41
Vtype
p42
Vuri
p43
sVvalue
p44
Vhttp://dbpedia.org/ontology/birthDate
p45
ssg8
(dp46
Vdatatype
p47
Vhttp://www.w3.org/2001/XMLSchema#date
p48
sVtype
p49
Vtyped-literal
p50
sVvalue
p51
V1879-05-22
p52
ssa(dp53
g7
(dp54
Vtype
p55
Vuri
p56
sVvalue
p57
Vhttp://dbpedia.org/ontology/deathDate
p58
ssg8
(dp59
Vdatatype
p60
Vhttp://www.w3.org/2001/XMLSchema#date
p61
sVtype
p62
Vtyped-literal
p63
sVvalue
p64
V1926-05-25
p65
ssa(dp66
g7
(dp67
Vtype
p68
Vuri
p69
sVvalue
p70
Vhttp://dbpedia.org/ontology/militaryCommand
p71
ssg8
(dp72
Vtype
p73
Vliteral
p74
sVvalue
p75
VHaidamaka Kish of Sloboda Ukraine
p76
ssa(dp77
g7
(dp78
Vtype
p79
Vuri
p80
sVvalue
p81
Vhttp://dbpedia.org/ontology/office
p82
ssg8
(dp83
Vtype
p84
Vliteral
p85
sVvalue
p86
V2nd Chairman of theDirectory
p87
ssa(dp88
g7
(dp89
Vtype
p90
Vuri
p91
sVvalue
p92
Vhttp://dbpedia.org/ontology/office
p93
ssg8
(dp94
Vtype
p95
Vliteral
p96
sVvalue
p97
VSecretaryof Military Affairs
p98
ssa(dp99
g7
(dp100
Vtype
p101
Vuri
p102
sVvalue
p103
Vhttp://dbpedia.org/ontology/serviceEndYear
p104
ssg8
(dp105
Vdatatype
p106
Vhttp://www.w3.org/2001/XMLSchema#gYear
p107
sVtype
p108
Vtyped-literal
p109
sVvalue
p110
V1922
p111
ssa(dp112
g7
(dp113
Vtype
p114
Vuri
p115
sVvalue
p116
Vhttp://dbpedia.org/ontology/serviceStartYear
p117
ssg8
(dp118
Vdatatype
p119
Vhttp://www.w3.org/2001/XMLSchema#gYear
p120
sVtype
p121
Vtyped-literal
p122
sVvalue
p123
V1914
p124
ssa(dp125
g7
(dp126
Vtype
p127
Vuri
p128
sVvalue
p129
Vhttp://dbpedia.org/ontology/signature
p130
ssg8
(dp131
Vtype
p132
Vliteral
p133
sVvalue
p134
VSymon Petlura Signature 1920.png
p135
ssa(dp136
g7
(dp137
Vtype
p138
Vuri
p139
sVvalue
p140
Vhttp://dbpedia.org/ontology/wikiPageExtracted
p141
ssg8
(dp142
Vdatatype
p143
Vhttp://www.w3.org/2001/XMLSchema#dateTime
p144
sVtype
p145
Vtyped-literal
p146
sVvalue
p147
V2016-11-06T13:56:08Z
p148
ssa(dp149
g7
(dp150
Vtype
p151
Vuri
p152
sVvalue
p153
Vhttp://dbpedia.org/ontology/wikiPageLength
p154
ssg8
(dp155
Vdatatype
p156
Vhttp://www.w3.org/2001/XMLSchema#nonNegativeInteger
p157
sVtype
p158
Vtyped-literal
p159
sVvalue
p160
V44308
p161
ssa(dp162
g7
(dp163
Vtype
p164
Vuri
p165
sVvalue
p166
Vhttp://dbpedia.org/ontology/wikiPageModified
p167
ssg8
(dp168
Vdatatype
p169
Vhttp://www.w3.org/2001/XMLSchema#dateTime
p170
sVtype
p171
Vtyped-literal
p172
sVvalue
p173
V2016-10-20T02:45:04Z
p174
ssa(dp175
g7
(dp176
Vtype
p177
Vuri
p178
sVvalue
p179
Vhttp://dbpedia.org/ontology/wikiPageOutDegree
p180
ssg8
(dp181
Vdatatype
p182
Vhttp://www.w3.org/2001/XMLSchema#nonNegativeInteger
p183
sVtype
p184
Vtyped-literal
p185
sVvalue
p186
V229
p187
ssasVordered
p188
I01
ss.