(dp0
Vhead
p1
(dp2
Vlink
p3
(lp4
sVvars
p5
(lp6
Vp
p7
aVo
p8
assVresults
p9
(dp10
Vdistinct
p11
I00
sVbindings
p12
(lp13
(dp14
g7
(dp15
Vtype
p16
Vuri
p17
sVvalue
p18
Vhttp://dbpedia.org/ontology/PopulatedPlace/area
p19
ssg8
(dp20
Vdatatype
p21
Vhttp://dbpedia.org/datatype/squareKilometre
p22
sVtype
p23
Vtyped-literal
p24
sVvalue
p25
V1.0E-6
p26
ssa(dp27
g7
(dp28
Vtype
p29
Vuri
p30
sVvalue
p31
Vhttp://dbpedia.org/ontology/PopulatedPlace/areaTotal
p32
ssg8
(dp33
Vdatatype
p34
Vhttp://dbpedia.org/datatype/squareKilometre
p35
sVtype
p36
Vtyped-literal
p37
sVvalue
p38
V15.7
p39
ssa(dp40
g7
(dp41
Vtype
p42
Vuri
p43
sVvalue
p44
Vhttp://dbpedia.org/ontology/PopulatedPlace/areaTotal
p45
ssg8
(dp46
Vdatatype
p47
Vhttp://dbpedia.org/datatype/squareKilometre
p48
sVtype
p49
Vtyped-literal
p50
sVvalue
p51
V15.7989274730496
p52
ssa(dp53
g7
(dp54
Vtype
p55
Vuri
p56
sVvalue
p57
Vhttp://dbpedia.org/ontology/PopulatedPlace/populationDensity
p58
ssg8
(dp59
Vdatatype
p60
Vhttp://dbpedia.org/datatype/inhabitantsPerSquareKilometre
p61
sVtype
p62
Vtyped-literal
p63
sVvalue
p64
V2071.0
p65
ssa(dp66
g7
(dp67
Vtype
p68
Vuri
p69
sVvalue
p70
Vhttp://dbpedia.org/ontology/abstract
p71
ssg8
(dp72
Vxml:lang
p73
Ven
p74
sVtype
p75
Vliteral
p76
sVvalue
p77
VIthaca /\u02c8\u026a\u03b8\u0259k\u0259/ is a city in the Southern Tier-Finger Lakes region of New York. It is seat of Tompkins County, as well as the largest community in the Ithaca-Tompkins County metropolitan area. This area contains the municipalities of the Town of Ithaca, the village of Cayuga Heights, and other towns and villages in Tompkins County. The city of Ithaca is located on the southern shore of Cayuga Lake, in Central New York. It is named for the Greek island of Ithaca.Ithaca is home to Cornell University, an Ivy League school of over 20,000 students, most of whom study at its local campus. Ithaca College is located just south of the city in the Town of Ithaca, adding to the area's "college town" atmosphere. Nearby is Tompkins Cortland Community College (TC3). These three colleges bring tens of thousands of students who increase Ithaca's seasonal population during the school year. Some students settle in the area after graduation. The city's voters are notably more liberal than those in the remainder of Tompkins County or in upstate New York, generally voting for Democratic Party candidates.In 2010, the city's population was 30,014.Namgyal Monastery in Ithaca is the North American seat of Tenzin Gyatso, the 14th Dalai Lama.
p78
ssa(dp79
g7
(dp80
Vtype
p81
Vuri
p82
sVvalue
p83
Vhttp://dbpedia.org/ontology/area
p84
ssg8
(dp85
Vdatatype
p86
Vhttp://www.w3.org/2001/XMLSchema#double
p87
sVtype
p88
Vtyped-literal
p89
sVvalue
p90
VNAN
p91
ssa(dp92
g7
(dp93
Vtype
p94
Vuri
p95
sVvalue
p96
Vhttp://dbpedia.org/ontology/areaCode
p97
ssg8
(dp98
Vtype
p99
Vliteral
p100
sVvalue
p101
V607
p102
ssa(dp103
g7
(dp104
Vtype
p105
Vuri
p106
sVvalue
p107
Vhttp://dbpedia.org/ontology/areaLand
p108
ssg8
(dp109
Vdatatype
p110
Vhttp://www.w3.org/2001/XMLSchema#double
p111
sVtype
p112
Vtyped-literal
p113
sVvalue
p114
V1.41e+07
p115
ssa(dp116
g7
(dp117
Vtype
p118
Vuri
p119
sVvalue
p120
Vhttp://dbpedia.org/ontology/areaLand
p121
ssg8
(dp122
Vdatatype
p123
Vhttp://www.w3.org/2001/XMLSchema#double
p124
sVtype
p125
Vtyped-literal
p126
sVvalue
p127
V1.42449e+07
p128
ssa(dp129
g7
(dp130
Vtype
p131
Vuri
p132
sVvalue
p133
Vhttp://dbpedia.org/ontology/areaTotal
p134
ssg8
(dp135
Vdatatype
p136
Vhttp://www.w3.org/2001/XMLSchema#double
p137
sVtype
p138
Vtyped-literal
p139
sVvalue
p140
V1.57e+07
p141
ssa(dp142
g7
(dp143
Vtype
p144
Vuri
p145
sVvalue
p146
Vhttp://dbpedia.org/ontology/areaTotal
p147
ssg8
(dp148
Vdatatype
p149
Vhttp://www.w3.org/2001/XMLSchema#double
p150
sVtype
p151
Vtyped-literal
p152
sVvalue
p153
V1.57989e+07
p154
ssa(dp155
g7
(dp156
Vtype
p157
Vuri
p158
sVvalue
p159
Vhttp://dbpedia.org/ontology/areaWater
p160
ssg8
(dp161
Vdatatype
p162
Vhttp://www.w3.org/2001/XMLSchema#double
p163
sVtype
p164
Vtyped-literal
p165
sVvalue
p166
V1.55399e+06
p167
ssa(dp168
g7
(dp169
Vtype
p170
Vuri
p171
sVvalue
p172
Vhttp://dbpedia.org/ontology/areaWater
p173
ssg8
(dp174
Vdatatype
p175
Vhttp://www.w3.org/2001/XMLSchema#double
p176
sVtype
p177
Vtyped-literal
p178
sVvalue
p179
V1.6e+06
p180
ssa(dp181
g7
(dp182
Vtype
p183
Vuri
p184
sVvalue
p185
Vhttp://dbpedia.org/ontology/elevation
p186
ssg8
(dp187
Vdatatype
p188
Vhttp://www.w3.org/2001/XMLSchema#double
p189
sVtype
p190
Vtyped-literal
p191
sVvalue
p192
V123.139
p193
ssa(dp194
g7
(dp195
Vtype
p196
Vuri
p197
sVvalue
p198
Vhttp://dbpedia.org/ontology/leaderTitle
p199
ssg8
(dp200
Vxml:lang
p201
Ven
p202
sVtype
p203
Vliteral
p204
sVvalue
p205
VMayor
p206
ssa(dp207
g7
(dp208
Vtype
p209
Vuri
p210
sVvalue
p211
Vhttp://dbpedia.org/ontology/leaderTitle
p212
ssg8
(dp213
Vxml:lang
p214
Ven
p215
sVtype
p216
Vliteral
p217
sVvalue
p218
VCommon Council
p219
ssa(dp220
g7
(dp221
Vtype
p222
Vuri
p223
sVvalue
p224
Vhttp://dbpedia.org/ontology/populationDensity
p225
ssg8
(dp226
Vdatatype
p227
Vhttp://www.w3.org/2001/XMLSchema#double
p228
sVtype
p229
Vtyped-literal
p230
sVvalue
p231
V2071.0
p232
ssa(dp233
g7
(dp234
Vtype
p235
Vuri
p236
sVvalue
p237
Vhttp://dbpedia.org/ontology/populationTotal
p238
ssg8
(dp239
Vdatatype
p240
Vhttp://www.w3.org/2001/XMLSchema#nonNegativeInteger
p241
sVtype
p242
Vtyped-literal
p243
sVvalue
p244
V30014
p245
ssa(dp246
g7
(dp247
Vtype
p248
Vuri
p249
sVvalue
p250
Vhttp://dbpedia.org/ontology/utcOffset
p251
ssg8
(dp252
Vtype
p253
Vliteral
p254
sVvalue
p255
V\u22125
p256
ssa(dp257
g7
(dp258
Vtype
p259
Vuri
p260
sVvalue
p261
Vhttp://dbpedia.org/ontology/utcOffset
p262
ssg8
(dp263
Vtype
p264
Vliteral
p265
sVvalue
p266
V\u22124
p267
ssa(dp268
g7
(dp269
Vtype
p270
Vuri
p271
sVvalue
p272
Vhttp://dbpedia.org/ontology/wikiPageExtracted
p273
ssg8
(dp274
Vdatatype
p275
Vhttp://www.w3.org/2001/XMLSchema#dateTime
p276
sVtype
p277
Vtyped-literal
p278
sVvalue
p279
V2016-11-01T01:13:53Z
p280
ssa(dp281
g7
(dp282
Vtype
p283
Vuri
p284
sVvalue
p285
Vhttp://dbpedia.org/ontology/wikiPageLength
p286
ssg8
(dp287
Vdatatype
p288
Vhttp://www.w3.org/2001/XMLSchema#nonNegativeInteger
p289
sVtype
p290
Vtyped-literal
p291
sVvalue
p292
V68774
p293
ssa(dp294
g7
(dp295
Vtype
p296
Vuri
p297
sVvalue
p298
Vhttp://dbpedia.org/ontology/wikiPageModified
p299
ssg8
(dp300
Vdatatype
p301
Vhttp://www.w3.org/2001/XMLSchema#dateTime
p302
sVtype
p303
Vtyped-literal
p304
sVvalue
p305
V2016-10-29T16:41:46Z
p306
ssa(dp307
g7
(dp308
Vtype
p309
Vuri
p310
sVvalue
p311
Vhttp://dbpedia.org/ontology/wikiPageOutDegree
p312
ssg8
(dp313
Vdatatype
p314
Vhttp://www.w3.org/2001/XMLSchema#nonNegativeInteger
p315
sVtype
p316
Vtyped-literal
p317
sVvalue
p318
V416
p319
ssasVordered
p320
I01
ss.