(dp0
Vhead
p1
(dp2
Vlink
p3
(lp4
sVvars
p5
(lp6
Vp
p7
aVo
p8
assVresults
p9
(dp10
Vdistinct
p11
I00
sVbindings
p12
(lp13
(dp14
g7
(dp15
Vtype
p16
Vuri
p17
sVvalue
p18
Vhttp://dbpedia.org/ontology/bridgeCarries
p19
ssg8
(dp20
Vtype
p21
Vliteral
p22
sVvalue
p23
VMotor vehicles, pedestrians
p24
ssa(dp25
g7
(dp26
Vtype
p27
Vuri
p28
sVvalue
p29
Vhttp://dbpedia.org/ontology/numberOfSpans
p30
ssg8
(dp31
Vdatatype
p32
Vhttp://www.w3.org/2001/XMLSchema#nonNegativeInteger
p33
sVtype
p34
Vtyped-literal
p35
sVvalue
p36
V2
p37
ssa(dp38
g7
(dp39
Vtype
p40
Vuri
p41
sVvalue
p42
Vhttp://dbpedia.org/ontology/abstract
p43
ssg8
(dp44
Vxml:lang
p45
Ven
p46
sVtype
p47
Vliteral
p48
sVvalue
p49
VThe Long Beach Bridge is a drawbridge crossing Reynolds Channel, connecting Long Beach and Island Park, New York. There is no toll. The bridge starts in Long Beach as Long Beach Boulevard. At Barnum Island, the main road continues northeast as Austin Boulevard, while Long Beach Road branches to the north.
p50
ssa(dp51
g7
(dp52
Vtype
p53
Vuri
p54
sVvalue
p55
Vhttp://dbpedia.org/ontology/length
p56
ssg8
(dp57
Vdatatype
p58
Vhttp://www.w3.org/2001/XMLSchema#double
p59
sVtype
p60
Vtyped-literal
p61
sVvalue
p62
V249.936
p63
ssa(dp64
g7
(dp65
Vtype
p66
Vuri
p67
sVvalue
p68
Vhttp://dbpedia.org/ontology/openingDate
p69
ssg8
(dp70
Vdatatype
p71
Vhttp://www.w3.org/2001/XMLSchema#date
p72
sVtype
p73
Vtyped-literal
p74
sVvalue
p75
V1955-05-19
p76
ssa(dp77
g7
(dp78
Vtype
p79
Vuri
p80
sVvalue
p81
Vhttp://dbpedia.org/ontology/openingDate
p82
ssg8
(dp83
Vdatatype
p84
Vhttp://www.w3.org/2001/XMLSchema#date
p85
sVtype
p86
Vtyped-literal
p87
sVvalue
p88
V1956-07-25
p89
ssa(dp90
g7
(dp91
Vtype
p92
Vuri
p93
sVvalue
p94
Vhttp://dbpedia.org/ontology/width
p95
ssg8
(dp96
Vdatatype
p97
Vhttp://www.w3.org/2001/XMLSchema#double
p98
sVtype
p99
Vtyped-literal
p100
sVvalue
p101
V13.716
p102
ssa(dp103
g7
(dp104
Vtype
p105
Vuri
p106
sVvalue
p107
Vhttp://dbpedia.org/ontology/wikiPageExtracted
p108
ssg8
(dp109
Vdatatype
p110
Vhttp://www.w3.org/2001/XMLSchema#dateTime
p111
sVtype
p112
Vtyped-literal
p113
sVvalue
p114
V2016-11-02T13:06:39Z
p115
ssa(dp116
g7
(dp117
Vtype
p118
Vuri
p119
sVvalue
p120
Vhttp://dbpedia.org/ontology/wikiPageLength
p121
ssg8
(dp122
Vdatatype
p123
Vhttp://www.w3.org/2001/XMLSchema#nonNegativeInteger
p124
sVtype
p125
Vtyped-literal
p126
sVvalue
p127
V3510
p128
ssa(dp129
g7
(dp130
Vtype
p131
Vuri
p132
sVvalue
p133
Vhttp://dbpedia.org/ontology/wikiPageModified
p134
ssg8
(dp135
Vdatatype
p136
Vhttp://www.w3.org/2001/XMLSchema#dateTime
p137
sVtype
p138
Vtyped-literal
p139
sVvalue
p140
V2016-02-06T11:08:54Z
p141
ssa(dp142
g7
(dp143
Vtype
p144
Vuri
p145
sVvalue
p146
Vhttp://dbpedia.org/ontology/wikiPageOutDegree
p147
ssg8
(dp148
Vdatatype
p149
Vhttp://www.w3.org/2001/XMLSchema#nonNegativeInteger
p150
sVtype
p151
Vtyped-literal
p152
sVvalue
p153
V19
p154
ssa(dp155
g7
(dp156
Vtype
p157
Vuri
p158
sVvalue
p159
Vhttp://dbpedia.org/ontology/Infrastructure/length
p160
ssg8
(dp161
Vdatatype
p162
Vhttp://dbpedia.org/datatype/kilometre
p163
sVtype
p164
Vtyped-literal
p165
sVvalue
p166
V0.249936
p167
ssa(dp168
g7
(dp169
Vtype
p170
Vuri
p171
sVvalue
p172
Vhttp://dbpedia.org/ontology/openingYear
p173
ssg8
(dp174
Vdatatype
p175
Vhttp://www.w3.org/2001/XMLSchema#gYear
p176
sVtype
p177
Vtyped-literal
p178
sVvalue
p179
V1955
p180
ssa(dp181
g7
(dp182
Vtype
p183
Vuri
p184
sVvalue
p185
Vhttp://dbpedia.org/ontology/openingYear
p186
ssg8
(dp187
Vdatatype
p188
Vhttp://www.w3.org/2001/XMLSchema#gYear
p189
sVtype
p190
Vtyped-literal
p191
sVvalue
p192
V1956
p193
ssa(dp194
g7
(dp195
Vtype
p196
Vuri
p197
sVvalue
p198
Vhttp://dbpedia.org/ontology/mainspan
p199
ssg8
(dp200
Vdatatype
p201
Vhttp://www.w3.org/2001/XMLSchema#double
p202
sVtype
p203
Vtyped-literal
p204
sVvalue
p205
V45.72
p206
ssa(dp207
g7
(dp208
Vtype
p209
Vuri
p210
sVvalue
p211
Vhttp://dbpedia.org/ontology/unitedStatesNationalBridgeId
p212
ssg8
(dp213
Vtype
p214
Vliteral
p215
sVvalue
p216
V3300301 (southbound)
p217
ssa(dp218
g7
(dp219
Vtype
p220
Vuri
p221
sVvalue
p222
Vhttp://dbpedia.org/ontology/unitedStatesNationalBridgeId
p223
ssg8
(dp224
Vtype
p225
Vliteral
p226
sVvalue
p227
V3300302 (northbound)
p228
ssa(dp229
g7
(dp230
Vtype
p231
Vuri
p232
sVvalue
p233
Vhttp://dbpedia.org/ontology/vehiclesPerDay
p234
ssg8
(dp235
Vdatatype
p236
Vhttp://www.w3.org/2001/XMLSchema#nonNegativeInteger
p237
sVtype
p238
Vtyped-literal
p239
sVvalue
p240
V19515
p241
ssa(dp242
g7
(dp243
Vtype
p244
Vuri
p245
sVvalue
p246
Vhttp://dbpedia.org/ontology/vehiclesPerDay
p247
ssg8
(dp248
Vdatatype
p249
Vhttp://www.w3.org/2001/XMLSchema#nonNegativeInteger
p250
sVtype
p251
Vtyped-literal
p252
sVvalue
p253
V19654
p254
ssasVordered
p255
I01
ss.