(dp0
Vhead
p1
(dp2
Vlink
p3
(lp4
sVvars
p5
(lp6
Vp
p7
aVo
p8
assVresults
p9
(dp10
Vdistinct
p11
I00
sVbindings
p12
(lp13
(dp14
g7
(dp15
Vtype
p16
Vuri
p17
sVvalue
p18
Vhttp://dbpedia.org/ontology/Work/runtime
p19
ssg8
(dp20
Vdatatype
p21
Vhttp://dbpedia.org/datatype/minute
p22
sVtype
p23
Vtyped-literal
p24
sVvalue
p25
V82.0
p26
ssa(dp27
g7
(dp28
Vtype
p29
Vuri
p30
sVvalue
p31
Vhttp://dbpedia.org/ontology/abstract
p32
ssg8
(dp33
Vxml:lang
p34
Ven
p35
sVtype
p36
Vliteral
p37
sVvalue
p38
VThis Is Spinal Tap is a 1984 American rock music mockumentary comedy film written, scored by, and starring Rob Reiner, Christopher Guest, Michael McKean and Harry Shearer. The film portrays the fictional British heavy metal band Spinal Tap. Directed by Reiner, the movie satirizes the wild personal behavior and musical pretensions of hard rock and heavy metal bands, as well as the hagiographic tendencies of rock documentaries of the time.Reiner and the three main actors are credited as the writers of the movie because they ad libbed much of the dialogue. Several dozen hours of footage were filmed before Reiner edited it to the released movie.The three main members of Spinal Tap\u2014David St. Hubbins, Derek Smalls and Nigel Tufnel\u2014are played by actors McKean, Shearer, and Guest, respectively. The three actors play their musical instruments and speak with mock English accents throughout the movie. Reiner appears as Marty Di Bergi, the maker of the documentary. Other actors in the movie are Tony Hendra as group manager Ian Faith, and June Chadwick as St. Hubbins' interfering girlfriend Jeanine. Actors Paul Shaffer, Fred Willard, Fran Drescher, Bruno Kirby, Howard Hesseman, Ed Begley, Jr., Patrick Macnee, Anjelica Huston, Vicki Blue, Dana Carvey, Billy Crystal, Brinke Stevens, and Linnea Quigley all play supporting roles or make cameo appearances in the movie.In 2002, This Is Spinal Tap was deemed "culturally, historically, or aesthetically significant" by the Library of Congress and was selected for preservation by the United States National Film Registry.
p39
ssa(dp40
g7
(dp41
Vtype
p42
Vuri
p43
sVvalue
p44
Vhttp://dbpedia.org/ontology/budget
p45
ssg8
(dp46
Vdatatype
p47
Vhttp://dbpedia.org/datatype/usDollar
p48
sVtype
p49
Vtyped-literal
p50
sVvalue
p51
V2000000.0
p52
ssa(dp53
g7
(dp54
Vtype
p55
Vuri
p56
sVvalue
p57
Vhttp://dbpedia.org/ontology/runtime
p58
ssg8
(dp59
Vdatatype
p60
Vhttp://www.w3.org/2001/XMLSchema#double
p61
sVtype
p62
Vtyped-literal
p63
sVvalue
p64
V4920.0
p65
ssa(dp66
g7
(dp67
Vtype
p68
Vuri
p69
sVvalue
p70
Vhttp://dbpedia.org/ontology/wikiPageExtracted
p71
ssg8
(dp72
Vdatatype
p73
Vhttp://www.w3.org/2001/XMLSchema#dateTime
p74
sVtype
p75
Vtyped-literal
p76
sVvalue
p77
V2016-11-07T02:31:17Z
p78
ssa(dp79
g7
(dp80
Vtype
p81
Vuri
p82
sVvalue
p83
Vhttp://dbpedia.org/ontology/wikiPageLength
p84
ssg8
(dp85
Vdatatype
p86
Vhttp://www.w3.org/2001/XMLSchema#nonNegativeInteger
p87
sVtype
p88
Vtyped-literal
p89
sVvalue
p90
V34914
p91
ssa(dp92
g7
(dp93
Vtype
p94
Vuri
p95
sVvalue
p96
Vhttp://dbpedia.org/ontology/wikiPageModified
p97
ssg8
(dp98
Vdatatype
p99
Vhttp://www.w3.org/2001/XMLSchema#dateTime
p100
sVtype
p101
Vtyped-literal
p102
sVvalue
p103
V2016-11-05T16:36:08Z
p104
ssa(dp105
g7
(dp106
Vtype
p107
Vuri
p108
sVvalue
p109
Vhttp://dbpedia.org/ontology/wikiPageOutDegree
p110
ssg8
(dp111
Vdatatype
p112
Vhttp://www.w3.org/2001/XMLSchema#nonNegativeInteger
p113
sVtype
p114
Vtyped-literal
p115
sVvalue
p116
V280
p117
ssa(dp118
g7
(dp119
Vtype
p120
Vuri
p121
sVvalue
p122
Vhttp://dbpedia.org/ontology/gross
p123
ssg8
(dp124
Vdatatype
p125
Vhttp://dbpedia.org/datatype/usDollar
p126
sVtype
p127
Vtyped-literal
p128
sVvalue
p129
V4700000.0
p130
ssasVordered
p131
I01
ss.