(dp0
Vhead
p1
(dp2
Vlink
p3
(lp4
sVvars
p5
(lp6
Vp
p7
aVo
p8
assVresults
p9
(dp10
Vdistinct
p11
I00
sVbindings
p12
(lp13
(dp14
g7
(dp15
Vtype
p16
Vuri
p17
sVvalue
p18
Vhttp://dbpedia.org/ontology/routeNumber
p19
ssg8
(dp20
Vtype
p21
Vliteral
p22
sVvalue
p23
V10
p24
ssa(dp25
g7
(dp26
Vtype
p27
Vuri
p28
sVvalue
p29
Vhttp://dbpedia.org/ontology/routeTypeAbbreviation
p30
ssg8
(dp31
Vtype
p32
Vliteral
p33
sVvalue
p34
VPR
p35
ssa(dp36
g7
(dp37
Vtype
p38
Vuri
p39
sVvalue
p40
Vhttp://dbpedia.org/ontology/abstract
p41
ssg8
(dp42
Vxml:lang
p43
Ven
p44
sVtype
p45
Vliteral
p46
sVvalue
p47
VPuerto Rico Highway 10 (PR-10) is a major highway in Puerto Rico. The primary state road connects the city of Ponce in the south coast to Arecibo in the north; it is also the shortest route between the two cities.Construction on the modern PR-10, a new 68.26-kilometer (42.41 mi) highway, began in 1974. The highway is being built parallel to the old PR-10; that road is now signed PR-123. Most of the new PR-10 is now complete, with an approximately 10-kilometer (6.2 mi) stretch still remaining to be finished. In its current state it is a freeway only in the completed portions, which consists of over three-fourths of the highway.PR-10 is anticipated to be completed in 2015, at a cost of $500 million. Upon completion the highway will become one of the two major roads on the island that cross the Cordillera Central mountain range. PR-10 was inaugurated in the year 2000.
p48
ssa(dp49
g7
(dp50
Vtype
p51
Vuri
p52
sVvalue
p53
Vhttp://dbpedia.org/ontology/length
p54
ssg8
(dp55
Vdatatype
p56
Vhttp://www.w3.org/2001/XMLSchema#double
p57
sVtype
p58
Vtyped-literal
p59
sVvalue
p60
V68260.0
p61
ssa(dp62
g7
(dp63
Vtype
p64
Vuri
p65
sVvalue
p66
Vhttp://dbpedia.org/ontology/wikiPageExtracted
p67
ssg8
(dp68
Vdatatype
p69
Vhttp://www.w3.org/2001/XMLSchema#dateTime
p70
sVtype
p71
Vtyped-literal
p72
sVvalue
p73
V2016-11-04T20:51:38Z
p74
ssa(dp75
g7
(dp76
Vtype
p77
Vuri
p78
sVvalue
p79
Vhttp://dbpedia.org/ontology/wikiPageLength
p80
ssg8
(dp81
Vdatatype
p82
Vhttp://www.w3.org/2001/XMLSchema#nonNegativeInteger
p83
sVtype
p84
Vtyped-literal
p85
sVvalue
p86
V29733
p87
ssa(dp88
g7
(dp89
Vtype
p90
Vuri
p91
sVvalue
p92
Vhttp://dbpedia.org/ontology/wikiPageModified
p93
ssg8
(dp94
Vdatatype
p95
Vhttp://www.w3.org/2001/XMLSchema#dateTime
p96
sVtype
p97
Vtyped-literal
p98
sVvalue
p99
V2016-10-13T04:52:34Z
p100
ssa(dp101
g7
(dp102
Vtype
p103
Vuri
p104
sVvalue
p105
Vhttp://dbpedia.org/ontology/wikiPageOutDegree
p106
ssg8
(dp107
Vdatatype
p108
Vhttp://www.w3.org/2001/XMLSchema#nonNegativeInteger
p109
sVtype
p110
Vtyped-literal
p111
sVvalue
p112
V80
p113
ssa(dp114
g7
(dp115
Vtype
p116
Vuri
p117
sVvalue
p118
Vhttp://dbpedia.org/ontology/Infrastructure/length
p119
ssg8
(dp120
Vdatatype
p121
Vhttp://dbpedia.org/datatype/kilometre
p122
sVtype
p123
Vtyped-literal
p124
sVvalue
p125
V68.26
p126
ssa(dp127
g7
(dp128
Vtype
p129
Vuri
p130
sVvalue
p131
Vhttp://dbpedia.org/ontology/routeEndDirection
p132
ssg8
(dp133
Vtype
p134
Vliteral
p135
sVvalue
p136
VNorth
p137
ssa(dp138
g7
(dp139
Vtype
p140
Vuri
p141
sVvalue
p142
Vhttp://dbpedia.org/ontology/routeStartDirection
p143
ssg8
(dp144
Vtype
p145
Vliteral
p146
sVvalue
p147
VSouth
p148
ssasVordered
p149
I01
ss.