(dp0
Vhead
p1
(dp2
Vlink
p3
(lp4
sVvars
p5
(lp6
Vp
p7
aVo
p8
assVresults
p9
(dp10
Vdistinct
p11
I00
sVbindings
p12
(lp13
(dp14
g7
(dp15
Vtype
p16
Vuri
p17
sVvalue
p18
Vhttp://dbpedia.org/ontology/abstract
p19
ssg8
(dp20
Vxml:lang
p21
Ven
p22
sVtype
p23
Vliteral
p24
sVvalue
p25
VJuan Prim y Prats, 1st Marquis of Los Castillejos, 1st Count of Reus, 1st Viscount of El Bruch, Grandee of Spain, (Spanish pronunciation: [\u02c8xwam \u02c8p\u027ein i \u02c8p\u027eats], Catalan: Joan Prim i Prats [\u0292u\u02c8am \u02c8p\u027eim i \u02c8p\u027eats]; 12 December 1814 \u2013 30 December 1870) was a Spanish general and statesman who was briefly Prime Minister of Spain until his assasination.
p26
ssa(dp27
g7
(dp28
Vtype
p29
Vuri
p30
sVvalue
p31
Vhttp://dbpedia.org/ontology/abstract
p32
ssg8
(dp33
Vxml:lang
p34
Ven
p35
sVtype
p36
Vliteral
p37
sVvalue
p38
VJuan Prim y Prats, 1st Marquis of Los Castillejos, 1st Count of Reus, 1st Viscount of El Bruch, Grandee of Spain, (Spanish pronunciation: [\u02c8xwam \u02c8p\u027ein i \u02c8p\u027eats], Catalan: Joan Prim i Prats [\u0292u\u02c8am \u02c8p\u027eim i \u02c8p\u027eats]; 12 December 1814 \u2013 30 December 1870) was a Spanish general and statesman who was briefly Prime Minister of Spain until his assassination.
p39
ssa(dp40
g7
(dp41
Vtype
p42
Vuri
p43
sVvalue
p44
Vhttp://dbpedia.org/ontology/birthDate
p45
ssg8
(dp46
Vdatatype
p47
Vhttp://www.w3.org/2001/XMLSchema#date
p48
sVtype
p49
Vtyped-literal
p50
sVvalue
p51
V1814-12-12
p52
ssa(dp53
g7
(dp54
Vtype
p55
Vuri
p56
sVvalue
p57
Vhttp://dbpedia.org/ontology/deathDate
p58
ssg8
(dp59
Vdatatype
p60
Vhttp://www.w3.org/2001/XMLSchema#date
p61
sVtype
p62
Vtyped-literal
p63
sVvalue
p64
V1870-12-30
p65
ssa(dp66
g7
(dp67
Vtype
p68
Vuri
p69
sVvalue
p70
Vhttp://dbpedia.org/ontology/office
p71
ssg8
(dp72
Vtype
p73
Vliteral
p74
sVvalue
p75
VPrime Minister of Spain
p76
ssa(dp77
g7
(dp78
Vtype
p79
Vuri
p80
sVvalue
p81
Vhttp://dbpedia.org/ontology/office
p82
ssg8
(dp83
Vtype
p84
Vliteral
p85
sVvalue
p86
VCaptain General of Puerto Rico
p87
ssa(dp88
g7
(dp89
Vtype
p90
Vuri
p91
sVvalue
p92
Vhttp://dbpedia.org/ontology/serviceEndYear
p93
ssg8
(dp94
Vdatatype
p95
Vhttp://www.w3.org/2001/XMLSchema#gYear
p96
sVtype
p97
Vtyped-literal
p98
sVvalue
p99
V1868
p100
ssa(dp101
g7
(dp102
Vtype
p103
Vuri
p104
sVvalue
p105
Vhttp://dbpedia.org/ontology/serviceStartYear
p106
ssg8
(dp107
Vdatatype
p108
Vhttp://www.w3.org/2001/XMLSchema#gYear
p109
sVtype
p110
Vtyped-literal
p111
sVvalue
p112
V1834
p113
ssa(dp114
g7
(dp115
Vtype
p116
Vuri
p117
sVvalue
p118
Vhttp://dbpedia.org/ontology/signature
p119
ssg8
(dp120
Vtype
p121
Vliteral
p122
sVvalue
p123
VFirma Prim.png
p124
ssa(dp125
g7
(dp126
Vtype
p127
Vuri
p128
sVvalue
p129
Vhttp://dbpedia.org/ontology/wikiPageExtracted
p130
ssg8
(dp131
Vdatatype
p132
Vhttp://www.w3.org/2001/XMLSchema#dateTime
p133
sVtype
p134
Vtyped-literal
p135
sVvalue
p136
V2016-11-01T11:39:57Z
p137
ssa(dp138
g7
(dp139
Vtype
p140
Vuri
p141
sVvalue
p142
Vhttp://dbpedia.org/ontology/wikiPageLength
p143
ssg8
(dp144
Vdatatype
p145
Vhttp://www.w3.org/2001/XMLSchema#nonNegativeInteger
p146
sVtype
p147
Vtyped-literal
p148
sVvalue
p149
V8354
p150
ssa(dp151
g7
(dp152
Vtype
p153
Vuri
p154
sVvalue
p155
Vhttp://dbpedia.org/ontology/wikiPageModified
p156
ssg8
(dp157
Vdatatype
p158
Vhttp://www.w3.org/2001/XMLSchema#dateTime
p159
sVtype
p160
Vtyped-literal
p161
sVvalue
p162
V2016-09-01T13:43:05Z
p163
ssa(dp164
g7
(dp165
Vtype
p166
Vuri
p167
sVvalue
p168
Vhttp://dbpedia.org/ontology/wikiPageOutDegree
p169
ssg8
(dp170
Vdatatype
p171
Vhttp://www.w3.org/2001/XMLSchema#nonNegativeInteger
p172
sVtype
p173
Vtyped-literal
p174
sVvalue
p175
V68
p176
ssasVordered
p177
I01
ss.