(dp0
Vhead
p1
(dp2
Vlink
p3
(lp4
sVvars
p5
(lp6
Vp
p7
aVo
p8
assVresults
p9
(dp10
Vdistinct
p11
I00
sVbindings
p12
(lp13
(dp14
g7
(dp15
Vtype
p16
Vuri
p17
sVvalue
p18
Vhttp://dbpedia.org/ontology/abstract
p19
ssg8
(dp20
Vxml:lang
p21
Ven
p22
sVtype
p23
Vliteral
p24
sVvalue
p25
VKuressaare Airport (Estonian: Kuressaare lennujaam, IATA: URE, ICAO: EEKE) is an airport in Estonia. The airport is situated 1.5 nautical miles (2.8 km; 1.7 mi) south southeast of Kuressaare on Saaremaa island.
p26
ssa(dp27
g7
(dp28
Vtype
p29
Vuri
p30
sVvalue
p31
Vhttp://dbpedia.org/ontology/elevation
p32
ssg8
(dp33
Vdatatype
p34
Vhttp://www.w3.org/2001/XMLSchema#double
p35
sVtype
p36
Vtyped-literal
p37
sVvalue
p38
V4.2672
p39
ssa(dp40
g7
(dp41
Vtype
p42
Vuri
p43
sVvalue
p44
Vhttp://dbpedia.org/ontology/icaoLocationIdentifier
p45
ssg8
(dp46
Vtype
p47
Vliteral
p48
sVvalue
p49
VEEKE
p50
ssa(dp51
g7
(dp52
Vtype
p53
Vuri
p54
sVvalue
p55
Vhttp://dbpedia.org/ontology/runwayDesignation
p56
ssg8
(dp57
Vtype
p58
Vliteral
p59
sVvalue
p60
V05/23
p61
ssa(dp62
g7
(dp63
Vtype
p64
Vuri
p65
sVvalue
p66
Vhttp://dbpedia.org/ontology/runwayDesignation
p67
ssg8
(dp68
Vtype
p69
Vliteral
p70
sVvalue
p71
V17/35
p72
ssa(dp73
g7
(dp74
Vtype
p75
Vuri
p76
sVvalue
p77
Vhttp://dbpedia.org/ontology/runwayLength
p78
ssg8
(dp79
Vdatatype
p80
Vhttp://www.w3.org/2001/XMLSchema#double
p81
sVtype
p82
Vtyped-literal
p83
sVvalue
p84
V799.0
p85
ssa(dp86
g7
(dp87
Vtype
p88
Vuri
p89
sVvalue
p90
Vhttp://dbpedia.org/ontology/runwayLength
p91
ssg8
(dp92
Vdatatype
p93
Vhttp://www.w3.org/2001/XMLSchema#double
p94
sVtype
p95
Vtyped-literal
p96
sVvalue
p97
V2000.0
p98
ssa(dp99
g7
(dp100
Vtype
p101
Vuri
p102
sVvalue
p103
Vhttp://dbpedia.org/ontology/runwaySurface
p104
ssg8
(dp105
Vtype
p106
Vliteral
p107
sVvalue
p108
VAsphalt
p109
ssa(dp110
g7
(dp111
Vtype
p112
Vuri
p113
sVvalue
p114
Vhttp://dbpedia.org/ontology/wikiPageExtracted
p115
ssg8
(dp116
Vdatatype
p117
Vhttp://www.w3.org/2001/XMLSchema#dateTime
p118
sVtype
p119
Vtyped-literal
p120
sVvalue
p121
V2016-11-01T21:53:47Z
p122
ssa(dp123
g7
(dp124
Vtype
p125
Vuri
p126
sVvalue
p127
Vhttp://dbpedia.org/ontology/wikiPageLength
p128
ssg8
(dp129
Vdatatype
p130
Vhttp://www.w3.org/2001/XMLSchema#nonNegativeInteger
p131
sVtype
p132
Vtyped-literal
p133
sVvalue
p134
V4134
p135
ssa(dp136
g7
(dp137
Vtype
p138
Vuri
p139
sVvalue
p140
Vhttp://dbpedia.org/ontology/wikiPageModified
p141
ssg8
(dp142
Vdatatype
p143
Vhttp://www.w3.org/2001/XMLSchema#dateTime
p144
sVtype
p145
Vtyped-literal
p146
sVvalue
p147
V2016-09-15T19:04:29Z
p148
ssa(dp149
g7
(dp150
Vtype
p151
Vuri
p152
sVvalue
p153
Vhttp://dbpedia.org/ontology/wikiPageOutDegree
p154
ssg8
(dp155
Vdatatype
p156
Vhttp://www.w3.org/2001/XMLSchema#nonNegativeInteger
p157
sVtype
p158
Vtyped-literal
p159
sVvalue
p160
V37
p161
ssa(dp162
g7
(dp163
Vtype
p164
Vuri
p165
sVvalue
p166
Vhttp://dbpedia.org/ontology/iataLocationIdentifier
p167
ssg8
(dp168
Vtype
p169
Vliteral
p170
sVvalue
p171
VURE
p172
ssasVordered
p173
I01
ss.