(dp0
Vhead
p1
(dp2
Vlink
p3
(lp4
sVvars
p5
(lp6
Vp
p7
aVo
p8
assVresults
p9
(dp10
Vdistinct
p11
I00
sVbindings
p12
(lp13
(dp14
g7
(dp15
Vtype
p16
Vuri
p17
sVvalue
p18
Vhttp://dbpedia.org/ontology/PopulatedPlace/areaTotal
p19
ssg8
(dp20
Vdatatype
p21
Vhttp://dbpedia.org/datatype/squareKilometre
p22
sVtype
p23
Vtyped-literal
p24
sVvalue
p25
V64.88
p26
ssa(dp27
g7
(dp28
Vtype
p29
Vuri
p30
sVvalue
p31
Vhttp://dbpedia.org/ontology/abstract
p32
ssg8
(dp33
Vxml:lang
p34
Ven
p35
sVtype
p36
Vliteral
p37
sVvalue
p38
VPoole /pu\u02d0l/ is a large coastal town and seaport in the county of Dorset, on the south coast of England. The town is 33 kilometres (21 mi) east of Dorchester, and adjoins Bournemouth to the east. The local council is Borough of Poole and was made a unitary authority in 1997, gaining administrative independence from Dorset County Council. The borough had a population of 147,645 at the 2011 census, making it the second largest in Dorset. Together with Bournemouth and Christchurch, the town forms the South East Dorset conurbation with a total population of over 465,000.Human settlement in the area dates back to before the Iron Age. The earliest recorded use of the town's name was in the 12th century when the town began to emerge as an important port, prospering with the introduction of the wool trade. In later centuries, the town had important trade links with North America and at its peak in the 18th century it was one of the busiest ports in Britain. In the Second World War, the town was one of the main departing points for the Normandy landings.Poole is a tourist resort, attracting visitors with its large natural harbour, history, the Lighthouse arts centre and Blue Flag beaches. The town has a busy commercial port with cross-Channel freight and passenger ferry services. The headquarters of the Royal National Lifeboat Institution (RNLI) are in Poole, and the Royal Marines have a base in the town's harbour. Despite their names, Poole is the home of The Arts University Bournemouth, the Bournemouth Symphony Orchestra and a significant part of Bournemouth University.
p39
ssa(dp40
g7
(dp41
Vtype
p42
Vuri
p43
sVvalue
p44
Vhttp://dbpedia.org/ontology/areaCode
p45
ssg8
(dp46
Vtype
p47
Vliteral
p48
sVvalue
p49
V01202
p50
ssa(dp51
g7
(dp52
Vtype
p53
Vuri
p54
sVvalue
p55
Vhttp://dbpedia.org/ontology/areaTotal
p56
ssg8
(dp57
Vdatatype
p58
Vhttp://www.w3.org/2001/XMLSchema#double
p59
sVtype
p60
Vtyped-literal
p61
sVvalue
p62
V6.488e+07
p63
ssa(dp64
g7
(dp65
Vtype
p66
Vuri
p67
sVvalue
p68
Vhttp://dbpedia.org/ontology/leaderTitle
p69
ssg8
(dp70
Vxml:lang
p71
Ven
p72
sVtype
p73
Vliteral
p74
sVvalue
p75
VGoverning body
p76
ssa(dp77
g7
(dp78
Vtype
p79
Vuri
p80
sVvalue
p81
Vhttp://dbpedia.org/ontology/leaderTitle
p82
ssg8
(dp83
Vxml:lang
p84
Ven
p85
sVtype
p86
Vliteral
p87
sVvalue
p88
VMayor
p89
ssa(dp90
g7
(dp91
Vtype
p92
Vuri
p93
sVvalue
p94
Vhttp://dbpedia.org/ontology/leaderTitle
p95
ssg8
(dp96
Vxml:lang
p97
Ven
p98
sVtype
p99
Vliteral
p100
sVvalue
p101
VMPs:
p102
ssa(dp103
g7
(dp104
Vtype
p105
Vuri
p106
sVvalue
p107
Vhttp://dbpedia.org/ontology/leaderTitle
p108
ssg8
(dp109
Vxml:lang
p110
Ven
p111
sVtype
p112
Vliteral
p113
sVvalue
p114
VCouncil leader
p115
ssa(dp116
g7
(dp117
Vtype
p118
Vuri
p119
sVvalue
p120
Vhttp://dbpedia.org/ontology/motto
p121
ssg8
(dp122
Vtype
p123
Vliteral
p124
sVvalue
p125
V"Ad Morem Villae De Poole" ("According to the custom of the Town of Poole")
p126
ssa(dp127
g7
(dp128
Vtype
p129
Vuri
p130
sVvalue
p131
Vhttp://dbpedia.org/ontology/populationTotal
p132
ssg8
(dp133
Vdatatype
p134
Vhttp://www.w3.org/2001/XMLSchema#nonNegativeInteger
p135
sVtype
p136
Vtyped-literal
p137
sVvalue
p138
V147645
p139
ssa(dp140
g7
(dp141
Vtype
p142
Vuri
p143
sVvalue
p144
Vhttp://dbpedia.org/ontology/postalCode
p145
ssg8
(dp146
Vtype
p147
Vliteral
p148
sVvalue
p149
VBH
p150
ssa(dp151
g7
(dp152
Vtype
p153
Vuri
p154
sVvalue
p155
Vhttp://dbpedia.org/ontology/synonym
p156
ssg8
(dp157
Vtype
p158
Vliteral
p159
sVvalue
p160
VBorough of Poole
p161
ssa(dp162
g7
(dp163
Vtype
p164
Vuri
p165
sVvalue
p166
Vhttp://dbpedia.org/ontology/utcOffset
p167
ssg8
(dp168
Vtype
p169
Vliteral
p170
sVvalue
p171
V+0
p172
ssa(dp173
g7
(dp174
Vtype
p175
Vuri
p176
sVvalue
p177
Vhttp://dbpedia.org/ontology/wikiPageExtracted
p178
ssg8
(dp179
Vdatatype
p180
Vhttp://www.w3.org/2001/XMLSchema#dateTime
p181
sVtype
p182
Vtyped-literal
p183
sVvalue
p184
V2016-11-04T16:59:24Z
p185
ssa(dp186
g7
(dp187
Vtype
p188
Vuri
p189
sVvalue
p190
Vhttp://dbpedia.org/ontology/wikiPageLength
p191
ssg8
(dp192
Vdatatype
p193
Vhttp://www.w3.org/2001/XMLSchema#nonNegativeInteger
p194
sVtype
p195
Vtyped-literal
p196
sVvalue
p197
V101172
p198
ssa(dp199
g7
(dp200
Vtype
p201
Vuri
p202
sVvalue
p203
Vhttp://dbpedia.org/ontology/wikiPageModified
p204
ssg8
(dp205
Vdatatype
p206
Vhttp://www.w3.org/2001/XMLSchema#dateTime
p207
sVtype
p208
Vtyped-literal
p209
sVvalue
p210
V2016-10-30T09:11:33Z
p211
ssa(dp212
g7
(dp213
Vtype
p214
Vuri
p215
sVvalue
p216
Vhttp://dbpedia.org/ontology/wikiPageOutDegree
p217
ssg8
(dp218
Vdatatype
p219
Vhttp://www.w3.org/2001/XMLSchema#nonNegativeInteger
p220
sVtype
p221
Vtyped-literal
p222
sVvalue
p223
V651
p224
ssasVordered
p225
I01
ss.