(dp0
Vhead
p1
(dp2
Vlink
p3
(lp4
sVvars
p5
(lp6
Vp
p7
aVo
p8
assVresults
p9
(dp10
Vdistinct
p11
I00
sVbindings
p12
(lp13
(dp14
g7
(dp15
Vtype
p16
Vuri
p17
sVvalue
p18
Vhttp://dbpedia.org/ontology/numberOfFilms
p19
ssg8
(dp20
Vdatatype
p21
Vhttp://www.w3.org/2001/XMLSchema#nonNegativeInteger
p22
sVtype
p23
Vtyped-literal
p24
sVvalue
p25
V289
p26
ssa(dp27
g7
(dp28
Vtype
p29
Vuri
p30
sVvalue
p31
Vhttp://dbpedia.org/ontology/Person/height
p32
ssg8
(dp33
Vdatatype
p34
Vhttp://dbpedia.org/datatype/centimetre
p35
sVtype
p36
Vtyped-literal
p37
sVvalue
p38
V165.1
p39
ssa(dp40
g7
(dp41
Vtype
p42
Vuri
p43
sVvalue
p44
Vhttp://dbpedia.org/ontology/Person/weight
p45
ssg8
(dp46
Vdatatype
p47
Vhttp://dbpedia.org/datatype/kilogram
p48
sVtype
p49
Vtyped-literal
p50
sVvalue
p51
V52.6176
p52
ssa(dp53
g7
(dp54
Vtype
p55
Vuri
p56
sVvalue
p57
Vhttp://dbpedia.org/ontology/abstract
p58
ssg8
(dp59
Vxml:lang
p60
Ven
p61
sVtype
p62
Vliteral
p63
sVvalue
p64
VDomonique Simone (born June 18, 1971 in Valdosta, Georgia) is an African-American adult actress.At the age of 17, Simone won a scholarship to the Fashion Institute of Design and Merchandising. At the age of 18, in 1989, she answered an ad for figure modeling and soon found herself shooting for pornographic magazines like Hustler and Players.Simone is noted for being one of the top black starlets in the business, starring in more than 200 movies during the 1990s. She had large breast implants partway through her career. Her most recent film/video appearances were in My Baby Got Back 21 (2000) and Booty Talk 17 (2000), with Lexington Steele, her last film. As of 2006, she has retired from making movies, works as a loan officer, and raises her two children.In 2007, Simone was inducted into the AVN Hall of Fame.
p65
ssa(dp66
g7
(dp67
Vtype
p68
Vuri
p69
sVvalue
p70
Vhttp://dbpedia.org/ontology/birthDate
p71
ssg8
(dp72
Vdatatype
p73
Vhttp://www.w3.org/2001/XMLSchema#date
p74
sVtype
p75
Vtyped-literal
p76
sVvalue
p77
V1971-06-18
p78
ssa(dp79
g7
(dp80
Vtype
p81
Vuri
p82
sVvalue
p83
Vhttp://dbpedia.org/ontology/height
p84
ssg8
(dp85
Vdatatype
p86
Vhttp://www.w3.org/2001/XMLSchema#double
p87
sVtype
p88
Vtyped-literal
p89
sVvalue
p90
V1.651
p91
ssa(dp92
g7
(dp93
Vtype
p94
Vuri
p95
sVvalue
p96
Vhttp://dbpedia.org/ontology/weight
p97
ssg8
(dp98
Vdatatype
p99
Vhttp://www.w3.org/2001/XMLSchema#double
p100
sVtype
p101
Vtyped-literal
p102
sVvalue
p103
V52617.6
p104
ssa(dp105
g7
(dp106
Vtype
p107
Vuri
p108
sVvalue
p109
Vhttp://dbpedia.org/ontology/wikiPageExtracted
p110
ssg8
(dp111
Vdatatype
p112
Vhttp://www.w3.org/2001/XMLSchema#dateTime
p113
sVtype
p114
Vtyped-literal
p115
sVvalue
p116
V2016-10-29T19:42:10Z
p117
ssa(dp118
g7
(dp119
Vtype
p120
Vuri
p121
sVvalue
p122
Vhttp://dbpedia.org/ontology/wikiPageLength
p123
ssg8
(dp124
Vdatatype
p125
Vhttp://www.w3.org/2001/XMLSchema#nonNegativeInteger
p126
sVtype
p127
Vtyped-literal
p128
sVvalue
p129
V3209
p130
ssa(dp131
g7
(dp132
Vtype
p133
Vuri
p134
sVvalue
p135
Vhttp://dbpedia.org/ontology/wikiPageModified
p136
ssg8
(dp137
Vdatatype
p138
Vhttp://www.w3.org/2001/XMLSchema#dateTime
p139
sVtype
p140
Vtyped-literal
p141
sVvalue
p142
V2016-10-10T12:19:16Z
p143
ssa(dp144
g7
(dp145
Vtype
p146
Vuri
p147
sVvalue
p148
Vhttp://dbpedia.org/ontology/wikiPageOutDegree
p149
ssg8
(dp150
Vdatatype
p151
Vhttp://www.w3.org/2001/XMLSchema#nonNegativeInteger
p152
sVtype
p153
Vtyped-literal
p154
sVvalue
p155
V19
p156
ssasVordered
p157
I01
ss.