(dp0
Vhead
p1
(dp2
Vlink
p3
(lp4
sVvars
p5
(lp6
Vp
p7
aVo
p8
assVresults
p9
(dp10
Vdistinct
p11
I00
sVbindings
p12
(lp13
(dp14
g7
(dp15
Vtype
p16
Vuri
p17
sVvalue
p18
Vhttp://dbpedia.org/ontology/abstract
p19
ssg8
(dp20
Vxml:lang
p21
Ven
p22
sVtype
p23
Vliteral
p24
sVvalue
p25
VJohn Goodwin Tower (September 29, 1925 \u2013 April 5, 1991) was the first Republican United States senator from Texas since Reconstruction. He served from 1961 until his retirement on January 3, 1985, after which time he was appointed as the chairman of the Reagan-appointed Tower Commission that investigated the Iran-Contra Affair. He was George H. W. Bush's nominee for Secretary of Defense in 1989 but was rejected by the Senate, 53\u201347.
p26
ssa(dp27
g7
(dp28
Vtype
p29
Vuri
p30
sVvalue
p31
Vhttp://dbpedia.org/ontology/birthDate
p32
ssg8
(dp33
Vdatatype
p34
Vhttp://www.w3.org/2001/XMLSchema#date
p35
sVtype
p36
Vtyped-literal
p37
sVvalue
p38
V1925-09-29
p39
ssa(dp40
g7
(dp41
Vtype
p42
Vuri
p43
sVvalue
p44
Vhttp://dbpedia.org/ontology/deathDate
p45
ssg8
(dp46
Vdatatype
p47
Vhttp://www.w3.org/2001/XMLSchema#date
p48
sVtype
p49
Vtyped-literal
p50
sVvalue
p51
V1991-04-05
p52
ssa(dp53
g7
(dp54
Vtype
p55
Vuri
p56
sVvalue
p57
Vhttp://dbpedia.org/ontology/office
p58
ssg8
(dp59
Vtype
p60
Vliteral
p61
sVvalue
p62
VChair of theSenate Armed Services Committee
p63
ssa(dp64
g7
(dp65
Vtype
p66
Vuri
p67
sVvalue
p68
Vhttp://dbpedia.org/ontology/office
p69
ssg8
(dp70
Vtype
p71
Vliteral
p72
sVvalue
p73
VChair of thePresident's Intelligence Advisory Board
p74
ssa(dp75
g7
(dp76
Vtype
p77
Vuri
p78
sVvalue
p79
Vhttp://dbpedia.org/ontology/serviceEndYear
p80
ssg8
(dp81
Vdatatype
p82
Vhttp://www.w3.org/2001/XMLSchema#gYear
p83
sVtype
p84
Vtyped-literal
p85
sVvalue
p86
V1989
p87
ssa(dp88
g7
(dp89
Vtype
p90
Vuri
p91
sVvalue
p92
Vhttp://dbpedia.org/ontology/serviceStartYear
p93
ssg8
(dp94
Vdatatype
p95
Vhttp://www.w3.org/2001/XMLSchema#gYear
p96
sVtype
p97
Vtyped-literal
p98
sVvalue
p99
V1943
p100
ssa(dp101
g7
(dp102
Vtype
p103
Vuri
p104
sVvalue
p105
Vhttp://dbpedia.org/ontology/wikiPageExtracted
p106
ssg8
(dp107
Vdatatype
p108
Vhttp://www.w3.org/2001/XMLSchema#dateTime
p109
sVtype
p110
Vtyped-literal
p111
sVvalue
p112
V2016-11-01T09:30:39Z
p113
ssa(dp114
g7
(dp115
Vtype
p116
Vuri
p117
sVvalue
p118
Vhttp://dbpedia.org/ontology/wikiPageLength
p119
ssg8
(dp120
Vdatatype
p121
Vhttp://www.w3.org/2001/XMLSchema#nonNegativeInteger
p122
sVtype
p123
Vtyped-literal
p124
sVvalue
p125
V33167
p126
ssa(dp127
g7
(dp128
Vtype
p129
Vuri
p130
sVvalue
p131
Vhttp://dbpedia.org/ontology/wikiPageModified
p132
ssg8
(dp133
Vdatatype
p134
Vhttp://www.w3.org/2001/XMLSchema#dateTime
p135
sVtype
p136
Vtyped-literal
p137
sVvalue
p138
V2016-10-19T02:09:45Z
p139
ssa(dp140
g7
(dp141
Vtype
p142
Vuri
p143
sVvalue
p144
Vhttp://dbpedia.org/ontology/wikiPageOutDegree
p145
ssg8
(dp146
Vdatatype
p147
Vhttp://www.w3.org/2001/XMLSchema#nonNegativeInteger
p148
sVtype
p149
Vtyped-literal
p150
sVvalue
p151
V267
p152
ssa(dp153
g7
(dp154
Vtype
p155
Vuri
p156
sVvalue
p157
Vhttp://dbpedia.org/ontology/seniority
p158
ssg8
(dp159
Vtype
p160
Vliteral
p161
sVvalue
p162
VUnited States Senator
p163
ssasVordered
p164
I01
ss.