(dp0
Vhead
p1
(dp2
Vlink
p3
(lp4
sVvars
p5
(lp6
Vp
p7
aVo
p8
assVresults
p9
(dp10
Vdistinct
p11
I00
sVbindings
p12
(lp13
(dp14
g7
(dp15
Vtype
p16
Vuri
p17
sVvalue
p18
Vhttp://dbpedia.org/ontology/abstract
p19
ssg8
(dp20
Vxml:lang
p21
Ven
p22
sVtype
p23
Vliteral
p24
sVvalue
p25
VJackson County is a county located in the U.S. state of Michigan. Its population was 160,248 as of the 2010 Census. The county seat is Jackson. The county was set off in 1829 and organized in 1832. It is named for U.S. President Andrew Jackson and considered to be one of Michigan's "Cabinet counties", named for members of Jackson's Cabinet.Jackson County comprises the Jackson, MI Metropolitan Statistical Area.The Jackson County Courthouse was designed by Claire Allen, a prominent southern Michigan architect. Jackson County is also home to the Michigan Whitetail Hall of Fame.
p26
ssa(dp27
g7
(dp28
Vtype
p29
Vuri
p30
sVvalue
p31
Vhttp://dbpedia.org/ontology/wikiPageExtracted
p32
ssg8
(dp33
Vdatatype
p34
Vhttp://www.w3.org/2001/XMLSchema#dateTime
p35
sVtype
p36
Vtyped-literal
p37
sVvalue
p38
V2016-11-01T02:29:24Z
p39
ssa(dp40
g7
(dp41
Vtype
p42
Vuri
p43
sVvalue
p44
Vhttp://dbpedia.org/ontology/wikiPageLength
p45
ssg8
(dp46
Vdatatype
p47
Vhttp://www.w3.org/2001/XMLSchema#nonNegativeInteger
p48
sVtype
p49
Vtyped-literal
p50
sVvalue
p51
V24955
p52
ssa(dp53
g7
(dp54
Vtype
p55
Vuri
p56
sVvalue
p57
Vhttp://dbpedia.org/ontology/wikiPageModified
p58
ssg8
(dp59
Vdatatype
p60
Vhttp://www.w3.org/2001/XMLSchema#dateTime
p61
sVtype
p62
Vtyped-literal
p63
sVvalue
p64
V2016-08-29T03:39:33Z
p65
ssa(dp66
g7
(dp67
Vtype
p68
Vuri
p69
sVvalue
p70
Vhttp://dbpedia.org/ontology/wikiPageOutDegree
p71
ssg8
(dp72
Vdatatype
p73
Vhttp://www.w3.org/2001/XMLSchema#nonNegativeInteger
p74
sVtype
p75
Vtyped-literal
p76
sVvalue
p77
V171
p78
ssasVordered
p79
I01
ss.