(dp0
Vhead
p1
(dp2
Vlink
p3
(lp4
sVvars
p5
(lp6
Vp
p7
aVo
p8
assVresults
p9
(dp10
Vdistinct
p11
I00
sVbindings
p12
(lp13
(dp14
g7
(dp15
Vtype
p16
Vuri
p17
sVvalue
p18
Vhttp://dbpedia.org/ontology/abstract
p19
ssg8
(dp20
Vxml:lang
p21
Ven
p22
sVtype
p23
Vliteral
p24
sVvalue
p25
VThe Chester Upland School District is a midsized, urban public school district serving the City of Chester, the Borough of Upland and Chester Township in Delaware County, Pennsylvania. The Chester-Upland School District encompasses approximately 5 square miles (13 km2). According to 2000 federal census data, it served a resident population of 44,435. In 2009, the District residents' per capita income was $13,521, while the median family income was $30,900. In the Commonwealth, the median family income was $49,501 and the United States median family income was $49,445, in 2010. By 2010, the District's population declined to 41,173 people. The educational attainment levels for the Chester Upland School District population (25 years old and over) were 79.8% high school graduates and 10.2% college graduates.According to the Pennsylvania Budget and Policy Center, 76.4% of the District\u2019s pupils lived at 185% or below the Federal Poverty Level [1] as demonstrated by their eligibility for the federal free or reduced price school meal programs in 2012. In 2009, the District residents\u2019 per capita income was $13,521, while the median family income was $30,900. In the Commonwealth, the median family income was $49,501  and the United States median family income was $49,445, in 2010. In Delaware County, the median household income was $61,876. By 2013, the median household income in the United States rose to $52,100.According to Chester-Upland School District officials, in school year 2005\u201306, the District had 5,003 pupils and 300 teachers, 290 full-time and part-time support personnel, and 20 administrators. Chester-Upland School District received more than $51.1 million in state funding in school year 2005\u201306. The District has a uniform policy which require students wear tan khaki slacks or skirts and white or navy shirts. District officials reported that the District provided basic educational services to 4,505 pupils. It employed: 343 teachers, 212 full-time and part-time support personnel, and 23 administrators during the 2009-10 school year. The District received $73.4 million in state funding in the 2009-10 school year.Chester-Upland School District operates a high school (on two campuses) and five elementary schools. High school students may choose to attend Delaware County Technical High School for training in the construction and mechanical trades. The Delaware County Intermediate Unit IU25 provides the District with a wide variety of services like specialized education for disabled students and hearing, speech and visual disability services and professional development for staff and faculty.
p26
ssa(dp27
g7
(dp28
Vtype
p29
Vuri
p30
sVvalue
p31
Vhttp://dbpedia.org/ontology/wikiPageExtracted
p32
ssg8
(dp33
Vdatatype
p34
Vhttp://www.w3.org/2001/XMLSchema#dateTime
p35
sVtype
p36
Vtyped-literal
p37
sVvalue
p38
V2016-10-28T22:43:05Z
p39
ssa(dp40
g7
(dp41
Vtype
p42
Vuri
p43
sVvalue
p44
Vhttp://dbpedia.org/ontology/wikiPageLength
p45
ssg8
(dp46
Vdatatype
p47
Vhttp://www.w3.org/2001/XMLSchema#nonNegativeInteger
p48
sVtype
p49
Vtyped-literal
p50
sVvalue
p51
V176646
p52
ssa(dp53
g7
(dp54
Vtype
p55
Vuri
p56
sVvalue
p57
Vhttp://dbpedia.org/ontology/wikiPageModified
p58
ssg8
(dp59
Vdatatype
p60
Vhttp://www.w3.org/2001/XMLSchema#dateTime
p61
sVtype
p62
Vtyped-literal
p63
sVvalue
p64
V2016-10-16T19:07:28Z
p65
ssa(dp66
g7
(dp67
Vtype
p68
Vuri
p69
sVvalue
p70
Vhttp://dbpedia.org/ontology/wikiPageOutDegree
p71
ssg8
(dp72
Vdatatype
p73
Vhttp://www.w3.org/2001/XMLSchema#nonNegativeInteger
p74
sVtype
p75
Vtyped-literal
p76
sVvalue
p77
V96
p78
ssasVordered
p79
I01
ss.