(dp0
Vhead
p1
(dp2
Vlink
p3
(lp4
sVvars
p5
(lp6
Vp
p7
aVo
p8
assVresults
p9
(dp10
Vdistinct
p11
I00
sVbindings
p12
(lp13
(dp14
g7
(dp15
Vtype
p16
Vuri
p17
sVvalue
p18
Vhttp://dbpedia.org/ontology/isPartOfName
p19
ssg8
(dp20
Vtype
p21
Vliteral
p22
sVvalue
p23
V*
p24
ssa(dp25
g7
(dp26
Vtype
p27
Vuri
p28
sVvalue
p29
Vhttp://dbpedia.org/ontology/isPartOfName
p30
ssg8
(dp31
Vtype
p32
Vliteral
p33
sVvalue
p34
V*(Entire route)
p35
ssa(dp36
g7
(dp37
Vtype
p38
Vuri
p39
sVvalue
p40
Vhttp://dbpedia.org/ontology/isPartOfName
p41
ssg8
(dp42
Vtype
p43
Vliteral
p44
sVvalue
p45
VB160 (1998-present)
p46
ssa(dp47
g7
(dp48
Vtype
p49
Vuri
p50
sVvalue
p51
Vhttp://dbpedia.org/ontology/abstract
p52
ssg8
(dp53
Vxml:lang
p54
Ven
p55
sVtype
p56
Vliteral
p57
sVvalue
p58
VThe Glenelg Highway is a 301 kilometre highway in south-eastern Australia, linking Mount Gambier with Ballarat. Most of the highway is located within the Western part of the state of Victoria; except for a short, 15 km stretch from the South Australia/Victoria state border near Ardno to Glenburnie (6 km east of central Mount Gambier) is located in South Australia. Some maps identify the South Australian stretch as Casterton Road. Major towns along its route include Casterton, Coleraine and Hamilton.
p59
ssa(dp60
g7
(dp61
Vtype
p62
Vuri
p63
sVvalue
p64
Vhttp://dbpedia.org/ontology/length
p65
ssg8
(dp66
Vdatatype
p67
Vhttp://www.w3.org/2001/XMLSchema#double
p68
sVtype
p69
Vtyped-literal
p70
sVvalue
p71
V301000.0
p72
ssa(dp73
g7
(dp74
Vtype
p75
Vuri
p76
sVvalue
p77
Vhttp://dbpedia.org/ontology/wikiPageExtracted
p78
ssg8
(dp79
Vdatatype
p80
Vhttp://www.w3.org/2001/XMLSchema#dateTime
p81
sVtype
p82
Vtyped-literal
p83
sVvalue
p84
V2016-10-31T00:27:06Z
p85
ssa(dp86
g7
(dp87
Vtype
p88
Vuri
p89
sVvalue
p90
Vhttp://dbpedia.org/ontology/wikiPageLength
p91
ssg8
(dp92
Vdatatype
p93
Vhttp://www.w3.org/2001/XMLSchema#nonNegativeInteger
p94
sVtype
p95
Vtyped-literal
p96
sVvalue
p97
V8272
p98
ssa(dp99
g7
(dp100
Vtype
p101
Vuri
p102
sVvalue
p103
Vhttp://dbpedia.org/ontology/wikiPageModified
p104
ssg8
(dp105
Vdatatype
p106
Vhttp://www.w3.org/2001/XMLSchema#dateTime
p107
sVtype
p108
Vtyped-literal
p109
sVvalue
p110
V2016-05-12T23:38:47Z
p111
ssa(dp112
g7
(dp113
Vtype
p114
Vuri
p115
sVvalue
p116
Vhttp://dbpedia.org/ontology/wikiPageOutDegree
p117
ssg8
(dp118
Vdatatype
p119
Vhttp://www.w3.org/2001/XMLSchema#nonNegativeInteger
p120
sVtype
p121
Vtyped-literal
p122
sVvalue
p123
V72
p124
ssa(dp125
g7
(dp126
Vtype
p127
Vuri
p128
sVvalue
p129
Vhttp://dbpedia.org/ontology/Infrastructure/length
p130
ssg8
(dp131
Vdatatype
p132
Vhttp://dbpedia.org/datatype/kilometre
p133
sVtype
p134
Vtyped-literal
p135
sVvalue
p136
V301.0
p137
ssasVordered
p138
I01
ss.