(dp0
Vhead
p1
(dp2
Vlink
p3
(lp4
sVvars
p5
(lp6
Vp
p7
aVo
p8
assVresults
p9
(dp10
Vdistinct
p11
I00
sVbindings
p12
(lp13
(dp14
g7
(dp15
Vtype
p16
Vuri
p17
sVvalue
p18
Vhttp://dbpedia.org/ontology/abstract
p19
ssg8
(dp20
Vxml:lang
p21
Ven
p22
sVtype
p23
Vliteral
p24
sVvalue
p25
VMiddle Georgia Regional Airport (IATA: MCN, ICAO: KMCN, FAA LID: MCN) is a city owned, public use airport located nine nautical miles (10 mi, 17 km) south of the central business district of Macon, a city in Bibb County, Georgia, United States. It is mostly used for general aviation, but is also served by one commercial airline.As per the Federal Aviation Administration, this airport had 10,029 passenger boardings (enplanements) in calendar year 2008, 1,866 in 2009, and 1,296 in 2010. The National Plan of Integrated Airport Systems for 2011\u20132015 categorized it as a primary commercial service airport based on enplanements in 2008 (more than 10,000 per year).
p26
ssa(dp27
g7
(dp28
Vtype
p29
Vuri
p30
sVvalue
p31
Vhttp://dbpedia.org/ontology/elevation
p32
ssg8
(dp33
Vdatatype
p34
Vhttp://www.w3.org/2001/XMLSchema#double
p35
sVtype
p36
Vtyped-literal
p37
sVvalue
p38
V107.899
p39
ssa(dp40
g7
(dp41
Vtype
p42
Vuri
p43
sVvalue
p44
Vhttp://dbpedia.org/ontology/elevation
p45
ssg8
(dp46
Vdatatype
p47
Vhttp://www.w3.org/2001/XMLSchema#double
p48
sVtype
p49
Vtyped-literal
p50
sVvalue
p51
V108.0
p52
ssa(dp53
g7
(dp54
Vtype
p55
Vuri
p56
sVvalue
p57
Vhttp://dbpedia.org/ontology/icaoLocationIdentifier
p58
ssg8
(dp59
Vtype
p60
Vliteral
p61
sVvalue
p62
VKMCN
p63
ssa(dp64
g7
(dp65
Vtype
p66
Vuri
p67
sVvalue
p68
Vhttp://dbpedia.org/ontology/runwayDesignation
p69
ssg8
(dp70
Vtype
p71
Vliteral
p72
sVvalue
p73
V13/31
p74
ssa(dp75
g7
(dp76
Vtype
p77
Vuri
p78
sVvalue
p79
Vhttp://dbpedia.org/ontology/runwayDesignation
p80
ssg8
(dp81
Vtype
p82
Vliteral
p83
sVvalue
p84
V5/23
p85
ssa(dp86
g7
(dp87
Vtype
p88
Vuri
p89
sVvalue
p90
Vhttp://dbpedia.org/ontology/runwayLength
p91
ssg8
(dp92
Vdatatype
p93
Vhttp://www.w3.org/2001/XMLSchema#double
p94
sVtype
p95
Vtyped-literal
p96
sVvalue
p97
V1524.0
p98
ssa(dp99
g7
(dp100
Vtype
p101
Vuri
p102
sVvalue
p103
Vhttp://dbpedia.org/ontology/runwayLength
p104
ssg8
(dp105
Vdatatype
p106
Vhttp://www.w3.org/2001/XMLSchema#double
p107
sVtype
p108
Vtyped-literal
p109
sVvalue
p110
V1981.5
p111
ssa(dp112
g7
(dp113
Vtype
p114
Vuri
p115
sVvalue
p116
Vhttp://dbpedia.org/ontology/runwayLength
p117
ssg8
(dp118
Vdatatype
p119
Vhttp://www.w3.org/2001/XMLSchema#double
p120
sVtype
p121
Vtyped-literal
p122
sVvalue
p123
V1982.0
p124
ssa(dp125
g7
(dp126
Vtype
p127
Vuri
p128
sVvalue
p129
Vhttp://dbpedia.org/ontology/runwaySurface
p130
ssg8
(dp131
Vtype
p132
Vliteral
p133
sVvalue
p134
VAsphalt
p135
ssa(dp136
g7
(dp137
Vtype
p138
Vuri
p139
sVvalue
p140
Vhttp://dbpedia.org/ontology/wikiPageExtracted
p141
ssg8
(dp142
Vdatatype
p143
Vhttp://www.w3.org/2001/XMLSchema#dateTime
p144
sVtype
p145
Vtyped-literal
p146
sVvalue
p147
V2016-11-03T05:27:59Z
p148
ssa(dp149
g7
(dp150
Vtype
p151
Vuri
p152
sVvalue
p153
Vhttp://dbpedia.org/ontology/wikiPageLength
p154
ssg8
(dp155
Vdatatype
p156
Vhttp://www.w3.org/2001/XMLSchema#nonNegativeInteger
p157
sVtype
p158
Vtyped-literal
p159
sVvalue
p160
V13326
p161
ssa(dp162
g7
(dp163
Vtype
p164
Vuri
p165
sVvalue
p166
Vhttp://dbpedia.org/ontology/wikiPageModified
p167
ssg8
(dp168
Vdatatype
p169
Vhttp://www.w3.org/2001/XMLSchema#dateTime
p170
sVtype
p171
Vtyped-literal
p172
sVvalue
p173
V2016-09-05T22:01:22Z
p174
ssa(dp175
g7
(dp176
Vtype
p177
Vuri
p178
sVvalue
p179
Vhttp://dbpedia.org/ontology/wikiPageOutDegree
p180
ssg8
(dp181
Vdatatype
p182
Vhttp://www.w3.org/2001/XMLSchema#nonNegativeInteger
p183
sVtype
p184
Vtyped-literal
p185
sVvalue
p186
V71
p187
ssa(dp188
g7
(dp189
Vtype
p190
Vuri
p191
sVvalue
p192
Vhttp://dbpedia.org/ontology/iataLocationIdentifier
p193
ssg8
(dp194
Vtype
p195
Vliteral
p196
sVvalue
p197
VMCN
p198
ssa(dp199
g7
(dp200
Vtype
p201
Vuri
p202
sVvalue
p203
Vhttp://dbpedia.org/ontology/faaLocationIdentifier
p204
ssg8
(dp205
Vtype
p206
Vliteral
p207
sVvalue
p208
VMCN
p209
ssasVordered
p210
I01
ss.