(dp0
Vhead
p1
(dp2
Vlink
p3
(lp4
sVvars
p5
(lp6
Vp
p7
aVo
p8
assVresults
p9
(dp10
Vdistinct
p11
I00
sVbindings
p12
(lp13
(dp14
g7
(dp15
Vtype
p16
Vuri
p17
sVvalue
p18
Vhttp://dbpedia.org/ontology/PopulatedPlace/areaTotal
p19
ssg8
(dp20
Vdatatype
p21
Vhttp://dbpedia.org/datatype/squareKilometre
p22
sVtype
p23
Vtyped-literal
p24
sVvalue
p25
V1968.39096385536
p26
ssa(dp27
g7
(dp28
Vtype
p29
Vuri
p30
sVvalue
p31
Vhttp://dbpedia.org/ontology/PopulatedPlace/populationDensity
p32
ssg8
(dp33
Vdatatype
p34
Vhttp://dbpedia.org/datatype/inhabitantsPerSquareKilometre
p35
sVtype
p36
Vtyped-literal
p37
sVvalue
p38
V10.810860439188485
p39
ssa(dp40
g7
(dp41
Vtype
p42
Vuri
p43
sVvalue
p44
Vhttp://dbpedia.org/ontology/abstract
p45
ssg8
(dp46
Vxml:lang
p47
Ven
p48
sVtype
p49
Vliteral
p50
sVvalue
p51
VSaunders County is a county in the U.S. state of Nebraska. As of the 2010 census, the population was 20,780. Its county seat is Wahoo.Saunders County is included in the Omaha-Council Bluffs, NE-IA Metropolitan Statistical Area.In the Nebraska license plate system, Saunders County is represented by the prefix 6 (the county had the sixth-largest number of vehicles registered in the state when the license plate system was established in 1922).
p52
ssa(dp53
g7
(dp54
Vtype
p55
Vuri
p56
sVvalue
p57
Vhttp://dbpedia.org/ontology/areaLand
p58
ssg8
(dp59
Vdatatype
p60
Vhttp://www.w3.org/2001/XMLSchema#double
p61
sVtype
p62
Vtyped-literal
p63
sVvalue
p64
V1.94249e+09
p65
ssa(dp66
g7
(dp67
Vtype
p68
Vuri
p69
sVvalue
p70
Vhttp://dbpedia.org/ontology/areaTotal
p71
ssg8
(dp72
Vdatatype
p73
Vhttp://www.w3.org/2001/XMLSchema#double
p74
sVtype
p75
Vtyped-literal
p76
sVvalue
p77
V1.96839e+09
p78
ssa(dp79
g7
(dp80
Vtype
p81
Vuri
p82
sVvalue
p83
Vhttp://dbpedia.org/ontology/areaWater
p84
ssg8
(dp85
Vdatatype
p86
Vhttp://www.w3.org/2001/XMLSchema#double
p87
sVtype
p88
Vtyped-literal
p89
sVvalue
p90
V2.48639e+07
p91
ssa(dp92
g7
(dp93
Vtype
p94
Vuri
p95
sVvalue
p96
Vhttp://dbpedia.org/ontology/foundingYear
p97
ssg8
(dp98
Vdatatype
p99
Vhttp://www.w3.org/2001/XMLSchema#gYear
p100
sVtype
p101
Vtyped-literal
p102
sVvalue
p103
V1866
p104
ssa(dp105
g7
(dp106
Vtype
p107
Vuri
p108
sVvalue
p109
Vhttp://dbpedia.org/ontology/percentageOfAreaWater
p110
ssg8
(dp111
Vdatatype
p112
Vhttp://www.w3.org/2001/XMLSchema#float
p113
sVtype
p114
Vtyped-literal
p115
sVvalue
p116
V1.3
p117
ssa(dp118
g7
(dp119
Vtype
p120
Vuri
p121
sVvalue
p122
Vhttp://dbpedia.org/ontology/populationDensity
p123
ssg8
(dp124
Vdatatype
p125
Vhttp://www.w3.org/2001/XMLSchema#double
p126
sVtype
p127
Vtyped-literal
p128
sVvalue
p129
V10.8109
p130
ssa(dp131
g7
(dp132
Vtype
p133
Vuri
p134
sVvalue
p135
Vhttp://dbpedia.org/ontology/populationTotal
p136
ssg8
(dp137
Vdatatype
p138
Vhttp://www.w3.org/2001/XMLSchema#nonNegativeInteger
p139
sVtype
p140
Vtyped-literal
p141
sVvalue
p142
V20780
p143
ssa(dp144
g7
(dp145
Vtype
p146
Vuri
p147
sVvalue
p148
Vhttp://dbpedia.org/ontology/wikiPageExtracted
p149
ssg8
(dp150
Vdatatype
p151
Vhttp://www.w3.org/2001/XMLSchema#dateTime
p152
sVtype
p153
Vtyped-literal
p154
sVvalue
p155
V2016-11-05T16:06:10Z
p156
ssa(dp157
g7
(dp158
Vtype
p159
Vuri
p160
sVvalue
p161
Vhttp://dbpedia.org/ontology/wikiPageLength
p162
ssg8
(dp163
Vdatatype
p164
Vhttp://www.w3.org/2001/XMLSchema#nonNegativeInteger
p165
sVtype
p166
Vtyped-literal
p167
sVvalue
p168
V11842
p169
ssa(dp170
g7
(dp171
Vtype
p172
Vuri
p173
sVvalue
p174
Vhttp://dbpedia.org/ontology/wikiPageModified
p175
ssg8
(dp176
Vdatatype
p177
Vhttp://www.w3.org/2001/XMLSchema#dateTime
p178
sVtype
p179
Vtyped-literal
p180
sVvalue
p181
V2016-08-15T02:48:43Z
p182
ssa(dp183
g7
(dp184
Vtype
p185
Vuri
p186
sVvalue
p187
Vhttp://dbpedia.org/ontology/wikiPageOutDegree
p188
ssg8
(dp189
Vdatatype
p190
Vhttp://www.w3.org/2001/XMLSchema#nonNegativeInteger
p191
sVtype
p192
Vtyped-literal
p193
sVvalue
p194
V101
p195
ssa(dp196
g7
(dp197
Vtype
p198
Vuri
p199
sVvalue
p200
Vhttp://dbpedia.org/ontology/censusYear
p201
ssg8
(dp202
Vdatatype
p203
Vhttp://www.w3.org/2001/XMLSchema#gYear
p204
sVtype
p205
Vtyped-literal
p206
sVvalue
p207
V2010
p208
ssasVordered
p209
I01
ss.