(dp0
Vhead
p1
(dp2
Vlink
p3
(lp4
sVvars
p5
(lp6
Vp
p7
aVo
p8
assVresults
p9
(dp10
Vdistinct
p11
I00
sVbindings
p12
(lp13
(dp14
g7
(dp15
Vtype
p16
Vuri
p17
sVvalue
p18
Vhttp://dbpedia.org/ontology/Engine/cylinderBore
p19
ssg8
(dp20
Vdatatype
p21
Vhttp://dbpedia.org/datatype/millimetre
p22
sVtype
p23
Vtyped-literal
p24
sVvalue
p25
V101.6
p26
ssa(dp27
g7
(dp28
Vtype
p29
Vuri
p30
sVvalue
p31
Vhttp://dbpedia.org/ontology/Engine/cylinderBore
p32
ssg8
(dp33
Vdatatype
p34
Vhttp://dbpedia.org/datatype/millimetre
p35
sVtype
p36
Vtyped-literal
p37
sVvalue
p38
V104.775
p39
ssa(dp40
g7
(dp41
Vtype
p42
Vuri
p43
sVvalue
p44
Vhttp://dbpedia.org/ontology/Engine/cylinderBore
p45
ssg8
(dp46
Vdatatype
p47
Vhttp://dbpedia.org/datatype/millimetre
p48
sVtype
p49
Vtyped-literal
p50
sVvalue
p51
V99.0
p52
ssa(dp53
g7
(dp54
Vtype
p55
Vuri
p56
sVvalue
p57
Vhttp://dbpedia.org/ontology/Engine/cylinderBore
p58
ssg8
(dp59
Vdatatype
p60
Vhttp://dbpedia.org/datatype/millimetre
p61
sVtype
p62
Vtyped-literal
p63
sVvalue
p64
V103.25
p65
ssa(dp66
g7
(dp67
Vtype
p68
Vuri
p69
sVvalue
p70
Vhttp://dbpedia.org/ontology/Engine/cylinderBore
p71
ssg8
(dp72
Vdatatype
p73
Vhttp://dbpedia.org/datatype/millimetre
p74
sVtype
p75
Vtyped-literal
p76
sVvalue
p77
V96.01
p78
ssa(dp79
g7
(dp80
Vtype
p81
Vuri
p82
sVvalue
p83
Vhttp://dbpedia.org/ontology/Engine/cylinderBore
p84
ssg8
(dp85
Vdatatype
p86
Vhttp://dbpedia.org/datatype/millimetre
p87
sVtype
p88
Vtyped-literal
p89
sVvalue
p90
V99.6
p91
ssa(dp92
g7
(dp93
Vtype
p94
Vuri
p95
sVvalue
p96
Vhttp://dbpedia.org/ontology/Engine/displacement
p97
ssg8
(dp98
Vdatatype
p99
Vhttp://dbpedia.org/datatype/cubicCentimetre
p100
sVtype
p101
Vtyped-literal
p102
sVvalue
p103
V4301.0
p104
ssa(dp105
g7
(dp106
Vtype
p107
Vuri
p108
sVvalue
p109
Vhttp://dbpedia.org/ontology/Engine/displacement
p110
ssg8
(dp111
Vdatatype
p112
Vhttp://dbpedia.org/datatype/cubicCentimetre
p113
sVtype
p114
Vtyped-literal
p115
sVvalue
p116
V4807.0
p117
ssa(dp118
g7
(dp119
Vtype
p120
Vuri
p121
sVvalue
p122
Vhttp://dbpedia.org/ontology/Engine/pistonStroke
p123
ssg8
(dp124
Vdatatype
p125
Vhttp://dbpedia.org/datatype/millimetre
p126
sVtype
p127
Vtyped-literal
p128
sVvalue
p129
V101.6
p130
ssa(dp131
g7
(dp132
Vtype
p133
Vuri
p134
sVvalue
p135
Vhttp://dbpedia.org/ontology/Engine/pistonStroke
p136
ssg8
(dp137
Vdatatype
p138
Vhttp://dbpedia.org/datatype/millimetre
p139
sVtype
p140
Vtyped-literal
p141
sVvalue
p142
V92.0
p143
ssa(dp144
g7
(dp145
Vtype
p146
Vuri
p147
sVvalue
p148
Vhttp://dbpedia.org/ontology/Engine/pistonStroke
p149
ssg8
(dp150
Vdatatype
p151
Vhttp://dbpedia.org/datatype/millimetre
p152
sVtype
p153
Vtyped-literal
p154
sVvalue
p155
V83.0
p156
ssa(dp157
g7
(dp158
Vtype
p159
Vuri
p160
sVvalue
p161
Vhttp://dbpedia.org/ontology/cylinderBore
p162
ssg8
(dp163
Vdatatype
p164
Vhttp://www.w3.org/2001/XMLSchema#double
p165
sVtype
p166
Vtyped-literal
p167
sVvalue
p168
V0.09601
p169
ssa(dp170
g7
(dp171
Vtype
p172
Vuri
p173
sVvalue
p174
Vhttp://dbpedia.org/ontology/cylinderBore
p175
ssg8
(dp176
Vdatatype
p177
Vhttp://www.w3.org/2001/XMLSchema#double
p178
sVtype
p179
Vtyped-literal
p180
sVvalue
p181
V0.099
p182
ssa(dp183
g7
(dp184
Vtype
p185
Vuri
p186
sVvalue
p187
Vhttp://dbpedia.org/ontology/cylinderBore
p188
ssg8
(dp189
Vdatatype
p190
Vhttp://www.w3.org/2001/XMLSchema#double
p191
sVtype
p192
Vtyped-literal
p193
sVvalue
p194
V0.0996
p195
ssa(dp196
g7
(dp197
Vtype
p198
Vuri
p199
sVvalue
p200
Vhttp://dbpedia.org/ontology/cylinderBore
p201
ssg8
(dp202
Vdatatype
p203
Vhttp://www.w3.org/2001/XMLSchema#double
p204
sVtype
p205
Vtyped-literal
p206
sVvalue
p207
V0.1016
p208
ssa(dp209
g7
(dp210
Vtype
p211
Vuri
p212
sVvalue
p213
Vhttp://dbpedia.org/ontology/cylinderBore
p214
ssg8
(dp215
Vdatatype
p216
Vhttp://www.w3.org/2001/XMLSchema#double
p217
sVtype
p218
Vtyped-literal
p219
sVvalue
p220
V0.10325
p221
ssa(dp222
g7
(dp223
Vtype
p224
Vuri
p225
sVvalue
p226
Vhttp://dbpedia.org/ontology/cylinderBore
p227
ssg8
(dp228
Vdatatype
p229
Vhttp://www.w3.org/2001/XMLSchema#double
p230
sVtype
p231
Vtyped-literal
p232
sVvalue
p233
V0.104775
p234
ssa(dp235
g7
(dp236
Vtype
p237
Vuri
p238
sVvalue
p239
Vhttp://dbpedia.org/ontology/pistonStroke
p240
ssg8
(dp241
Vdatatype
p242
Vhttp://www.w3.org/2001/XMLSchema#double
p243
sVtype
p244
Vtyped-literal
p245
sVvalue
p246
V0.083
p247
ssa(dp248
g7
(dp249
Vtype
p250
Vuri
p251
sVvalue
p252
Vhttp://dbpedia.org/ontology/pistonStroke
p253
ssg8
(dp254
Vdatatype
p255
Vhttp://www.w3.org/2001/XMLSchema#double
p256
sVtype
p257
Vtyped-literal
p258
sVvalue
p259
V0.092
p260
ssa(dp261
g7
(dp262
Vtype
p263
Vuri
p264
sVvalue
p265
Vhttp://dbpedia.org/ontology/pistonStroke
p266
ssg8
(dp267
Vdatatype
p268
Vhttp://www.w3.org/2001/XMLSchema#double
p269
sVtype
p270
Vtyped-literal
p271
sVvalue
p272
V0.1016
p273
ssa(dp274
g7
(dp275
Vtype
p276
Vuri
p277
sVvalue
p278
Vhttp://dbpedia.org/ontology/abstract
p279
ssg8
(dp280
Vxml:lang
p281
Ven
p282
sVtype
p283
Vliteral
p284
sVvalue
p285
VThe GM small-block engine family is an engine design intended as the primary V-8 engine used in General Motors' line of rear-wheel-drive cars and trucks. The GM small-block series was a "clean sheet" design with only the rod bearings and bore spacing in common in terms of shared parts and dimensions with the classic Chevrolet small block V8. The basic layout owes a good deal to the essential concept of Ed Cole's original small-block design of 1954-55, though the small-block engine also uses design cues from Buick, Oldsmobile, and Pontiac engines. Some small-block engines are all-aluminium, especially the performance oriented engines, while others use cast iron blocks. The aluminum block engines use cast iron cylinder liners.The small-block engine has been the main powerplant of the Chevrolet Corvette since 1956, and has seen use in a wide variety of other General Motors vehicles, ranging from sport coupes to full size trucks. Due to the engine's relatively compact external dimensions compared to its displacement and power output, the engine family is also a popular choice for engine swaps, import cars, kit cars, hot rods, boats, buggies, and even light aircraft.
p286
ssa(dp287
g7
(dp288
Vtype
p289
Vuri
p290
sVvalue
p291
Vhttp://dbpedia.org/ontology/abstract
p292
ssg8
(dp293
Vxml:lang
p294
Ven
p295
sVtype
p296
Vliteral
p297
sVvalue
p298
VNot to be confused with the Chevrolet small-block engine.The LS based GM small-block engine family is an engine design intended as the primary V-8 engine used in General Motors' line of rear-wheel-drive cars and trucks. The GM small-block series was a "clean sheet" design with only the rod bearings and bore spacing in common in terms of shared parts and dimensions with the classic Chevrolet small block V8. The basic layout owes a good deal to the essential concept of Ed Cole's original small-block design of 1954-55, though the small-block engine also uses design cues from Buick, Oldsmobile, and Pontiac engines. Some small-block engines are all-aluminum, especially the performance oriented engines, while others use cast iron blocks. The aluminum block engines use cast iron cylinder liners.Several versions of the GM small-block LS engine were used in the Chevrolet Corvette beginning with the LS1 in 1997 through the LS9 and others in 2013. Variants of the LT version of the GM small-block have been used since.
p299
ssa(dp300
g7
(dp301
Vtype
p302
Vuri
p303
sVvalue
p304
Vhttp://dbpedia.org/ontology/productionEndYear
p305
ssg8
(dp306
Vdatatype
p307
Vhttp://www.w3.org/2001/XMLSchema#gYear
p308
sVtype
p309
Vtyped-literal
p310
sVvalue
p311
V2007
p312
ssa(dp313
g7
(dp314
Vtype
p315
Vuri
p316
sVvalue
p317
Vhttp://dbpedia.org/ontology/productionStartYear
p318
ssg8
(dp319
Vdatatype
p320
Vhttp://www.w3.org/2001/XMLSchema#gYear
p321
sVtype
p322
Vtyped-literal
p323
sVvalue
p324
V1997
p325
ssa(dp326
g7
(dp327
Vtype
p328
Vuri
p329
sVvalue
p330
Vhttp://dbpedia.org/ontology/productionStartYear
p331
ssg8
(dp332
Vdatatype
p333
Vhttp://www.w3.org/2001/XMLSchema#gYear
p334
sVtype
p335
Vtyped-literal
p336
sVvalue
p337
V2005
p338
ssa(dp339
g7
(dp340
Vtype
p341
Vuri
p342
sVvalue
p343
Vhttp://dbpedia.org/ontology/productionStartYear
p344
ssg8
(dp345
Vdatatype
p346
Vhttp://www.w3.org/2001/XMLSchema#gYear
p347
sVtype
p348
Vtyped-literal
p349
sVvalue
p350
V2013
p351
ssa(dp352
g7
(dp353
Vtype
p354
Vuri
p355
sVvalue
p356
Vhttp://dbpedia.org/ontology/wikiPageExtracted
p357
ssg8
(dp358
Vdatatype
p359
Vhttp://www.w3.org/2001/XMLSchema#dateTime
p360
sVtype
p361
Vtyped-literal
p362
sVvalue
p363
V2016-11-01T22:57:16Z
p364
ssa(dp365
g7
(dp366
Vtype
p367
Vuri
p368
sVvalue
p369
Vhttp://dbpedia.org/ontology/wikiPageLength
p370
ssg8
(dp371
Vdatatype
p372
Vhttp://www.w3.org/2001/XMLSchema#nonNegativeInteger
p373
sVtype
p374
Vtyped-literal
p375
sVvalue
p376
V76772
p377
ssa(dp378
g7
(dp379
Vtype
p380
Vuri
p381
sVvalue
p382
Vhttp://dbpedia.org/ontology/wikiPageModified
p383
ssg8
(dp384
Vdatatype
p385
Vhttp://www.w3.org/2001/XMLSchema#dateTime
p386
sVtype
p387
Vtyped-literal
p388
sVvalue
p389
V2016-10-31T17:15:27Z
p390
ssa(dp391
g7
(dp392
Vtype
p393
Vuri
p394
sVvalue
p395
Vhttp://dbpedia.org/ontology/wikiPageOutDegree
p396
ssg8
(dp397
Vdatatype
p398
Vhttp://www.w3.org/2001/XMLSchema#nonNegativeInteger
p399
sVtype
p400
Vtyped-literal
p401
sVvalue
p402
V464
p403
ssa(dp404
g7
(dp405
Vtype
p406
Vuri
p407
sVvalue
p408
Vhttp://dbpedia.org/ontology/displacement
p409
ssg8
(dp410
Vdatatype
p411
Vhttp://www.w3.org/2001/XMLSchema#double
p412
sVtype
p413
Vtyped-literal
p414
sVvalue
p415
V0.004301
p416
ssa(dp417
g7
(dp418
Vtype
p419
Vuri
p420
sVvalue
p421
Vhttp://dbpedia.org/ontology/displacement
p422
ssg8
(dp423
Vdatatype
p424
Vhttp://www.w3.org/2001/XMLSchema#double
p425
sVtype
p426
Vtyped-literal
p427
sVvalue
p428
V0.004807
p429
ssa(dp430
g7
(dp431
Vtype
p432
Vuri
p433
sVvalue
p434
Vhttp://dbpedia.org/ontology/configuration
p435
ssg8
(dp436
Vdatatype
p437
Vhttp://dbpedia.org/datatype/engineConfiguration
p438
sVtype
p439
Vtyped-literal
p440
sVvalue
p441
VV8
p442
ssa(dp443
g7
(dp444
Vtype
p445
Vuri
p446
sVvalue
p447
Vhttp://dbpedia.org/ontology/configuration
p448
ssg8
(dp449
Vdatatype
p450
Vhttp://dbpedia.org/datatype/engineConfiguration
p451
sVtype
p452
Vtyped-literal
p453
sVvalue
p454
VV6
p455
ssa(dp456
g7
(dp457
Vtype
p458
Vuri
p459
sVvalue
p460
Vhttp://dbpedia.org/ontology/valvetrain
p461
ssg8
(dp462
Vdatatype
p463
Vhttp://dbpedia.org/datatype/valvetrain
p464
sVtype
p465
Vtyped-literal
p466
sVvalue
p467
VI-head
p468
ssa(dp469
g7
(dp470
Vtype
p471
Vuri
p472
sVvalue
p473
Vhttp://dbpedia.org/ontology/compressionRatio
p474
ssg8
(dp475
Vtype
p476
Vliteral
p477
sVvalue
p478
V11.0:1
p479
ssa(dp480
g7
(dp481
Vtype
p482
Vuri
p483
sVvalue
p484
Vhttp://dbpedia.org/ontology/compressionRatio
p485
ssg8
(dp486
Vtype
p487
Vliteral
p488
sVvalue
p489
V10.0:1
p490
ssa(dp491
g7
(dp492
Vtype
p493
Vuri
p494
sVvalue
p495
Vhttp://dbpedia.org/ontology/compressionRatio
p496
ssg8
(dp497
Vtype
p498
Vliteral
p499
sVvalue
p500
V11.5:1
p501
ssasVordered
p502
I01
ss.