(dp0
Vhead
p1
(dp2
Vlink
p3
(lp4
sVvars
p5
(lp6
Vp
p7
aVo
p8
assVresults
p9
(dp10
Vdistinct
p11
I00
sVbindings
p12
(lp13
(dp14
g7
(dp15
Vtype
p16
Vuri
p17
sVvalue
p18
Vhttp://dbpedia.org/ontology/abstract
p19
ssg8
(dp20
Vxml:lang
p21
Ven
p22
sVtype
p23
Vliteral
p24
sVvalue
p25
VGlossa (Greek: \u0393\u03bb\u03ce\u03c3\u03c3\u03b1 meaning "tongue") is a village and a community in the northwestern part of the island of Skopelos in the Northern Sporades. The population in 2001 was 1,006 for the village and 1,195 for the community, which includes the villages Atheato (pop. 26) and Loutraki (pop. 163). The town's elevation is about 200 meters. Glossa is located 11 km northwest of Skopelos (town).In 1960, Glossa opened a public primary school, a telephone centre and had 1,842 inhabitants. Before the reorganization of the island government in 1997, Glossa and Klima constituted a separate municipality from Skopelos. Currently Glossa has nursery, primary, secondary and high school. There are also several churches. In the neighborhood of Glossa is the chapel of Agios Ioannis, featured in the 2008 film Mamma Mia!.
p26
ssa(dp27
g7
(dp28
Vtype
p29
Vuri
p30
sVvalue
p31
Vhttp://dbpedia.org/ontology/abstract
p32
ssg8
(dp33
Vxml:lang
p34
Ven
p35
sVtype
p36
Vliteral
p37
sVvalue
p38
VGlossa (Greek: \u0393\u03bb\u03ce\u03c3\u03c3\u03b1 meaning "tongue") is a village and a community in the northwestern part of the island of Skopelos in the Northern Sporades. The population in 2011 was 993 for the village and 1,168 for the community, which includes the villages Atheato (pop. 12) and Loutraki (pop. 163). The town's elevation is about 200 meters. Glossa is located 11 km northwest of Skopelos (town).In 1960, Glossa opened a public primary school, a telephone centre and had 1,842 inhabitants. Before the reorganization of the island government in 1997, Glossa and Klima constituted a separate municipality from Skopelos. Currently Glossa has nursery, primary, secondary and high school. There are also several churches. In the neighborhood of Glossa is the chapel of Agios Ioannis, featured in the 2008 film Mamma Mia!.
p39
ssa(dp40
g7
(dp41
Vtype
p42
Vuri
p43
sVvalue
p44
Vhttp://dbpedia.org/ontology/areaCode
p45
ssg8
(dp46
Vtype
p47
Vliteral
p48
sVvalue
p49
V24240
p50
ssa(dp51
g7
(dp52
Vtype
p53
Vuri
p54
sVvalue
p55
Vhttp://dbpedia.org/ontology/maximumElevation
p56
ssg8
(dp57
Vdatatype
p58
Vhttp://www.w3.org/2001/XMLSchema#double
p59
sVtype
p60
Vtyped-literal
p61
sVvalue
p62
V300.0
p63
ssa(dp64
g7
(dp65
Vtype
p66
Vuri
p67
sVvalue
p68
Vhttp://dbpedia.org/ontology/minimumElevation
p69
ssg8
(dp70
Vdatatype
p71
Vhttp://www.w3.org/2001/XMLSchema#double
p72
sVtype
p73
Vtyped-literal
p74
sVvalue
p75
V200.0
p76
ssa(dp77
g7
(dp78
Vtype
p79
Vuri
p80
sVvalue
p81
Vhttp://dbpedia.org/ontology/postalCode
p82
ssg8
(dp83
Vtype
p84
Vliteral
p85
sVvalue
p86
V370 04
p87
ssa(dp88
g7
(dp89
Vtype
p90
Vuri
p91
sVvalue
p92
Vhttp://dbpedia.org/ontology/wikiPageExtracted
p93
ssg8
(dp94
Vdatatype
p95
Vhttp://www.w3.org/2001/XMLSchema#dateTime
p96
sVtype
p97
Vtyped-literal
p98
sVvalue
p99
V2016-10-31T00:42:36Z
p100
ssa(dp101
g7
(dp102
Vtype
p103
Vuri
p104
sVvalue
p105
Vhttp://dbpedia.org/ontology/wikiPageLength
p106
ssg8
(dp107
Vdatatype
p108
Vhttp://www.w3.org/2001/XMLSchema#nonNegativeInteger
p109
sVtype
p110
Vtyped-literal
p111
sVvalue
p112
V1598
p113
ssa(dp114
g7
(dp115
Vtype
p116
Vuri
p117
sVvalue
p118
Vhttp://dbpedia.org/ontology/wikiPageModified
p119
ssg8
(dp120
Vdatatype
p121
Vhttp://www.w3.org/2001/XMLSchema#dateTime
p122
sVtype
p123
Vtyped-literal
p124
sVvalue
p125
V2016-10-19T11:20:31Z
p126
ssa(dp127
g7
(dp128
Vtype
p129
Vuri
p130
sVvalue
p131
Vhttp://dbpedia.org/ontology/wikiPageOutDegree
p132
ssg8
(dp133
Vdatatype
p134
Vhttp://www.w3.org/2001/XMLSchema#nonNegativeInteger
p135
sVtype
p136
Vtyped-literal
p137
sVvalue
p138
V9
p139
ssasVordered
p140
I01
ss.