(dp0
Vhead
p1
(dp2
Vlink
p3
(lp4
sVvars
p5
(lp6
Vp
p7
aVo
p8
assVresults
p9
(dp10
Vdistinct
p11
I00
sVbindings
p12
(lp13
(dp14
g7
(dp15
Vtype
p16
Vuri
p17
sVvalue
p18
Vhttp://dbpedia.org/ontology/abstract
p19
ssg8
(dp20
Vxml:lang
p21
Ven
p22
sVtype
p23
Vliteral
p24
sVvalue
p25
VThe Allentown School District is a large, urban public school district located in Lehigh County, Pennsylvania, in the United States. The District is one of the 500 public school districts of Pennsylvania. Serving most of the city of Allentown, it is the fourth largest school district in Pennsylvania, with 17,962 students, with 15.7% White, 17.4% Black, 64.4% Hispanic, 1.4% Asian, 0.17% Native American. The School District of the City of Allentown encompasses approximately 17 square miles (44 km2). According to 2010 federal census data, the Allentown School District serves a resident population of 118,032. Per the US Census Bureau data, it served a resident population of 106,630 in 2000. In 2009, the per capita income was $16,282, while the median family income was $37,356. In the Commonwealth, the median family income was $49,501  and the United States median family income was $49,445, in 2010. By 2013, the median household income in the United States rose to $52,100.Per school district officials, during the 2010 school year, the Allentown School District provided basic educational services to 17,962 pupils through the employment of 1,456 teachers, 1,084 full-time and part-time support personnel, and 110 administrators. In 2010, according to District officials, the District provided basic educational services to 17,465 pupils. The District employed: 1,433 teachers, 899 full-time and part-time support personnel, and 96 administrators. Allentown School District received $112.3 million in state funding in the 2009-10 school year. High school students may choose to attend Lehigh Career & Technical Institute for vocational training. The Carbon-Lehigh Intermediate Unit IU21 [1] provides the District with a wide variety of services like specialized education for disabled students and hearing, speech and visual disability services and professional development for staff and faculty.
p26
ssa(dp27
g7
(dp28
Vtype
p29
Vuri
p30
sVvalue
p31
Vhttp://dbpedia.org/ontology/abstract
p32
ssg8
(dp33
Vxml:lang
p34
Ven
p35
sVtype
p36
Vliteral
p37
sVvalue
p38
VThe Allentown School District is a large, urban public school district located in Lehigh County, Pennsylvania, in the United States. The District is one of the 500 public school districts of Pennsylvania. Serving most of the city of Allentown, it is the fourth largest school district in Pennsylvania, with 17,962 students, with 15.7% White, 17.4% Black, 64.4% Hispanic, 1.4% Asian, 0.17% Native American. The School District of the City of Allentown encompasses approximately 17 square miles (44 km2). According to 2010 federal census data, the Allentown School District serves a resident population of 118,032. Per the US Census Bureau data, it served a resident population of 106,630 in 2000. In 2009, the per capita income was $16,282, while the median family income was $37,356. In the Commonwealth, the median family income was $49,501  and the United States median family income was $49,445, in 2010. By 2013, the median household income in the United States rose to $52,100.Per school district officials, during the 2010 school year, the Allentown School District provided basic educational services to 17,962 pupils through the employment of 1,456 teachers, 1,084 full-time and part-time support personnel, and 110 administrators. In 2010, according to District officials, the District provided basic educational services to 17,465 pupils. The District employed: 1,433 teachers, 899 full-time and part-time support personnel, and 96 administrators. Allentown School District received $112.3 million in state funding in the 2009-10 school year.High school students may choose to attend Lehigh Career & Technical Institute for vocational training. The Carbon-Lehigh Intermediate Unit IU21 [1] provides the District with a wide variety of services like specialized education for disabled students and hearing, speech and visual disability services and professional development for staff and faculty.
p39
ssa(dp40
g7
(dp41
Vtype
p42
Vuri
p43
sVvalue
p44
Vhttp://dbpedia.org/ontology/address
p45
ssg8
(dp46
Vxml:lang
p47
Ven
p48
sVtype
p49
Vliteral
p50
sVvalue
p51
V31 South Penn Street
p52
ssa(dp53
g7
(dp54
Vtype
p55
Vuri
p56
sVvalue
p57
Vhttp://dbpedia.org/ontology/budget
p58
ssg8
(dp59
Vdatatype
p60
Vhttp://dbpedia.org/datatype/usDollar
p61
sVtype
p62
Vtyped-literal
p63
sVvalue
p64
V2.574E8
p65
ssa(dp66
g7
(dp67
Vtype
p68
Vuri
p69
sVvalue
p70
Vhttp://dbpedia.org/ontology/budget
p71
ssg8
(dp72
Vdatatype
p73
Vhttp://dbpedia.org/datatype/usDollar
p74
sVtype
p75
Vtyped-literal
p76
sVvalue
p77
V2.00418768E8
p78
ssa(dp79
g7
(dp80
Vtype
p81
Vuri
p82
sVvalue
p83
Vhttp://dbpedia.org/ontology/budget
p84
ssg8
(dp85
Vdatatype
p86
Vhttp://dbpedia.org/datatype/usDollar
p87
sVtype
p88
Vtyped-literal
p89
sVvalue
p90
V2.1275289E8
p91
ssa(dp92
g7
(dp93
Vtype
p94
Vuri
p95
sVvalue
p96
Vhttp://dbpedia.org/ontology/budget
p97
ssg8
(dp98
Vdatatype
p99
Vhttp://dbpedia.org/datatype/usDollar
p100
sVtype
p101
Vtyped-literal
p102
sVvalue
p103
V2.28509123E8
p104
ssa(dp105
g7
(dp106
Vtype
p107
Vuri
p108
sVvalue
p109
Vhttp://dbpedia.org/ontology/budget
p110
ssg8
(dp111
Vdatatype
p112
Vhttp://dbpedia.org/datatype/usDollar
p113
sVtype
p114
Vtyped-literal
p115
sVvalue
p116
V2.31023962E8
p117
ssa(dp118
g7
(dp119
Vtype
p120
Vuri
p121
sVvalue
p122
Vhttp://dbpedia.org/ontology/budget
p123
ssg8
(dp124
Vdatatype
p125
Vhttp://dbpedia.org/datatype/usDollar
p126
sVtype
p127
Vtyped-literal
p128
sVvalue
p129
V2.345E8
p130
ssa(dp131
g7
(dp132
Vtype
p133
Vuri
p134
sVvalue
p135
Vhttp://dbpedia.org/ontology/budget
p136
ssg8
(dp137
Vdatatype
p138
Vhttp://dbpedia.org/datatype/usDollar
p139
sVtype
p140
Vtyped-literal
p141
sVvalue
p142
V2.46068643E8
p143
ssa(dp144
g7
(dp145
Vtype
p146
Vuri
p147
sVvalue
p148
Vhttp://dbpedia.org/ontology/facultySize
p149
ssg8
(dp150
Vdatatype
p151
Vhttp://www.w3.org/2001/XMLSchema#nonNegativeInteger
p152
sVtype
p153
Vtyped-literal
p154
sVvalue
p155
V1061
p156
ssa(dp157
g7
(dp158
Vtype
p159
Vuri
p160
sVvalue
p161
Vhttp://dbpedia.org/ontology/numberOfStudents
p162
ssg8
(dp163
Vdatatype
p164
Vhttp://www.w3.org/2001/XMLSchema#nonNegativeInteger
p165
sVtype
p166
Vtyped-literal
p167
sVvalue
p168
V16966
p169
ssa(dp170
g7
(dp171
Vtype
p172
Vuri
p173
sVvalue
p174
Vhttp://dbpedia.org/ontology/numberOfStudents
p175
ssg8
(dp176
Vdatatype
p177
Vhttp://www.w3.org/2001/XMLSchema#nonNegativeInteger
p178
sVtype
p179
Vtyped-literal
p180
sVvalue
p181
V17521
p182
ssa(dp183
g7
(dp184
Vtype
p185
Vuri
p186
sVvalue
p187
Vhttp://dbpedia.org/ontology/numberOfStudents
p188
ssg8
(dp189
Vdatatype
p190
Vhttp://www.w3.org/2001/XMLSchema#nonNegativeInteger
p191
sVtype
p192
Vtyped-literal
p193
sVvalue
p194
V17560
p195
ssa(dp196
g7
(dp197
Vtype
p198
Vuri
p199
sVvalue
p200
Vhttp://dbpedia.org/ontology/numberOfStudents
p201
ssg8
(dp202
Vdatatype
p203
Vhttp://www.w3.org/2001/XMLSchema#nonNegativeInteger
p204
sVtype
p205
Vtyped-literal
p206
sVvalue
p207
V17962
p208
ssa(dp209
g7
(dp210
Vtype
p211
Vuri
p212
sVvalue
p213
Vhttp://dbpedia.org/ontology/numberOfStudents
p214
ssg8
(dp215
Vdatatype
p216
Vhttp://www.w3.org/2001/XMLSchema#nonNegativeInteger
p217
sVtype
p218
Vtyped-literal
p219
sVvalue
p220
V18504
p221
ssa(dp222
g7
(dp223
Vtype
p224
Vuri
p225
sVvalue
p226
Vhttp://dbpedia.org/ontology/postalCode
p227
ssg8
(dp228
Vtype
p229
Vliteral
p230
sVvalue
p231
V18105
p232
ssa(dp233
g7
(dp234
Vtype
p235
Vuri
p236
sVvalue
p237
Vhttp://dbpedia.org/ontology/staff
p238
ssg8
(dp239
Vdatatype
p240
Vhttp://www.w3.org/2001/XMLSchema#nonNegativeInteger
p241
sVtype
p242
Vtyped-literal
p243
sVvalue
p244
V1212
p245
ssa(dp246
g7
(dp247
Vtype
p248
Vuri
p249
sVvalue
p250
Vhttp://dbpedia.org/ontology/wikiPageExtracted
p251
ssg8
(dp252
Vdatatype
p253
Vhttp://www.w3.org/2001/XMLSchema#dateTime
p254
sVtype
p255
Vtyped-literal
p256
sVvalue
p257
V2016-10-27T09:22:01Z
p258
ssa(dp259
g7
(dp260
Vtype
p261
Vuri
p262
sVvalue
p263
Vhttp://dbpedia.org/ontology/wikiPageLength
p264
ssg8
(dp265
Vdatatype
p266
Vhttp://www.w3.org/2001/XMLSchema#nonNegativeInteger
p267
sVtype
p268
Vtyped-literal
p269
sVvalue
p270
V127815
p271
ssa(dp272
g7
(dp273
Vtype
p274
Vuri
p275
sVvalue
p276
Vhttp://dbpedia.org/ontology/wikiPageModified
p277
ssg8
(dp278
Vdatatype
p279
Vhttp://www.w3.org/2001/XMLSchema#dateTime
p280
sVtype
p281
Vtyped-literal
p282
sVvalue
p283
V2016-10-10T01:34:02Z
p284
ssa(dp285
g7
(dp286
Vtype
p287
Vuri
p288
sVvalue
p289
Vhttp://dbpedia.org/ontology/wikiPageOutDegree
p290
ssg8
(dp291
Vdatatype
p292
Vhttp://www.w3.org/2001/XMLSchema#nonNegativeInteger
p293
sVtype
p294
Vtyped-literal
p295
sVvalue
p296
V88
p297
ssa(dp298
g7
(dp299
Vtype
p300
Vuri
p301
sVvalue
p302
Vhttp://dbpedia.org/ontology/lowerAge
p303
ssg8
(dp304
Vdatatype
p305
Vhttp://www.w3.org/2001/XMLSchema#nonNegativeInteger
p306
sVtype
p307
Vtyped-literal
p308
sVvalue
p309
V3
p310
ssa(dp311
g7
(dp312
Vtype
p313
Vuri
p314
sVvalue
p315
Vhttp://dbpedia.org/ontology/upperAge
p316
ssg8
(dp317
Vdatatype
p318
Vhttp://www.w3.org/2001/XMLSchema#nonNegativeInteger
p319
sVtype
p320
Vtyped-literal
p321
sVvalue
p322
V21
p323
ssa(dp324
g7
(dp325
Vtype
p326
Vuri
p327
sVvalue
p328
Vhttp://dbpedia.org/ontology/schoolNumber
p329
ssg8
(dp330
Vtype
p331
Vliteral
p332
sVvalue
p333
V484-765-4000
p334
ssasVordered
p335
I01
ss.