(dp0
Vhead
p1
(dp2
Vlink
p3
(lp4
sVvars
p5
(lp6
Vp
p7
aVo
p8
assVresults
p9
(dp10
Vdistinct
p11
I00
sVbindings
p12
(lp13
(dp14
g7
(dp15
Vtype
p16
Vuri
p17
sVvalue
p18
Vhttp://dbpedia.org/ontology/abstract
p19
ssg8
(dp20
Vxml:lang
p21
Ven
p22
sVtype
p23
Vliteral
p24
sVvalue
p25
VRoy Herrick (22 July 1936 \u2013 11 October 1988) was a British actor.His television credits include: Danger Man, Public Eye, Callan, The Regiment, Colditz, Survivors, Doctor Who (in the serials The Reign of Terror, The Face of Evil and The Invisible Enemy), Pardon My Genie, George and Mildred, Tenko, The Fourth Arm, Mr. Palfrey of Westminster and Howards' Way.Roy also played the barman in two episodes of You're Only Young Twice - 'The Missing Ring' and 'The Home Perm'.
p26
ssa(dp27
g7
(dp28
Vtype
p29
Vuri
p30
sVvalue
p31
Vhttp://dbpedia.org/ontology/birthDate
p32
ssg8
(dp33
Vdatatype
p34
Vhttp://www.w3.org/2001/XMLSchema#date
p35
sVtype
p36
Vtyped-literal
p37
sVvalue
p38
V1936-07-22
p39
ssa(dp40
g7
(dp41
Vtype
p42
Vuri
p43
sVvalue
p44
Vhttp://dbpedia.org/ontology/birthName
p45
ssg8
(dp46
Vxml:lang
p47
Ven
p48
sVtype
p49
Vliteral
p50
sVvalue
p51
VRoyston Herring
p52
ssa(dp53
g7
(dp54
Vtype
p55
Vuri
p56
sVvalue
p57
Vhttp://dbpedia.org/ontology/birthYear
p58
ssg8
(dp59
Vdatatype
p60
Vhttp://www.w3.org/2001/XMLSchema#gYear
p61
sVtype
p62
Vtyped-literal
p63
sVvalue
p64
V1936
p65
ssa(dp66
g7
(dp67
Vtype
p68
Vuri
p69
sVvalue
p70
Vhttp://dbpedia.org/ontology/deathDate
p71
ssg8
(dp72
Vdatatype
p73
Vhttp://www.w3.org/2001/XMLSchema#date
p74
sVtype
p75
Vtyped-literal
p76
sVvalue
p77
V1988-10-11
p78
ssa(dp79
g7
(dp80
Vtype
p81
Vuri
p82
sVvalue
p83
Vhttp://dbpedia.org/ontology/deathYear
p84
ssg8
(dp85
Vdatatype
p86
Vhttp://www.w3.org/2001/XMLSchema#gYear
p87
sVtype
p88
Vtyped-literal
p89
sVvalue
p90
V1988
p91
ssa(dp92
g7
(dp93
Vtype
p94
Vuri
p95
sVvalue
p96
Vhttp://dbpedia.org/ontology/imdbId
p97
ssg8
(dp98
Vtype
p99
Vliteral
p100
sVvalue
p101
V0380619
p102
ssa(dp103
g7
(dp104
Vtype
p105
Vuri
p106
sVvalue
p107
Vhttp://dbpedia.org/ontology/wikiPageExtracted
p108
ssg8
(dp109
Vdatatype
p110
Vhttp://www.w3.org/2001/XMLSchema#dateTime
p111
sVtype
p112
Vtyped-literal
p113
sVvalue
p114
V2016-11-05T09:06:32Z
p115
ssa(dp116
g7
(dp117
Vtype
p118
Vuri
p119
sVvalue
p120
Vhttp://dbpedia.org/ontology/wikiPageLength
p121
ssg8
(dp122
Vdatatype
p123
Vhttp://www.w3.org/2001/XMLSchema#nonNegativeInteger
p124
sVtype
p125
Vtyped-literal
p126
sVvalue
p127
V1658
p128
ssa(dp129
g7
(dp130
Vtype
p131
Vuri
p132
sVvalue
p133
Vhttp://dbpedia.org/ontology/wikiPageModified
p134
ssg8
(dp135
Vdatatype
p136
Vhttp://www.w3.org/2001/XMLSchema#dateTime
p137
sVtype
p138
Vtyped-literal
p139
sVvalue
p140
V2016-02-28T20:04:16Z
p141
ssa(dp142
g7
(dp143
Vtype
p144
Vuri
p145
sVvalue
p146
Vhttp://dbpedia.org/ontology/wikiPageOutDegree
p147
ssg8
(dp148
Vdatatype
p149
Vhttp://www.w3.org/2001/XMLSchema#nonNegativeInteger
p150
sVtype
p151
Vtyped-literal
p152
sVvalue
p153
V27
p154
ssasVordered
p155
I01
ss.