(dp0
Vhead
p1
(dp2
Vlink
p3
(lp4
sVvars
p5
(lp6
Vp
p7
aVo
p8
assVresults
p9
(dp10
Vdistinct
p11
I00
sVbindings
p12
(lp13
(dp14
g7
(dp15
Vtype
p16
Vuri
p17
sVvalue
p18
Vhttp://dbpedia.org/ontology/abstract
p19
ssg8
(dp20
Vxml:lang
p21
Ven
p22
sVtype
p23
Vliteral
p24
sVvalue
p25
VThis page outlines the history and evolution of Victorian Railways bogie passenger carriages, constructed with steel underframes and timber bodies up to 59 ft 90 in (20.2692 m) long, along with a handful of other carriages from the era.A total of 640 wooden-body, bogie locomotive-hauled carriages were constructed, mostly to variants of the basic design between 1874 and 1903. All carriages were designed to fit within the Victorian Railways' loading gauge, and to run on rails spaced 5 ft 3 in (1.60 m) apart. All were fitted with buffers, or later buffing plates, and all couplings were of the screw type.Then on 5 March 1903, a Canadian, Thomas Tait, was brought to Australia as the new Chairman of Commissioners for the Victorian Railways. He immediately set out to introduce a new type of carriage inspired by the latest trends overseas; these would later be known as the E type carriages, with the first introduced to service in late 1906.
p26
ssa(dp27
g7
(dp28
Vtype
p29
Vuri
p30
sVvalue
p31
Vhttp://dbpedia.org/ontology/capacity
p32
ssg8
(dp33
Vdatatype
p34
Vhttp://www.w3.org/2001/XMLSchema#nonNegativeInteger
p35
sVtype
p36
Vtyped-literal
p37
sVvalue
p38
V15
p39
ssa(dp40
g7
(dp41
Vtype
p42
Vuri
p43
sVvalue
p44
Vhttp://dbpedia.org/ontology/capacity
p45
ssg8
(dp46
Vdatatype
p47
Vhttp://www.w3.org/2001/XMLSchema#nonNegativeInteger
p48
sVtype
p49
Vtyped-literal
p50
sVvalue
p51
V16
p52
ssa(dp53
g7
(dp54
Vtype
p55
Vuri
p56
sVvalue
p57
Vhttp://dbpedia.org/ontology/capacity
p58
ssg8
(dp59
Vdatatype
p60
Vhttp://www.w3.org/2001/XMLSchema#nonNegativeInteger
p61
sVtype
p62
Vtyped-literal
p63
sVvalue
p64
V20
p65
ssa(dp66
g7
(dp67
Vtype
p68
Vuri
p69
sVvalue
p70
Vhttp://dbpedia.org/ontology/capacity
p71
ssg8
(dp72
Vdatatype
p73
Vhttp://www.w3.org/2001/XMLSchema#nonNegativeInteger
p74
sVtype
p75
Vtyped-literal
p76
sVvalue
p77
V52
p78
ssa(dp79
g7
(dp80
Vtype
p81
Vuri
p82
sVvalue
p83
Vhttp://dbpedia.org/ontology/capacity
p84
ssg8
(dp85
Vdatatype
p86
Vhttp://www.w3.org/2001/XMLSchema#nonNegativeInteger
p87
sVtype
p88
Vtyped-literal
p89
sVvalue
p90
V321
p91
ssa(dp92
g7
(dp93
Vtype
p94
Vuri
p95
sVvalue
p96
Vhttp://dbpedia.org/ontology/numberBuilt
p97
ssg8
(dp98
Vdatatype
p99
Vhttp://www.w3.org/2001/XMLSchema#nonNegativeInteger
p100
sVtype
p101
Vtyped-literal
p102
sVvalue
p103
V2
p104
ssa(dp105
g7
(dp106
Vtype
p107
Vuri
p108
sVvalue
p109
Vhttp://dbpedia.org/ontology/weight
p110
ssg8
(dp111
Vdatatype
p112
Vhttp://www.w3.org/2001/XMLSchema#double
p113
sVtype
p114
Vtyped-literal
p115
sVvalue
p116
V1.3e+07
p117
ssa(dp118
g7
(dp119
Vtype
p120
Vuri
p121
sVvalue
p122
Vhttp://dbpedia.org/ontology/weight
p123
ssg8
(dp124
Vdatatype
p125
Vhttp://www.w3.org/2001/XMLSchema#double
p126
sVtype
p127
Vtyped-literal
p128
sVvalue
p129
V1.6e+07
p130
ssa(dp131
g7
(dp132
Vtype
p133
Vuri
p134
sVvalue
p135
Vhttp://dbpedia.org/ontology/weight
p136
ssg8
(dp137
Vdatatype
p138
Vhttp://www.w3.org/2001/XMLSchema#double
p139
sVtype
p140
Vtyped-literal
p141
sVvalue
p142
V1.8e+07
p143
ssa(dp144
g7
(dp145
Vtype
p146
Vuri
p147
sVvalue
p148
Vhttp://dbpedia.org/ontology/weight
p149
ssg8
(dp150
Vdatatype
p151
Vhttp://www.w3.org/2001/XMLSchema#double
p152
sVtype
p153
Vtyped-literal
p154
sVvalue
p155
V3.5e+07
p156
ssa(dp157
g7
(dp158
Vtype
p159
Vuri
p160
sVvalue
p161
Vhttp://dbpedia.org/ontology/wikiPageExtracted
p162
ssg8
(dp163
Vdatatype
p164
Vhttp://www.w3.org/2001/XMLSchema#dateTime
p165
sVtype
p166
Vtyped-literal
p167
sVvalue
p168
V2016-08-25T00:07:21Z
p169
ssa(dp170
g7
(dp171
Vtype
p172
Vuri
p173
sVvalue
p174
Vhttp://dbpedia.org/ontology/wikiPageLength
p175
ssg8
(dp176
Vdatatype
p177
Vhttp://www.w3.org/2001/XMLSchema#nonNegativeInteger
p178
sVtype
p179
Vtyped-literal
p180
sVvalue
p181
V43532
p182
ssa(dp183
g7
(dp184
Vtype
p185
Vuri
p186
sVvalue
p187
Vhttp://dbpedia.org/ontology/wikiPageModified
p188
ssg8
(dp189
Vdatatype
p190
Vhttp://www.w3.org/2001/XMLSchema#dateTime
p191
sVtype
p192
Vtyped-literal
p193
sVvalue
p194
V2016-04-04T12:41:21Z
p195
ssa(dp196
g7
(dp197
Vtype
p198
Vuri
p199
sVvalue
p200
Vhttp://dbpedia.org/ontology/wikiPageOutDegree
p201
ssg8
(dp202
Vdatatype
p203
Vhttp://www.w3.org/2001/XMLSchema#nonNegativeInteger
p204
sVtype
p205
Vtyped-literal
p206
sVvalue
p207
V40
p208
ssa(dp209
g7
(dp210
Vtype
p211
Vuri
p212
sVvalue
p213
Vhttp://dbpedia.org/ontology/yearOfConstruction
p214
ssg8
(dp215
Vdatatype
p216
Vhttp://www.w3.org/2001/XMLSchema#gYear
p217
sVtype
p218
Vtyped-literal
p219
sVvalue
p220
V0018
p221
ssa(dp222
g7
(dp223
Vtype
p224
Vuri
p225
sVvalue
p226
Vhttp://dbpedia.org/ontology/yearOfConstruction
p227
ssg8
(dp228
Vdatatype
p229
Vhttp://www.w3.org/2001/XMLSchema#gYear
p230
sVtype
p231
Vtyped-literal
p232
sVvalue
p233
V1874
p234
ssa(dp235
g7
(dp236
Vtype
p237
Vuri
p238
sVvalue
p239
Vhttp://dbpedia.org/ontology/yearOfConstruction
p240
ssg8
(dp241
Vdatatype
p242
Vhttp://www.w3.org/2001/XMLSchema#gYear
p243
sVtype
p244
Vtyped-literal
p245
sVvalue
p246
V1886
p247
ssa(dp248
g7
(dp249
Vtype
p250
Vuri
p251
sVvalue
p252
Vhttp://dbpedia.org/ontology/yearOfConstruction
p253
ssg8
(dp254
Vdatatype
p255
Vhttp://www.w3.org/2001/XMLSchema#gYear
p256
sVtype
p257
Vtyped-literal
p258
sVvalue
p259
V1887
p260
ssa(dp261
g7
(dp262
Vtype
p263
Vuri
p264
sVvalue
p265
Vhttp://dbpedia.org/ontology/yearOfConstruction
p266
ssg8
(dp267
Vdatatype
p268
Vhttp://www.w3.org/2001/XMLSchema#gYear
p269
sVtype
p270
Vtyped-literal
p271
sVvalue
p272
V1897
p273
ssa(dp274
g7
(dp275
Vtype
p276
Vuri
p277
sVvalue
p278
Vhttp://dbpedia.org/ontology/yearOfConstruction
p279
ssg8
(dp280
Vdatatype
p281
Vhttp://www.w3.org/2001/XMLSchema#gYear
p282
sVtype
p283
Vtyped-literal
p284
sVvalue
p285
V1898
p286
ssa(dp287
g7
(dp288
Vtype
p289
Vuri
p290
sVvalue
p291
Vhttp://dbpedia.org/ontology/MeanOfTransportation/weight
p292
ssg8
(dp293
Vdatatype
p294
Vhttp://dbpedia.org/datatype/kilogram
p295
sVtype
p296
Vtyped-literal
p297
sVvalue
p298
V35000.0
p299
ssa(dp300
g7
(dp301
Vtype
p302
Vuri
p303
sVvalue
p304
Vhttp://dbpedia.org/ontology/MeanOfTransportation/weight
p305
ssg8
(dp306
Vdatatype
p307
Vhttp://dbpedia.org/datatype/kilogram
p308
sVtype
p309
Vtyped-literal
p310
sVvalue
p311
V16000.0
p312
ssa(dp313
g7
(dp314
Vtype
p315
Vuri
p316
sVvalue
p317
Vhttp://dbpedia.org/ontology/MeanOfTransportation/weight
p318
ssg8
(dp319
Vdatatype
p320
Vhttp://dbpedia.org/datatype/kilogram
p321
sVtype
p322
Vtyped-literal
p323
sVvalue
p324
V13000.0
p325
ssa(dp326
g7
(dp327
Vtype
p328
Vuri
p329
sVvalue
p330
Vhttp://dbpedia.org/ontology/MeanOfTransportation/weight
p331
ssg8
(dp332
Vdatatype
p333
Vhttp://dbpedia.org/datatype/kilogram
p334
sVtype
p335
Vtyped-literal
p336
sVvalue
p337
V18000.0
p338
ssasVordered
p339
I01
ss.