(dp0
Vhead
p1
(dp2
Vlink
p3
(lp4
sVvars
p5
(lp6
Vp
p7
aVo
p8
assVresults
p9
(dp10
Vdistinct
p11
I00
sVbindings
p12
(lp13
(dp14
g7
(dp15
Vtype
p16
Vuri
p17
sVvalue
p18
Vhttp://dbpedia.org/ontology/abstract
p19
ssg8
(dp20
Vxml:lang
p21
Ven
p22
sVtype
p23
Vliteral
p24
sVvalue
p25
VWarrior Run School District is a small, rural, public school district that covers 113 square miles (290 km2). It spans townships in three different counties: Gregg Township in Union County, Delaware Township and Lewis Township in Northumberland County, and Anthony Township and Limestone Township in Montour County in central Pennsylvania, USA. It also serves the residents of the boroughs of Turbotville, McEwensville and Watsontown. In 2010, the US Census Bureau reported the District's population increased to 17,278 people. According to 2000 federal census data, Warrior Run School District served a resident population of 16,542. The educational attainment levels for the Warrior Run School District population (25 years old and over) were 81.8% high school graduates and 11.2% college graduates.According to the Pennsylvania Budget and Policy Center, 48.6% of the District\u2019s pupils lived at 185% or below the Federal Poverty level as shown by their eligibility for the federal free or reduced price school meal programs in 2012. In 2009, the residents' per capita income was $15,727, while the median family income was $43,010. In Northumberland County, the median household income was $38,387. In the Commonwealth, the median family income was $49,501 and the United States median family income was $49,445, in 2010. By 2013, the median household income in the United States rose to $52,100.For the 2011-12 school year, the District had 1,664 pupils. It employed 140 teachers, over 100 full-time and part-time support personnel, and thirteen (13) administrators. The District received $9,282,738 in state funding in the 2011-12 school year. According to District officials, in school year 2009-2010, Warrior Run School District provided basic educational services to 1,672 pupils. The District employed: 141 teachers, 102 full-time and part-time support personnel, and 13 administrators. WRSD received more than $8.7 million in state funding in school year 2009-2010. Per district officials, in school year 2005\u201306, the Warrior Run School District provided basic educational services to 1,802 pupils through the employment of 144 teachers, 111 full-time and part-time support personnel, and 14 administrators.Warrior Run School District operates: Turbotville Elementary School, Watsontown Elementary School, Warrior Run Middle School, and Warrior Run High School. The school district was formed from the combination of the former Turbotville-Lewis Township School District and Watsontown School District. High school students may choose to attend Lycoming Career and Technology Center for training in the building trades. The Central Susquehanna Intermediate Unit IU16 provides the District with a wide variety of services like specialized education for disabled students and hearing, speech and visual disability services and professional development for staff and faculty.
p26
ssa(dp27
g7
(dp28
Vtype
p29
Vuri
p30
sVvalue
p31
Vhttp://dbpedia.org/ontology/address
p32
ssg8
(dp33
Vxml:lang
p34
Ven
p35
sVtype
p36
Vliteral
p37
sVvalue
p38
V4800 Susquehanna Trail
p39
ssa(dp40
g7
(dp41
Vtype
p42
Vuri
p43
sVvalue
p44
Vhttp://dbpedia.org/ontology/budget
p45
ssg8
(dp46
Vdatatype
p47
Vhttp://dbpedia.org/datatype/usDollar
p48
sVtype
p49
Vtyped-literal
p50
sVvalue
p51
V2.0E7
p52
ssa(dp53
g7
(dp54
Vtype
p55
Vuri
p56
sVvalue
p57
Vhttp://dbpedia.org/ontology/budget
p58
ssg8
(dp59
Vdatatype
p60
Vhttp://dbpedia.org/datatype/usDollar
p61
sVtype
p62
Vtyped-literal
p63
sVvalue
p64
V2.05E7
p65
ssa(dp66
g7
(dp67
Vtype
p68
Vuri
p69
sVvalue
p70
Vhttp://dbpedia.org/ontology/budget
p71
ssg8
(dp72
Vdatatype
p73
Vhttp://dbpedia.org/datatype/usDollar
p74
sVtype
p75
Vtyped-literal
p76
sVvalue
p77
V2.16E7
p78
ssa(dp79
g7
(dp80
Vtype
p81
Vuri
p82
sVvalue
p83
Vhttp://dbpedia.org/ontology/budget
p84
ssg8
(dp85
Vdatatype
p86
Vhttp://dbpedia.org/datatype/usDollar
p87
sVtype
p88
Vtyped-literal
p89
sVvalue
p90
V1.9781469E7
p91
ssa(dp92
g7
(dp93
Vtype
p94
Vuri
p95
sVvalue
p96
Vhttp://dbpedia.org/ontology/facultySize
p97
ssg8
(dp98
Vdatatype
p99
Vhttp://www.w3.org/2001/XMLSchema#nonNegativeInteger
p100
sVtype
p101
Vtyped-literal
p102
sVvalue
p103
V130
p104
ssa(dp105
g7
(dp106
Vtype
p107
Vuri
p108
sVvalue
p109
Vhttp://dbpedia.org/ontology/facultySize
p110
ssg8
(dp111
Vdatatype
p112
Vhttp://www.w3.org/2001/XMLSchema#nonNegativeInteger
p113
sVtype
p114
Vtyped-literal
p115
sVvalue
p116
V135
p117
ssa(dp118
g7
(dp119
Vtype
p120
Vuri
p121
sVvalue
p122
Vhttp://dbpedia.org/ontology/mascot
p123
ssg8
(dp124
Vtype
p125
Vliteral
p126
sVvalue
p127
Veagle
p128
ssa(dp129
g7
(dp130
Vtype
p131
Vuri
p132
sVvalue
p133
Vhttp://dbpedia.org/ontology/numberOfStudents
p134
ssg8
(dp135
Vdatatype
p136
Vhttp://www.w3.org/2001/XMLSchema#nonNegativeInteger
p137
sVtype
p138
Vtyped-literal
p139
sVvalue
p140
V1549
p141
ssa(dp142
g7
(dp143
Vtype
p144
Vuri
p145
sVvalue
p146
Vhttp://dbpedia.org/ontology/numberOfStudents
p147
ssg8
(dp148
Vdatatype
p149
Vhttp://www.w3.org/2001/XMLSchema#nonNegativeInteger
p150
sVtype
p151
Vtyped-literal
p152
sVvalue
p153
V1573
p154
ssa(dp155
g7
(dp156
Vtype
p157
Vuri
p158
sVvalue
p159
Vhttp://dbpedia.org/ontology/numberOfStudents
p160
ssg8
(dp161
Vdatatype
p162
Vhttp://www.w3.org/2001/XMLSchema#nonNegativeInteger
p163
sVtype
p164
Vtyped-literal
p165
sVvalue
p166
V1600
p167
ssa(dp168
g7
(dp169
Vtype
p170
Vuri
p171
sVvalue
p172
Vhttp://dbpedia.org/ontology/numberOfStudents
p173
ssg8
(dp174
Vdatatype
p175
Vhttp://www.w3.org/2001/XMLSchema#nonNegativeInteger
p176
sVtype
p177
Vtyped-literal
p178
sVvalue
p179
V1653
p180
ssa(dp181
g7
(dp182
Vtype
p183
Vuri
p184
sVvalue
p185
Vhttp://dbpedia.org/ontology/numberOfStudents
p186
ssg8
(dp187
Vdatatype
p188
Vhttp://www.w3.org/2001/XMLSchema#nonNegativeInteger
p189
sVtype
p190
Vtyped-literal
p191
sVvalue
p192
V1780
p193
ssa(dp194
g7
(dp195
Vtype
p196
Vuri
p197
sVvalue
p198
Vhttp://dbpedia.org/ontology/postalCode
p199
ssg8
(dp200
Vtype
p201
Vliteral
p202
sVvalue
p203
V17772
p204
ssa(dp205
g7
(dp206
Vtype
p207
Vuri
p208
sVvalue
p209
Vhttp://dbpedia.org/ontology/staff
p210
ssg8
(dp211
Vdatatype
p212
Vhttp://www.w3.org/2001/XMLSchema#nonNegativeInteger
p213
sVtype
p214
Vtyped-literal
p215
sVvalue
p216
V133
p217
ssa(dp218
g7
(dp219
Vtype
p220
Vuri
p221
sVvalue
p222
Vhttp://dbpedia.org/ontology/wikiPageExtracted
p223
ssg8
(dp224
Vdatatype
p225
Vhttp://www.w3.org/2001/XMLSchema#dateTime
p226
sVtype
p227
Vtyped-literal
p228
sVvalue
p229
V2016-08-08T11:38:46Z
p230
ssa(dp231
g7
(dp232
Vtype
p233
Vuri
p234
sVvalue
p235
Vhttp://dbpedia.org/ontology/wikiPageLength
p236
ssg8
(dp237
Vdatatype
p238
Vhttp://www.w3.org/2001/XMLSchema#nonNegativeInteger
p239
sVtype
p240
Vtyped-literal
p241
sVvalue
p242
V165524
p243
ssa(dp244
g7
(dp245
Vtype
p246
Vuri
p247
sVvalue
p248
Vhttp://dbpedia.org/ontology/wikiPageModified
p249
ssg8
(dp250
Vdatatype
p251
Vhttp://www.w3.org/2001/XMLSchema#dateTime
p252
sVtype
p253
Vtyped-literal
p254
sVvalue
p255
V2016-08-08T11:38:45Z
p256
ssa(dp257
g7
(dp258
Vtype
p259
Vuri
p260
sVvalue
p261
Vhttp://dbpedia.org/ontology/wikiPageOutDegree
p262
ssg8
(dp263
Vdatatype
p264
Vhttp://www.w3.org/2001/XMLSchema#nonNegativeInteger
p265
sVtype
p266
Vtyped-literal
p267
sVvalue
p268
V117
p269
ssa(dp270
g7
(dp271
Vtype
p272
Vuri
p273
sVvalue
p274
Vhttp://dbpedia.org/ontology/lowerAge
p275
ssg8
(dp276
Vdatatype
p277
Vhttp://www.w3.org/2001/XMLSchema#nonNegativeInteger
p278
sVtype
p279
Vtyped-literal
p280
sVvalue
p281
V5
p282
ssa(dp283
g7
(dp284
Vtype
p285
Vuri
p286
sVvalue
p287
Vhttp://dbpedia.org/ontology/upperAge
p288
ssg8
(dp289
Vdatatype
p290
Vhttp://www.w3.org/2001/XMLSchema#nonNegativeInteger
p291
sVtype
p292
Vtyped-literal
p293
sVvalue
p294
V21
p295
ssa(dp296
g7
(dp297
Vtype
p298
Vuri
p299
sVvalue
p300
Vhttp://dbpedia.org/ontology/fees
p301
ssg8
(dp302
Vdatatype
p303
Vhttp://dbpedia.org/datatype/usDollar
p304
sVtype
p305
Vtyped-literal
p306
sVvalue
p307
V40.0
p308
ssasVordered
p309
I01
ss.