(dp0
Vhead
p1
(dp2
Vlink
p3
(lp4
sVvars
p5
(lp6
Vp
p7
aVo
p8
assVresults
p9
(dp10
Vdistinct
p11
I00
sVbindings
p12
(lp13
(dp14
g7
(dp15
Vtype
p16
Vuri
p17
sVvalue
p18
Vhttp://dbpedia.org/ontology/firstPublicationDate
p19
ssg8
(dp20
Vdatatype
p21
Vhttp://www.w3.org/2001/XMLSchema#date
p22
sVtype
p23
Vtyped-literal
p24
sVvalue
p25
V1973-10-01
p26
ssa(dp27
g7
(dp28
Vtype
p29
Vuri
p30
sVvalue
p31
Vhttp://dbpedia.org/ontology/firstPublicationDate
p32
ssg8
(dp33
Vdatatype
p34
Vhttp://www.w3.org/2001/XMLSchema#date
p35
sVtype
p36
Vtyped-literal
p37
sVvalue
p38
V1992-07-08
p39
ssa(dp40
g7
(dp41
Vtype
p42
Vuri
p43
sVvalue
p44
Vhttp://dbpedia.org/ontology/firstPublicationDate
p45
ssg8
(dp46
Vdatatype
p47
Vhttp://www.w3.org/2001/XMLSchema#date
p48
sVtype
p49
Vtyped-literal
p50
sVvalue
p51
V2001-08-21
p52
ssa(dp53
g7
(dp54
Vtype
p55
Vuri
p56
sVvalue
p57
Vhttp://dbpedia.org/ontology/firstPublicationDate
p58
ssg8
(dp59
Vdatatype
p60
Vhttp://www.w3.org/2001/XMLSchema#date
p61
sVtype
p62
Vtyped-literal
p63
sVvalue
p64
V2003-11-28
p65
ssa(dp66
g7
(dp67
Vtype
p68
Vuri
p69
sVvalue
p70
Vhttp://dbpedia.org/ontology/firstPublicationDate
p71
ssg8
(dp72
Vdatatype
p73
Vhttp://www.w3.org/2001/XMLSchema#date
p74
sVtype
p75
Vtyped-literal
p76
sVvalue
p77
V2004-06-22
p78
ssa(dp79
g7
(dp80
Vtype
p81
Vuri
p82
sVvalue
p83
Vhttp://dbpedia.org/ontology/lastPublicationDate
p84
ssg8
(dp85
Vdatatype
p86
Vhttp://www.w3.org/2001/XMLSchema#date
p87
sVtype
p88
Vtyped-literal
p89
sVvalue
p90
V1974-04-01
p91
ssa(dp92
g7
(dp93
Vtype
p94
Vuri
p95
sVvalue
p96
Vhttp://dbpedia.org/ontology/lastPublicationDate
p97
ssg8
(dp98
Vdatatype
p99
Vhttp://www.w3.org/2001/XMLSchema#date
p100
sVtype
p101
Vtyped-literal
p102
sVvalue
p103
V1993-04-07
p104
ssa(dp105
g7
(dp106
Vtype
p107
Vuri
p108
sVvalue
p109
Vhttp://dbpedia.org/ontology/lastPublicationDate
p110
ssg8
(dp111
Vdatatype
p112
Vhttp://www.w3.org/2001/XMLSchema#date
p113
sVtype
p114
Vtyped-literal
p115
sVvalue
p116
V2003-07-29
p117
ssa(dp118
g7
(dp119
Vtype
p120
Vuri
p121
sVvalue
p122
Vhttp://dbpedia.org/ontology/lastPublicationDate
p123
ssg8
(dp124
Vdatatype
p125
Vhttp://www.w3.org/2001/XMLSchema#date
p126
sVtype
p127
Vtyped-literal
p128
sVvalue
p129
V2005-07-01
p130
ssa(dp131
g7
(dp132
Vtype
p133
Vuri
p134
sVvalue
p135
Vhttp://dbpedia.org/ontology/lastPublicationDate
p136
ssg8
(dp137
Vdatatype
p138
Vhttp://www.w3.org/2001/XMLSchema#date
p139
sVtype
p140
Vtyped-literal
p141
sVvalue
p142
V2006-02-14
p143
ssa(dp144
g7
(dp145
Vtype
p146
Vuri
p147
sVvalue
p148
Vhttp://dbpedia.org/ontology/abstract
p149
ssg8
(dp150
Vxml:lang
p151
Ven
p152
sVtype
p153
Vliteral
p154
sVvalue
p155
VCutie Honey (Japanese: \u30ad\u30e5\u30fc\u30c6\u30a3\u30fc\u30cf\u30cb\u30fc, Hepburn: Ky\u016bt\u012b Han\u012b, also spelled Cutey Honey) is a Japanese manga series written and illustrated by Go Nagai. First appearing in Weekly Sh\u014dnen Champion's 41st issue of 1973, the series ran until April 1974. It follows an android girl named Honey Kisaragi, who transforms into the busty, red or pink-haired heroine Cutie Honey to fight against the assorted villains that threaten her or her world. One of the trademarks of the character is that the transformation involves the temporary loss of all her clothing in the brief interim from changing from one form to the other. According to Nagai, she is the first female to be the protagonist of a sh\u014dnen manga series.The Cutie Honey franchise spans many works, including numerous manga series, two TV anime series, two OVA series, two drama CDs, and two live action adaptations. The first anime aired in 1973 and is considered a magical girl series in retrospect.
p156
ssa(dp157
g7
(dp158
Vtype
p159
Vuri
p160
sVvalue
p161
Vhttp://dbpedia.org/ontology/wikiPageExtracted
p162
ssg8
(dp163
Vdatatype
p164
Vhttp://www.w3.org/2001/XMLSchema#dateTime
p165
sVtype
p166
Vtyped-literal
p167
sVvalue
p168
V2016-10-29T09:54:18Z
p169
ssa(dp170
g7
(dp171
Vtype
p172
Vuri
p173
sVvalue
p174
Vhttp://dbpedia.org/ontology/wikiPageLength
p175
ssg8
(dp176
Vdatatype
p177
Vhttp://www.w3.org/2001/XMLSchema#nonNegativeInteger
p178
sVtype
p179
Vtyped-literal
p180
sVvalue
p181
V37421
p182
ssa(dp183
g7
(dp184
Vtype
p185
Vuri
p186
sVvalue
p187
Vhttp://dbpedia.org/ontology/wikiPageModified
p188
ssg8
(dp189
Vdatatype
p190
Vhttp://www.w3.org/2001/XMLSchema#dateTime
p191
sVtype
p192
Vtyped-literal
p193
sVvalue
p194
V2016-10-17T09:14:03Z
p195
ssa(dp196
g7
(dp197
Vtype
p198
Vuri
p199
sVvalue
p200
Vhttp://dbpedia.org/ontology/wikiPageOutDegree
p201
ssg8
(dp202
Vdatatype
p203
Vhttp://www.w3.org/2001/XMLSchema#nonNegativeInteger
p204
sVtype
p205
Vtyped-literal
p206
sVvalue
p207
V170
p208
ssa(dp209
g7
(dp210
Vtype
p211
Vuri
p212
sVvalue
p213
Vhttp://dbpedia.org/ontology/numberOfVolumes
p214
ssg8
(dp215
Vdatatype
p216
Vhttp://www.w3.org/2001/XMLSchema#nonNegativeInteger
p217
sVtype
p218
Vtyped-literal
p219
sVvalue
p220
V1
p221
ssa(dp222
g7
(dp223
Vtype
p224
Vuri
p225
sVvalue
p226
Vhttp://dbpedia.org/ontology/numberOfVolumes
p227
ssg8
(dp228
Vdatatype
p229
Vhttp://www.w3.org/2001/XMLSchema#nonNegativeInteger
p230
sVtype
p231
Vtyped-literal
p232
sVvalue
p233
V2
p234
ssa(dp235
g7
(dp236
Vtype
p237
Vuri
p238
sVvalue
p239
Vhttp://dbpedia.org/ontology/numberOfVolumes
p240
ssg8
(dp241
Vdatatype
p242
Vhttp://www.w3.org/2001/XMLSchema#nonNegativeInteger
p243
sVtype
p244
Vtyped-literal
p245
sVvalue
p246
V4
p247
ssa(dp248
g7
(dp249
Vtype
p250
Vuri
p251
sVvalue
p252
Vhttp://dbpedia.org/ontology/numberOfVolumes
p253
ssg8
(dp254
Vdatatype
p255
Vhttp://www.w3.org/2001/XMLSchema#nonNegativeInteger
p256
sVtype
p257
Vtyped-literal
p258
sVvalue
p259
V9
p260
ssasVordered
p261
I01
ss.