(dp0
Vhead
p1
(dp2
Vlink
p3
(lp4
sVvars
p5
(lp6
Vp
p7
aVo
p8
assVresults
p9
(dp10
Vdistinct
p11
I00
sVbindings
p12
(lp13
(dp14
g7
(dp15
Vtype
p16
Vuri
p17
sVvalue
p18
Vhttp://dbpedia.org/ontology/PopulatedPlace/areaTotal
p19
ssg8
(dp20
Vdatatype
p21
Vhttp://dbpedia.org/datatype/squareKilometre
p22
sVtype
p23
Vtyped-literal
p24
sVvalue
p25
V581309.0
p26
ssa(dp27
g7
(dp28
Vtype
p29
Vuri
p30
sVvalue
p31
Vhttp://dbpedia.org/ontology/PopulatedPlace/areaTotal
p32
ssg8
(dp33
Vdatatype
p34
Vhttp://dbpedia.org/datatype/squareKilometre
p35
sVtype
p36
Vtyped-literal
p37
sVvalue
p38
V582643.7253011866
p39
ssa(dp40
g7
(dp41
Vtype
p42
Vuri
p43
sVvalue
p44
Vhttp://dbpedia.org/ontology/PopulatedPlace/populationDensity
p45
ssg8
(dp46
Vdatatype
p47
Vhttp://dbpedia.org/datatype/inhabitantsPerSquareKilometre
p48
sVtype
p49
Vtyped-literal
p50
sVvalue
p51
V78.0
p52
ssa(dp53
g7
(dp54
Vtype
p55
Vuri
p56
sVvalue
p57
Vhttp://dbpedia.org/ontology/PopulatedPlace/populationDensity
p58
ssg8
(dp59
Vdatatype
p60
Vhttp://dbpedia.org/datatype/inhabitantsPerSquareKilometre
p61
sVtype
p62
Vtyped-literal
p63
sVvalue
p64
V77.99263602557407
p65
ssa(dp66
g7
(dp67
Vtype
p68
Vuri
p69
sVvalue
p70
Vhttp://dbpedia.org/ontology/abstract
p71
ssg8
(dp72
Vxml:lang
p73
Ven
p74
sVtype
p75
Vliteral
p76
sVvalue
p77
VKenya (/\u02c8k\u025bnj\u0259/; locally [\u02c8k\u025b\u0272a]), officially the Republic of Kenya, is a country in Africa and a founding member of the East African Community (EAC). Its capital and largest city is Nairobi. Kenya's territory lies on the equator and overlies the East African Rift covering a diverse and expansive terrain that extends roughly from Lake Victoria to Lake Turkana (formerly called Lake Rudolf) and further south-east to the Indian Ocean. It is bordered by Tanzania to the south, Uganda to the west, South Sudan to the north-west, Ethiopia to the north and Somalia to the north-east. Kenya covers 581,309 km2 (224,445 sq mi), and had a population of approximately 45 million people in July 2014.Kenya has a warm and humid tropical climate on its Indian Ocean coastline. The climate is cooler in the savannah grasslands around the capital city, Nairobi, and especially closer to Mount Kenya, which has snow permanently on its peaks. Further inland, in the Nyanza region, there is a hot and dry climate which becomes humid around Lake Victoria, the largest tropical fresh-water lake in the world. This gives way to temperate and forested hilly areas in the neighbouring western region. The north-eastern regions along the border with Somalia and Ethiopia are arid and semi-arid areas with near-desert landscapes. Kenya is known for its safaris, diverse climate and geography, and expansive wildlife reserves and national parks such as the East and West Tsavo National Park, the Maasai Mara, Lake Nakuru National Park, and Aberdares National Park. Kenya has several world heritage sites such as Lamu and numerous beaches, including in Diani, Bamburi and Kilifi, where international yachting competitions are held every year.The African Great Lakes region, which Kenya is a part of, has been inhabited by humans since the Lower Paleolithic period. By the first millennium AD, the Bantu expansion had reached the area from West-Central Africa. The borders of the modern state consequently comprise the crossroads of the Niger-Congo, Nilo-Saharan and Afroasiatic areas of the continent, representing most major ethnolinguistic groups found in Africa. Bantu and Nilotic populations together constitute around 97% of the nation's residents. European and Arab presence in coastal Mombasa dates to the Early Modern period; European exploration of the interior began in the 19th century. The British Empire established the East Africa Protectorate in 1895, which starting in 1920 gave way to the Kenya Colony. Kenya obtained independence in December 1963. Following a referendum in August 2010 and adoption of a new constitution, Kenya is now divided into 47 semi-autonomous counties, governed by elected governors.The capital, Nairobi, is a regional commercial hub. The economy of Kenya is the largest by GDP in East and Central Africa. Agriculture is a major employer; the country traditionally exports tea and coffee and has more recently begun to export fresh flowers to Europe. The service industry is also a major economic driver. Additionally, Kenya is a member of the East African Community trading bloc.
p78
ssa(dp79
g7
(dp80
Vtype
p81
Vuri
p82
sVvalue
p83
Vhttp://dbpedia.org/ontology/areaTotal
p84
ssg8
(dp85
Vdatatype
p86
Vhttp://www.w3.org/2001/XMLSchema#double
p87
sVtype
p88
Vtyped-literal
p89
sVvalue
p90
V5.81309e+11
p91
ssa(dp92
g7
(dp93
Vtype
p94
Vuri
p95
sVvalue
p96
Vhttp://dbpedia.org/ontology/areaTotal
p97
ssg8
(dp98
Vdatatype
p99
Vhttp://www.w3.org/2001/XMLSchema#double
p100
sVtype
p101
Vtyped-literal
p102
sVvalue
p103
V5.82644e+11
p104
ssa(dp105
g7
(dp106
Vtype
p107
Vuri
p108
sVvalue
p109
Vhttp://dbpedia.org/ontology/demonym
p110
ssg8
(dp111
Vxml:lang
p112
Ven
p113
sVtype
p114
Vliteral
p115
sVvalue
p116
VKenyan
p117
ssa(dp118
g7
(dp119
Vtype
p120
Vuri
p121
sVvalue
p122
Vhttp://dbpedia.org/ontology/ethnicGroupsInYear
p123
ssg8
(dp124
Vdatatype
p125
Vhttp://www.w3.org/2001/XMLSchema#gYear
p126
sVtype
p127
Vtyped-literal
p128
sVvalue
p129
V2016
p130
ssa(dp131
g7
(dp132
Vtype
p133
Vuri
p134
sVvalue
p135
Vhttp://dbpedia.org/ontology/flag
p136
ssg8
(dp137
Vtype
p138
Vliteral
p139
sVvalue
p140
VFlag of Kenya.svg
p141
ssa(dp142
g7
(dp143
Vtype
p144
Vuri
p145
sVvalue
p146
Vhttp://dbpedia.org/ontology/foundingDate
p147
ssg8
(dp148
Vdatatype
p149
Vhttp://www.w3.org/2001/XMLSchema#date
p150
sVtype
p151
Vtyped-literal
p152
sVvalue
p153
V1963-12-12
p154
ssa(dp155
g7
(dp156
Vtype
p157
Vuri
p158
sVvalue
p159
Vhttp://dbpedia.org/ontology/foundingDate
p160
ssg8
(dp161
Vdatatype
p162
Vhttp://www.w3.org/2001/XMLSchema#date
p163
sVtype
p164
Vtyped-literal
p165
sVvalue
p166
V1964-12-12
p167
ssa(dp168
g7
(dp169
Vtype
p170
Vuri
p171
sVvalue
p172
Vhttp://dbpedia.org/ontology/leaderTitle
p173
ssg8
(dp174
Vxml:lang
p175
Ven
p176
sVtype
p177
Vliteral
p178
sVvalue
p179
VDeputy President
p180
ssa(dp181
g7
(dp182
Vtype
p183
Vuri
p184
sVvalue
p185
Vhttp://dbpedia.org/ontology/leaderTitle
p186
ssg8
(dp187
Vxml:lang
p188
Ven
p189
sVtype
p190
Vliteral
p191
sVvalue
p192
VPresident
p193
ssa(dp194
g7
(dp195
Vtype
p196
Vuri
p197
sVvalue
p198
Vhttp://dbpedia.org/ontology/leaderTitle
p199
ssg8
(dp200
Vxml:lang
p201
Ven
p202
sVtype
p203
Vliteral
p204
sVvalue
p205
VSpeaker of the National Assembly
p206
ssa(dp207
g7
(dp208
Vtype
p209
Vuri
p210
sVvalue
p211
Vhttp://dbpedia.org/ontology/leaderTitle
p212
ssg8
(dp213
Vxml:lang
p214
Ven
p215
sVtype
p216
Vliteral
p217
sVvalue
p218
VAttorney General
p219
ssa(dp220
g7
(dp221
Vtype
p222
Vuri
p223
sVvalue
p224
Vhttp://dbpedia.org/ontology/leaderTitle
p225
ssg8
(dp226
Vxml:lang
p227
Ven
p228
sVtype
p229
Vliteral
p230
sVvalue
p231
VSpeaker of the Senate
p232
ssa(dp233
g7
(dp234
Vtype
p235
Vuri
p236
sVvalue
p237
Vhttp://dbpedia.org/ontology/longName
p238
ssg8
(dp239
Vxml:lang
p240
Ven
p241
sVtype
p242
Vliteral
p243
sVvalue
p244
VRepublic of Kenya
p245
ssa(dp246
g7
(dp247
Vtype
p248
Vuri
p249
sVvalue
p250
Vhttp://dbpedia.org/ontology/motto
p251
ssg8
(dp252
Vtype
p253
Vliteral
p254
sVvalue
p255
V"Harambee" (Kiswahili)
p256
ssa(dp257
g7
(dp258
Vtype
p259
Vuri
p260
sVvalue
p261
Vhttp://dbpedia.org/ontology/percentageOfAreaWater
p262
ssg8
(dp263
Vdatatype
p264
Vhttp://www.w3.org/2001/XMLSchema#float
p265
sVtype
p266
Vtyped-literal
p267
sVvalue
p268
V2.3
p269
ssa(dp270
g7
(dp271
Vtype
p272
Vuri
p273
sVvalue
p274
Vhttp://dbpedia.org/ontology/populationDensity
p275
ssg8
(dp276
Vdatatype
p277
Vhttp://www.w3.org/2001/XMLSchema#double
p278
sVtype
p279
Vtyped-literal
p280
sVvalue
p281
V77.9926
p282
ssa(dp283
g7
(dp284
Vtype
p285
Vuri
p286
sVvalue
p287
Vhttp://dbpedia.org/ontology/populationDensity
p288
ssg8
(dp289
Vdatatype
p290
Vhttp://www.w3.org/2001/XMLSchema#double
p291
sVtype
p292
Vtyped-literal
p293
sVvalue
p294
V78.0
p295
ssa(dp296
g7
(dp297
Vtype
p298
Vuri
p299
sVvalue
p300
Vhttp://dbpedia.org/ontology/populationTotal
p301
ssg8
(dp302
Vdatatype
p303
Vhttp://www.w3.org/2001/XMLSchema#nonNegativeInteger
p304
sVtype
p305
Vtyped-literal
p306
sVvalue
p307
V45010056
p308
ssa(dp309
g7
(dp310
Vtype
p311
Vuri
p312
sVvalue
p313
Vhttp://dbpedia.org/ontology/wikiPageExtracted
p314
ssg8
(dp315
Vdatatype
p316
Vhttp://www.w3.org/2001/XMLSchema#dateTime
p317
sVtype
p318
Vtyped-literal
p319
sVvalue
p320
V2016-11-01T17:08:21Z
p321
ssa(dp322
g7
(dp323
Vtype
p324
Vuri
p325
sVvalue
p326
Vhttp://dbpedia.org/ontology/wikiPageLength
p327
ssg8
(dp328
Vdatatype
p329
Vhttp://www.w3.org/2001/XMLSchema#nonNegativeInteger
p330
sVtype
p331
Vtyped-literal
p332
sVvalue
p333
V129891
p334
ssa(dp335
g7
(dp336
Vtype
p337
Vuri
p338
sVvalue
p339
Vhttp://dbpedia.org/ontology/wikiPageModified
p340
ssg8
(dp341
Vdatatype
p342
Vhttp://www.w3.org/2001/XMLSchema#dateTime
p343
sVtype
p344
Vtyped-literal
p345
sVvalue
p346
V2016-11-01T13:01:43Z
p347
ssa(dp348
g7
(dp349
Vtype
p350
Vuri
p351
sVvalue
p352
Vhttp://dbpedia.org/ontology/wikiPageOutDegree
p353
ssg8
(dp354
Vdatatype
p355
Vhttp://www.w3.org/2001/XMLSchema#nonNegativeInteger
p356
sVtype
p357
Vtyped-literal
p358
sVvalue
p359
V679
p360
ssasVordered
p361
I01
ss.