(dp0
Vhead
p1
(dp2
Vlink
p3
(lp4
sVvars
p5
(lp6
Vp
p7
aVo
p8
assVresults
p9
(dp10
Vdistinct
p11
I00
sVbindings
p12
(lp13
(dp14
g7
(dp15
Vtype
p16
Vuri
p17
sVvalue
p18
Vhttp://dbpedia.org/ontology/PopulatedPlace/areaTotal
p19
ssg8
(dp20
Vdatatype
p21
Vhttp://dbpedia.org/datatype/squareKilometre
p22
sVtype
p23
Vtyped-literal
p24
sVvalue
p25
V57.07297799936409
p26
ssa(dp27
g7
(dp28
Vtype
p29
Vuri
p30
sVvalue
p31
Vhttp://dbpedia.org/ontology/PopulatedPlace/areaTotal
p32
ssg8
(dp33
Vdatatype
p34
Vhttp://dbpedia.org/datatype/squareKilometre
p35
sVtype
p36
Vtyped-literal
p37
sVvalue
p38
V57.073
p39
ssa(dp40
g7
(dp41
Vtype
p42
Vuri
p43
sVvalue
p44
Vhttp://dbpedia.org/ontology/PopulatedPlace/populationDensity
p45
ssg8
(dp46
Vdatatype
p47
Vhttp://dbpedia.org/datatype/inhabitantsPerSquareKilometre
p48
sVtype
p49
Vtyped-literal
p50
sVvalue
p51
V216.41025986304092
p52
ssa(dp53
g7
(dp54
Vtype
p55
Vuri
p56
sVvalue
p57
Vhttp://dbpedia.org/ontology/abstract
p58
ssg8
(dp59
Vxml:lang
p60
Ven
p61
sVtype
p62
Vliteral
p63
sVvalue
p64
VLong Beach Township is a Walsh Act Township in Ocean County, New Jersey, United States. As of the 2010 United States Census, the township's population was 3,051 reflecting a decline of 278 (-8.4%) from the 3,329 counted in the 2000 Census, which had in turn declined by 78 (-2.3%) from the 3,407 counted in the 1990 Census.The township is located on Long Beach Island, a barrier island along the Atlantic Ocean whose summer population swells to as much as 130,000, including part-time residents and tourists. In October 2012, Long Beach Township was severely affected by Hurricane Sandy, with township mayor Joe Mancini estimating that potential costs to repair the damage estimated as high as $1 billion across Long Beach Island. As a result of the storm surge, flooding and high winds, dozens of homes and businesses were damaged or destroyed. After the waters receded, streets were left covered with up to four feet of sand in some spots. Governor Chris Christie issued a mandatory evacuation order on October 28, and it remained in place until a full 13 days after the storm. The township established a Sandy Relief Fund to assist residents in their recovery from the hurricane.Long Beach Township was incorporated as a township by an act of the New Jersey Legislature on March 23, 1899, from portions of Eagleswood Township, Little Egg Harbor Township, Ocean Township, Stafford Township and Union Township (now known as Barnegat Township). Portions of the township were taken to form Barnegat City (March 29, 1904, now Barnegat Light) and Ship Bottom-Beach Arlington (March 3, 1925, now Ship Bottom). The name derives from the length of the island along Barnegat Bay.
p65
ssa(dp66
g7
(dp67
Vtype
p68
Vuri
p69
sVvalue
p70
Vhttp://dbpedia.org/ontology/areaCode
p71
ssg8
(dp72
Vtype
p73
Vliteral
p74
sVvalue
p75
V609exchanges: 207, 361, 492, 494
p76
ssa(dp77
g7
(dp78
Vtype
p79
Vuri
p80
sVvalue
p81
Vhttp://dbpedia.org/ontology/areaLand
p82
ssg8
(dp83
Vdatatype
p84
Vhttp://www.w3.org/2001/XMLSchema#double
p85
sVtype
p86
Vtyped-literal
p87
sVvalue
p88
V1.4099e+07
p89
ssa(dp90
g7
(dp91
Vtype
p92
Vuri
p93
sVvalue
p94
Vhttp://dbpedia.org/ontology/areaLand
p95
ssg8
(dp96
Vdatatype
p97
Vhttp://www.w3.org/2001/XMLSchema#double
p98
sVtype
p99
Vtyped-literal
p100
sVvalue
p101
V1.40999e+07
p102
ssa(dp103
g7
(dp104
Vtype
p105
Vuri
p106
sVvalue
p107
Vhttp://dbpedia.org/ontology/areaTotal
p108
ssg8
(dp109
Vdatatype
p110
Vhttp://www.w3.org/2001/XMLSchema#double
p111
sVtype
p112
Vtyped-literal
p113
sVvalue
p114
V5.7073e+07
p115
ssa(dp116
g7
(dp117
Vtype
p118
Vuri
p119
sVvalue
p120
Vhttp://dbpedia.org/ontology/areaTotal
p121
ssg8
(dp122
Vdatatype
p123
Vhttp://www.w3.org/2001/XMLSchema#double
p124
sVtype
p125
Vtyped-literal
p126
sVvalue
p127
V5.7073e+07
p128
ssa(dp129
g7
(dp130
Vtype
p131
Vuri
p132
sVvalue
p133
Vhttp://dbpedia.org/ontology/areaWater
p134
ssg8
(dp135
Vdatatype
p136
Vhttp://www.w3.org/2001/XMLSchema#double
p137
sVtype
p138
Vtyped-literal
p139
sVvalue
p140
V4.29731e+07
p141
ssa(dp142
g7
(dp143
Vtype
p144
Vuri
p145
sVvalue
p146
Vhttp://dbpedia.org/ontology/areaWater
p147
ssg8
(dp148
Vdatatype
p149
Vhttp://www.w3.org/2001/XMLSchema#double
p150
sVtype
p151
Vtyped-literal
p152
sVvalue
p153
V4.2974e+07
p154
ssa(dp155
g7
(dp156
Vtype
p157
Vuri
p158
sVvalue
p159
Vhttp://dbpedia.org/ontology/elevation
p160
ssg8
(dp161
Vdatatype
p162
Vhttp://www.w3.org/2001/XMLSchema#double
p163
sVtype
p164
Vtyped-literal
p165
sVvalue
p166
V0.0
p167
ssa(dp168
g7
(dp169
Vtype
p170
Vuri
p171
sVvalue
p172
Vhttp://dbpedia.org/ontology/foundingDate
p173
ssg8
(dp174
Vdatatype
p175
Vhttp://www.w3.org/2001/XMLSchema#date
p176
sVtype
p177
Vtyped-literal
p178
sVvalue
p179
V1899-03-23
p180
ssa(dp181
g7
(dp182
Vtype
p183
Vuri
p184
sVvalue
p185
Vhttp://dbpedia.org/ontology/leaderTitle
p186
ssg8
(dp187
Vxml:lang
p188
Ven
p189
sVtype
p190
Vliteral
p191
sVvalue
p192
VAdministrator
p193
ssa(dp194
g7
(dp195
Vtype
p196
Vuri
p197
sVvalue
p198
Vhttp://dbpedia.org/ontology/leaderTitle
p199
ssg8
(dp200
Vxml:lang
p201
Ven
p202
sVtype
p203
Vliteral
p204
sVvalue
p205
VMayor
p206
ssa(dp207
g7
(dp208
Vtype
p209
Vuri
p210
sVvalue
p211
Vhttp://dbpedia.org/ontology/leaderTitle
p212
ssg8
(dp213
Vxml:lang
p214
Ven
p215
sVtype
p216
Vliteral
p217
sVvalue
p218
VClerk
p219
ssa(dp220
g7
(dp221
Vtype
p222
Vuri
p223
sVvalue
p224
Vhttp://dbpedia.org/ontology/percentageOfAreaWater
p225
ssg8
(dp226
Vdatatype
p227
Vhttp://www.w3.org/2001/XMLSchema#float
p228
sVtype
p229
Vtyped-literal
p230
sVvalue
p231
V75.3
p232
ssa(dp233
g7
(dp234
Vtype
p235
Vuri
p236
sVvalue
p237
Vhttp://dbpedia.org/ontology/populationDensity
p238
ssg8
(dp239
Vdatatype
p240
Vhttp://www.w3.org/2001/XMLSchema#double
p241
sVtype
p242
Vtyped-literal
p243
sVvalue
p244
V216.41
p245
ssa(dp246
g7
(dp247
Vtype
p248
Vuri
p249
sVvalue
p250
Vhttp://dbpedia.org/ontology/populationTotal
p251
ssg8
(dp252
Vdatatype
p253
Vhttp://www.w3.org/2001/XMLSchema#nonNegativeInteger
p254
sVtype
p255
Vtyped-literal
p256
sVvalue
p257
V3051
p258
ssa(dp259
g7
(dp260
Vtype
p261
Vuri
p262
sVvalue
p263
Vhttp://dbpedia.org/ontology/populationTotalRanking
p264
ssg8
(dp265
Vdatatype
p266
Vhttp://www.w3.org/2001/XMLSchema#positiveInteger
p267
sVtype
p268
Vtyped-literal
p269
sVvalue
p270
V18
p271
ssa(dp272
g7
(dp273
Vtype
p274
Vuri
p275
sVvalue
p276
Vhttp://dbpedia.org/ontology/populationTotalRanking
p277
ssg8
(dp278
Vdatatype
p279
Vhttp://www.w3.org/2001/XMLSchema#positiveInteger
p280
sVtype
p281
Vtyped-literal
p282
sVvalue
p283
V451
p284
ssa(dp285
g7
(dp286
Vtype
p287
Vuri
p288
sVvalue
p289
Vhttp://dbpedia.org/ontology/postalCode
p290
ssg8
(dp291
Vtype
p292
Vliteral
p293
sVvalue
p294
V08008
p295
ssa(dp296
g7
(dp297
Vtype
p298
Vuri
p299
sVvalue
p300
Vhttp://dbpedia.org/ontology/utcOffset
p301
ssg8
(dp302
Vtype
p303
Vliteral
p304
sVvalue
p305
V-4
p306
ssa(dp307
g7
(dp308
Vtype
p309
Vuri
p310
sVvalue
p311
Vhttp://dbpedia.org/ontology/utcOffset
p312
ssg8
(dp313
Vtype
p314
Vliteral
p315
sVvalue
p316
V-5
p317
ssa(dp318
g7
(dp319
Vtype
p320
Vuri
p321
sVvalue
p322
Vhttp://dbpedia.org/ontology/wikiPageExtracted
p323
ssg8
(dp324
Vdatatype
p325
Vhttp://www.w3.org/2001/XMLSchema#dateTime
p326
sVtype
p327
Vtyped-literal
p328
sVvalue
p329
V2016-11-02T13:06:51Z
p330
ssa(dp331
g7
(dp332
Vtype
p333
Vuri
p334
sVvalue
p335
Vhttp://dbpedia.org/ontology/wikiPageLength
p336
ssg8
(dp337
Vdatatype
p338
Vhttp://www.w3.org/2001/XMLSchema#nonNegativeInteger
p339
sVtype
p340
Vtyped-literal
p341
sVvalue
p342
V40191
p343
ssa(dp344
g7
(dp345
Vtype
p346
Vuri
p347
sVvalue
p348
Vhttp://dbpedia.org/ontology/wikiPageModified
p349
ssg8
(dp350
Vdatatype
p351
Vhttp://www.w3.org/2001/XMLSchema#dateTime
p352
sVtype
p353
Vtyped-literal
p354
sVvalue
p355
V2016-10-31T14:41:35Z
p356
ssa(dp357
g7
(dp358
Vtype
p359
Vuri
p360
sVvalue
p361
Vhttp://dbpedia.org/ontology/wikiPageOutDegree
p362
ssg8
(dp363
Vdatatype
p364
Vhttp://www.w3.org/2001/XMLSchema#nonNegativeInteger
p365
sVtype
p366
Vtyped-literal
p367
sVvalue
p368
V141
p369
ssasVordered
p370
I01
ss.