(dp0
Vhead
p1
(dp2
Vlink
p3
(lp4
sVvars
p5
(lp6
Vp
p7
aVo
p8
assVresults
p9
(dp10
Vdistinct
p11
I00
sVbindings
p12
(lp13
(dp14
g7
(dp15
Vtype
p16
Vuri
p17
sVvalue
p18
Vhttp://dbpedia.org/ontology/abstract
p19
ssg8
(dp20
Vxml:lang
p21
Ven
p22
sVtype
p23
Vliteral
p24
sVvalue
p25
VDelaware County, colloquially referred to as Delco, is a county located in the U.S. state of Pennsylvania. With a 2010 census population of 558,979, it is the fifth most populous county in Pennsylvania, and the third most compact. Its county seat is Media. The county was created on September 26, 1789, from part of Chester County and named for the Delaware River. Chester City, prior to 1851, was the county seat of both Delaware County and, before that, of Chester County.Delaware County is adjacent to the city-county of Philadelphia and is included in the Philadelphia-Camden-Wilmington, PA-NJ-DE-MD Metropolitan Statistical Area. Delaware County is the only county covered in its entirety by area codes 610 and 484.
p26
ssa(dp27
g7
(dp28
Vtype
p29
Vuri
p30
sVvalue
p31
Vhttp://dbpedia.org/ontology/abstract
p32
ssg8
(dp33
Vxml:lang
p34
Ven
p35
sVtype
p36
Vliteral
p37
sVvalue
p38
VDelaware County, colloquially referred to as Delco, is a county located in the U.S. state of Pennsylvania. With a 2010 census population of 558,979, it is the fifth most populous county in Pennsylvania, and the third smallest in area. Its county seat is Media. The county was created on September 26, 1789, from part of Chester County and named for the Delaware River. Chester City, prior to 1851, was the county seat of both Delaware County and, before that, of Chester County.Delaware County is adjacent to the city-county of Philadelphia and is included in the Philadelphia-Camden-Wilmington, PA-NJ-DE-MD Metropolitan Statistical Area. Delaware County is the only county covered in its entirety by area codes 610 and 484.
p39
ssa(dp40
g7
(dp41
Vtype
p42
Vuri
p43
sVvalue
p44
Vhttp://dbpedia.org/ontology/abstract
p45
ssg8
(dp46
Vxml:lang
p47
Ven
p48
sVtype
p49
Vliteral
p50
sVvalue
p51
VDelaware County, colloquially referred to as Delco, is a county located in the U.S. state of Pennsylvania. With a 2010 census population of 558,979, it is the fifth most populous county in Pennsylvania, and the third smallest in area. The county was created on September 26, 1789, from part of Chester County and named for the Delaware River.Its county seat is Media. Until 1850, Chester City was the county seat of both Delaware County and, before that, of Chester County.Delaware County is adjacent to the city-county of Philadelphia and is included in the Philadelphia\u2013Camden\u2013Wilmington, PA\u2013NJ\u2013DE\u2013MD Metropolitan Statistical Area. Delaware County is the only county covered in its entirety by area codes 610 and 484.
p52
ssa(dp53
g7
(dp54
Vtype
p55
Vuri
p56
sVvalue
p57
Vhttp://dbpedia.org/ontology/wikiPageExtracted
p58
ssg8
(dp59
Vdatatype
p60
Vhttp://www.w3.org/2001/XMLSchema#dateTime
p61
sVtype
p62
Vtyped-literal
p63
sVvalue
p64
V2016-10-29T15:17:42Z
p65
ssa(dp66
g7
(dp67
Vtype
p68
Vuri
p69
sVvalue
p70
Vhttp://dbpedia.org/ontology/wikiPageLength
p71
ssg8
(dp72
Vdatatype
p73
Vhttp://www.w3.org/2001/XMLSchema#nonNegativeInteger
p74
sVtype
p75
Vtyped-literal
p76
sVvalue
p77
V46462
p78
ssa(dp79
g7
(dp80
Vtype
p81
Vuri
p82
sVvalue
p83
Vhttp://dbpedia.org/ontology/wikiPageModified
p84
ssg8
(dp85
Vdatatype
p86
Vhttp://www.w3.org/2001/XMLSchema#dateTime
p87
sVtype
p88
Vtyped-literal
p89
sVvalue
p90
V2016-10-27T17:45:30Z
p91
ssa(dp92
g7
(dp93
Vtype
p94
Vuri
p95
sVvalue
p96
Vhttp://dbpedia.org/ontology/wikiPageOutDegree
p97
ssg8
(dp98
Vdatatype
p99
Vhttp://www.w3.org/2001/XMLSchema#nonNegativeInteger
p100
sVtype
p101
Vtyped-literal
p102
sVvalue
p103
V392
p104
ssasVordered
p105
I01
ss.