(dp0
Vhead
p1
(dp2
Vlink
p3
(lp4
sVvars
p5
(lp6
Vp
p7
aVo
p8
assVresults
p9
(dp10
Vdistinct
p11
I00
sVbindings
p12
(lp13
(dp14
g7
(dp15
Vtype
p16
Vuri
p17
sVvalue
p18
Vhttp://dbpedia.org/ontology/PopulatedPlace/populationDensity
p19
ssg8
(dp20
Vdatatype
p21
Vhttp://dbpedia.org/datatype/inhabitantsPerSquareKilometre
p22
sVtype
p23
Vtyped-literal
p24
sVvalue
p25
V115.9
p26
ssa(dp27
g7
(dp28
Vtype
p29
Vuri
p30
sVvalue
p31
Vhttp://dbpedia.org/ontology/abstract
p32
ssg8
(dp33
Vxml:lang
p34
Ven
p35
sVtype
p36
Vliteral
p37
sVvalue
p38
VNiagara-on-the-Lake (2011 population 15,400) is a Canadian town located in Southern Ontario where the Niagara River meets Lake Ontario in the Niagara Region of the southern part of the province of Ontario. It is located across the Niagara River from Youngstown, New York, US. It is the only town in Canada that has a Lord Mayor.
p39
ssa(dp40
g7
(dp41
Vtype
p42
Vuri
p43
sVvalue
p44
Vhttp://dbpedia.org/ontology/abstract
p45
ssg8
(dp46
Vxml:lang
p47
Ven
p48
sVtype
p49
Vliteral
p50
sVvalue
p51
VNiagara-on-the-Lake (2011 population 15,400) is a Canadian town in Southern Ontario where the Niagara River meets Lake Ontario in the Niagara Region of the southern part of the province of Ontario. It is across the Niagara River from Youngstown, New York, US. It is the only town in Canada that has a Lord Mayor.
p52
ssa(dp53
g7
(dp54
Vtype
p55
Vuri
p56
sVvalue
p57
Vhttp://dbpedia.org/ontology/areaCode
p58
ssg8
(dp59
Vtype
p60
Vliteral
p61
sVvalue
p62
V905/289
p63
ssa(dp64
g7
(dp65
Vtype
p66
Vuri
p67
sVvalue
p68
Vhttp://dbpedia.org/ontology/areaLand
p69
ssg8
(dp70
Vdatatype
p71
Vhttp://www.w3.org/2001/XMLSchema#double
p72
sVtype
p73
Vtyped-literal
p74
sVvalue
p75
V1.3283e+08
p76
ssa(dp77
g7
(dp78
Vtype
p79
Vuri
p80
sVvalue
p81
Vhttp://dbpedia.org/ontology/elevation
p82
ssg8
(dp83
Vdatatype
p84
Vhttp://www.w3.org/2001/XMLSchema#double
p85
sVtype
p86
Vtyped-literal
p87
sVvalue
p88
V82.3
p89
ssa(dp90
g7
(dp91
Vtype
p92
Vuri
p93
sVvalue
p94
Vhttp://dbpedia.org/ontology/leaderTitle
p95
ssg8
(dp96
Vxml:lang
p97
Ven
p98
sVtype
p99
Vliteral
p100
sVvalue
p101
VGoverning body
p102
ssa(dp103
g7
(dp104
Vtype
p105
Vuri
p106
sVvalue
p107
Vhttp://dbpedia.org/ontology/leaderTitle
p108
ssg8
(dp109
Vxml:lang
p110
Ven
p111
sVtype
p112
Vliteral
p113
sVvalue
p114
VLord Mayor
p115
ssa(dp116
g7
(dp117
Vtype
p118
Vuri
p119
sVvalue
p120
Vhttp://dbpedia.org/ontology/leaderTitle
p121
ssg8
(dp122
Vxml:lang
p123
Ven
p124
sVtype
p125
Vliteral
p126
sVvalue
p127
VMP
p128
ssa(dp129
g7
(dp130
Vtype
p131
Vuri
p132
sVvalue
p133
Vhttp://dbpedia.org/ontology/leaderTitle
p134
ssg8
(dp135
Vxml:lang
p136
Ven
p137
sVtype
p138
Vliteral
p139
sVvalue
p140
VMPP
p141
ssa(dp142
g7
(dp143
Vtype
p144
Vuri
p145
sVvalue
p146
Vhttp://dbpedia.org/ontology/populationDensity
p147
ssg8
(dp148
Vdatatype
p149
Vhttp://www.w3.org/2001/XMLSchema#double
p150
sVtype
p151
Vtyped-literal
p152
sVvalue
p153
V115.9
p154
ssa(dp155
g7
(dp156
Vtype
p157
Vuri
p158
sVvalue
p159
Vhttp://dbpedia.org/ontology/populationTotal
p160
ssg8
(dp161
Vdatatype
p162
Vhttp://www.w3.org/2001/XMLSchema#nonNegativeInteger
p163
sVtype
p164
Vtyped-literal
p165
sVvalue
p166
V15400
p167
ssa(dp168
g7
(dp169
Vtype
p170
Vuri
p171
sVvalue
p172
Vhttp://dbpedia.org/ontology/postalCode
p173
ssg8
(dp174
Vtype
p175
Vliteral
p176
sVvalue
p177
VL0S 1J0
p178
ssa(dp179
g7
(dp180
Vtype
p181
Vuri
p182
sVvalue
p183
Vhttp://dbpedia.org/ontology/utcOffset
p184
ssg8
(dp185
Vtype
p186
Vliteral
p187
sVvalue
p188
V-4
p189
ssa(dp190
g7
(dp191
Vtype
p192
Vuri
p193
sVvalue
p194
Vhttp://dbpedia.org/ontology/utcOffset
p195
ssg8
(dp196
Vtype
p197
Vliteral
p198
sVvalue
p199
V-5
p200
ssa(dp201
g7
(dp202
Vtype
p203
Vuri
p204
sVvalue
p205
Vhttp://dbpedia.org/ontology/wikiPageExtracted
p206
ssg8
(dp207
Vdatatype
p208
Vhttp://www.w3.org/2001/XMLSchema#dateTime
p209
sVtype
p210
Vtyped-literal
p211
sVvalue
p212
V2016-11-03T19:50:19Z
p213
ssa(dp214
g7
(dp215
Vtype
p216
Vuri
p217
sVvalue
p218
Vhttp://dbpedia.org/ontology/wikiPageLength
p219
ssg8
(dp220
Vdatatype
p221
Vhttp://www.w3.org/2001/XMLSchema#nonNegativeInteger
p222
sVtype
p223
Vtyped-literal
p224
sVvalue
p225
V22177
p226
ssa(dp227
g7
(dp228
Vtype
p229
Vuri
p230
sVvalue
p231
Vhttp://dbpedia.org/ontology/wikiPageModified
p232
ssg8
(dp233
Vdatatype
p234
Vhttp://www.w3.org/2001/XMLSchema#dateTime
p235
sVtype
p236
Vtyped-literal
p237
sVvalue
p238
V2016-09-27T17:47:23Z
p239
ssa(dp240
g7
(dp241
Vtype
p242
Vuri
p243
sVvalue
p244
Vhttp://dbpedia.org/ontology/wikiPageOutDegree
p245
ssg8
(dp246
Vdatatype
p247
Vhttp://www.w3.org/2001/XMLSchema#nonNegativeInteger
p248
sVtype
p249
Vtyped-literal
p250
sVvalue
p251
V156
p252
ssasVordered
p253
I01
ss.