(dp0
Vhead
p1
(dp2
Vlink
p3
(lp4
sVvars
p5
(lp6
Vp
p7
aVo
p8
assVresults
p9
(dp10
Vdistinct
p11
I00
sVbindings
p12
(lp13
(dp14
g7
(dp15
Vtype
p16
Vuri
p17
sVvalue
p18
Vhttp://dbpedia.org/ontology/Work/runtime
p19
ssg8
(dp20
Vdatatype
p21
Vhttp://dbpedia.org/datatype/minute
p22
sVtype
p23
Vtyped-literal
p24
sVvalue
p25
V92.0
p26
ssa(dp27
g7
(dp28
Vtype
p29
Vuri
p30
sVvalue
p31
Vhttp://dbpedia.org/ontology/abstract
p32
ssg8
(dp33
Vxml:lang
p34
Ven
p35
sVtype
p36
Vliteral
p37
sVvalue
p38
VSaw V is a 2008 Canadian-American horror film directed by David Hackl and written by Patrick Melton and Marcus Dunstan and stars Tobin Bell, Costas Mandylor, Scott Patterson, Betsy Russell, Mark Rolston, Julie Benz, Carlo Rota, and Meagan Good. It is the fifth installment of the Saw franchise, and was released on October 23, 2008 in Australia and October 24, 2008 in North America.David Hackl, who served as the production designer of Saw II, Saw III, and Saw IV, and second-unit director for Saw III and Saw IV made his directorial debut with Saw V. Patrick Melton and Marcus Dunstan, the writers of the previous film, returned to write the film. Charlie Clouser, who provided the score for all previous Saw films, also returned to compose the score for the film. Saw creators James Wan and Leigh Whannell served as executive producers.The film focuses primarily on the events that led up to Detective Mark Hoffman becoming an apprentice of the Jigsaw Killer, as well as his efforts to prevent anyone else from learning his secret.
p39
ssa(dp40
g7
(dp41
Vtype
p42
Vuri
p43
sVvalue
p44
Vhttp://dbpedia.org/ontology/abstract
p45
ssg8
(dp46
Vxml:lang
p47
Ven
p48
sVtype
p49
Vliteral
p50
sVvalue
p51
VSaw \u2164 is a 2008 American horror film directed by David Hackl and written by Patrick Melton and Marcus Dunstan and stars Tobin Bell, Costas Mandylor, Scott Patterson, Betsy Russell, Mark Rolston, Julie Benz, Carlo Rota, and Meagan Good. It is the fifth installment of the Saw franchise, and was released on October 23, 2008 in Australia and October 24, 2008 in North America.David Hackl, who served as the production designer of Saw \u2161, Saw \u2162, and Saw IV, and second-unit director for Saw \u2162 and Saw IV made his directorial debut with Saw \u2164. Patrick Melton and Marcus Dunstan, the writers of the previous film, returned to write the film. Charlie Clouser, who provided the score for all previous Saw films, also returned to compose the score for the film. Saw creators James Wan and Leigh Whannell served as executive producers.The film focuses primarily on the events that led up to Detective Mark Hoffman becoming an apprentice of the Jigsaw Killer, as well as his efforts to prevent anyone else from learning his secret.
p52
ssa(dp53
g7
(dp54
Vtype
p55
Vuri
p56
sVvalue
p57
Vhttp://dbpedia.org/ontology/budget
p58
ssg8
(dp59
Vdatatype
p60
Vhttp://dbpedia.org/datatype/usDollar
p61
sVtype
p62
Vtyped-literal
p63
sVvalue
p64
V1.08E7
p65
ssa(dp66
g7
(dp67
Vtype
p68
Vuri
p69
sVvalue
p70
Vhttp://dbpedia.org/ontology/runtime
p71
ssg8
(dp72
Vdatatype
p73
Vhttp://www.w3.org/2001/XMLSchema#double
p74
sVtype
p75
Vtyped-literal
p76
sVvalue
p77
V5520.0
p78
ssa(dp79
g7
(dp80
Vtype
p81
Vuri
p82
sVvalue
p83
Vhttp://dbpedia.org/ontology/wikiPageExtracted
p84
ssg8
(dp85
Vdatatype
p86
Vhttp://www.w3.org/2001/XMLSchema#dateTime
p87
sVtype
p88
Vtyped-literal
p89
sVvalue
p90
V2016-11-05T16:12:58Z
p91
ssa(dp92
g7
(dp93
Vtype
p94
Vuri
p95
sVvalue
p96
Vhttp://dbpedia.org/ontology/wikiPageLength
p97
ssg8
(dp98
Vdatatype
p99
Vhttp://www.w3.org/2001/XMLSchema#nonNegativeInteger
p100
sVtype
p101
Vtyped-literal
p102
sVvalue
p103
V17897
p104
ssa(dp105
g7
(dp106
Vtype
p107
Vuri
p108
sVvalue
p109
Vhttp://dbpedia.org/ontology/wikiPageModified
p110
ssg8
(dp111
Vdatatype
p112
Vhttp://www.w3.org/2001/XMLSchema#dateTime
p113
sVtype
p114
Vtyped-literal
p115
sVvalue
p116
V2016-10-06T20:39:04Z
p117
ssa(dp118
g7
(dp119
Vtype
p120
Vuri
p121
sVvalue
p122
Vhttp://dbpedia.org/ontology/wikiPageOutDegree
p123
ssg8
(dp124
Vdatatype
p125
Vhttp://www.w3.org/2001/XMLSchema#nonNegativeInteger
p126
sVtype
p127
Vtyped-literal
p128
sVvalue
p129
V111
p130
ssa(dp131
g7
(dp132
Vtype
p133
Vuri
p134
sVvalue
p135
Vhttp://dbpedia.org/ontology/gross
p136
ssg8
(dp137
Vdatatype
p138
Vhttp://dbpedia.org/datatype/usDollar
p139
sVtype
p140
Vtyped-literal
p141
sVvalue
p142
V1.138E8
p143
ssasVordered
p144
I01
ss.