(dp0
Vhead
p1
(dp2
Vlink
p3
(lp4
sVvars
p5
(lp6
Vp
p7
aVo
p8
assVresults
p9
(dp10
Vdistinct
p11
I00
sVbindings
p12
(lp13
(dp14
g7
(dp15
Vtype
p16
Vuri
p17
sVvalue
p18
Vhttp://dbpedia.org/ontology/abstract
p19
ssg8
(dp20
Vxml:lang
p21
Ven
p22
sVtype
p23
Vliteral
p24
sVvalue
p25
VKenai Municipal Airport (IATA: ENA, ICAO: PAEN, FAA LID: ENA) is a city owned, public use airport located in Kenai, a city in the Kenai Peninsula Borough of the U.S. state of Alaska.As per Federal Aviation Administration records, the airport had 96,565 passenger boardings (enplanements) in calendar year 2008, 82,277 enplanements in 2009, and 86,857 in 2010. It is included in the National Plan of Integrated Airport Systems for 2011\u20132015, which categorized it as a primary commercial service airport (more than 10,000 enplanements per year).
p26
ssa(dp27
g7
(dp28
Vtype
p29
Vuri
p30
sVvalue
p31
Vhttp://dbpedia.org/ontology/elevation
p32
ssg8
(dp33
Vdatatype
p34
Vhttp://www.w3.org/2001/XMLSchema#double
p35
sVtype
p36
Vtyped-literal
p37
sVvalue
p38
V30.1752
p39
ssa(dp40
g7
(dp41
Vtype
p42
Vuri
p43
sVvalue
p44
Vhttp://dbpedia.org/ontology/icaoLocationIdentifier
p45
ssg8
(dp46
Vtype
p47
Vliteral
p48
sVvalue
p49
VPAEN
p50
ssa(dp51
g7
(dp52
Vtype
p53
Vuri
p54
sVvalue
p55
Vhttp://dbpedia.org/ontology/runwayDesignation
p56
ssg8
(dp57
Vtype
p58
Vliteral
p59
sVvalue
p60
V1L/19R
p61
ssa(dp62
g7
(dp63
Vtype
p64
Vuri
p65
sVvalue
p66
Vhttp://dbpedia.org/ontology/runwayDesignation
p67
ssg8
(dp68
Vtype
p69
Vliteral
p70
sVvalue
p71
V1R/19L
p72
ssa(dp73
g7
(dp74
Vtype
p75
Vuri
p76
sVvalue
p77
Vhttp://dbpedia.org/ontology/runwayDesignation
p78
ssg8
(dp79
Vtype
p80
Vliteral
p81
sVvalue
p82
V1W/19W
p83
ssa(dp84
g7
(dp85
Vtype
p86
Vuri
p87
sVvalue
p88
Vhttp://dbpedia.org/ontology/runwayLength
p89
ssg8
(dp90
Vdatatype
p91
Vhttp://www.w3.org/2001/XMLSchema#double
p92
sVtype
p93
Vtyped-literal
p94
sVvalue
p95
V609.6
p96
ssa(dp97
g7
(dp98
Vtype
p99
Vuri
p100
sVvalue
p101
Vhttp://dbpedia.org/ontology/runwayLength
p102
ssg8
(dp103
Vdatatype
p104
Vhttp://www.w3.org/2001/XMLSchema#double
p105
sVtype
p106
Vtyped-literal
p107
sVvalue
p108
V1402.08
p109
ssa(dp110
g7
(dp111
Vtype
p112
Vuri
p113
sVvalue
p114
Vhttp://dbpedia.org/ontology/runwayLength
p115
ssg8
(dp116
Vdatatype
p117
Vhttp://www.w3.org/2001/XMLSchema#double
p118
sVtype
p119
Vtyped-literal
p120
sVvalue
p121
V2386.58
p122
ssa(dp123
g7
(dp124
Vtype
p125
Vuri
p126
sVvalue
p127
Vhttp://dbpedia.org/ontology/runwaySurface
p128
ssg8
(dp129
Vtype
p130
Vliteral
p131
sVvalue
p132
VAsphalt
p133
ssa(dp134
g7
(dp135
Vtype
p136
Vuri
p137
sVvalue
p138
Vhttp://dbpedia.org/ontology/runwaySurface
p139
ssg8
(dp140
Vtype
p141
Vliteral
p142
sVvalue
p143
VWater
p144
ssa(dp145
g7
(dp146
Vtype
p147
Vuri
p148
sVvalue
p149
Vhttp://dbpedia.org/ontology/runwaySurface
p150
ssg8
(dp151
Vtype
p152
Vliteral
p153
sVvalue
p154
VGravel
p155
ssa(dp156
g7
(dp157
Vtype
p158
Vuri
p159
sVvalue
p160
Vhttp://dbpedia.org/ontology/wikiPageExtracted
p161
ssg8
(dp162
Vdatatype
p163
Vhttp://www.w3.org/2001/XMLSchema#dateTime
p164
sVtype
p165
Vtyped-literal
p166
sVvalue
p167
V2016-11-01T16:48:57Z
p168
ssa(dp169
g7
(dp170
Vtype
p171
Vuri
p172
sVvalue
p173
Vhttp://dbpedia.org/ontology/wikiPageLength
p174
ssg8
(dp175
Vdatatype
p176
Vhttp://www.w3.org/2001/XMLSchema#nonNegativeInteger
p177
sVtype
p178
Vtyped-literal
p179
sVvalue
p180
V5805
p181
ssa(dp182
g7
(dp183
Vtype
p184
Vuri
p185
sVvalue
p186
Vhttp://dbpedia.org/ontology/wikiPageModified
p187
ssg8
(dp188
Vdatatype
p189
Vhttp://www.w3.org/2001/XMLSchema#dateTime
p190
sVtype
p191
Vtyped-literal
p192
sVvalue
p193
V2016-03-19T20:44:11Z
p194
ssa(dp195
g7
(dp196
Vtype
p197
Vuri
p198
sVvalue
p199
Vhttp://dbpedia.org/ontology/wikiPageOutDegree
p200
ssg8
(dp201
Vdatatype
p202
Vhttp://www.w3.org/2001/XMLSchema#nonNegativeInteger
p203
sVtype
p204
Vtyped-literal
p205
sVvalue
p206
V36
p207
ssa(dp208
g7
(dp209
Vtype
p210
Vuri
p211
sVvalue
p212
Vhttp://dbpedia.org/ontology/iataLocationIdentifier
p213
ssg8
(dp214
Vtype
p215
Vliteral
p216
sVvalue
p217
VENA
p218
ssa(dp219
g7
(dp220
Vtype
p221
Vuri
p222
sVvalue
p223
Vhttp://dbpedia.org/ontology/faaLocationIdentifier
p224
ssg8
(dp225
Vtype
p226
Vliteral
p227
sVvalue
p228
VENA
p229
ssasVordered
p230
I01
ss.