(dp0
Vhead
p1
(dp2
Vlink
p3
(lp4
sVvars
p5
(lp6
Vp
p7
aVo
p8
assVresults
p9
(dp10
Vdistinct
p11
I00
sVbindings
p12
(lp13
(dp14
g7
(dp15
Vtype
p16
Vuri
p17
sVvalue
p18
Vhttp://dbpedia.org/ontology/PopulatedPlace/areaTotal
p19
ssg8
(dp20
Vdatatype
p21
Vhttp://dbpedia.org/datatype/squareKilometre
p22
sVtype
p23
Vtyped-literal
p24
sVvalue
p25
V2685.817670418432
p26
ssa(dp27
g7
(dp28
Vtype
p29
Vuri
p30
sVvalue
p31
Vhttp://dbpedia.org/ontology/abstract
p32
ssg8
(dp33
Vxml:lang
p34
Ven
p35
sVtype
p36
Vliteral
p37
sVvalue
p38
VCalaveras County, officially the County of Calaveras, is a county located in the U.S. state of California. As of the 2010 census, the population was 45,578. The county seat is San Andreas, and Angels Camp is the only incorporated city. Calaveras is the Spanish word for skulls; the county was reportedly named for the remains of Native Americans discovered by the Spanish explorer Captain Gabriel Moraga.Calaveras County is located in both the Gold Country and High Sierra regions of California.Calaveras Big Trees State Park, a preserve of Giant Sequoia trees, is located in the county several miles east of the town of Arnold on State Highway 4. Credit for the discovery of giant sequoias here is given to Augustus T. Dowd, a trapper who made the discovery in 1852 while tracking a bear. When the bark from the "Discovery Tree" was removed and taken on a tour around the world, the trees soon became a worldwide sensation and one of the county's first tourist attractions. The uncommon gold telluride mineral calaverite was discovered in the county in 1861 and is named for it.Mark Twain set his story, "The Celebrated Jumping Frog of Calaveras County", in the county. The county hosts an annual fair and Jumping Frog Jubilee, featuring a frog-jumping contest, to celebrate the association with Twain's story. Each year's winner is commemorated with a brass plaque mounted in the sidewalk of downtown Historic Angels Camp and this feature is known as the Frog Hop of Fame. The California red-legged frog, feared extinct in the county by 1969, was rediscovered in 2003.
p39
ssa(dp40
g7
(dp41
Vtype
p42
Vuri
p43
sVvalue
p44
Vhttp://dbpedia.org/ontology/areaCode
p45
ssg8
(dp46
Vtype
p47
Vliteral
p48
sVvalue
p49
V209
p50
ssa(dp51
g7
(dp52
Vtype
p53
Vuri
p54
sVvalue
p55
Vhttp://dbpedia.org/ontology/areaLand
p56
ssg8
(dp57
Vdatatype
p58
Vhttp://www.w3.org/2001/XMLSchema#double
p59
sVtype
p60
Vtyped-literal
p61
sVvalue
p62
V2.64179e+09
p63
ssa(dp64
g7
(dp65
Vtype
p66
Vuri
p67
sVvalue
p68
Vhttp://dbpedia.org/ontology/areaTotal
p69
ssg8
(dp70
Vdatatype
p71
Vhttp://www.w3.org/2001/XMLSchema#double
p72
sVtype
p73
Vtyped-literal
p74
sVvalue
p75
V2.68582e+09
p76
ssa(dp77
g7
(dp78
Vtype
p79
Vuri
p80
sVvalue
p81
Vhttp://dbpedia.org/ontology/areaWater
p82
ssg8
(dp83
Vdatatype
p84
Vhttp://www.w3.org/2001/XMLSchema#double
p85
sVtype
p86
Vtyped-literal
p87
sVvalue
p88
V4.40298e+07
p89
ssa(dp90
g7
(dp91
Vtype
p92
Vuri
p93
sVvalue
p94
Vhttp://dbpedia.org/ontology/foundingDate
p95
ssg8
(dp96
Vdatatype
p97
Vhttp://www.w3.org/2001/XMLSchema#date
p98
sVtype
p99
Vtyped-literal
p100
sVvalue
p101
V1850-02-18
p102
ssa(dp103
g7
(dp104
Vtype
p105
Vuri
p106
sVvalue
p107
Vhttp://dbpedia.org/ontology/populationAsOf
p108
ssg8
(dp109
Vdatatype
p110
Vhttp://www.w3.org/2001/XMLSchema#date
p111
sVtype
p112
Vtyped-literal
p113
sVvalue
p114
V2010-04-01
p115
ssa(dp116
g7
(dp117
Vtype
p118
Vuri
p119
sVvalue
p120
Vhttp://dbpedia.org/ontology/populationTotal
p121
ssg8
(dp122
Vdatatype
p123
Vhttp://www.w3.org/2001/XMLSchema#nonNegativeInteger
p124
sVtype
p125
Vtyped-literal
p126
sVvalue
p127
V45578
p128
ssa(dp129
g7
(dp130
Vtype
p131
Vuri
p132
sVvalue
p133
Vhttp://dbpedia.org/ontology/utcOffset
p134
ssg8
(dp135
Vtype
p136
Vliteral
p137
sVvalue
p138
V-7
p139
ssa(dp140
g7
(dp141
Vtype
p142
Vuri
p143
sVvalue
p144
Vhttp://dbpedia.org/ontology/utcOffset
p145
ssg8
(dp146
Vtype
p147
Vliteral
p148
sVvalue
p149
V-8
p150
ssa(dp151
g7
(dp152
Vtype
p153
Vuri
p154
sVvalue
p155
Vhttp://dbpedia.org/ontology/wikiPageExtracted
p156
ssg8
(dp157
Vdatatype
p158
Vhttp://www.w3.org/2001/XMLSchema#dateTime
p159
sVtype
p160
Vtyped-literal
p161
sVvalue
p162
V2016-10-28T14:54:50Z
p163
ssa(dp164
g7
(dp165
Vtype
p166
Vuri
p167
sVvalue
p168
Vhttp://dbpedia.org/ontology/wikiPageLength
p169
ssg8
(dp170
Vdatatype
p171
Vhttp://www.w3.org/2001/XMLSchema#nonNegativeInteger
p172
sVtype
p173
Vtyped-literal
p174
sVvalue
p175
V56596
p176
ssa(dp177
g7
(dp178
Vtype
p179
Vuri
p180
sVvalue
p181
Vhttp://dbpedia.org/ontology/wikiPageModified
p182
ssg8
(dp183
Vdatatype
p184
Vhttp://www.w3.org/2001/XMLSchema#dateTime
p185
sVtype
p186
Vtyped-literal
p187
sVvalue
p188
V2016-10-18T08:11:22Z
p189
ssa(dp190
g7
(dp191
Vtype
p192
Vuri
p193
sVvalue
p194
Vhttp://dbpedia.org/ontology/wikiPageOutDegree
p195
ssg8
(dp196
Vdatatype
p197
Vhttp://www.w3.org/2001/XMLSchema#nonNegativeInteger
p198
sVtype
p199
Vtyped-literal
p200
sVvalue
p201
V329
p202
ssasVordered
p203
I01
ss.