(dp0
Vhead
p1
(dp2
Vlink
p3
(lp4
sVvars
p5
(lp6
Vp
p7
aVo
p8
assVresults
p9
(dp10
Vdistinct
p11
I00
sVbindings
p12
(lp13
(dp14
g7
(dp15
Vtype
p16
Vuri
p17
sVvalue
p18
Vhttp://dbpedia.org/ontology/Work/runtime
p19
ssg8
(dp20
Vdatatype
p21
Vhttp://dbpedia.org/datatype/minute
p22
sVtype
p23
Vtyped-literal
p24
sVvalue
p25
V2.9
p26
ssa(dp27
g7
(dp28
Vtype
p29
Vuri
p30
sVvalue
p31
Vhttp://dbpedia.org/ontology/abstract
p32
ssg8
(dp33
Vxml:lang
p34
Ven
p35
sVtype
p36
Vliteral
p37
sVvalue
p38
V"Lovey Dovey" is a popular American rhythm and blues song originating in the 1950s and written by Eddie Curtis and Ahmet Ertegun, with the latter usually credited using his songwriter's pseudonym "Nugetre" - Ertegun spelled backwards. The song deals with the singer's relationship with his sweetheart and is performed in a light-hearted style.Numerous artists have recorded the song. The song's initial recording by The Clovers is probably the most notable, as it reached #2 for five weeks on the R&B charts in 1954. Cover versions have been recorded by:Clyde McPhatter in 1959, reached #12 R&B and #49 popBuddy Knox in 1961, reached #25 popDick Dale in 1962The Coasters in 1964Bunny Sigler in 1967 ("Lovey Dovey"/"You're So Fine"), reached #86 popOtis Redding and Carla Thomas in 1967 (released as a single in 1968, following Redding's death), reached #21 R&B and #60 popDelbert McClinton in 1976, for the Genuine Cowhide album^ Propes, Steve (1973). Those Oldies But Goodies: A Guide to 50's Record Collecting. The Macmillan Company, New York. p. 33. ^ Whitburn, Joel (2004). Top R&B/Hip-Hop Singles: 1942-2004. Record Research. p. 124.
p39
ssa(dp40
g7
(dp41
Vtype
p42
Vuri
p43
sVvalue
p44
Vhttp://dbpedia.org/ontology/abstract
p45
ssg8
(dp46
Vxml:lang
p47
Ven
p48
sVtype
p49
Vliteral
p50
sVvalue
p51
V"Lovey Dovey" is a popular American rhythm and blues song originating in the 1950s and written by Eddie Curtis and Ahmet Ertegun, with the latter usually credited using his songwriter's pseudonym "Nugetre" - Ertegun spelled backwards. The song deals with the singer's relationship with his sweetheart and is performed in a light-hearted style.Numerous artists have recorded the song. The song's initial recording by The Clovers is probably the most notable, as it reached #2 for five weeks on the R&B charts in 1954. Cover versions have been recorded by:Clyde McPhatter in 1959, reached #12 R&B and #49 popBuddy Knox in 1961, reached #25 popDick Dale in 1962The Coasters in 1964Bunny Sigler in 1967 ("Lovey Dovey"/"You're So Fine"), reached #86 popOtis Redding and Carla Thomas in 1967 (released as a single in 1968, following Redding's death), reached #21 R&B and #60 popDelbert McClinton in 1976, for the Genuine Cowhide album
p52
ssa(dp53
g7
(dp54
Vtype
p55
Vuri
p56
sVvalue
p57
Vhttp://dbpedia.org/ontology/runtime
p58
ssg8
(dp59
Vdatatype
p60
Vhttp://www.w3.org/2001/XMLSchema#double
p61
sVtype
p62
Vtyped-literal
p63
sVvalue
p64
V174.0
p65
ssa(dp66
g7
(dp67
Vtype
p68
Vuri
p69
sVvalue
p70
Vhttp://dbpedia.org/ontology/wikiPageExtracted
p71
ssg8
(dp72
Vdatatype
p73
Vhttp://www.w3.org/2001/XMLSchema#dateTime
p74
sVtype
p75
Vtyped-literal
p76
sVvalue
p77
V2016-11-02T14:32:31Z
p78
ssa(dp79
g7
(dp80
Vtype
p81
Vuri
p82
sVvalue
p83
Vhttp://dbpedia.org/ontology/wikiPageLength
p84
ssg8
(dp85
Vdatatype
p86
Vhttp://www.w3.org/2001/XMLSchema#nonNegativeInteger
p87
sVtype
p88
Vtyped-literal
p89
sVvalue
p90
V3533
p91
ssa(dp92
g7
(dp93
Vtype
p94
Vuri
p95
sVvalue
p96
Vhttp://dbpedia.org/ontology/wikiPageModified
p97
ssg8
(dp98
Vdatatype
p99
Vhttp://www.w3.org/2001/XMLSchema#dateTime
p100
sVtype
p101
Vtyped-literal
p102
sVvalue
p103
V2016-03-10T21:47:57Z
p104
ssa(dp105
g7
(dp106
Vtype
p107
Vuri
p108
sVvalue
p109
Vhttp://dbpedia.org/ontology/wikiPageOutDegree
p110
ssg8
(dp111
Vdatatype
p112
Vhttp://www.w3.org/2001/XMLSchema#nonNegativeInteger
p113
sVtype
p114
Vtyped-literal
p115
sVvalue
p116
V34
p117
ssa(dp118
g7
(dp119
Vtype
p120
Vuri
p121
sVvalue
p122
Vhttp://dbpedia.org/ontology/aSide
p123
ssg8
(dp124
Vtype
p125
Vliteral
p126
sVvalue
p127
V"Little Mama"
p128
ssasVordered
p129
I01
ss.