(dp0
Vhead
p1
(dp2
Vlink
p3
(lp4
sVvars
p5
(lp6
Vp
p7
aVo
p8
assVresults
p9
(dp10
Vdistinct
p11
I00
sVbindings
p12
(lp13
(dp14
g7
(dp15
Vtype
p16
Vuri
p17
sVvalue
p18
Vhttp://dbpedia.org/ontology/PopulatedPlace/areaTotal
p19
ssg8
(dp20
Vdatatype
p21
Vhttp://dbpedia.org/datatype/squareKilometre
p22
sVtype
p23
Vtyped-literal
p24
sVvalue
p25
V4.265710417723392
p26
ssa(dp27
g7
(dp28
Vtype
p29
Vuri
p30
sVvalue
p31
Vhttp://dbpedia.org/ontology/PopulatedPlace/areaTotal
p32
ssg8
(dp33
Vdatatype
p34
Vhttp://dbpedia.org/datatype/squareKilometre
p35
sVtype
p36
Vtyped-literal
p37
sVvalue
p38
V4.266
p39
ssa(dp40
g7
(dp41
Vtype
p42
Vuri
p43
sVvalue
p44
Vhttp://dbpedia.org/ontology/PopulatedPlace/populationDensity
p45
ssg8
(dp46
Vdatatype
p47
Vhttp://dbpedia.org/datatype/inhabitantsPerSquareKilometre
p48
sVtype
p49
Vtyped-literal
p50
sVvalue
p51
V2140.55036695932
p52
ssa(dp53
g7
(dp54
Vtype
p55
Vuri
p56
sVvalue
p57
Vhttp://dbpedia.org/ontology/abstract
p58
ssg8
(dp59
Vxml:lang
p60
Ven
p61
sVtype
p62
Vliteral
p63
sVvalue
p64
VBelmar is a borough in Monmouth County, New Jersey, United States. As of the 2010 United States Census, the borough's population was 5,794, reflecting a decline of 251 (-4.2%) from the 6,045 counted in the 2000 Census, which had in turn increased by 168 (+2.9%) from the 5,877 counted in the 1990 Census.What is now Belmar was originally incorporated as Ocean Beach borough by an act of the New Jersey Legislature on April 9, 1885, from portions of Wall Township, based on the results of a referendum held two days earlier. On April 16, 1889, it became the City of Elcho borough, which lasted for a few weeks until the name was changed to the City of Belmar Borough as of May 14, 1889. The city acquired its current name, Borough of Belmar, on November 20, 1890. The borough's name means "beautiful sea" in Italian.
p65
ssa(dp66
g7
(dp67
Vtype
p68
Vuri
p69
sVvalue
p70
Vhttp://dbpedia.org/ontology/areaCode
p71
ssg8
(dp72
Vtype
p73
Vliteral
p74
sVvalue
p75
V732exchange: 681
p76
ssa(dp77
g7
(dp78
Vtype
p79
Vuri
p80
sVvalue
p81
Vhttp://dbpedia.org/ontology/areaLand
p82
ssg8
(dp83
Vdatatype
p84
Vhttp://www.w3.org/2001/XMLSchema#double
p85
sVtype
p86
Vtyped-literal
p87
sVvalue
p88
V2.70654e+06
p89
ssa(dp90
g7
(dp91
Vtype
p92
Vuri
p93
sVvalue
p94
Vhttp://dbpedia.org/ontology/areaLand
p95
ssg8
(dp96
Vdatatype
p97
Vhttp://www.w3.org/2001/XMLSchema#double
p98
sVtype
p99
Vtyped-literal
p100
sVvalue
p101
V2.707e+06
p102
ssa(dp103
g7
(dp104
Vtype
p105
Vuri
p106
sVvalue
p107
Vhttp://dbpedia.org/ontology/areaTotal
p108
ssg8
(dp109
Vdatatype
p110
Vhttp://www.w3.org/2001/XMLSchema#double
p111
sVtype
p112
Vtyped-literal
p113
sVvalue
p114
V4.26571e+06
p115
ssa(dp116
g7
(dp117
Vtype
p118
Vuri
p119
sVvalue
p120
Vhttp://dbpedia.org/ontology/areaTotal
p121
ssg8
(dp122
Vdatatype
p123
Vhttp://www.w3.org/2001/XMLSchema#double
p124
sVtype
p125
Vtyped-literal
p126
sVvalue
p127
V4.266e+06
p128
ssa(dp129
g7
(dp130
Vtype
p131
Vuri
p132
sVvalue
p133
Vhttp://dbpedia.org/ontology/areaWater
p134
ssg8
(dp135
Vdatatype
p136
Vhttp://www.w3.org/2001/XMLSchema#double
p137
sVtype
p138
Vtyped-literal
p139
sVvalue
p140
V1.559e+06
p141
ssa(dp142
g7
(dp143
Vtype
p144
Vuri
p145
sVvalue
p146
Vhttp://dbpedia.org/ontology/areaWater
p147
ssg8
(dp148
Vdatatype
p149
Vhttp://www.w3.org/2001/XMLSchema#double
p150
sVtype
p151
Vtyped-literal
p152
sVvalue
p153
V1.55917e+06
p154
ssa(dp155
g7
(dp156
Vtype
p157
Vuri
p158
sVvalue
p159
Vhttp://dbpedia.org/ontology/elevation
p160
ssg8
(dp161
Vdatatype
p162
Vhttp://www.w3.org/2001/XMLSchema#double
p163
sVtype
p164
Vtyped-literal
p165
sVvalue
p166
V3.9624
p167
ssa(dp168
g7
(dp169
Vtype
p170
Vuri
p171
sVvalue
p172
Vhttp://dbpedia.org/ontology/foundingDate
p173
ssg8
(dp174
Vdatatype
p175
Vhttp://www.w3.org/2001/XMLSchema#date
p176
sVtype
p177
Vtyped-literal
p178
sVvalue
p179
V1885-04-09
p180
ssa(dp181
g7
(dp182
Vtype
p183
Vuri
p184
sVvalue
p185
Vhttp://dbpedia.org/ontology/foundingDate
p186
ssg8
(dp187
Vdatatype
p188
Vhttp://www.w3.org/2001/XMLSchema#date
p189
sVtype
p190
Vtyped-literal
p191
sVvalue
p192
V1889-04-16
p193
ssa(dp194
g7
(dp195
Vtype
p196
Vuri
p197
sVvalue
p198
Vhttp://dbpedia.org/ontology/foundingDate
p199
ssg8
(dp200
Vdatatype
p201
Vhttp://www.w3.org/2001/XMLSchema#date
p202
sVtype
p203
Vtyped-literal
p204
sVvalue
p205
V1889-05-14
p206
ssa(dp207
g7
(dp208
Vtype
p209
Vuri
p210
sVvalue
p211
Vhttp://dbpedia.org/ontology/leaderTitle
p212
ssg8
(dp213
Vxml:lang
p214
Ven
p215
sVtype
p216
Vliteral
p217
sVvalue
p218
VAdministrator
p219
ssa(dp220
g7
(dp221
Vtype
p222
Vuri
p223
sVvalue
p224
Vhttp://dbpedia.org/ontology/leaderTitle
p225
ssg8
(dp226
Vxml:lang
p227
Ven
p228
sVtype
p229
Vliteral
p230
sVvalue
p231
VMayor
p232
ssa(dp233
g7
(dp234
Vtype
p235
Vuri
p236
sVvalue
p237
Vhttp://dbpedia.org/ontology/leaderTitle
p238
ssg8
(dp239
Vxml:lang
p240
Ven
p241
sVtype
p242
Vliteral
p243
sVvalue
p244
VClerk
p245
ssa(dp246
g7
(dp247
Vtype
p248
Vuri
p249
sVvalue
p250
Vhttp://dbpedia.org/ontology/percentageOfAreaWater
p251
ssg8
(dp252
Vdatatype
p253
Vhttp://www.w3.org/2001/XMLSchema#float
p254
sVtype
p255
Vtyped-literal
p256
sVvalue
p257
V36.54
p258
ssa(dp259
g7
(dp260
Vtype
p261
Vuri
p262
sVvalue
p263
Vhttp://dbpedia.org/ontology/populationDensity
p264
ssg8
(dp265
Vdatatype
p266
Vhttp://www.w3.org/2001/XMLSchema#double
p267
sVtype
p268
Vtyped-literal
p269
sVvalue
p270
V2140.55
p271
ssa(dp272
g7
(dp273
Vtype
p274
Vuri
p275
sVvalue
p276
Vhttp://dbpedia.org/ontology/populationTotal
p277
ssg8
(dp278
Vdatatype
p279
Vhttp://www.w3.org/2001/XMLSchema#nonNegativeInteger
p280
sVtype
p281
Vtyped-literal
p282
sVvalue
p283
V5794
p284
ssa(dp285
g7
(dp286
Vtype
p287
Vuri
p288
sVvalue
p289
Vhttp://dbpedia.org/ontology/populationTotalRanking
p290
ssg8
(dp291
Vdatatype
p292
Vhttp://www.w3.org/2001/XMLSchema#positiveInteger
p293
sVtype
p294
Vtyped-literal
p295
sVvalue
p296
V31
p297
ssa(dp298
g7
(dp299
Vtype
p300
Vuri
p301
sVvalue
p302
Vhttp://dbpedia.org/ontology/populationTotalRanking
p303
ssg8
(dp304
Vdatatype
p305
Vhttp://www.w3.org/2001/XMLSchema#positiveInteger
p306
sVtype
p307
Vtyped-literal
p308
sVvalue
p309
V356
p310
ssa(dp311
g7
(dp312
Vtype
p313
Vuri
p314
sVvalue
p315
Vhttp://dbpedia.org/ontology/postalCode
p316
ssg8
(dp317
Vtype
p318
Vliteral
p319
sVvalue
p320
V07715, 07719
p321
ssa(dp322
g7
(dp323
Vtype
p324
Vuri
p325
sVvalue
p326
Vhttp://dbpedia.org/ontology/utcOffset
p327
ssg8
(dp328
Vtype
p329
Vliteral
p330
sVvalue
p331
V-4
p332
ssa(dp333
g7
(dp334
Vtype
p335
Vuri
p336
sVvalue
p337
Vhttp://dbpedia.org/ontology/utcOffset
p338
ssg8
(dp339
Vtype
p340
Vliteral
p341
sVvalue
p342
V-5
p343
ssa(dp344
g7
(dp345
Vtype
p346
Vuri
p347
sVvalue
p348
Vhttp://dbpedia.org/ontology/wikiPageExtracted
p349
ssg8
(dp350
Vdatatype
p351
Vhttp://www.w3.org/2001/XMLSchema#dateTime
p352
sVtype
p353
Vtyped-literal
p354
sVvalue
p355
V2016-10-28T02:33:09Z
p356
ssa(dp357
g7
(dp358
Vtype
p359
Vuri
p360
sVvalue
p361
Vhttp://dbpedia.org/ontology/wikiPageLength
p362
ssg8
(dp363
Vdatatype
p364
Vhttp://www.w3.org/2001/XMLSchema#nonNegativeInteger
p365
sVtype
p366
Vtyped-literal
p367
sVvalue
p368
V52718
p369
ssa(dp370
g7
(dp371
Vtype
p372
Vuri
p373
sVvalue
p374
Vhttp://dbpedia.org/ontology/wikiPageModified
p375
ssg8
(dp376
Vdatatype
p377
Vhttp://www.w3.org/2001/XMLSchema#dateTime
p378
sVtype
p379
Vtyped-literal
p380
sVvalue
p381
V2016-09-29T14:57:04Z
p382
ssa(dp383
g7
(dp384
Vtype
p385
Vuri
p386
sVvalue
p387
Vhttp://dbpedia.org/ontology/wikiPageOutDegree
p388
ssg8
(dp389
Vdatatype
p390
Vhttp://www.w3.org/2001/XMLSchema#nonNegativeInteger
p391
sVtype
p392
Vtyped-literal
p393
sVvalue
p394
V210
p395
ssasVordered
p396
I01
ss.