(dp0
Vhead
p1
(dp2
Vlink
p3
(lp4
sVvars
p5
(lp6
Vp
p7
aVo
p8
assVresults
p9
(dp10
Vdistinct
p11
I00
sVbindings
p12
(lp13
(dp14
g7
(dp15
Vtype
p16
Vuri
p17
sVvalue
p18
Vhttp://dbpedia.org/ontology/PopulatedPlace/areaTotal
p19
ssg8
(dp20
Vdatatype
p21
Vhttp://dbpedia.org/datatype/squareKilometre
p22
sVtype
p23
Vtyped-literal
p24
sVvalue
p25
V42.2
p26
ssa(dp27
g7
(dp28
Vtype
p29
Vuri
p30
sVvalue
p31
Vhttp://dbpedia.org/ontology/PopulatedPlace/areaTotal
p32
ssg8
(dp33
Vdatatype
p34
Vhttp://dbpedia.org/datatype/squareKilometre
p35
sVtype
p36
Vtyped-literal
p37
sVvalue
p38
V42.4758050095104
p39
ssa(dp40
g7
(dp41
Vtype
p42
Vuri
p43
sVvalue
p44
Vhttp://dbpedia.org/ontology/PopulatedPlace/populationDensity
p45
ssg8
(dp46
Vdatatype
p47
Vhttp://dbpedia.org/datatype/inhabitantsPerSquareKilometre
p48
sVtype
p49
Vtyped-literal
p50
sVvalue
p51
V347.8394346308895
p52
ssa(dp53
g7
(dp54
Vtype
p55
Vuri
p56
sVvalue
p57
Vhttp://dbpedia.org/ontology/PopulatedPlace/populationDensity
p58
ssg8
(dp59
Vdatatype
p60
Vhttp://dbpedia.org/datatype/inhabitantsPerSquareKilometre
p61
sVtype
p62
Vtyped-literal
p63
sVvalue
p64
V350.1
p65
ssa(dp66
g7
(dp67
Vtype
p68
Vuri
p69
sVvalue
p70
Vhttp://dbpedia.org/ontology/abstract
p71
ssg8
(dp72
Vxml:lang
p73
Ven
p74
sVtype
p75
Vliteral
p76
sVvalue
p77
VForrest City is a city in St. Francis County, Arkansas, United States, and the county seat. It was named for General Nathan Bedford Forrest, who used the location as a campsite for a construction crew completing a railroad between Memphis and Little Rock, shortly after the Civil War. The population was 15,371 at the 2010 census, an increase from 14,774 in 2000. The city refers to itself as the "Jewel of the Delta".
p78
ssa(dp79
g7
(dp80
Vtype
p81
Vuri
p82
sVvalue
p83
Vhttp://dbpedia.org/ontology/areaLand
p84
ssg8
(dp85
Vdatatype
p86
Vhttp://www.w3.org/2001/XMLSchema#double
p87
sVtype
p88
Vtyped-literal
p89
sVvalue
p90
V4.21e+07
p91
ssa(dp92
g7
(dp93
Vtype
p94
Vuri
p95
sVvalue
p96
Vhttp://dbpedia.org/ontology/areaLand
p97
ssg8
(dp98
Vdatatype
p99
Vhttp://www.w3.org/2001/XMLSchema#double
p100
sVtype
p101
Vtyped-literal
p102
sVvalue
p103
V4.22168e+07
p104
ssa(dp105
g7
(dp106
Vtype
p107
Vuri
p108
sVvalue
p109
Vhttp://dbpedia.org/ontology/areaTotal
p110
ssg8
(dp111
Vdatatype
p112
Vhttp://www.w3.org/2001/XMLSchema#double
p113
sVtype
p114
Vtyped-literal
p115
sVvalue
p116
V4.22e+07
p117
ssa(dp118
g7
(dp119
Vtype
p120
Vuri
p121
sVvalue
p122
Vhttp://dbpedia.org/ontology/areaTotal
p123
ssg8
(dp124
Vdatatype
p125
Vhttp://www.w3.org/2001/XMLSchema#double
p126
sVtype
p127
Vtyped-literal
p128
sVvalue
p129
V4.24758e+07
p130
ssa(dp131
g7
(dp132
Vtype
p133
Vuri
p134
sVvalue
p135
Vhttp://dbpedia.org/ontology/areaWater
p136
ssg8
(dp137
Vdatatype
p138
Vhttp://www.w3.org/2001/XMLSchema#double
p139
sVtype
p140
Vtyped-literal
p141
sVvalue
p142
V100000.0
p143
ssa(dp144
g7
(dp145
Vtype
p146
Vuri
p147
sVvalue
p148
Vhttp://dbpedia.org/ontology/areaWater
p149
ssg8
(dp150
Vdatatype
p151
Vhttp://www.w3.org/2001/XMLSchema#double
p152
sVtype
p153
Vtyped-literal
p154
sVvalue
p155
V258999.0
p156
ssa(dp157
g7
(dp158
Vtype
p159
Vuri
p160
sVvalue
p161
Vhttp://dbpedia.org/ontology/elevation
p162
ssg8
(dp163
Vdatatype
p164
Vhttp://www.w3.org/2001/XMLSchema#double
p165
sVtype
p166
Vtyped-literal
p167
sVvalue
p168
V77.0
p169
ssa(dp170
g7
(dp171
Vtype
p172
Vuri
p173
sVvalue
p174
Vhttp://dbpedia.org/ontology/elevation
p175
ssg8
(dp176
Vdatatype
p177
Vhttp://www.w3.org/2001/XMLSchema#double
p178
sVtype
p179
Vtyped-literal
p180
sVvalue
p181
V77.1144
p182
ssa(dp183
g7
(dp184
Vtype
p185
Vuri
p186
sVvalue
p187
Vhttp://dbpedia.org/ontology/leaderTitle
p188
ssg8
(dp189
Vxml:lang
p190
Ven
p191
sVtype
p192
Vliteral
p193
sVvalue
p194
VMayor
p195
ssa(dp196
g7
(dp197
Vtype
p198
Vuri
p199
sVvalue
p200
Vhttp://dbpedia.org/ontology/motto
p201
ssg8
(dp202
Vtype
p203
Vliteral
p204
sVvalue
p205
VOne Forrest City, moving forward, one step at a time
p206
ssa(dp207
g7
(dp208
Vtype
p209
Vuri
p210
sVvalue
p211
Vhttp://dbpedia.org/ontology/populationDensity
p212
ssg8
(dp213
Vdatatype
p214
Vhttp://www.w3.org/2001/XMLSchema#double
p215
sVtype
p216
Vtyped-literal
p217
sVvalue
p218
V347.839
p219
ssa(dp220
g7
(dp221
Vtype
p222
Vuri
p223
sVvalue
p224
Vhttp://dbpedia.org/ontology/populationDensity
p225
ssg8
(dp226
Vdatatype
p227
Vhttp://www.w3.org/2001/XMLSchema#double
p228
sVtype
p229
Vtyped-literal
p230
sVvalue
p231
V350.1
p232
ssa(dp233
g7
(dp234
Vtype
p235
Vuri
p236
sVvalue
p237
Vhttp://dbpedia.org/ontology/populationTotal
p238
ssg8
(dp239
Vdatatype
p240
Vhttp://www.w3.org/2001/XMLSchema#nonNegativeInteger
p241
sVtype
p242
Vtyped-literal
p243
sVvalue
p244
V15435
p245
ssa(dp246
g7
(dp247
Vtype
p248
Vuri
p249
sVvalue
p250
Vhttp://dbpedia.org/ontology/utcOffset
p251
ssg8
(dp252
Vtype
p253
Vliteral
p254
sVvalue
p255
V-5
p256
ssa(dp257
g7
(dp258
Vtype
p259
Vuri
p260
sVvalue
p261
Vhttp://dbpedia.org/ontology/utcOffset
p262
ssg8
(dp263
Vtype
p264
Vliteral
p265
sVvalue
p266
V-6
p267
ssa(dp268
g7
(dp269
Vtype
p270
Vuri
p271
sVvalue
p272
Vhttp://dbpedia.org/ontology/wikiPageExtracted
p273
ssg8
(dp274
Vdatatype
p275
Vhttp://www.w3.org/2001/XMLSchema#dateTime
p276
sVtype
p277
Vtyped-literal
p278
sVvalue
p279
V2016-10-30T14:20:42Z
p280
ssa(dp281
g7
(dp282
Vtype
p283
Vuri
p284
sVvalue
p285
Vhttp://dbpedia.org/ontology/wikiPageLength
p286
ssg8
(dp287
Vdatatype
p288
Vhttp://www.w3.org/2001/XMLSchema#nonNegativeInteger
p289
sVtype
p290
Vtyped-literal
p291
sVvalue
p292
V15743
p293
ssa(dp294
g7
(dp295
Vtype
p296
Vuri
p297
sVvalue
p298
Vhttp://dbpedia.org/ontology/wikiPageModified
p299
ssg8
(dp300
Vdatatype
p301
Vhttp://www.w3.org/2001/XMLSchema#dateTime
p302
sVtype
p303
Vtyped-literal
p304
sVvalue
p305
V2016-09-05T14:43:16Z
p306
ssa(dp307
g7
(dp308
Vtype
p309
Vuri
p310
sVvalue
p311
Vhttp://dbpedia.org/ontology/wikiPageOutDegree
p312
ssg8
(dp313
Vdatatype
p314
Vhttp://www.w3.org/2001/XMLSchema#nonNegativeInteger
p315
sVtype
p316
Vtyped-literal
p317
sVvalue
p318
V108
p319
ssasVordered
p320
I01
ss.