(dp0
Vhead
p1
(dp2
Vlink
p3
(lp4
sVvars
p5
(lp6
Vp
p7
aVo
p8
assVresults
p9
(dp10
Vdistinct
p11
I00
sVbindings
p12
(lp13
(dp14
g7
(dp15
Vtype
p16
Vuri
p17
sVvalue
p18
Vhttp://dbpedia.org/ontology/abstract
p19
ssg8
(dp20
Vxml:lang
p21
Ven
p22
sVtype
p23
Vliteral
p24
sVvalue
p25
VA widow is a woman whose spouse has died, while a widower is a man in that situation. The state of having lost one's spouse to death is termed widowhood. These terms are not applied to a person after he or she becomes divorced from their former spouse, though they may sometimes be used after the former spouse has died.This term "widowhood" can be used for either sex, at least according to some dictionaries, but the word widowerhood is also listed in some dictionaries. Occasionally, the word viduity is used. The adjective form for either sex is widowed.The treatment of widows around the world varies, but unequal benefits and treatment generally received by widows compared to those received by widowers globally has spurred an interest in the issue by human rights activists.When the death of a spouse occurs, It is said that a widowhood effect is to arise. This is a a phenomenon that refers to the increased mortality rate after the death of a spouse. It is \u201cstrongest during the first three months after a spouse's death, when they had a 66-percent increased chance of dying\u201d (Jegtvig 2013). Most widows and widowers suffer from this effect during the first 3 months of their spouses\u2019 death, however they can also suffer from this effect later on in their life for much longer than 3 months. There remains a controversy of whether women or men have worse effects from becoming widowed and studies have attempted to make their case for which side is worse off, while other studies try to show that there are no true differences based on gender and other factors are responsible for differences that have
p26
ssa(dp27
g7
(dp28
Vtype
p29
Vuri
p30
sVvalue
p31
Vhttp://dbpedia.org/ontology/wikiPageExtracted
p32
ssg8
(dp33
Vdatatype
p34
Vhttp://www.w3.org/2001/XMLSchema#dateTime
p35
sVtype
p36
Vtyped-literal
p37
sVvalue
p38
V2016-08-25T13:19:13Z
p39
ssa(dp40
g7
(dp41
Vtype
p42
Vuri
p43
sVvalue
p44
Vhttp://dbpedia.org/ontology/wikiPageLength
p45
ssg8
(dp46
Vdatatype
p47
Vhttp://www.w3.org/2001/XMLSchema#nonNegativeInteger
p48
sVtype
p49
Vtyped-literal
p50
sVvalue
p51
V14038
p52
ssa(dp53
g7
(dp54
Vtype
p55
Vuri
p56
sVvalue
p57
Vhttp://dbpedia.org/ontology/wikiPageModified
p58
ssg8
(dp59
Vdatatype
p60
Vhttp://www.w3.org/2001/XMLSchema#dateTime
p61
sVtype
p62
Vtyped-literal
p63
sVvalue
p64
V2016-08-11T02:23:39Z
p65
ssa(dp66
g7
(dp67
Vtype
p68
Vuri
p69
sVvalue
p70
Vhttp://dbpedia.org/ontology/wikiPageOutDegree
p71
ssg8
(dp72
Vdatatype
p73
Vhttp://www.w3.org/2001/XMLSchema#nonNegativeInteger
p74
sVtype
p75
Vtyped-literal
p76
sVvalue
p77
V23
p78
ssasVordered
p79
I01
ss.