(dp0
Vhead
p1
(dp2
Vlink
p3
(lp4
sVvars
p5
(lp6
Vp
p7
aVo
p8
assVresults
p9
(dp10
Vdistinct
p11
I00
sVbindings
p12
(lp13
(dp14
g7
(dp15
Vtype
p16
Vuri
p17
sVvalue
p18
Vhttp://dbpedia.org/ontology/abstract
p19
ssg8
(dp20
Vxml:lang
p21
Ven
p22
sVtype
p23
Vliteral
p24
sVvalue
p25
VSugarloaf (formerly Sugarloaf/USA) is a ski area and resort located on Sugarloaf Mountain in Carrabassett Valley, western Maine. It is the largest ski resort east of the Mississippi terms of number of skiable acreage (1,230 acres or 500 ha after Killington's 1,509 acres or 611 ha) and snowmaking percentage (95%); its continuous vertical drop of 2,820 feet (860 m) is the second longest in New England (after Killington's 3,050 feet (930 m)). Sugarloaf recorded a total of 352,000 skier visits in the 2005\u20132006 season, ranking it second among Maine resorts and 11th in New England, according to Ski Area Management magazine.At 4,237 feet (1291 m) Sugarloaf Mountain is second in elevation to Maine's highest peak, Mount Katahdin. The summit of Sugarloaf offers the only lift-serviced above-treeline skiing in the Northeast. The Appalachian Trail crosses within 0.6 miles (0.97 km) of Sugarloaf's peak and the summit offers 360 degree views of Maine's western mountains and New Hampshire's White Mountains.As of March 2010, there were 54 miles (87 km) of marked trails and a total of 651 acres (263 ha) of developed trails. There were 1,400 acres (570 ha) of skiable area boundary to boundary. The fifteen chairlifts have the capacity to carry 21,180 skiers per hour. There are also 154 marked trails and glades, most of which are named after logging terms in a tribute to Maine's logging history. Trails include thirty-four rated as green circle (25%), forty-four blue square (32%,), thirty-nine black diamond (28%), and twenty-one rated double black diamond (15%). There are also twenty glades (13%), and three terrain parks. Lifts include two SuperQuads, 3 high-capacity quads, five doubles, one triple, one T-bar, and one carpet surface lift. The Sugarloaf season runs from mid-November through early May.
p26
ssa(dp27
g7
(dp28
Vtype
p29
Vuri
p30
sVvalue
p31
Vhttp://dbpedia.org/ontology/areaTotal
p32
ssg8
(dp33
Vdatatype
p34
Vhttp://www.w3.org/2001/XMLSchema#double
p35
sVtype
p36
Vtyped-literal
p37
sVvalue
p38
V4.97763e+06
p39
ssa(dp40
g7
(dp41
Vtype
p42
Vuri
p43
sVvalue
p44
Vhttp://dbpedia.org/ontology/maximumElevation
p45
ssg8
(dp46
Vdatatype
p47
Vhttp://www.w3.org/2001/XMLSchema#double
p48
sVtype
p49
Vtyped-literal
p50
sVvalue
p51
V1291.44
p52
ssa(dp53
g7
(dp54
Vtype
p55
Vuri
p56
sVvalue
p57
Vhttp://dbpedia.org/ontology/minimumElevation
p58
ssg8
(dp59
Vdatatype
p60
Vhttp://www.w3.org/2001/XMLSchema#double
p61
sVtype
p62
Vtyped-literal
p63
sVvalue
p64
V431.902
p65
ssa(dp66
g7
(dp67
Vtype
p68
Vuri
p69
sVvalue
p70
Vhttp://dbpedia.org/ontology/wikiPageExtracted
p71
ssg8
(dp72
Vdatatype
p73
Vhttp://www.w3.org/2001/XMLSchema#dateTime
p74
sVtype
p75
Vtyped-literal
p76
sVvalue
p77
V2016-11-06T11:20:59Z
p78
ssa(dp79
g7
(dp80
Vtype
p81
Vuri
p82
sVvalue
p83
Vhttp://dbpedia.org/ontology/wikiPageLength
p84
ssg8
(dp85
Vdatatype
p86
Vhttp://www.w3.org/2001/XMLSchema#nonNegativeInteger
p87
sVtype
p88
Vtyped-literal
p89
sVvalue
p90
V33961
p91
ssa(dp92
g7
(dp93
Vtype
p94
Vuri
p95
sVvalue
p96
Vhttp://dbpedia.org/ontology/wikiPageModified
p97
ssg8
(dp98
Vdatatype
p99
Vhttp://www.w3.org/2001/XMLSchema#dateTime
p100
sVtype
p101
Vtyped-literal
p102
sVvalue
p103
V2016-09-07T18:26:09Z
p104
ssa(dp105
g7
(dp106
Vtype
p107
Vuri
p108
sVvalue
p109
Vhttp://dbpedia.org/ontology/wikiPageOutDegree
p110
ssg8
(dp111
Vdatatype
p112
Vhttp://www.w3.org/2001/XMLSchema#nonNegativeInteger
p113
sVtype
p114
Vtyped-literal
p115
sVvalue
p116
V106
p117
ssasVordered
p118
I01
ss.