(dp0
Vhead
p1
(dp2
Vlink
p3
(lp4
sVvars
p5
(lp6
Vp
p7
aVo
p8
assVresults
p9
(dp10
Vdistinct
p11
I00
sVbindings
p12
(lp13
(dp14
g7
(dp15
Vtype
p16
Vuri
p17
sVvalue
p18
Vhttp://dbpedia.org/ontology/abstract
p19
ssg8
(dp20
Vxml:lang
p21
Ven
p22
sVtype
p23
Vliteral
p24
sVvalue
p25
VBrockman "Brock" Adams (January 13, 1927 \u2013 September 10, 2004) was an American politician and member of Congress. Adams was a Democrat from Washington and served as a U.S. Representative, Senator, and United States Secretary of Transportation before retiring in January 1993.
p26
ssa(dp27
g7
(dp28
Vtype
p29
Vuri
p30
sVvalue
p31
Vhttp://dbpedia.org/ontology/activeYearsEndDate
p32
ssg8
(dp33
Vdatatype
p34
Vhttp://www.w3.org/2001/XMLSchema#date
p35
sVtype
p36
Vtyped-literal
p37
sVvalue
p38
V1977-01-03
p39
ssa(dp40
g7
(dp41
Vtype
p42
Vuri
p43
sVvalue
p44
Vhttp://dbpedia.org/ontology/activeYearsEndDate
p45
ssg8
(dp46
Vdatatype
p47
Vhttp://www.w3.org/2001/XMLSchema#date
p48
sVtype
p49
Vtyped-literal
p50
sVvalue
p51
V1977-01-22
p52
ssa(dp53
g7
(dp54
Vtype
p55
Vuri
p56
sVvalue
p57
Vhttp://dbpedia.org/ontology/activeYearsEndDate
p58
ssg8
(dp59
Vdatatype
p60
Vhttp://www.w3.org/2001/XMLSchema#date
p61
sVtype
p62
Vtyped-literal
p63
sVvalue
p64
V1979-07-20
p65
ssa(dp66
g7
(dp67
Vtype
p68
Vuri
p69
sVvalue
p70
Vhttp://dbpedia.org/ontology/activeYearsEndDate
p71
ssg8
(dp72
Vdatatype
p73
Vhttp://www.w3.org/2001/XMLSchema#date
p74
sVtype
p75
Vtyped-literal
p76
sVvalue
p77
V1993-01-03
p78
ssa(dp79
g7
(dp80
Vtype
p81
Vuri
p82
sVvalue
p83
Vhttp://dbpedia.org/ontology/activeYearsStartDate
p84
ssg8
(dp85
Vdatatype
p86
Vhttp://www.w3.org/2001/XMLSchema#date
p87
sVtype
p88
Vtyped-literal
p89
sVvalue
p90
V1965-01-03
p91
ssa(dp92
g7
(dp93
Vtype
p94
Vuri
p95
sVvalue
p96
Vhttp://dbpedia.org/ontology/activeYearsStartDate
p97
ssg8
(dp98
Vdatatype
p99
Vhttp://www.w3.org/2001/XMLSchema#date
p100
sVtype
p101
Vtyped-literal
p102
sVvalue
p103
V1975-01-03
p104
ssa(dp105
g7
(dp106
Vtype
p107
Vuri
p108
sVvalue
p109
Vhttp://dbpedia.org/ontology/activeYearsStartDate
p110
ssg8
(dp111
Vdatatype
p112
Vhttp://www.w3.org/2001/XMLSchema#date
p113
sVtype
p114
Vtyped-literal
p115
sVvalue
p116
V1977-01-23
p117
ssa(dp118
g7
(dp119
Vtype
p120
Vuri
p121
sVvalue
p122
Vhttp://dbpedia.org/ontology/activeYearsStartDate
p123
ssg8
(dp124
Vdatatype
p125
Vhttp://www.w3.org/2001/XMLSchema#date
p126
sVtype
p127
Vtyped-literal
p128
sVvalue
p129
V1987-01-03
p130
ssa(dp131
g7
(dp132
Vtype
p133
Vuri
p134
sVvalue
p135
Vhttp://dbpedia.org/ontology/birthDate
p136
ssg8
(dp137
Vdatatype
p138
Vhttp://www.w3.org/2001/XMLSchema#date
p139
sVtype
p140
Vtyped-literal
p141
sVvalue
p142
V1927-01-13
p143
ssa(dp144
g7
(dp145
Vtype
p146
Vuri
p147
sVvalue
p148
Vhttp://dbpedia.org/ontology/deathDate
p149
ssg8
(dp150
Vdatatype
p151
Vhttp://www.w3.org/2001/XMLSchema#date
p152
sVtype
p153
Vtyped-literal
p154
sVvalue
p155
V2004-09-10
p156
ssa(dp157
g7
(dp158
Vtype
p159
Vuri
p160
sVvalue
p161
Vhttp://dbpedia.org/ontology/office
p162
ssg8
(dp163
Vtype
p164
Vliteral
p165
sVvalue
p166
VChairman of theHouse Budget Committee
p167
ssa(dp168
g7
(dp169
Vtype
p170
Vuri
p171
sVvalue
p172
Vhttp://dbpedia.org/ontology/office
p173
ssg8
(dp174
Vtype
p175
Vliteral
p176
sVvalue
p177
VUnited States Attorney for the Western District of Washington
p178
ssa(dp179
g7
(dp180
Vtype
p181
Vuri
p182
sVvalue
p183
Vhttp://dbpedia.org/ontology/orderInOffice
p184
ssg8
(dp185
Vtype
p186
Vliteral
p187
sVvalue
p188
V5thUnited States Secretary of Transportation
p189
ssa(dp190
g7
(dp191
Vtype
p192
Vuri
p193
sVvalue
p194
Vhttp://dbpedia.org/ontology/serviceEndYear
p195
ssg8
(dp196
Vdatatype
p197
Vhttp://www.w3.org/2001/XMLSchema#gYear
p198
sVtype
p199
Vtyped-literal
p200
sVvalue
p201
V1946
p202
ssa(dp203
g7
(dp204
Vtype
p205
Vuri
p206
sVvalue
p207
Vhttp://dbpedia.org/ontology/serviceStartYear
p208
ssg8
(dp209
Vdatatype
p210
Vhttp://www.w3.org/2001/XMLSchema#gYear
p211
sVtype
p212
Vtyped-literal
p213
sVvalue
p214
V1944
p215
ssa(dp216
g7
(dp217
Vtype
p218
Vuri
p219
sVvalue
p220
Vhttp://dbpedia.org/ontology/wikiPageExtracted
p221
ssg8
(dp222
Vdatatype
p223
Vhttp://www.w3.org/2001/XMLSchema#dateTime
p224
sVtype
p225
Vtyped-literal
p226
sVvalue
p227
V2016-10-28T10:52:28Z
p228
ssa(dp229
g7
(dp230
Vtype
p231
Vuri
p232
sVvalue
p233
Vhttp://dbpedia.org/ontology/wikiPageLength
p234
ssg8
(dp235
Vdatatype
p236
Vhttp://www.w3.org/2001/XMLSchema#nonNegativeInteger
p237
sVtype
p238
Vtyped-literal
p239
sVvalue
p240
V10855
p241
ssa(dp242
g7
(dp243
Vtype
p244
Vuri
p245
sVvalue
p246
Vhttp://dbpedia.org/ontology/wikiPageModified
p247
ssg8
(dp248
Vdatatype
p249
Vhttp://www.w3.org/2001/XMLSchema#dateTime
p250
sVtype
p251
Vtyped-literal
p252
sVvalue
p253
V2016-10-08T22:21:13Z
p254
ssa(dp255
g7
(dp256
Vtype
p257
Vuri
p258
sVvalue
p259
Vhttp://dbpedia.org/ontology/wikiPageOutDegree
p260
ssg8
(dp261
Vdatatype
p262
Vhttp://www.w3.org/2001/XMLSchema#nonNegativeInteger
p263
sVtype
p264
Vtyped-literal
p265
sVvalue
p266
V99
p267
ssasVordered
p268
I01
ss.