(dp0
Vhead
p1
(dp2
Vlink
p3
(lp4
sVvars
p5
(lp6
Vp
p7
aVo
p8
assVresults
p9
(dp10
Vdistinct
p11
I00
sVbindings
p12
(lp13
(dp14
g7
(dp15
Vtype
p16
Vuri
p17
sVvalue
p18
Vhttp://dbpedia.org/ontology/abstract
p19
ssg8
(dp20
Vxml:lang
p21
Ven
p22
sVtype
p23
Vliteral
p24
sVvalue
p25
VFulton County Airport (IATA: FTY, ICAO: KFTY, FAA LID: FTY), also known as Charlie Brown Field, is a county owned, public use airport in Fulton County, Georgia, United States. It is located six nautical miles (7 mi, 11 km) west of the central business district of Atlanta. The airport's name comes from the nickname of former Atlanta politician Charles M. Brown, who served on the city council and county commission during the 1960s. It is also called Charlie Brown Airport or Brown Field. On the radio, however, it is referred to as "County Tower" or "County Ground".As per Federal Aviation Administration records, the airport had 293 passenger boardings (enplanements) in calendar year 2008, 198 enplanements in 2009, and 725 in 2010. It is included in the National Plan of Integrated Airport Systems for 2011\u20132015, which categorized it as a reliever airport.It is a local Class D airport located just west of Atlanta and the nearest airport to Hartsfield-Jackson Atlanta International Airport (which is just south of Atlanta), and handles much of the general aviation traffic that would otherwise go there. The airport exists below and in close proximity to ATL's Class B airspace.It is located very near Interstate 20, Interstate 285, and the Chattahoochee River, just outside the Atlanta city limits. It reports ASOS weather conditions 24 hours per day as West Atlanta. It also acted as the nearest backup weather station when Dobbins Air Reserve Base did not report overnight.
p26
ssa(dp27
g7
(dp28
Vtype
p29
Vuri
p30
sVvalue
p31
Vhttp://dbpedia.org/ontology/elevation
p32
ssg8
(dp33
Vdatatype
p34
Vhttp://www.w3.org/2001/XMLSchema#double
p35
sVtype
p36
Vtyped-literal
p37
sVvalue
p38
V256.337
p39
ssa(dp40
g7
(dp41
Vtype
p42
Vuri
p43
sVvalue
p44
Vhttp://dbpedia.org/ontology/icaoLocationIdentifier
p45
ssg8
(dp46
Vtype
p47
Vliteral
p48
sVvalue
p49
VKFTY
p50
ssa(dp51
g7
(dp52
Vtype
p53
Vuri
p54
sVvalue
p55
Vhttp://dbpedia.org/ontology/runwayDesignation
p56
ssg8
(dp57
Vtype
p58
Vliteral
p59
sVvalue
p60
V8/26
p61
ssa(dp62
g7
(dp63
Vtype
p64
Vuri
p65
sVvalue
p66
Vhttp://dbpedia.org/ontology/runwayDesignation
p67
ssg8
(dp68
Vtype
p69
Vliteral
p70
sVvalue
p71
V9/27
p72
ssa(dp73
g7
(dp74
Vtype
p75
Vuri
p76
sVvalue
p77
Vhttp://dbpedia.org/ontology/runwayDesignation
p78
ssg8
(dp79
Vtype
p80
Vliteral
p81
sVvalue
p82
V12/32
p83
ssa(dp84
g7
(dp85
Vtype
p86
Vuri
p87
sVvalue
p88
Vhttp://dbpedia.org/ontology/runwayLength
p89
ssg8
(dp90
Vdatatype
p91
Vhttp://www.w3.org/2001/XMLSchema#double
p92
sVtype
p93
Vtyped-literal
p94
sVvalue
p95
V853.745
p96
ssa(dp97
g7
(dp98
Vtype
p99
Vuri
p100
sVvalue
p101
Vhttp://dbpedia.org/ontology/runwayLength
p102
ssg8
(dp103
Vdatatype
p104
Vhttp://www.w3.org/2001/XMLSchema#double
p105
sVtype
p106
Vtyped-literal
p107
sVvalue
p108
V1267.05
p109
ssa(dp110
g7
(dp111
Vtype
p112
Vuri
p113
sVvalue
p114
Vhttp://dbpedia.org/ontology/runwayLength
p115
ssg8
(dp116
Vdatatype
p117
Vhttp://www.w3.org/2001/XMLSchema#double
p118
sVtype
p119
Vtyped-literal
p120
sVvalue
p121
V1766.62
p122
ssa(dp123
g7
(dp124
Vtype
p125
Vuri
p126
sVvalue
p127
Vhttp://dbpedia.org/ontology/runwaySurface
p128
ssg8
(dp129
Vtype
p130
Vliteral
p131
sVvalue
p132
VAsphalt
p133
ssa(dp134
g7
(dp135
Vtype
p136
Vuri
p137
sVvalue
p138
Vhttp://dbpedia.org/ontology/wikiPageExtracted
p139
ssg8
(dp140
Vdatatype
p141
Vhttp://www.w3.org/2001/XMLSchema#dateTime
p142
sVtype
p143
Vtyped-literal
p144
sVvalue
p145
V2016-10-30T17:49:52Z
p146
ssa(dp147
g7
(dp148
Vtype
p149
Vuri
p150
sVvalue
p151
Vhttp://dbpedia.org/ontology/wikiPageLength
p152
ssg8
(dp153
Vdatatype
p154
Vhttp://www.w3.org/2001/XMLSchema#nonNegativeInteger
p155
sVtype
p156
Vtyped-literal
p157
sVvalue
p158
V5784
p159
ssa(dp160
g7
(dp161
Vtype
p162
Vuri
p163
sVvalue
p164
Vhttp://dbpedia.org/ontology/wikiPageModified
p165
ssg8
(dp166
Vdatatype
p167
Vhttp://www.w3.org/2001/XMLSchema#dateTime
p168
sVtype
p169
Vtyped-literal
p170
sVvalue
p171
V2016-10-08T22:45:07Z
p172
ssa(dp173
g7
(dp174
Vtype
p175
Vuri
p176
sVvalue
p177
Vhttp://dbpedia.org/ontology/wikiPageOutDegree
p178
ssg8
(dp179
Vdatatype
p180
Vhttp://www.w3.org/2001/XMLSchema#nonNegativeInteger
p181
sVtype
p182
Vtyped-literal
p183
sVvalue
p184
V51
p185
ssa(dp186
g7
(dp187
Vtype
p188
Vuri
p189
sVvalue
p190
Vhttp://dbpedia.org/ontology/iataLocationIdentifier
p191
ssg8
(dp192
Vtype
p193
Vliteral
p194
sVvalue
p195
VFTY
p196
ssa(dp197
g7
(dp198
Vtype
p199
Vuri
p200
sVvalue
p201
Vhttp://dbpedia.org/ontology/faaLocationIdentifier
p202
ssg8
(dp203
Vtype
p204
Vliteral
p205
sVvalue
p206
VFTY
p207
ssasVordered
p208
I01
ss.