(dp0
Vhead
p1
(dp2
Vlink
p3
(lp4
sVvars
p5
(lp6
Vp
p7
aVo
p8
assVresults
p9
(dp10
Vdistinct
p11
I00
sVbindings
p12
(lp13
(dp14
g7
(dp15
Vtype
p16
Vuri
p17
sVvalue
p18
Vhttp://dbpedia.org/ontology/PopulatedPlace/areaTotal
p19
ssg8
(dp20
Vdatatype
p21
Vhttp://dbpedia.org/datatype/squareKilometre
p22
sVtype
p23
Vtyped-literal
p24
sVvalue
p25
V11458.0
p26
ssa(dp27
g7
(dp28
Vtype
p29
Vuri
p30
sVvalue
p31
Vhttp://dbpedia.org/ontology/PopulatedPlace/areaTotal
p32
ssg8
(dp33
Vdatatype
p34
Vhttp://dbpedia.org/datatype/squareKilometre
p35
sVtype
p36
Vtyped-literal
p37
sVvalue
p38
V11458.107400126464
p39
ssa(dp40
g7
(dp41
Vtype
p42
Vuri
p43
sVvalue
p44
Vhttp://dbpedia.org/ontology/abstract
p45
ssg8
(dp46
Vxml:lang
p47
Ven
p48
sVtype
p49
Vliteral
p50
sVvalue
p51
VNagorno-Karabakh, officially the Nagorno-Karabakh Republic (NKR; Armenian: \u053c\u0565\u057c\u0576\u0561\u0575\u056b\u0576 \u0542\u0561\u0580\u0561\u0562\u0561\u0572\u056b \u0540\u0561\u0576\u0580\u0561\u057a\u0565\u057f\u0578\u0582\u0569\u0575\u0578\u0582\u0576 Lernayin Gharabaghi Hanrapetut'yun), Artsakh Republic or Republic of Artsakh (Armenian: \u0531\u0580\u0581\u0561\u056d\u056b \u0540\u0561\u0576\u0580\u0561\u057a\u0565\u057f\u0578\u0582\u0569\u0575\u0578\u0582\u0576 Arts'akhi Hanrapetut'yun), is a republic in the South Caucasus recognised only by three non-United Nations (UN) states. The region is considered by the UN to be part of Azerbaijan. Nagorno-Karabakh controls most of the territory of the former Nagorno-Karabakh Autonomous Oblast and some of the surrounding area, giving it a border with Armenia to the west, Iran to the south, and the uncontested territory of Azerbaijan to the north and east.The predominantly Armenian-populated region of Nagorno-Karabakh was claimed by both the Azerbaijan Democratic Republic and the First Republic of Armenia when both countries became independent in 1918. After the Soviet Union established control over the area, it created the Nagorno-Karabakh Autonomous Oblast (NKAO) within the Azerbaijan SSR in 1923. In the final years of the Soviet Union, the region re-emerged as a source of dispute between Armenia and Azerbaijan. In 1991, a referendum held in the NKAO and the neighbouring Shahumian region resulted in a declaration of independence. Large-scale ethnic conflict led to the 1991\u20131994 Nagorno-Karabakh War, which ended with a ceasefire that left the current borders.The Nagorno-Karabakh Republic is a presidential democracy with a unicameral parliament. Its reliance on Armenia means that in many ways it functions de facto as part of Armenia. The country is very mountainous, averaging 1,097 metres (3,599 ft) above sea level. The population is predominantly Christian, most being affiliated with the Armenian Apostolic Church. Several historical monasteries are popular with tourists, mostly from the Armenian diaspora, as most travel can take place only between Armenia and Nagorno-Karabakh.
p52
ssa(dp53
g7
(dp54
Vtype
p55
Vuri
p56
sVvalue
p57
Vhttp://dbpedia.org/ontology/abstract
p58
ssg8
(dp59
Vxml:lang
p60
Ven
p61
sVtype
p62
Vliteral
p63
sVvalue
p64
VNagorno-Karabakh, officially the Nagorno-Karabakh Republic (NKR; Armenian: \u053c\u0565\u057c\u0576\u0561\u0575\u056b\u0576 \u0542\u0561\u0580\u0561\u0562\u0561\u0572\u056b \u0540\u0561\u0576\u0580\u0561\u057a\u0565\u057f\u0578\u0582\u0569\u0575\u0578\u0582\u0576 Lernayin Gharabaghi Hanrapetut'yun), Artsakh Republic or Republic of Artsakh (Armenian: \u0531\u0580\u0581\u0561\u056d\u056b \u0540\u0561\u0576\u0580\u0561\u057a\u0565\u057f\u0578\u0582\u0569\u0575\u0578\u0582\u0576 Arts'akhi Hanrapetut'yun), or more rarely when translated into English, Republic of Mountainous Karabakh, is a republic and De Facto state in the South Caucasus recognised only by three non-United Nations (UN) states. The mountainous Karabakh region is a disputed territory; it is considered by the UN to be part of Azerbaijan, but has been under the control of ethnic Armenian separatists since the early 1990s. Nagorno-Karabakh controls most of the territory of the former Nagorno-Karabakh Autonomous Oblast and some of the surrounding area, giving it a border with Armenia to the west, Iran to the south, and the uncontested territory of Azerbaijan to the north and east.The predominantly Armenian-populated region of Nagorno-Karabakh was claimed by both the Azerbaijan Democratic Republic and the First Republic of Armenia when both countries became independent in 1918 after the fall of the Ottoman Empire, and a brief war over Nagorno-Karabakh broke out in 1920. The dispute was largely shelved after the Soviet Union established control over the area and created the Nagorno-Karabakh Autonomous Oblast (NKAO) within the Azerbaijan SSR in 1923. During the fall of the Soviet Union, the region re-emerged as a source of dispute between Armenia and Azerbaijan. In 1991, a referendum held in the NKAO and the neighbouring Shahumian region resulted in a declaration of independence. Large-scale ethnic conflict led to the 1991\u20131994 Nagorno-Karabakh War, which ended with a ceasefire that left the current borders.The Nagorno-Karabakh Republic is a presidential democracy with a unicameral parliament. Its reliance on Armenia means that in many ways it functions de facto as part of Armenia. The country is very mountainous, averaging 1,097 metres (3,599 ft) above sea level. The population is predominantly Christian, most being affiliated with the Armenian Apostolic Church. Several historical monasteries are popular with tourists, mostly from the Armenian diaspora, as most travel can take place only between Armenia and Nagorno-Karabakh.
p65
ssa(dp66
g7
(dp67
Vtype
p68
Vuri
p69
sVvalue
p70
Vhttp://dbpedia.org/ontology/areaTotal
p71
ssg8
(dp72
Vdatatype
p73
Vhttp://www.w3.org/2001/XMLSchema#double
p74
sVtype
p75
Vtyped-literal
p76
sVvalue
p77
V1.1458e+10
p78
ssa(dp79
g7
(dp80
Vtype
p81
Vuri
p82
sVvalue
p83
Vhttp://dbpedia.org/ontology/areaTotal
p84
ssg8
(dp85
Vdatatype
p86
Vhttp://www.w3.org/2001/XMLSchema#double
p87
sVtype
p88
Vtyped-literal
p89
sVvalue
p90
V1.14581e+10
p91
ssa(dp92
g7
(dp93
Vtype
p94
Vuri
p95
sVvalue
p96
Vhttp://dbpedia.org/ontology/flag
p97
ssg8
(dp98
Vtype
p99
Vliteral
p100
sVvalue
p101
VFlag of Nagorno-Karabakh.svg
p102
ssa(dp103
g7
(dp104
Vtype
p105
Vuri
p106
sVvalue
p107
Vhttp://dbpedia.org/ontology/foundingDate
p108
ssg8
(dp109
Vdatatype
p110
Vhttp://www.w3.org/2001/XMLSchema#date
p111
sVtype
p112
Vtyped-literal
p113
sVvalue
p114
V1991-09-02
p115
ssa(dp116
g7
(dp117
Vtype
p118
Vuri
p119
sVvalue
p120
Vhttp://dbpedia.org/ontology/leaderTitle
p121
ssg8
(dp122
Vxml:lang
p123
Ven
p124
sVtype
p125
Vliteral
p126
sVvalue
p127
VPresident
p128
ssa(dp129
g7
(dp130
Vtype
p131
Vuri
p132
sVvalue
p133
Vhttp://dbpedia.org/ontology/leaderTitle
p134
ssg8
(dp135
Vxml:lang
p136
Ven
p137
sVtype
p138
Vliteral
p139
sVvalue
p140
VPrime Minister
p141
ssa(dp142
g7
(dp143
Vtype
p144
Vuri
p145
sVvalue
p146
Vhttp://dbpedia.org/ontology/leaderTitle
p147
ssg8
(dp148
Vxml:lang
p149
Ven
p150
sVtype
p151
Vliteral
p152
sVvalue
p153
VChairman of Parliament
p154
ssa(dp155
g7
(dp156
Vtype
p157
Vuri
p158
sVvalue
p159
Vhttp://dbpedia.org/ontology/longName
p160
ssg8
(dp161
Vxml:lang
p162
Ven
p163
sVtype
p164
Vliteral
p165
sVvalue
p166
VNagorno-Karabakh Republic
p167
ssa(dp168
g7
(dp169
Vtype
p170
Vuri
p171
sVvalue
p172
Vhttp://dbpedia.org/ontology/populationTotal
p173
ssg8
(dp174
Vdatatype
p175
Vhttp://www.w3.org/2001/XMLSchema#nonNegativeInteger
p176
sVtype
p177
Vtyped-literal
p178
sVvalue
p179
V146600
p180
ssa(dp181
g7
(dp182
Vtype
p183
Vuri
p184
sVvalue
p185
Vhttp://dbpedia.org/ontology/wikiPageExtracted
p186
ssg8
(dp187
Vdatatype
p188
Vhttp://www.w3.org/2001/XMLSchema#dateTime
p189
sVtype
p190
Vtyped-literal
p191
sVvalue
p192
V2016-11-03T15:01:55Z
p193
ssa(dp194
g7
(dp195
Vtype
p196
Vuri
p197
sVvalue
p198
Vhttp://dbpedia.org/ontology/wikiPageLength
p199
ssg8
(dp200
Vdatatype
p201
Vhttp://www.w3.org/2001/XMLSchema#nonNegativeInteger
p202
sVtype
p203
Vtyped-literal
p204
sVvalue
p205
V90676
p206
ssa(dp207
g7
(dp208
Vtype
p209
Vuri
p210
sVvalue
p211
Vhttp://dbpedia.org/ontology/wikiPageModified
p212
ssg8
(dp213
Vdatatype
p214
Vhttp://www.w3.org/2001/XMLSchema#dateTime
p215
sVtype
p216
Vtyped-literal
p217
sVvalue
p218
V2016-11-03T14:08:14Z
p219
ssa(dp220
g7
(dp221
Vtype
p222
Vuri
p223
sVvalue
p224
Vhttp://dbpedia.org/ontology/wikiPageOutDegree
p225
ssg8
(dp226
Vdatatype
p227
Vhttp://www.w3.org/2001/XMLSchema#nonNegativeInteger
p228
sVtype
p229
Vtyped-literal
p230
sVvalue
p231
V373
p232
ssasVordered
p233
I01
ss.