(dp0
Vhead
p1
(dp2
Vlink
p3
(lp4
sVvars
p5
(lp6
Vp
p7
aVo
p8
assVresults
p9
(dp10
Vdistinct
p11
I00
sVbindings
p12
(lp13
(dp14
g7
(dp15
Vtype
p16
Vuri
p17
sVvalue
p18
Vhttp://dbpedia.org/ontology/abstract
p19
ssg8
(dp20
Vxml:lang
p21
Ven
p22
sVtype
p23
Vliteral
p24
sVvalue
p25
VJagraon is a city, a municipal council, a rural police district and a sub-division of the Ludhiana district in the Indian state of Punjab. Jagraon is more than three centuries old. It has been thought that the city's original name was Jagar aon, meaning "a place of great flooding", although this flooding has since ceased. It could also be argued that Jagraon actually derives from a source with a suffix "-graon" being a development of the Sanskrit Grama, meaning "village" as found in the Hindi word Gaon. Jagraon is at almost the geographical center of Punjab state, 16 kilometres (9.9 mi) from the River Satluj. It is 37 km (23 mi) from its district headquarters Ludhiana, 29 km (18 mi) from Moga, 31 km (19 mi) from Nakodar, and 55 km (34 mi) from Barnala.
p26
ssa(dp27
g7
(dp28
Vtype
p29
Vuri
p30
sVvalue
p31
Vhttp://dbpedia.org/ontology/abstract
p32
ssg8
(dp33
Vxml:lang
p34
Ven
p35
sVtype
p36
Vliteral
p37
sVvalue
p38
VJagraon is a town and a municipal council, a rural police district and a sub-division of the Ludhiana district in the Indian state of Punjab. Jagraon is more than three centuries old. It has been thought that the city's original name was Jagar aon, meaning "a place of great flooding", although this flooding has since ceased. It could also be argued that Jagraon actually derives from a source with a suffix "-graon" being a development of the Sanskrit Grama, meaning "village" as found in the Hindi word Gaon. Jagraon is at almost the geographical centre of Punjab state, 16 kilometres (9.9 mi) from the River Satluj. It is 37 km (23 mi) from its district headquarters Ludhiana, 29 km (18 mi) from Moga, 31 km (19 mi) from Nakodar, and 55 km (34 mi) from Barnala.
p39
ssa(dp40
g7
(dp41
Vtype
p42
Vuri
p43
sVvalue
p44
Vhttp://dbpedia.org/ontology/areaCode
p45
ssg8
(dp46
Vtype
p47
Vliteral
p48
sVvalue
p49
V+91 1624
p50
ssa(dp51
g7
(dp52
Vtype
p53
Vuri
p54
sVvalue
p55
Vhttp://dbpedia.org/ontology/elevation
p56
ssg8
(dp57
Vdatatype
p58
Vhttp://www.w3.org/2001/XMLSchema#double
p59
sVtype
p60
Vtyped-literal
p61
sVvalue
p62
V234.0
p63
ssa(dp64
g7
(dp65
Vtype
p66
Vuri
p67
sVvalue
p68
Vhttp://dbpedia.org/ontology/leaderTitle
p69
ssg8
(dp70
Vxml:lang
p71
Ven
p72
sVtype
p73
Vliteral
p74
sVvalue
p75
VMLA (Member Legislative Assembly)
p76
ssa(dp77
g7
(dp78
Vtype
p79
Vuri
p80
sVvalue
p81
Vhttp://dbpedia.org/ontology/populationTotal
p82
ssg8
(dp83
Vdatatype
p84
Vhttp://www.w3.org/2001/XMLSchema#nonNegativeInteger
p85
sVtype
p86
Vtyped-literal
p87
sVvalue
p88
V65240
p89
ssa(dp90
g7
(dp91
Vtype
p92
Vuri
p93
sVvalue
p94
Vhttp://dbpedia.org/ontology/postalCode
p95
ssg8
(dp96
Vtype
p97
Vliteral
p98
sVvalue
p99
V142026
p100
ssa(dp101
g7
(dp102
Vtype
p103
Vuri
p104
sVvalue
p105
Vhttp://dbpedia.org/ontology/utcOffset
p106
ssg8
(dp107
Vtype
p108
Vliteral
p109
sVvalue
p110
V+5:30
p111
ssa(dp112
g7
(dp113
Vtype
p114
Vuri
p115
sVvalue
p116
Vhttp://dbpedia.org/ontology/wikiPageExtracted
p117
ssg8
(dp118
Vdatatype
p119
Vhttp://www.w3.org/2001/XMLSchema#dateTime
p120
sVtype
p121
Vtyped-literal
p122
sVvalue
p123
V2016-11-01T02:50:45Z
p124
ssa(dp125
g7
(dp126
Vtype
p127
Vuri
p128
sVvalue
p129
Vhttp://dbpedia.org/ontology/wikiPageLength
p130
ssg8
(dp131
Vdatatype
p132
Vhttp://www.w3.org/2001/XMLSchema#nonNegativeInteger
p133
sVtype
p134
Vtyped-literal
p135
sVvalue
p136
V17075
p137
ssa(dp138
g7
(dp139
Vtype
p140
Vuri
p141
sVvalue
p142
Vhttp://dbpedia.org/ontology/wikiPageModified
p143
ssg8
(dp144
Vdatatype
p145
Vhttp://www.w3.org/2001/XMLSchema#dateTime
p146
sVtype
p147
Vtyped-literal
p148
sVvalue
p149
V2016-10-30T07:42:34Z
p150
ssa(dp151
g7
(dp152
Vtype
p153
Vuri
p154
sVvalue
p155
Vhttp://dbpedia.org/ontology/wikiPageOutDegree
p156
ssg8
(dp157
Vdatatype
p158
Vhttp://www.w3.org/2001/XMLSchema#nonNegativeInteger
p159
sVtype
p160
Vtyped-literal
p161
sVvalue
p162
V77
p163
ssasVordered
p164
I01
ss.