(dp0
Vhead
p1
(dp2
Vlink
p3
(lp4
sVvars
p5
(lp6
Vp
p7
aVo
p8
assVresults
p9
(dp10
Vdistinct
p11
I00
sVbindings
p12
(lp13
(dp14
g7
(dp15
Vtype
p16
Vuri
p17
sVvalue
p18
Vhttp://dbpedia.org/ontology/abstract
p19
ssg8
(dp20
Vxml:lang
p21
Ven
p22
sVtype
p23
Vliteral
p24
sVvalue
p25
VSusanville Municipal Airport (IATA: SVE, ICAO: KSVE, FAA LID: SVE) is a city owned, public use airport located five nautical miles (6 mi, 9 km) southeast of the central business district of Susanville, a city in Lassen County, California, United States. It is included in the National Plan of Integrated Airport Systems for 2011\u20132015, which categorized it as a general aviation facility.
p26
ssa(dp27
g7
(dp28
Vtype
p29
Vuri
p30
sVvalue
p31
Vhttp://dbpedia.org/ontology/elevation
p32
ssg8
(dp33
Vdatatype
p34
Vhttp://www.w3.org/2001/XMLSchema#double
p35
sVtype
p36
Vtyped-literal
p37
sVvalue
p38
V1264.62
p39
ssa(dp40
g7
(dp41
Vtype
p42
Vuri
p43
sVvalue
p44
Vhttp://dbpedia.org/ontology/icaoLocationIdentifier
p45
ssg8
(dp46
Vtype
p47
Vliteral
p48
sVvalue
p49
VKSVE
p50
ssa(dp51
g7
(dp52
Vtype
p53
Vuri
p54
sVvalue
p55
Vhttp://dbpedia.org/ontology/runwayDesignation
p56
ssg8
(dp57
Vtype
p58
Vliteral
p59
sVvalue
p60
V11/29
p61
ssa(dp62
g7
(dp63
Vtype
p64
Vuri
p65
sVvalue
p66
Vhttp://dbpedia.org/ontology/runwayDesignation
p67
ssg8
(dp68
Vtype
p69
Vliteral
p70
sVvalue
p71
V7/25
p72
ssa(dp73
g7
(dp74
Vtype
p75
Vuri
p76
sVvalue
p77
Vhttp://dbpedia.org/ontology/runwayLength
p78
ssg8
(dp79
Vdatatype
p80
Vhttp://www.w3.org/2001/XMLSchema#double
p81
sVtype
p82
Vtyped-literal
p83
sVvalue
p84
V664.464
p85
ssa(dp86
g7
(dp87
Vtype
p88
Vuri
p89
sVvalue
p90
Vhttp://dbpedia.org/ontology/runwayLength
p91
ssg8
(dp92
Vdatatype
p93
Vhttp://www.w3.org/2001/XMLSchema#double
p94
sVtype
p95
Vtyped-literal
p96
sVvalue
p97
V1234.74
p98
ssa(dp99
g7
(dp100
Vtype
p101
Vuri
p102
sVvalue
p103
Vhttp://dbpedia.org/ontology/runwaySurface
p104
ssg8
(dp105
Vtype
p106
Vliteral
p107
sVvalue
p108
VAsphalt
p109
ssa(dp110
g7
(dp111
Vtype
p112
Vuri
p113
sVvalue
p114
Vhttp://dbpedia.org/ontology/runwaySurface
p115
ssg8
(dp116
Vtype
p117
Vliteral
p118
sVvalue
p119
VDirt
p120
ssa(dp121
g7
(dp122
Vtype
p123
Vuri
p124
sVvalue
p125
Vhttp://dbpedia.org/ontology/wikiPageExtracted
p126
ssg8
(dp127
Vdatatype
p128
Vhttp://www.w3.org/2001/XMLSchema#dateTime
p129
sVtype
p130
Vtyped-literal
p131
sVvalue
p132
V2016-11-06T12:47:45Z
p133
ssa(dp134
g7
(dp135
Vtype
p136
Vuri
p137
sVvalue
p138
Vhttp://dbpedia.org/ontology/wikiPageLength
p139
ssg8
(dp140
Vdatatype
p141
Vhttp://www.w3.org/2001/XMLSchema#nonNegativeInteger
p142
sVtype
p143
Vtyped-literal
p144
sVvalue
p145
V3157
p146
ssa(dp147
g7
(dp148
Vtype
p149
Vuri
p150
sVvalue
p151
Vhttp://dbpedia.org/ontology/wikiPageModified
p152
ssg8
(dp153
Vdatatype
p154
Vhttp://www.w3.org/2001/XMLSchema#dateTime
p155
sVtype
p156
Vtyped-literal
p157
sVvalue
p158
V2015-07-03T01:54:39Z
p159
ssa(dp160
g7
(dp161
Vtype
p162
Vuri
p163
sVvalue
p164
Vhttp://dbpedia.org/ontology/wikiPageOutDegree
p165
ssg8
(dp166
Vdatatype
p167
Vhttp://www.w3.org/2001/XMLSchema#nonNegativeInteger
p168
sVtype
p169
Vtyped-literal
p170
sVvalue
p171
V29
p172
ssa(dp173
g7
(dp174
Vtype
p175
Vuri
p176
sVvalue
p177
Vhttp://dbpedia.org/ontology/iataLocationIdentifier
p178
ssg8
(dp179
Vtype
p180
Vliteral
p181
sVvalue
p182
VSVE
p183
ssa(dp184
g7
(dp185
Vtype
p186
Vuri
p187
sVvalue
p188
Vhttp://dbpedia.org/ontology/faaLocationIdentifier
p189
ssg8
(dp190
Vtype
p191
Vliteral
p192
sVvalue
p193
VSVE
p194
ssasVordered
p195
I01
ss.