(dp0
Vhead
p1
(dp2
Vlink
p3
(lp4
sVvars
p5
(lp6
Vp
p7
aVo
p8
assVresults
p9
(dp10
Vdistinct
p11
I00
sVbindings
p12
(lp13
(dp14
g7
(dp15
Vtype
p16
Vuri
p17
sVvalue
p18
Vhttp://dbpedia.org/ontology/abstract
p19
ssg8
(dp20
Vxml:lang
p21
Ven
p22
sVtype
p23
Vliteral
p24
sVvalue
p25
VAyval\u0131k (Turkish: [\u02c8ajva\u026b\u026fk]; Greek: \u0391\u03ca\u03b2\u03b1\u03bb\u03af, \u039a\u03c5\u03b4\u03c9\u03bd\u03af\u03b5\u03c2) is a seaside town on the northwestern Aegean coast of Turkey. It is a district of Bal\u0131kesir Province. The town center of Ayval\u0131k is surrounded by the archipelago of Ayval\u0131k Islands, which face the nearby Greek island of Lesbos.It was alternatively called Kydonies (\u039a\u03c5\u03b4\u03c9\u03bd\u03af\u03b5\u03c2) by the town's former Greek population; although the use of the name Ayval\u0131k was widespread for centuries among both the Turks and the Greeks, pronounced as Ayvali (\u0391\u03ca\u03b2\u03b1\u03bb\u03af) by the latter.
p26
ssa(dp27
g7
(dp28
Vtype
p29
Vuri
p30
sVvalue
p31
Vhttp://dbpedia.org/ontology/areaCode
p32
ssg8
(dp33
Vtype
p34
Vliteral
p35
sVvalue
p36
V+90 (266)
p37
ssa(dp38
g7
(dp39
Vtype
p40
Vuri
p41
sVvalue
p42
Vhttp://dbpedia.org/ontology/leaderTitle
p43
ssg8
(dp44
Vxml:lang
p45
Ven
p46
sVtype
p47
Vliteral
p48
sVvalue
p49
VMayor
p50
ssa(dp51
g7
(dp52
Vtype
p53
Vuri
p54
sVvalue
p55
Vhttp://dbpedia.org/ontology/postalCode
p56
ssg8
(dp57
Vtype
p58
Vliteral
p59
sVvalue
p60
V10400
p61
ssa(dp62
g7
(dp63
Vtype
p64
Vuri
p65
sVvalue
p66
Vhttp://dbpedia.org/ontology/utcOffset
p67
ssg8
(dp68
Vtype
p69
Vliteral
p70
sVvalue
p71
V+2
p72
ssa(dp73
g7
(dp74
Vtype
p75
Vuri
p76
sVvalue
p77
Vhttp://dbpedia.org/ontology/utcOffset
p78
ssg8
(dp79
Vtype
p80
Vliteral
p81
sVvalue
p82
V+3
p83
ssa(dp84
g7
(dp85
Vtype
p86
Vuri
p87
sVvalue
p88
Vhttp://dbpedia.org/ontology/wikiPageExtracted
p89
ssg8
(dp90
Vdatatype
p91
Vhttp://www.w3.org/2001/XMLSchema#dateTime
p92
sVtype
p93
Vtyped-literal
p94
sVvalue
p95
V2016-09-05T04:12:19Z
p96
ssa(dp97
g7
(dp98
Vtype
p99
Vuri
p100
sVvalue
p101
Vhttp://dbpedia.org/ontology/wikiPageExtracted
p102
ssg8
(dp103
Vdatatype
p104
Vhttp://www.w3.org/2001/XMLSchema#dateTime
p105
sVtype
p106
Vtyped-literal
p107
sVvalue
p108
V2016-10-20T19:11:30Z
p109
ssa(dp110
g7
(dp111
Vtype
p112
Vuri
p113
sVvalue
p114
Vhttp://dbpedia.org/ontology/wikiPageExtracted
p115
ssg8
(dp116
Vdatatype
p117
Vhttp://www.w3.org/2001/XMLSchema#dateTime
p118
sVtype
p119
Vtyped-literal
p120
sVvalue
p121
V2016-10-27T20:48:43Z
p122
ssa(dp123
g7
(dp124
Vtype
p125
Vuri
p126
sVvalue
p127
Vhttp://dbpedia.org/ontology/wikiPageLength
p128
ssg8
(dp129
Vdatatype
p130
Vhttp://www.w3.org/2001/XMLSchema#nonNegativeInteger
p131
sVtype
p132
Vtyped-literal
p133
sVvalue
p134
V17122
p135
ssa(dp136
g7
(dp137
Vtype
p138
Vuri
p139
sVvalue
p140
Vhttp://dbpedia.org/ontology/wikiPageLength
p141
ssg8
(dp142
Vdatatype
p143
Vhttp://www.w3.org/2001/XMLSchema#nonNegativeInteger
p144
sVtype
p145
Vtyped-literal
p146
sVvalue
p147
V17295
p148
ssa(dp149
g7
(dp150
Vtype
p151
Vuri
p152
sVvalue
p153
Vhttp://dbpedia.org/ontology/wikiPageLength
p154
ssg8
(dp155
Vdatatype
p156
Vhttp://www.w3.org/2001/XMLSchema#nonNegativeInteger
p157
sVtype
p158
Vtyped-literal
p159
sVvalue
p160
V17442
p161
ssa(dp162
g7
(dp163
Vtype
p164
Vuri
p165
sVvalue
p166
Vhttp://dbpedia.org/ontology/wikiPageModified
p167
ssg8
(dp168
Vdatatype
p169
Vhttp://www.w3.org/2001/XMLSchema#dateTime
p170
sVtype
p171
Vtyped-literal
p172
sVvalue
p173
V2016-08-18T05:42:56Z
p174
ssa(dp175
g7
(dp176
Vtype
p177
Vuri
p178
sVvalue
p179
Vhttp://dbpedia.org/ontology/wikiPageModified
p180
ssg8
(dp181
Vdatatype
p182
Vhttp://www.w3.org/2001/XMLSchema#dateTime
p183
sVtype
p184
Vtyped-literal
p185
sVvalue
p186
V2016-10-16T16:48:03Z
p187
ssa(dp188
g7
(dp189
Vtype
p190
Vuri
p191
sVvalue
p192
Vhttp://dbpedia.org/ontology/wikiPageModified
p193
ssg8
(dp194
Vdatatype
p195
Vhttp://www.w3.org/2001/XMLSchema#dateTime
p196
sVtype
p197
Vtyped-literal
p198
sVvalue
p199
V2016-10-22T23:37:12Z
p200
ssa(dp201
g7
(dp202
Vtype
p203
Vuri
p204
sVvalue
p205
Vhttp://dbpedia.org/ontology/wikiPageOutDegree
p206
ssg8
(dp207
Vdatatype
p208
Vhttp://www.w3.org/2001/XMLSchema#nonNegativeInteger
p209
sVtype
p210
Vtyped-literal
p211
sVvalue
p212
V155
p213
ssasVordered
p214
I01
ss.