(dp0
Vhead
p1
(dp2
Vlink
p3
(lp4
sVvars
p5
(lp6
Vp
p7
aVo
p8
assVresults
p9
(dp10
Vdistinct
p11
I00
sVbindings
p12
(lp13
(dp14
g7
(dp15
Vtype
p16
Vuri
p17
sVvalue
p18
Vhttp://dbpedia.org/ontology/Person/height
p19
ssg8
(dp20
Vdatatype
p21
Vhttp://dbpedia.org/datatype/centimetre
p22
sVtype
p23
Vtyped-literal
p24
sVvalue
p25
V182.88
p26
ssa(dp27
g7
(dp28
Vtype
p29
Vuri
p30
sVvalue
p31
Vhttp://dbpedia.org/ontology/Person/weight
p32
ssg8
(dp33
Vdatatype
p34
Vhttp://dbpedia.org/datatype/kilogram
p35
sVtype
p36
Vtyped-literal
p37
sVvalue
p38
V74.844
p39
ssa(dp40
g7
(dp41
Vtype
p42
Vuri
p43
sVvalue
p44
Vhttp://dbpedia.org/ontology/abstract
p45
ssg8
(dp46
Vxml:lang
p47
Ven
p48
sVtype
p49
Vliteral
p50
sVvalue
p51
VGary Groh (born October 11, 1944) is an American professional golfer who played on the PGA Tour in the 1970s.Groh was born in Chicago, Illinois. He attended Michigan State University and turned pro in 1968.Groh played on the PGA Tour from 1971 to 1978 and won one event. His career year was 1975 when he won the Hawaiian Open, earned $68,296 and finished 31st on the money list. His best finish in a major championship was T18 at the U.S. Open in 1975.After leaving the PGA Tour, Groh took a job as head pro at Bob O' Link Golf Club in Highland Park, Illinois \u2013 a job he has held for more than a quarter of a century. In 1995, he joined the Senior PGA Tour and has played in a limited number of events; his best finish in this venue is T17 at the 1995 Ameritech Senior Open. He owns seven course records, including a round of 64 in 1985 at the world-famous Ballybunion in Ireland. Groh lives in Lake Bluff, Illinois.
p52
ssa(dp53
g7
(dp54
Vtype
p55
Vuri
p56
sVvalue
p57
Vhttp://dbpedia.org/ontology/height
p58
ssg8
(dp59
Vdatatype
p60
Vhttp://www.w3.org/2001/XMLSchema#double
p61
sVtype
p62
Vtyped-literal
p63
sVvalue
p64
V1.8288
p65
ssa(dp66
g7
(dp67
Vtype
p68
Vuri
p69
sVvalue
p70
Vhttp://dbpedia.org/ontology/weight
p71
ssg8
(dp72
Vdatatype
p73
Vhttp://www.w3.org/2001/XMLSchema#double
p74
sVtype
p75
Vtyped-literal
p76
sVvalue
p77
V74844.0
p78
ssa(dp79
g7
(dp80
Vtype
p81
Vuri
p82
sVvalue
p83
Vhttp://dbpedia.org/ontology/wikiPageExtracted
p84
ssg8
(dp85
Vdatatype
p86
Vhttp://www.w3.org/2001/XMLSchema#dateTime
p87
sVtype
p88
Vtyped-literal
p89
sVvalue
p90
V2016-10-30T20:00:49Z
p91
ssa(dp92
g7
(dp93
Vtype
p94
Vuri
p95
sVvalue
p96
Vhttp://dbpedia.org/ontology/wikiPageLength
p97
ssg8
(dp98
Vdatatype
p99
Vhttp://www.w3.org/2001/XMLSchema#nonNegativeInteger
p100
sVtype
p101
Vtyped-literal
p102
sVvalue
p103
V4688
p104
ssa(dp105
g7
(dp106
Vtype
p107
Vuri
p108
sVvalue
p109
Vhttp://dbpedia.org/ontology/wikiPageModified
p110
ssg8
(dp111
Vdatatype
p112
Vhttp://www.w3.org/2001/XMLSchema#dateTime
p113
sVtype
p114
Vtyped-literal
p115
sVvalue
p116
V2016-10-09T12:21:24Z
p117
ssa(dp118
g7
(dp119
Vtype
p120
Vuri
p121
sVvalue
p122
Vhttp://dbpedia.org/ontology/wikiPageOutDegree
p123
ssg8
(dp124
Vdatatype
p125
Vhttp://www.w3.org/2001/XMLSchema#nonNegativeInteger
p126
sVtype
p127
Vtyped-literal
p128
sVvalue
p129
V37
p130
ssasVordered
p131
I01
ss.