(dp0
Vhead
p1
(dp2
Vlink
p3
(lp4
sVvars
p5
(lp6
Vp
p7
aVo
p8
assVresults
p9
(dp10
Vdistinct
p11
I00
sVbindings
p12
(lp13
(dp14
g7
(dp15
Vtype
p16
Vuri
p17
sVvalue
p18
Vhttp://dbpedia.org/ontology/abstract
p19
ssg8
(dp20
Vxml:lang
p21
Ven
p22
sVtype
p23
Vliteral
p24
sVvalue
p25
VEast Fairfield is an unincorporated community in Fairfield Township, Columbiana County, Ohio, United States.The town is located on Ohio State Route 7, north of Rogers.
p26
ssa(dp27
g7
(dp28
Vtype
p29
Vuri
p30
sVvalue
p31
Vhttp://dbpedia.org/ontology/areaCode
p32
ssg8
(dp33
Vtype
p34
Vliteral
p35
sVvalue
p36
V330
p37
ssa(dp38
g7
(dp39
Vtype
p40
Vuri
p41
sVvalue
p42
Vhttp://dbpedia.org/ontology/postalCode
p43
ssg8
(dp44
Vtype
p45
Vliteral
p46
sVvalue
p47
V44445
p48
ssa(dp49
g7
(dp50
Vtype
p51
Vuri
p52
sVvalue
p53
Vhttp://dbpedia.org/ontology/utcOffset
p54
ssg8
(dp55
Vtype
p56
Vliteral
p57
sVvalue
p58
V-4
p59
ssa(dp60
g7
(dp61
Vtype
p62
Vuri
p63
sVvalue
p64
Vhttp://dbpedia.org/ontology/utcOffset
p65
ssg8
(dp66
Vtype
p67
Vliteral
p68
sVvalue
p69
V-5
p70
ssa(dp71
g7
(dp72
Vtype
p73
Vuri
p74
sVvalue
p75
Vhttp://dbpedia.org/ontology/wikiPageExtracted
p76
ssg8
(dp77
Vdatatype
p78
Vhttp://www.w3.org/2001/XMLSchema#dateTime
p79
sVtype
p80
Vtyped-literal
p81
sVvalue
p82
V2016-10-29T23:56:59Z
p83
ssa(dp84
g7
(dp85
Vtype
p86
Vuri
p87
sVvalue
p88
Vhttp://dbpedia.org/ontology/wikiPageLength
p89
ssg8
(dp90
Vdatatype
p91
Vhttp://www.w3.org/2001/XMLSchema#nonNegativeInteger
p92
sVtype
p93
Vtyped-literal
p94
sVvalue
p95
V4151
p96
ssa(dp97
g7
(dp98
Vtype
p99
Vuri
p100
sVvalue
p101
Vhttp://dbpedia.org/ontology/wikiPageModified
p102
ssg8
(dp103
Vdatatype
p104
Vhttp://www.w3.org/2001/XMLSchema#dateTime
p105
sVtype
p106
Vtyped-literal
p107
sVvalue
p108
V2016-10-22T01:40:03Z
p109
ssa(dp110
g7
(dp111
Vtype
p112
Vuri
p113
sVvalue
p114
Vhttp://dbpedia.org/ontology/wikiPageOutDegree
p115
ssg8
(dp116
Vdatatype
p117
Vhttp://www.w3.org/2001/XMLSchema#nonNegativeInteger
p118
sVtype
p119
Vtyped-literal
p120
sVvalue
p121
V22
p122
ssasVordered
p123
I01
ss.