(dp0
Vhead
p1
(dp2
Vlink
p3
(lp4
sVvars
p5
(lp6
Vp
p7
aVo
p8
assVresults
p9
(dp10
Vdistinct
p11
I00
sVbindings
p12
(lp13
(dp14
g7
(dp15
Vtype
p16
Vuri
p17
sVvalue
p18
Vhttp://dbpedia.org/ontology/PopulatedPlace/areaTotal
p19
ssg8
(dp20
Vdatatype
p21
Vhttp://dbpedia.org/datatype/squareKilometre
p22
sVtype
p23
Vtyped-literal
p24
sVvalue
p25
V91.4265802948608
p26
ssa(dp27
g7
(dp28
Vtype
p29
Vuri
p30
sVvalue
p31
Vhttp://dbpedia.org/ontology/PopulatedPlace/populationDensity
p32
ssg8
(dp33
Vdatatype
p34
Vhttp://dbpedia.org/datatype/inhabitantsPerSquareKilometre
p35
sVtype
p36
Vtyped-literal
p37
sVvalue
p38
V1270.5077628997724
p39
ssa(dp40
g7
(dp41
Vtype
p42
Vuri
p43
sVvalue
p44
Vhttp://dbpedia.org/ontology/abstract
p45
ssg8
(dp46
Vxml:lang
p47
Ven
p48
sVtype
p49
Vliteral
p50
sVvalue
p51
VBloomingdale Township is one of nine townships in DuPage County, Illinois, USA. As of the 2010 census, its population was 111,899 and it contained 42,395 housing units.
p52
ssa(dp53
g7
(dp54
Vtype
p55
Vuri
p56
sVvalue
p57
Vhttp://dbpedia.org/ontology/areaLand
p58
ssg8
(dp59
Vdatatype
p60
Vhttp://www.w3.org/2001/XMLSchema#double
p61
sVtype
p62
Vtyped-literal
p63
sVvalue
p64
V8.80855e+07
p65
ssa(dp66
g7
(dp67
Vtype
p68
Vuri
p69
sVvalue
p70
Vhttp://dbpedia.org/ontology/areaTotal
p71
ssg8
(dp72
Vdatatype
p73
Vhttp://www.w3.org/2001/XMLSchema#double
p74
sVtype
p75
Vtyped-literal
p76
sVvalue
p77
V9.14266e+07
p78
ssa(dp79
g7
(dp80
Vtype
p81
Vuri
p82
sVvalue
p83
Vhttp://dbpedia.org/ontology/areaWater
p84
ssg8
(dp85
Vdatatype
p86
Vhttp://www.w3.org/2001/XMLSchema#double
p87
sVtype
p88
Vtyped-literal
p89
sVvalue
p90
V3.34108e+06
p91
ssa(dp92
g7
(dp93
Vtype
p94
Vuri
p95
sVvalue
p96
Vhttp://dbpedia.org/ontology/elevation
p97
ssg8
(dp98
Vdatatype
p99
Vhttp://www.w3.org/2001/XMLSchema#double
p100
sVtype
p101
Vtyped-literal
p102
sVvalue
p103
V238.0
p104
ssa(dp105
g7
(dp106
Vtype
p107
Vuri
p108
sVvalue
p109
Vhttp://dbpedia.org/ontology/elevation
p110
ssg8
(dp111
Vdatatype
p112
Vhttp://www.w3.org/2001/XMLSchema#double
p113
sVtype
p114
Vtyped-literal
p115
sVvalue
p116
V238.049
p117
ssa(dp118
g7
(dp119
Vtype
p120
Vuri
p121
sVvalue
p122
Vhttp://dbpedia.org/ontology/foundingDate
p123
ssg8
(dp124
Vdatatype
p125
Vhttp://www.w3.org/2001/XMLSchema#date
p126
sVtype
p127
Vtyped-literal
p128
sVvalue
p129
V1849-11-06
p130
ssa(dp131
g7
(dp132
Vtype
p133
Vuri
p134
sVvalue
p135
Vhttp://dbpedia.org/ontology/leaderTitle
p136
ssg8
(dp137
Vxml:lang
p138
Ven
p139
sVtype
p140
Vliteral
p141
sVvalue
p142
VSupervisor
p143
ssa(dp144
g7
(dp145
Vtype
p146
Vuri
p147
sVvalue
p148
Vhttp://dbpedia.org/ontology/percentageOfAreaWater
p149
ssg8
(dp150
Vdatatype
p151
Vhttp://www.w3.org/2001/XMLSchema#float
p152
sVtype
p153
Vtyped-literal
p154
sVvalue
p155
V3.65
p156
ssa(dp157
g7
(dp158
Vtype
p159
Vuri
p160
sVvalue
p161
Vhttp://dbpedia.org/ontology/populationDensity
p162
ssg8
(dp163
Vdatatype
p164
Vhttp://www.w3.org/2001/XMLSchema#double
p165
sVtype
p166
Vtyped-literal
p167
sVvalue
p168
V1270.51
p169
ssa(dp170
g7
(dp171
Vtype
p172
Vuri
p173
sVvalue
p174
Vhttp://dbpedia.org/ontology/populationTotal
p175
ssg8
(dp176
Vdatatype
p177
Vhttp://www.w3.org/2001/XMLSchema#nonNegativeInteger
p178
sVtype
p179
Vtyped-literal
p180
sVvalue
p181
V111899
p182
ssa(dp183
g7
(dp184
Vtype
p185
Vuri
p186
sVvalue
p187
Vhttp://dbpedia.org/ontology/postalCode
p188
ssg8
(dp189
Vtype
p190
Vliteral
p191
sVvalue
p192
V60101, 60103, 60108, 60137, 60139, 60143, 60148, 60157, 60172, 60185, 60188, 60190
p193
ssa(dp194
g7
(dp195
Vtype
p196
Vuri
p197
sVvalue
p198
Vhttp://dbpedia.org/ontology/utcOffset
p199
ssg8
(dp200
Vtype
p201
Vliteral
p202
sVvalue
p203
V-5
p204
ssa(dp205
g7
(dp206
Vtype
p207
Vuri
p208
sVvalue
p209
Vhttp://dbpedia.org/ontology/utcOffset
p210
ssg8
(dp211
Vtype
p212
Vliteral
p213
sVvalue
p214
V-6
p215
ssa(dp216
g7
(dp217
Vtype
p218
Vuri
p219
sVvalue
p220
Vhttp://dbpedia.org/ontology/wikiPageExtracted
p221
ssg8
(dp222
Vdatatype
p223
Vhttp://www.w3.org/2001/XMLSchema#dateTime
p224
sVtype
p225
Vtyped-literal
p226
sVvalue
p227
V2016-10-28T06:50:00Z
p228
ssa(dp229
g7
(dp230
Vtype
p231
Vuri
p232
sVvalue
p233
Vhttp://dbpedia.org/ontology/wikiPageLength
p234
ssg8
(dp235
Vdatatype
p236
Vhttp://www.w3.org/2001/XMLSchema#nonNegativeInteger
p237
sVtype
p238
Vtyped-literal
p239
sVvalue
p240
V7499
p241
ssa(dp242
g7
(dp243
Vtype
p244
Vuri
p245
sVvalue
p246
Vhttp://dbpedia.org/ontology/wikiPageModified
p247
ssg8
(dp248
Vdatatype
p249
Vhttp://www.w3.org/2001/XMLSchema#dateTime
p250
sVtype
p251
Vtyped-literal
p252
sVvalue
p253
V2016-08-17T12:58:04Z
p254
ssa(dp255
g7
(dp256
Vtype
p257
Vuri
p258
sVvalue
p259
Vhttp://dbpedia.org/ontology/wikiPageOutDegree
p260
ssg8
(dp261
Vdatatype
p262
Vhttp://www.w3.org/2001/XMLSchema#nonNegativeInteger
p263
sVtype
p264
Vtyped-literal
p265
sVvalue
p266
V57
p267
ssasVordered
p268
I01
ss.