(dp0
Vhead
p1
(dp2
Vlink
p3
(lp4
sVvars
p5
(lp6
Vp
p7
aVo
p8
assVresults
p9
(dp10
Vdistinct
p11
I00
sVbindings
p12
(lp13
(dp14
g7
(dp15
Vtype
p16
Vuri
p17
sVvalue
p18
Vhttp://dbpedia.org/ontology/PopulatedPlace/areaTotal
p19
ssg8
(dp20
Vdatatype
p21
Vhttp://dbpedia.org/datatype/squareKilometre
p22
sVtype
p23
Vtyped-literal
p24
sVvalue
p25
V212508.5244530688
p26
ssa(dp27
g7
(dp28
Vtype
p29
Vuri
p30
sVvalue
p31
Vhttp://dbpedia.org/ontology/PopulatedPlace/areaTotal
p32
ssg8
(dp33
Vdatatype
p34
Vhttp://dbpedia.org/datatype/squareKilometre
p35
sVtype
p36
Vtyped-literal
p37
sVvalue
p38
V212510.0
p39
ssa(dp40
g7
(dp41
Vtype
p42
Vuri
p43
sVvalue
p44
Vhttp://dbpedia.org/ontology/PopulatedPlace/populationDensity
p45
ssg8
(dp46
Vdatatype
p47
Vhttp://dbpedia.org/datatype/inhabitantsPerSquareKilometre
p48
sVtype
p49
Vtyped-literal
p50
sVvalue
p51
V20.1
p52
ssa(dp53
g7
(dp54
Vtype
p55
Vuri
p56
sVvalue
p57
Vhttp://dbpedia.org/ontology/abstract
p58
ssg8
(dp59
Vxml:lang
p60
Ven
p61
sVtype
p62
Vliteral
p63
sVvalue
p64
VPuntland (Somali: Buntlaand, Arabic: \u0623\u0631\u0636 \u0627\u0644\u0628\u0646\u0637\u200e\u200e ), officially the Puntland State of Somalia (Somali: Dowlad Goboleedka Buntlaand ee Soomaaliya, Arabic: \u0628\u0648\u0646\u062a\u0644\u0627\u0646\u062f \u062f\u0648\u0644\u0629 \u0627\u0644\u0635\u0648\u0645\u0627\u0644\u200e\u200e ), is a region in northeastern Somalia, centered on Garoowe in the Nugal province. Its leaders declared the territory an autonomous state in 1998.Puntland is bordered by the disputed region of Khaatumo State to its west, the Gulf of Aden in the north, the Indian Ocean in the southeast, the central Galmudug region in the south, and Ethiopia in the southwest. Unlike neighboring Somaliland, Puntland, as with all other regions in the country, does not seek outright independence from Somalia.The name "Puntland" is derived from the Land of Punt mentioned by ancient Egyptian sources. The exact location of the fabled territory is still a mystery. Many studies suggest that the Land of Punt was located in present-day Somalia, whereas others propose that it was situated elsewhere.
p65
ssa(dp66
g7
(dp67
Vtype
p68
Vuri
p69
sVvalue
p70
Vhttp://dbpedia.org/ontology/abstract
p71
ssg8
(dp72
Vxml:lang
p73
Ven
p74
sVtype
p75
Vliteral
p76
sVvalue
p77
VPuntland (Somali: Buntlaand, Arabic: \u0623\u0631\u0636 \u0627\u0644\u0628\u0646\u0637\u200e\u200e), officially the Puntland State of Somalia (Somali: Dowlad Goboleedka Buntlaand ee Soomaaliya, Arabic: \u0628\u0648\u0646\u062a\u0644\u0627\u0646\u062f \u062f\u0648\u0644\u0629 \u0627\u0644\u0635\u0648\u0645\u0627\u0644\u200e\u200e), is a region in northeastern Somalia, centered on Garoowe in the Nugal province. Its leaders declared the territory an autonomous state in 1998.Puntland is bordered by the disputed region of Khaatumo State to its west, the Gulf of Aden in the north, the Indian Ocean in the southeast, the central Galmudug region in the south, and Ethiopia in the southwest. Unlike neighboring Somaliland, Puntland, as with all other regions in the country, does not seek outright independence from Somalia.The name "Puntland" is derived from the Land of Punt mentioned by ancient Egyptian sources. The exact location of the fabled territory is still a mystery. Many studies suggest that the Land of Punt was located in present-day Somalia, whereas others propose that it was situated elsewhere.
p78
ssa(dp79
g7
(dp80
Vtype
p81
Vuri
p82
sVvalue
p83
Vhttp://dbpedia.org/ontology/areaTotal
p84
ssg8
(dp85
Vdatatype
p86
Vhttp://www.w3.org/2001/XMLSchema#double
p87
sVtype
p88
Vtyped-literal
p89
sVvalue
p90
V2.12509e+11
p91
ssa(dp92
g7
(dp93
Vtype
p94
Vuri
p95
sVvalue
p96
Vhttp://dbpedia.org/ontology/areaTotal
p97
ssg8
(dp98
Vdatatype
p99
Vhttp://www.w3.org/2001/XMLSchema#double
p100
sVtype
p101
Vtyped-literal
p102
sVvalue
p103
V2.1251e+11
p104
ssa(dp105
g7
(dp106
Vtype
p107
Vuri
p108
sVvalue
p109
Vhttp://dbpedia.org/ontology/demonym
p110
ssg8
(dp111
Vxml:lang
p112
Ven
p113
sVtype
p114
Vliteral
p115
sVvalue
p116
VSomali
p117
ssa(dp118
g7
(dp119
Vtype
p120
Vuri
p121
sVvalue
p122
Vhttp://dbpedia.org/ontology/flag
p123
ssg8
(dp124
Vtype
p125
Vliteral
p126
sVvalue
p127
VFlag of Puntland.svg
p128
ssa(dp129
g7
(dp130
Vtype
p131
Vuri
p132
sVvalue
p133
Vhttp://dbpedia.org/ontology/foundingDate
p134
ssg8
(dp135
Vdatatype
p136
Vhttp://www.w3.org/2001/XMLSchema#date
p137
sVtype
p138
Vtyped-literal
p139
sVvalue
p140
V1998-08-01
p141
ssa(dp142
g7
(dp143
Vtype
p144
Vuri
p145
sVvalue
p146
Vhttp://dbpedia.org/ontology/leaderTitle
p147
ssg8
(dp148
Vxml:lang
p149
Ven
p150
sVtype
p151
Vliteral
p152
sVvalue
p153
VPresident
p154
ssa(dp155
g7
(dp156
Vtype
p157
Vuri
p158
sVvalue
p159
Vhttp://dbpedia.org/ontology/leaderTitle
p160
ssg8
(dp161
Vxml:lang
p162
Ven
p163
sVtype
p164
Vliteral
p165
sVvalue
p166
VVice-President
p167
ssa(dp168
g7
(dp169
Vtype
p170
Vuri
p171
sVvalue
p172
Vhttp://dbpedia.org/ontology/longName
p173
ssg8
(dp174
Vxml:lang
p175
Ven
p176
sVtype
p177
Vliteral
p178
sVvalue
p179
VPuntland State of Somalia
p180
ssa(dp181
g7
(dp182
Vtype
p183
Vuri
p184
sVvalue
p185
Vhttp://dbpedia.org/ontology/populationDensity
p186
ssg8
(dp187
Vdatatype
p188
Vhttp://www.w3.org/2001/XMLSchema#double
p189
sVtype
p190
Vtyped-literal
p191
sVvalue
p192
V20.1
p193
ssa(dp194
g7
(dp195
Vtype
p196
Vuri
p197
sVvalue
p198
Vhttp://dbpedia.org/ontology/populationTotal
p199
ssg8
(dp200
Vdatatype
p201
Vhttp://www.w3.org/2001/XMLSchema#nonNegativeInteger
p202
sVtype
p203
Vtyped-literal
p204
sVvalue
p205
V4284633
p206
ssa(dp207
g7
(dp208
Vtype
p209
Vuri
p210
sVvalue
p211
Vhttp://dbpedia.org/ontology/wikiPageExtracted
p212
ssg8
(dp213
Vdatatype
p214
Vhttp://www.w3.org/2001/XMLSchema#dateTime
p215
sVtype
p216
Vtyped-literal
p217
sVvalue
p218
V2016-11-04T21:06:36Z
p219
ssa(dp220
g7
(dp221
Vtype
p222
Vuri
p223
sVvalue
p224
Vhttp://dbpedia.org/ontology/wikiPageLength
p225
ssg8
(dp226
Vdatatype
p227
Vhttp://www.w3.org/2001/XMLSchema#nonNegativeInteger
p228
sVtype
p229
Vtyped-literal
p230
sVvalue
p231
V55796
p232
ssa(dp233
g7
(dp234
Vtype
p235
Vuri
p236
sVvalue
p237
Vhttp://dbpedia.org/ontology/wikiPageModified
p238
ssg8
(dp239
Vdatatype
p240
Vhttp://www.w3.org/2001/XMLSchema#dateTime
p241
sVtype
p242
Vtyped-literal
p243
sVvalue
p244
V2016-10-23T08:06:48Z
p245
ssa(dp246
g7
(dp247
Vtype
p248
Vuri
p249
sVvalue
p250
Vhttp://dbpedia.org/ontology/wikiPageOutDegree
p251
ssg8
(dp252
Vdatatype
p253
Vhttp://www.w3.org/2001/XMLSchema#nonNegativeInteger
p254
sVtype
p255
Vtyped-literal
p256
sVvalue
p257
V272
p258
ssasVordered
p259
I01
ss.