(dp0
Vhead
p1
(dp2
Vlink
p3
(lp4
sVvars
p5
(lp6
Vp
p7
aVo
p8
assVresults
p9
(dp10
Vdistinct
p11
I00
sVbindings
p12
(lp13
(dp14
g7
(dp15
Vtype
p16
Vuri
p17
sVvalue
p18
Vhttp://dbpedia.org/ontology/abstract
p19
ssg8
(dp20
Vxml:lang
p21
Ven
p22
sVtype
p23
Vliteral
p24
sVvalue
p25
VThe Sequoyah Nuclear Plant is a nuclear power plant located on 525 acres (212 ha) located 7 miles (11 km) east of Soddy-Daisy, Tennessee, and 20 miles (32 km) north of Chattanooga, abutting Chickamauga Lake, on the Tennessee River. The facility is owned and operated by the Tennessee Valley Authority (TVA).The plant has two Westinghouse pressurized water reactors. Sequoyah units 1 & 2, as well as their sister plant at Watts Bar, both have ice condenser containment systems. In case of a large loss-of-coolant accident, steam generated by the leak is directed toward borated ice which helps condense the steam creating a lower pressure, allowing for a smaller containment building.Sequoyah's two units have a winter net dependable capacity of 2,333 megawatts, making Sequoyah the most productive of TVA's four nuclear plants. Sequoyah is the second-most powerful electric plant in the entire TVA system, second only to the Cumberland coal-fired plant northwest of Nashville. Following the restart of Brown's Ferry Unit 1, that plant again became most productive at 3,440 MW.The operating license of Sequoyah's Unit 1 was originally set to expire in 2020, and Unit 2's operating license in 2021. In 2015, the NRC renewed the operating license for both units for an additional 20 years. TVA constructed dry cask storage facilities at Sequoyah and purchased special storage containers for the purpose of storing spent nuclear fuel. The storage facilities have been approved by the NRC.TVA's Sequoyah operating license was modified in September 2002 to allow TVA to irradiate tritium-producing burnable absorber rods at Sequoyah for the U.S. Department of Energy. The process of irradiating tritium-producing rods produces tritium, which is used in nuclear weapons and for various forms of research into nuclear fusion for commercial power production. TVA began irradiating tritium-producing rods at its Watts Bar Nuclear Generating Station in 2003. As of February 2007, TVA had no plans to produce tritium at Sequoyah.
p26
ssa(dp27
g7
(dp28
Vtype
p29
Vuri
p30
sVvalue
p31
Vhttp://dbpedia.org/ontology/buildingStartDate
p32
ssg8
(dp33
Vtype
p34
Vliteral
p35
sVvalue
p36
V1969\u201380
p37
ssa(dp38
g7
(dp39
Vtype
p40
Vuri
p41
sVvalue
p42
Vhttp://dbpedia.org/ontology/openingDate
p43
ssg8
(dp44
Vdatatype
p45
Vhttp://www.w3.org/2001/XMLSchema#date
p46
sVtype
p47
Vtyped-literal
p48
sVvalue
p49
V1981-07-01
p50
ssa(dp51
g7
(dp52
Vtype
p53
Vuri
p54
sVvalue
p55
Vhttp://dbpedia.org/ontology/openingDate
p56
ssg8
(dp57
Vdatatype
p58
Vhttp://www.w3.org/2001/XMLSchema#date
p59
sVtype
p60
Vtyped-literal
p61
sVvalue
p62
V1982-06-01
p63
ssa(dp64
g7
(dp65
Vtype
p66
Vuri
p67
sVvalue
p68
Vhttp://dbpedia.org/ontology/status
p69
ssg8
(dp70
Vtype
p71
Vliteral
p72
sVvalue
p73
VO
p74
ssa(dp75
g7
(dp76
Vtype
p77
Vuri
p78
sVvalue
p79
Vhttp://dbpedia.org/ontology/wikiPageExtracted
p80
ssg8
(dp81
Vdatatype
p82
Vhttp://www.w3.org/2001/XMLSchema#dateTime
p83
sVtype
p84
Vtyped-literal
p85
sVvalue
p86
V2016-11-05T19:01:42Z
p87
ssa(dp88
g7
(dp89
Vtype
p90
Vuri
p91
sVvalue
p92
Vhttp://dbpedia.org/ontology/wikiPageLength
p93
ssg8
(dp94
Vdatatype
p95
Vhttp://www.w3.org/2001/XMLSchema#nonNegativeInteger
p96
sVtype
p97
Vtyped-literal
p98
sVvalue
p99
V8101
p100
ssa(dp101
g7
(dp102
Vtype
p103
Vuri
p104
sVvalue
p105
Vhttp://dbpedia.org/ontology/wikiPageModified
p106
ssg8
(dp107
Vdatatype
p108
Vhttp://www.w3.org/2001/XMLSchema#dateTime
p109
sVtype
p110
Vtyped-literal
p111
sVvalue
p112
V2016-01-27T05:02:09Z
p113
ssa(dp114
g7
(dp115
Vtype
p116
Vuri
p117
sVvalue
p118
Vhttp://dbpedia.org/ontology/wikiPageOutDegree
p119
ssg8
(dp120
Vdatatype
p121
Vhttp://www.w3.org/2001/XMLSchema#nonNegativeInteger
p122
sVtype
p123
Vtyped-literal
p124
sVvalue
p125
V43
p126
ssa(dp127
g7
(dp128
Vtype
p129
Vuri
p130
sVvalue
p131
Vhttp://dbpedia.org/ontology/buildingStartYear
p132
ssg8
(dp133
Vdatatype
p134
Vhttp://www.w3.org/2001/XMLSchema#gYear
p135
sVtype
p136
Vtyped-literal
p137
sVvalue
p138
V1969
p139
ssa(dp140
g7
(dp141
Vtype
p142
Vuri
p143
sVvalue
p144
Vhttp://dbpedia.org/ontology/openingYear
p145
ssg8
(dp146
Vdatatype
p147
Vhttp://www.w3.org/2001/XMLSchema#gYear
p148
sVtype
p149
Vtyped-literal
p150
sVvalue
p151
V1981
p152
ssa(dp153
g7
(dp154
Vtype
p155
Vuri
p156
sVvalue
p157
Vhttp://dbpedia.org/ontology/openingYear
p158
ssg8
(dp159
Vdatatype
p160
Vhttp://www.w3.org/2001/XMLSchema#gYear
p161
sVtype
p162
Vtyped-literal
p163
sVvalue
p164
V1982
p165
ssa(dp166
g7
(dp167
Vtype
p168
Vuri
p169
sVvalue
p170
Vhttp://dbpedia.org/ontology/averageAnnualGeneration
p171
ssg8
(dp172
Vdatatype
p173
Vhttp://www.w3.org/2001/XMLSchema#double
p174
sVtype
p175
Vtyped-literal
p176
sVvalue
p177
V6.39144e+16
p178
ssa(dp179
g7
(dp180
Vtype
p181
Vuri
p182
sVvalue
p183
Vhttp://dbpedia.org/ontology/capacityFactor
p184
ssg8
(dp185
Vdatatype
p186
Vhttp://www.w3.org/2001/XMLSchema#float
p187
sVtype
p188
Vtyped-literal
p189
sVvalue
p190
V89.1
p191
ssasVordered
p192
I01
ss.