(dp0
Vhead
p1
(dp2
Vlink
p3
(lp4
sVvars
p5
(lp6
Vp
p7
aVo
p8
assVresults
p9
(dp10
Vdistinct
p11
I00
sVbindings
p12
(lp13
(dp14
g7
(dp15
Vtype
p16
Vuri
p17
sVvalue
p18
Vhttp://dbpedia.org/ontology/abstract
p19
ssg8
(dp20
Vxml:lang
p21
Ven
p22
sVtype
p23
Vliteral
p24
sVvalue
p25
VThomas Gordon McLeod (December 17, 1868 \u2013 December 11, 1932) was the 95th Governor of South Carolina from 1923 to 1927.Born in Lynchburg, South Carolina to William J. McLeod, a former captain in the Confederate Army, and Amanda McMillan Rogers McLeod, he attended Lynchburg Academy and graduated from Wofford College and the University of Virginia Law School.His political career began when he was elected to the South Carolina House of Representatives in 1900 and he became the first state senator from the newly formed Lee County in 1902. In 1906, he was elected the 66th lieutenant governor of South Carolina and re-elected in 1908. In the 1922 gubernatorial election, McLeod won a Democratic primary runoff against former Governor Cole Blease, effectively becoming the 95th governor of South Carolina. Re-elected in 1924, McLeod served as governor until his term expired in 1927.Upon leaving office he became the president of the Bishopville Telephone Company. He died on December 11, 1932, in Bishopville and is buried in the Bishopville Methodist Churchyard.
p26
ssa(dp27
g7
(dp28
Vtype
p29
Vuri
p30
sVvalue
p31
Vhttp://dbpedia.org/ontology/birthDate
p32
ssg8
(dp33
Vdatatype
p34
Vhttp://www.w3.org/2001/XMLSchema#date
p35
sVtype
p36
Vtyped-literal
p37
sVvalue
p38
V1868-12-17
p39
ssa(dp40
g7
(dp41
Vtype
p42
Vuri
p43
sVvalue
p44
Vhttp://dbpedia.org/ontology/deathDate
p45
ssg8
(dp46
Vdatatype
p47
Vhttp://www.w3.org/2001/XMLSchema#date
p48
sVtype
p49
Vtyped-literal
p50
sVvalue
p51
V1932-12-11
p52
ssa(dp53
g7
(dp54
Vtype
p55
Vuri
p56
sVvalue
p57
Vhttp://dbpedia.org/ontology/office
p58
ssg8
(dp59
Vtype
p60
Vliteral
p61
sVvalue
p62
VMember of theSouth Carolina House of RepresentativesfromSumter County
p63
ssa(dp64
g7
(dp65
Vtype
p66
Vuri
p67
sVvalue
p68
Vhttp://dbpedia.org/ontology/office
p69
ssg8
(dp70
Vtype
p71
Vliteral
p72
sVvalue
p73
V66thLieutenant Governor of South Carolina
p74
ssa(dp75
g7
(dp76
Vtype
p77
Vuri
p78
sVvalue
p79
Vhttp://dbpedia.org/ontology/office
p80
ssg8
(dp81
Vtype
p82
Vliteral
p83
sVvalue
p84
VMember of theSouth Carolina SenatefromLee County
p85
ssa(dp86
g7
(dp87
Vtype
p88
Vuri
p89
sVvalue
p90
Vhttp://dbpedia.org/ontology/orderInOffice
p91
ssg8
(dp92
Vtype
p93
Vliteral
p94
sVvalue
p95
V95thGovernor of South Carolina
p96
ssa(dp97
g7
(dp98
Vtype
p99
Vuri
p100
sVvalue
p101
Vhttp://dbpedia.org/ontology/wikiPageExtracted
p102
ssg8
(dp103
Vdatatype
p104
Vhttp://www.w3.org/2001/XMLSchema#dateTime
p105
sVtype
p106
Vtyped-literal
p107
sVvalue
p108
V2016-11-07T02:52:57Z
p109
ssa(dp110
g7
(dp111
Vtype
p112
Vuri
p113
sVvalue
p114
Vhttp://dbpedia.org/ontology/wikiPageLength
p115
ssg8
(dp116
Vdatatype
p117
Vhttp://www.w3.org/2001/XMLSchema#nonNegativeInteger
p118
sVtype
p119
Vtyped-literal
p120
sVvalue
p121
V4078
p122
ssa(dp123
g7
(dp124
Vtype
p125
Vuri
p126
sVvalue
p127
Vhttp://dbpedia.org/ontology/wikiPageModified
p128
ssg8
(dp129
Vdatatype
p130
Vhttp://www.w3.org/2001/XMLSchema#dateTime
p131
sVtype
p132
Vtyped-literal
p133
sVvalue
p134
V2016-03-05T10:57:07Z
p135
ssa(dp136
g7
(dp137
Vtype
p138
Vuri
p139
sVvalue
p140
Vhttp://dbpedia.org/ontology/wikiPageOutDegree
p141
ssg8
(dp142
Vdatatype
p143
Vhttp://www.w3.org/2001/XMLSchema#nonNegativeInteger
p144
sVtype
p145
Vtyped-literal
p146
sVvalue
p147
V47
p148
ssasVordered
p149
I01
ss.