(dp0
Vhead
p1
(dp2
Vlink
p3
(lp4
sVvars
p5
(lp6
Vp
p7
aVo
p8
assVresults
p9
(dp10
Vdistinct
p11
I00
sVbindings
p12
(lp13
(dp14
g7
(dp15
Vtype
p16
Vuri
p17
sVvalue
p18
Vhttp://dbpedia.org/ontology/abstract
p19
ssg8
(dp20
Vxml:lang
p21
Ven
p22
sVtype
p23
Vliteral
p24
sVvalue
p25
VSilent Coup is a book written by Len Colodny and Robert Gettlin, in which they contend that former Nixon White House counsel John Dean orchestrated the 1972 Watergate burglary at Democratic National Committee headquarters to protect his future wife Maureen Biner by removing information linking her to a call-girl ring that worked for the DNC. The first edition was published in 1991, followed quickly by an expanded second edition in January 1992. The authors also argued that Alexander Haig was not Deep Throat, but was a key source for Bob Woodward, who as a Naval officer had briefed Haig at the White House in 1969 and 1970; it was later revealed FBI deputy director Mark Felt, who was confirmed as Deep Throat in 2005, became Woodward's key source after his partner Carl Bernstein was able to locate hush money in Miami, Florida.
p26
ssa(dp27
g7
(dp28
Vtype
p29
Vuri
p30
sVvalue
p31
Vhttp://dbpedia.org/ontology/dcc
p32
ssg8
(dp33
Vtype
p34
Vliteral
p35
sVvalue
p36
V364.1/32/0973 20
p37
ssa(dp38
g7
(dp39
Vtype
p40
Vuri
p41
sVvalue
p42
Vhttp://dbpedia.org/ontology/isbn
p43
ssg8
(dp44
Vtype
p45
Vliteral
p46
sVvalue
p47
V0-312-05156-5
p48
ssa(dp49
g7
(dp50
Vtype
p51
Vuri
p52
sVvalue
p53
Vhttp://dbpedia.org/ontology/lcc
p54
ssg8
(dp55
Vtype
p56
Vliteral
p57
sVvalue
p58
VE860 .C635 1991
p59
ssa(dp60
g7
(dp61
Vtype
p62
Vuri
p63
sVvalue
p64
Vhttp://dbpedia.org/ontology/numberOfPages
p65
ssg8
(dp66
Vdatatype
p67
Vhttp://www.w3.org/2001/XMLSchema#positiveInteger
p68
sVtype
p69
Vtyped-literal
p70
sVvalue
p71
V580
p72
ssa(dp73
g7
(dp74
Vtype
p75
Vuri
p76
sVvalue
p77
Vhttp://dbpedia.org/ontology/oclc
p78
ssg8
(dp79
Vtype
p80
Vliteral
p81
sVvalue
p82
V22493143
p83
ssa(dp84
g7
(dp85
Vtype
p86
Vuri
p87
sVvalue
p88
Vhttp://dbpedia.org/ontology/wikiPageExtracted
p89
ssg8
(dp90
Vdatatype
p91
Vhttp://www.w3.org/2001/XMLSchema#dateTime
p92
sVtype
p93
Vtyped-literal
p94
sVvalue
p95
V2016-11-05T23:02:44Z
p96
ssa(dp97
g7
(dp98
Vtype
p99
Vuri
p100
sVvalue
p101
Vhttp://dbpedia.org/ontology/wikiPageLength
p102
ssg8
(dp103
Vdatatype
p104
Vhttp://www.w3.org/2001/XMLSchema#nonNegativeInteger
p105
sVtype
p106
Vtyped-literal
p107
sVvalue
p108
V4193
p109
ssa(dp110
g7
(dp111
Vtype
p112
Vuri
p113
sVvalue
p114
Vhttp://dbpedia.org/ontology/wikiPageModified
p115
ssg8
(dp116
Vdatatype
p117
Vhttp://www.w3.org/2001/XMLSchema#dateTime
p118
sVtype
p119
Vtyped-literal
p120
sVvalue
p121
V2016-07-07T22:33:23Z
p122
ssa(dp123
g7
(dp124
Vtype
p125
Vuri
p126
sVvalue
p127
Vhttp://dbpedia.org/ontology/wikiPageOutDegree
p128
ssg8
(dp129
Vdatatype
p130
Vhttp://www.w3.org/2001/XMLSchema#nonNegativeInteger
p131
sVtype
p132
Vtyped-literal
p133
sVvalue
p134
V29
p135
ssasVordered
p136
I01
ss.