(dp0
Vhead
p1
(dp2
Vlink
p3
(lp4
sVvars
p5
(lp6
Vp
p7
aVo
p8
assVresults
p9
(dp10
Vdistinct
p11
I00
sVbindings
p12
(lp13
(dp14
g7
(dp15
Vtype
p16
Vuri
p17
sVvalue
p18
Vhttp://dbpedia.org/ontology/abstract
p19
ssg8
(dp20
Vxml:lang
p21
Ven
p22
sVtype
p23
Vliteral
p24
sVvalue
p25
VUSS Brooklyn (CL-40) was a light cruiser, the lead ship of her class of seven, and the third United States Navy ship to bear its name. Commissioned in 1937, she served in the Atlantic during World War II, as a convoy escort and as fire support for amphibious landings.Decommissioned in 1947, she was transferred to the Chilean Navy in 1951, where she served for another 40 years. She sank under tow to a scrapyard in 1992.
p26
ssa(dp27
g7
(dp28
Vtype
p29
Vuri
p30
sVvalue
p31
Vhttp://dbpedia.org/ontology/length
p32
ssg8
(dp33
Vdatatype
p34
Vhttp://www.w3.org/2001/XMLSchema#double
p35
sVtype
p36
Vtyped-literal
p37
sVvalue
p38
V182.88
p39
ssa(dp40
g7
(dp41
Vtype
p42
Vuri
p43
sVvalue
p44
Vhttp://dbpedia.org/ontology/status
p45
ssg8
(dp46
Vtype
p47
Vliteral
p48
sVvalue
p49
VSunk 3 November 1992, under tow to breakers inIndia
p50
ssa(dp51
g7
(dp52
Vtype
p53
Vuri
p54
sVvalue
p55
Vhttp://dbpedia.org/ontology/status
p56
ssg8
(dp57
Vtype
p58
Vliteral
p59
sVvalue
p60
VSold for scrap in 1992
p61
ssa(dp62
g7
(dp63
Vtype
p64
Vuri
p65
sVvalue
p66
Vhttp://dbpedia.org/ontology/status
p67
ssg8
(dp68
Vtype
p69
Vliteral
p70
sVvalue
p71
VSold toChilein 1951
p72
ssa(dp73
g7
(dp74
Vtype
p75
Vuri
p76
sVvalue
p77
Vhttp://dbpedia.org/ontology/wikiPageExtracted
p78
ssg8
(dp79
Vdatatype
p80
Vhttp://www.w3.org/2001/XMLSchema#dateTime
p81
sVtype
p82
Vtyped-literal
p83
sVvalue
p84
V2016-11-07T12:16:12Z
p85
ssa(dp86
g7
(dp87
Vtype
p88
Vuri
p89
sVvalue
p90
Vhttp://dbpedia.org/ontology/wikiPageLength
p91
ssg8
(dp92
Vdatatype
p93
Vhttp://www.w3.org/2001/XMLSchema#nonNegativeInteger
p94
sVtype
p95
Vtyped-literal
p96
sVvalue
p97
V13011
p98
ssa(dp99
g7
(dp100
Vtype
p101
Vuri
p102
sVvalue
p103
Vhttp://dbpedia.org/ontology/wikiPageModified
p104
ssg8
(dp105
Vdatatype
p106
Vhttp://www.w3.org/2001/XMLSchema#dateTime
p107
sVtype
p108
Vtyped-literal
p109
sVvalue
p110
V2016-10-09T11:39:05Z
p111
ssa(dp112
g7
(dp113
Vtype
p114
Vuri
p115
sVvalue
p116
Vhttp://dbpedia.org/ontology/wikiPageOutDegree
p117
ssg8
(dp118
Vdatatype
p119
Vhttp://www.w3.org/2001/XMLSchema#nonNegativeInteger
p120
sVtype
p121
Vtyped-literal
p122
sVvalue
p123
V100
p124
ssa(dp125
g7
(dp126
Vtype
p127
Vuri
p128
sVvalue
p129
Vhttp://dbpedia.org/ontology/MeanOfTransportation/length
p130
ssg8
(dp131
Vdatatype
p132
Vhttp://dbpedia.org/datatype/millimetre
p133
sVtype
p134
Vtyped-literal
p135
sVvalue
p136
V182880.0
p137
ssa(dp138
g7
(dp139
Vtype
p140
Vuri
p141
sVvalue
p142
Vhttp://dbpedia.org/ontology/commissioningDate
p143
ssg8
(dp144
Vdatatype
p145
Vhttp://www.w3.org/2001/XMLSchema#date
p146
sVtype
p147
Vtyped-literal
p148
sVvalue
p149
V1937-09-30
p150
ssa(dp151
g7
(dp152
Vtype
p153
Vuri
p154
sVvalue
p155
Vhttp://dbpedia.org/ontology/commissioningDate
p156
ssg8
(dp157
Vdatatype
p158
Vhttp://www.w3.org/2001/XMLSchema#date
p159
sVtype
p160
Vtyped-literal
p161
sVvalue
p162
V1951-01-09
p163
ssa(dp164
g7
(dp165
Vtype
p166
Vuri
p167
sVvalue
p168
Vhttp://dbpedia.org/ontology/decommissioningDate
p169
ssg8
(dp170
Vdatatype
p171
Vhttp://www.w3.org/2001/XMLSchema#date
p172
sVtype
p173
Vtyped-literal
p174
sVvalue
p175
V1947-01-03
p176
ssa(dp177
g7
(dp178
Vtype
p179
Vuri
p180
sVvalue
p181
Vhttp://dbpedia.org/ontology/decommissioningDate
p182
ssg8
(dp183
Vdatatype
p184
Vhttp://www.w3.org/2001/XMLSchema#date
p185
sVtype
p186
Vtyped-literal
p187
sVvalue
p188
V1992-01-14
p189
ssa(dp190
g7
(dp191
Vtype
p192
Vuri
p193
sVvalue
p194
Vhttp://dbpedia.org/ontology/layingDown
p195
ssg8
(dp196
Vdatatype
p197
Vhttp://www.w3.org/2001/XMLSchema#date
p198
sVtype
p199
Vtyped-literal
p200
sVvalue
p201
V1935-03-12
p202
ssa(dp203
g7
(dp204
Vtype
p205
Vuri
p206
sVvalue
p207
Vhttp://dbpedia.org/ontology/orderDate
p208
ssg8
(dp209
Vdatatype
p210
Vhttp://www.w3.org/2001/XMLSchema#date
p211
sVtype
p212
Vtyped-literal
p213
sVvalue
p214
V1929-02-13
p215
ssa(dp216
g7
(dp217
Vtype
p218
Vuri
p219
sVvalue
p220
Vhttp://dbpedia.org/ontology/shipBeam
p221
ssg8
(dp222
Vdatatype
p223
Vhttp://www.w3.org/2001/XMLSchema#double
p224
sVtype
p225
Vtyped-literal
p226
sVvalue
p227
V18.5928
p228
ssa(dp229
g7
(dp230
Vtype
p231
Vuri
p232
sVvalue
p233
Vhttp://dbpedia.org/ontology/shipBeam
p234
ssg8
(dp235
Vdatatype
p236
Vhttp://www.w3.org/2001/XMLSchema#double
p237
sVtype
p238
Vtyped-literal
p239
sVvalue
p240
V21.0312
p241
ssa(dp242
g7
(dp243
Vtype
p244
Vuri
p245
sVvalue
p246
Vhttp://dbpedia.org/ontology/shipLaunch
p247
ssg8
(dp248
Vdatatype
p249
Vhttp://www.w3.org/2001/XMLSchema#date
p250
sVtype
p251
Vtyped-literal
p252
sVvalue
p253
V1936-11-30
p254
ssa(dp255
g7
(dp256
Vtype
p257
Vuri
p258
sVvalue
p259
Vhttp://dbpedia.org/ontology/topSpeed
p260
ssg8
(dp261
Vdatatype
p262
Vhttp://www.w3.org/2001/XMLSchema#double
p263
sVtype
p264
Vtyped-literal
p265
sVvalue
p266
V60.19
p267
ssa(dp268
g7
(dp269
Vtype
p270
Vuri
p271
sVvalue
p272
Vhttp://dbpedia.org/ontology/shipDraft
p273
ssg8
(dp274
Vdatatype
p275
Vhttp://www.w3.org/2001/XMLSchema#double
p276
sVtype
p277
Vtyped-literal
p278
sVvalue
p279
V5.7912
p280
ssa(dp281
g7
(dp282
Vtype
p283
Vuri
p284
sVvalue
p285
Vhttp://dbpedia.org/ontology/shipDraft
p286
ssg8
(dp287
Vdatatype
p288
Vhttp://www.w3.org/2001/XMLSchema#double
p289
sVtype
p290
Vtyped-literal
p291
sVvalue
p292
V7.3152
p293
ssasVordered
p294
I01
ss.