(dp0
Vhead
p1
(dp2
Vlink
p3
(lp4
sVvars
p5
(lp6
Vp
p7
aVo
p8
assVresults
p9
(dp10
Vdistinct
p11
I00
sVbindings
p12
(lp13
(dp14
g7
(dp15
Vtype
p16
Vuri
p17
sVvalue
p18
Vhttp://dbpedia.org/ontology/PopulatedPlace/areaTotal
p19
ssg8
(dp20
Vdatatype
p21
Vhttp://dbpedia.org/datatype/squareKilometre
p22
sVtype
p23
Vtyped-literal
p24
sVvalue
p25
V21.25
p26
ssa(dp27
g7
(dp28
Vtype
p29
Vuri
p30
sVvalue
p31
Vhttp://dbpedia.org/ontology/abstract
p32
ssg8
(dp33
Vxml:lang
p34
Ven
p35
sVtype
p36
Vliteral
p37
sVvalue
p38
VKotcherla is a village in Guntur district of the Indian state of Andhra Pradesh. It is located in Ipur mandal of Tenali revenue division.
p39
ssa(dp40
g7
(dp41
Vtype
p42
Vuri
p43
sVvalue
p44
Vhttp://dbpedia.org/ontology/abstract
p45
ssg8
(dp46
Vxml:lang
p47
Ven
p48
sVtype
p49
Vliteral
p50
sVvalue
p51
VKotcherla is a village in Guntur district of the Indian state of Andhra Pradesh. It is located in Ipur mandal of Narasaraopet revenue division.
p52
ssa(dp53
g7
(dp54
Vtype
p55
Vuri
p56
sVvalue
p57
Vhttp://dbpedia.org/ontology/areaCode
p58
ssg8
(dp59
Vtype
p60
Vliteral
p61
sVvalue
p62
V+91\u20138646
p63
ssa(dp64
g7
(dp65
Vtype
p66
Vuri
p67
sVvalue
p68
Vhttp://dbpedia.org/ontology/areaTotal
p69
ssg8
(dp70
Vdatatype
p71
Vhttp://www.w3.org/2001/XMLSchema#double
p72
sVtype
p73
Vtyped-literal
p74
sVvalue
p75
V2.125e+07
p76
ssa(dp77
g7
(dp78
Vtype
p79
Vuri
p80
sVvalue
p81
Vhttp://dbpedia.org/ontology/elevation
p82
ssg8
(dp83
Vdatatype
p84
Vhttp://www.w3.org/2001/XMLSchema#double
p85
sVtype
p86
Vtyped-literal
p87
sVvalue
p88
V98.0
p89
ssa(dp90
g7
(dp91
Vtype
p92
Vuri
p93
sVvalue
p94
Vhttp://dbpedia.org/ontology/populationTotal
p95
ssg8
(dp96
Vdatatype
p97
Vhttp://www.w3.org/2001/XMLSchema#nonNegativeInteger
p98
sVtype
p99
Vtyped-literal
p100
sVvalue
p101
V6338
p102
ssa(dp103
g7
(dp104
Vtype
p105
Vuri
p106
sVvalue
p107
Vhttp://dbpedia.org/ontology/postalCode
p108
ssg8
(dp109
Vtype
p110
Vliteral
p111
sVvalue
p112
V522647
p113
ssa(dp114
g7
(dp115
Vtype
p116
Vuri
p117
sVvalue
p118
Vhttp://dbpedia.org/ontology/utcOffset
p119
ssg8
(dp120
Vtype
p121
Vliteral
p122
sVvalue
p123
V+5:30
p124
ssa(dp125
g7
(dp126
Vtype
p127
Vuri
p128
sVvalue
p129
Vhttp://dbpedia.org/ontology/wikiPageExtracted
p130
ssg8
(dp131
Vdatatype
p132
Vhttp://www.w3.org/2001/XMLSchema#dateTime
p133
sVtype
p134
Vtyped-literal
p135
sVvalue
p136
V2016-11-01T20:52:40Z
p137
ssa(dp138
g7
(dp139
Vtype
p140
Vuri
p141
sVvalue
p142
Vhttp://dbpedia.org/ontology/wikiPageLength
p143
ssg8
(dp144
Vdatatype
p145
Vhttp://www.w3.org/2001/XMLSchema#nonNegativeInteger
p146
sVtype
p147
Vtyped-literal
p148
sVvalue
p149
V3903
p150
ssa(dp151
g7
(dp152
Vtype
p153
Vuri
p154
sVvalue
p155
Vhttp://dbpedia.org/ontology/wikiPageModified
p156
ssg8
(dp157
Vdatatype
p158
Vhttp://www.w3.org/2001/XMLSchema#dateTime
p159
sVtype
p160
Vtyped-literal
p161
sVvalue
p162
V2016-09-12T15:35:45Z
p163
ssa(dp164
g7
(dp165
Vtype
p166
Vuri
p167
sVvalue
p168
Vhttp://dbpedia.org/ontology/wikiPageOutDegree
p169
ssg8
(dp170
Vdatatype
p171
Vhttp://www.w3.org/2001/XMLSchema#nonNegativeInteger
p172
sVtype
p173
Vtyped-literal
p174
sVvalue
p175
V20
p176
ssasVordered
p177
I01
ss.