(dp0
Vhead
p1
(dp2
Vlink
p3
(lp4
sVvars
p5
(lp6
Vp
p7
aVo
p8
assVresults
p9
(dp10
Vdistinct
p11
I00
sVbindings
p12
(lp13
(dp14
g7
(dp15
Vtype
p16
Vuri
p17
sVvalue
p18
Vhttp://dbpedia.org/ontology/abstract
p19
ssg8
(dp20
Vxml:lang
p21
Ven
p22
sVtype
p23
Vliteral
p24
sVvalue
p25
VAnna Windass is a fictional character in the ITV soap opera Coronation Street, portrayed by Debbie Rush. The character was introduced in an episode which aired on 14 November 2008.Anna's storylines have included a rocky relationship to her boyfriend, Eddie Windass (Steve Huison), a feud with the Platt family, coping with her wayward son Gary (Mikey North), dealing with Gary going into the army, her relationship with Owen Armstrong (Ian Puleston-Davies), adopting Faye Butler (Ellie Leach), a feud with Faye's biological father Tim Metcalfe (Joe Duttine) and his partner Sally Webster (Sally Dynevor), getting into trouble with Social Services after Faye tells her school that Anna has been "abusing" her, helping close friend Roy Cropper (David Neilson) cope after discovering that his wife Hayley (Julie Hesmondhalgh) is dying, being blackmailed into having sex with Pat Phelan (Connor McIntyre), managing to repair her relationship with Owen, facing bankruptcy and coming to terms with Faye's underage pregnancy.
p26
ssa(dp27
g7
(dp28
Vtype
p29
Vuri
p30
sVvalue
p31
Vhttp://dbpedia.org/ontology/abstract
p32
ssg8
(dp33
Vxml:lang
p34
Ven
p35
sVtype
p36
Vliteral
p37
sVvalue
p38
VAnna Windass is a fictional character in the ITV soap opera Coronation Street, portrayed by Debbie Rush. The character was introduced in an episode which aired on 14 November 2008.Anna's storylines have included a rocky relationship to her boyfriend, Eddie Windass (Steve Huison), a feud with the Platt family, coping with her wayward son Gary (Mikey North), dealing with Gary going into the army, her relationship with Owen Armstrong (Ian Puleston-Davies), adopting Faye Butler (Ellie Leach), a feud with Faye's biological father Tim Metcalfe (Joe Duttine) and his partner Sally Webster (Sally Dynevor), getting into trouble with Social Services after Faye tells her school that Anna has been "abusing" her, helping close friend Roy Cropper (David Neilson) cope after discovering that his wife Hayley (Julie Hesmondhalgh) is dying, being blackmailed into having sex with Pat Phelan (Connor McIntyre), managing to repair her relationship with Owen, facing bankruptcy, coming to terms with Faye's underage pregnancy and being severely burnt following a car explosion caused by David Platt (Jack P. Shepherd).
p39
ssa(dp40
g7
(dp41
Vtype
p42
Vuri
p43
sVvalue
p44
Vhttp://dbpedia.org/ontology/wikiPageExtracted
p45
ssg8
(dp46
Vdatatype
p47
Vhttp://www.w3.org/2001/XMLSchema#dateTime
p48
sVtype
p49
Vtyped-literal
p50
sVvalue
p51
V2016-10-27T13:27:58Z
p52
ssa(dp53
g7
(dp54
Vtype
p55
Vuri
p56
sVvalue
p57
Vhttp://dbpedia.org/ontology/wikiPageLength
p58
ssg8
(dp59
Vdatatype
p60
Vhttp://www.w3.org/2001/XMLSchema#nonNegativeInteger
p61
sVtype
p62
Vtyped-literal
p63
sVvalue
p64
V31763
p65
ssa(dp66
g7
(dp67
Vtype
p68
Vuri
p69
sVvalue
p70
Vhttp://dbpedia.org/ontology/wikiPageModified
p71
ssg8
(dp72
Vdatatype
p73
Vhttp://www.w3.org/2001/XMLSchema#dateTime
p74
sVtype
p75
Vtyped-literal
p76
sVvalue
p77
V2016-10-24T11:07:28Z
p78
ssa(dp79
g7
(dp80
Vtype
p81
Vuri
p82
sVvalue
p83
Vhttp://dbpedia.org/ontology/wikiPageOutDegree
p84
ssg8
(dp85
Vdatatype
p86
Vhttp://www.w3.org/2001/XMLSchema#nonNegativeInteger
p87
sVtype
p88
Vtyped-literal
p89
sVvalue
p90
V120
p91
ssasVordered
p92
I01
ss.