(dp0
Vhead
p1
(dp2
Vlink
p3
(lp4
sVvars
p5
(lp6
Vp
p7
aVo
p8
assVresults
p9
(dp10
Vdistinct
p11
I00
sVbindings
p12
(lp13
(dp14
g7
(dp15
Vtype
p16
Vuri
p17
sVvalue
p18
Vhttp://dbpedia.org/ontology/isPartOfName
p19
ssg8
(dp20
Vtype
p21
Vliteral
p22
sVvalue
p23
V*
p24
ssa(dp25
g7
(dp26
Vtype
p27
Vuri
p28
sVvalue
p29
Vhttp://dbpedia.org/ontology/isPartOfName
p30
ssg8
(dp31
Vtype
p32
Vliteral
p33
sVvalue
p34
VNational Route 1
p35
ssa(dp36
g7
(dp37
Vtype
p38
Vuri
p39
sVvalue
p40
Vhttp://dbpedia.org/ontology/isPartOfName
p41
ssg8
(dp42
Vtype
p43
Vliteral
p44
sVvalue
p45
V(Armadale \u2013 Bunbury)
p46
ssa(dp47
g7
(dp48
Vtype
p49
Vuri
p50
sVvalue
p51
Vhttp://dbpedia.org/ontology/isPartOfName
p52
ssg8
(dp53
Vtype
p54
Vliteral
p55
sVvalue
p56
V(Bunbury \u2013 Walpole)
p57
ssa(dp58
g7
(dp59
Vtype
p60
Vuri
p61
sVvalue
p62
Vhttp://dbpedia.org/ontology/isPartOfName
p63
ssg8
(dp64
Vtype
p65
Vliteral
p66
sVvalue
p67
V(Mundijong)
p68
ssa(dp69
g7
(dp70
Vtype
p71
Vuri
p72
sVvalue
p73
Vhttp://dbpedia.org/ontology/isPartOfName
p74
ssg8
(dp75
Vtype
p76
Vliteral
p77
sVvalue
p78
V(Roelands \u2013 Bunbury)
p79
ssa(dp80
g7
(dp81
Vtype
p82
Vuri
p83
sVvalue
p84
Vhttp://dbpedia.org/ontology/isPartOfName
p85
ssg8
(dp86
Vtype
p87
Vliteral
p88
sVvalue
p89
VState Route 107
p90
ssa(dp91
g7
(dp92
Vtype
p93
Vuri
p94
sVvalue
p95
Vhttp://dbpedia.org/ontology/isPartOfName
p96
ssg8
(dp97
Vtype
p98
Vliteral
p99
sVvalue
p100
VState Route 20
p101
ssa(dp102
g7
(dp103
Vtype
p104
Vuri
p105
sVvalue
p106
Vhttp://dbpedia.org/ontology/isPartOfName
p107
ssg8
(dp108
Vtype
p109
Vliteral
p110
sVvalue
p111
VState Route 22
p112
ssa(dp113
g7
(dp114
Vtype
p115
Vuri
p116
sVvalue
p117
Vhttp://dbpedia.org/ontology/abstract
p118
ssg8
(dp119
Vxml:lang
p120
Ven
p121
sVtype
p122
Vliteral
p123
sVvalue
p124
VSouth Western Highway is a highway in the South West region of Western Australia connecting Perth's southeast with Walpole. It is a part of the Highway 1 network for most of its length. It is about 406 kilometres (252 mi) long.
p125
ssa(dp126
g7
(dp127
Vtype
p128
Vuri
p129
sVvalue
p130
Vhttp://dbpedia.org/ontology/length
p131
ssg8
(dp132
Vdatatype
p133
Vhttp://www.w3.org/2001/XMLSchema#double
p134
sVtype
p135
Vtyped-literal
p136
sVvalue
p137
V406000.0
p138
ssa(dp139
g7
(dp140
Vtype
p141
Vuri
p142
sVvalue
p143
Vhttp://dbpedia.org/ontology/wikiPageExtracted
p144
ssg8
(dp145
Vdatatype
p146
Vhttp://www.w3.org/2001/XMLSchema#dateTime
p147
sVtype
p148
Vtyped-literal
p149
sVvalue
p150
V2016-11-06T04:03:33Z
p151
ssa(dp152
g7
(dp153
Vtype
p154
Vuri
p155
sVvalue
p156
Vhttp://dbpedia.org/ontology/wikiPageLength
p157
ssg8
(dp158
Vdatatype
p159
Vhttp://www.w3.org/2001/XMLSchema#nonNegativeInteger
p160
sVtype
p161
Vtyped-literal
p162
sVvalue
p163
V19493
p164
ssa(dp165
g7
(dp166
Vtype
p167
Vuri
p168
sVvalue
p169
Vhttp://dbpedia.org/ontology/wikiPageModified
p170
ssg8
(dp171
Vdatatype
p172
Vhttp://www.w3.org/2001/XMLSchema#dateTime
p173
sVtype
p174
Vtyped-literal
p175
sVvalue
p176
V2016-10-19T15:28:31Z
p177
ssa(dp178
g7
(dp179
Vtype
p180
Vuri
p181
sVvalue
p182
Vhttp://dbpedia.org/ontology/wikiPageOutDegree
p183
ssg8
(dp184
Vdatatype
p185
Vhttp://www.w3.org/2001/XMLSchema#nonNegativeInteger
p186
sVtype
p187
Vtyped-literal
p188
sVvalue
p189
V128
p190
ssa(dp191
g7
(dp192
Vtype
p193
Vuri
p194
sVvalue
p195
Vhttp://dbpedia.org/ontology/Infrastructure/length
p196
ssg8
(dp197
Vdatatype
p198
Vhttp://dbpedia.org/datatype/kilometre
p199
sVtype
p200
Vtyped-literal
p201
sVvalue
p202
V406.0
p203
ssasVordered
p204
I01
ss.