(dp0
Vhead
p1
(dp2
Vlink
p3
(lp4
sVvars
p5
(lp6
Vp
p7
aVo
p8
assVresults
p9
(dp10
Vdistinct
p11
I00
sVbindings
p12
(lp13
(dp14
g7
(dp15
Vtype
p16
Vuri
p17
sVvalue
p18
Vhttp://dbpedia.org/ontology/PopulatedPlace/areaMetro
p19
ssg8
(dp20
Vdatatype
p21
Vhttp://dbpedia.org/datatype/squareKilometre
p22
sVtype
p23
Vtyped-literal
p24
sVvalue
p25
V28163.530711793665
p26
ssa(dp27
g7
(dp28
Vtype
p29
Vuri
p30
sVvalue
p31
Vhttp://dbpedia.org/ontology/PopulatedPlace/areaTotal
p32
ssg8
(dp33
Vdatatype
p34
Vhttp://dbpedia.org/datatype/squareKilometre
p35
sVtype
p36
Vtyped-literal
p37
sVvalue
p38
V606.057217818624
p39
ssa(dp40
g7
(dp41
Vtype
p42
Vuri
p43
sVvalue
p44
Vhttp://dbpedia.org/ontology/PopulatedPlace/areaUrban
p45
ssg8
(dp46
Vdatatype
p47
Vhttp://dbpedia.org/datatype/squareKilometre
p48
sVtype
p49
Vtyped-literal
p50
sVvalue
p51
V5498.026760621261
p52
ssa(dp53
g7
(dp54
Vtype
p55
Vuri
p56
sVvalue
p57
Vhttp://dbpedia.org/ontology/PopulatedPlace/populationDensity
p58
ssg8
(dp59
Vdatatype
p60
Vhttp://dbpedia.org/datatype/inhabitantsPerSquareKilometre
p61
sVtype
p62
Vtyped-literal
p63
sVvalue
p64
V4447.4
p65
ssa(dp66
g7
(dp67
Vtype
p68
Vuri
p69
sVvalue
p70
Vhttp://dbpedia.org/ontology/PopulatedPlace/populationDensity
p71
ssg8
(dp72
Vdatatype
p73
Vhttp://dbpedia.org/datatype/inhabitantsPerSquareKilometre
p74
sVtype
p75
Vtyped-literal
p76
sVvalue
p77
V4580.8704498109955
p78
ssa(dp79
g7
(dp80
Vtype
p81
Vuri
p82
sVvalue
p83
Vhttp://dbpedia.org/ontology/abstract
p84
ssg8
(dp85
Vxml:lang
p86
Ven
p87
sVtype
p88
Vliteral
p89
sVvalue
p90
VChicago (/\u0283\u1d7b\u02c8k\u0251\u02d0\u0261o\u028a/ or /\u0283\u1d7b\u02c8k\u0254\u02d0\u0261o\u028a/) is the third-most populous city in the United States. With over 2.7 million residents it is the most populous city in the state of Illinois and the Midwestern United States, and the county seat of Cook County. The Chicago metropolitan area, often referred to as Chicagoland, has nearly 10 million people and is the third-largest in the U.S.Chicago was incorporated as a city in 1837, near a portage between the Great Lakes and the Mississippi River watershed, and grew rapidly in the mid-nineteenth century. The city is an international hub for finance, commerce, industry, technology, telecommunications, and transportation: O'Hare International Airport is the second-busiest airport in the world when measured by aircraft traffic; the region also has the largest number of U.S. highways and rail road freight. In 2012, Chicago was listed as an alpha global city by the Globalization and World Cities Research Network, and ranked seventh in the world in the 2014 Global Cities Index. Chicago has the third-largest gross metropolitan product in the United States\u2014about $630.3 billion according to 2014-2016 estimates. The city has one of the world's largest and most diversified economies with no single industry employing more than 14% of the workforce.In 2015, Chicago had over 52 million international and domestic visitors. Chicago's culture includes the visual arts, novels, film, theater, especially improvisational comedy, and music, particularly jazz, blues, soul, gospel and house music. It also has professional sports teams in each of the major professional leagues. Chicago has many nicknames, the best-known being the Windy City.
p91
ssa(dp92
g7
(dp93
Vtype
p94
Vuri
p95
sVvalue
p96
Vhttp://dbpedia.org/ontology/abstract
p97
ssg8
(dp98
Vxml:lang
p99
Ven
p100
sVtype
p101
Vliteral
p102
sVvalue
p103
VChicago (/\u0283\u1d7b\u02c8k\u0251\u02d0\u0261o\u028a/ or /\u0283\u1d7b\u02c8k\u0254\u02d0\u0261o\u028a/) is the third-most populous city in the United States. With over 2.7 million residents, it is the most populous city in the state of Illinois and the Midwestern United States, and the county seat of Cook County. The Chicago metropolitan area, often referred to as Chicagoland, has nearly 10 million people and is the third-largest in the U.S.Chicago was incorporated as a city in 1837, near a portage between the Great Lakes and the Mississippi River watershed, and grew rapidly in the mid-nineteenth century. The city is an international hub for finance, commerce, industry, technology, telecommunications, and transportation: O'Hare International Airport is the second-busiest airport in the world when measured by aircraft traffic; the region also has the largest number of U.S. highways and rail road freight. In 2012, Chicago was listed as an alpha global city by the Globalization and World Cities Research Network, and ranked seventh in the world in the 2014 Global Cities Index. Chicago has the third-largest gross metropolitan product in the United States\u2014about $630.3 billion according to 2014\u20132016 estimates. The city has one of the world's largest and most diversified economies with no single industry employing more than 14% of the workforce.In 2015, Chicago hosted over 52 million international and domestic visitors, a new record for the city making it one of the top visited cities in the nation. Chicago's culture includes the visual arts, novels, film, theater, especially improvisational comedy, and music, particularly jazz, blues, soul, gospel and house music. It also has professional sports teams in each of the major professional leagues. Chicago has many nicknames, the best-known being the Windy City.
p104
ssa(dp105
g7
(dp106
Vtype
p107
Vuri
p108
sVvalue
p109
Vhttp://dbpedia.org/ontology/areaCode
p110
ssg8
(dp111
Vtype
p112
Vliteral
p113
sVvalue
p114
V312/872and773/872
p115
ssa(dp116
g7
(dp117
Vtype
p118
Vuri
p119
sVvalue
p120
Vhttp://dbpedia.org/ontology/areaLand
p121
ssg8
(dp122
Vdatatype
p123
Vhttp://www.w3.org/2001/XMLSchema#double
p124
sVtype
p125
Vtyped-literal
p126
sVvalue
p127
V5.88704e+08
p128
ssa(dp129
g7
(dp130
Vtype
p131
Vuri
p132
sVvalue
p133
Vhttp://dbpedia.org/ontology/areaMetro
p134
ssg8
(dp135
Vdatatype
p136
Vhttp://www.w3.org/2001/XMLSchema#double
p137
sVtype
p138
Vtyped-literal
p139
sVvalue
p140
V2.81635e+10
p141
ssa(dp142
g7
(dp143
Vtype
p144
Vuri
p145
sVvalue
p146
Vhttp://dbpedia.org/ontology/areaTotal
p147
ssg8
(dp148
Vdatatype
p149
Vhttp://www.w3.org/2001/XMLSchema#double
p150
sVtype
p151
Vtyped-literal
p152
sVvalue
p153
V6.06057e+08
p154
ssa(dp155
g7
(dp156
Vtype
p157
Vuri
p158
sVvalue
p159
Vhttp://dbpedia.org/ontology/areaUrban
p160
ssg8
(dp161
Vdatatype
p162
Vhttp://www.w3.org/2001/XMLSchema#double
p163
sVtype
p164
Vtyped-literal
p165
sVvalue
p166
V5.49803e+09
p167
ssa(dp168
g7
(dp169
Vtype
p170
Vuri
p171
sVvalue
p172
Vhttp://dbpedia.org/ontology/areaWater
p173
ssg8
(dp174
Vdatatype
p175
Vhttp://www.w3.org/2001/XMLSchema#double
p176
sVtype
p177
Vtyped-literal
p178
sVvalue
p179
V1.78709e+07
p180
ssa(dp181
g7
(dp182
Vtype
p183
Vuri
p184
sVvalue
p185
Vhttp://dbpedia.org/ontology/elevation
p186
ssg8
(dp187
Vdatatype
p188
Vhttp://www.w3.org/2001/XMLSchema#double
p189
sVtype
p190
Vtyped-literal
p191
sVvalue
p192
V181.051
p193
ssa(dp194
g7
(dp195
Vtype
p196
Vuri
p197
sVvalue
p198
Vhttp://dbpedia.org/ontology/foundingDate
p199
ssg8
(dp200
Vdatatype
p201
Vhttp://www.w3.org/2001/XMLSchema#date
p202
sVtype
p203
Vtyped-literal
p204
sVvalue
p205
V1833-08-12
p206
ssa(dp207
g7
(dp208
Vtype
p209
Vuri
p210
sVvalue
p211
Vhttp://dbpedia.org/ontology/foundingDate
p212
ssg8
(dp213
Vdatatype
p214
Vhttp://www.w3.org/2001/XMLSchema#date
p215
sVtype
p216
Vtyped-literal
p217
sVvalue
p218
V1837-03-04
p219
ssa(dp220
g7
(dp221
Vtype
p222
Vuri
p223
sVvalue
p224
Vhttp://dbpedia.org/ontology/leaderTitle
p225
ssg8
(dp226
Vxml:lang
p227
Ven
p228
sVtype
p229
Vliteral
p230
sVvalue
p231
VMayor
p232
ssa(dp233
g7
(dp234
Vtype
p235
Vuri
p236
sVvalue
p237
Vhttp://dbpedia.org/ontology/leaderTitle
p238
ssg8
(dp239
Vxml:lang
p240
Ven
p241
sVtype
p242
Vliteral
p243
sVvalue
p244
VCity Clerk
p245
ssa(dp246
g7
(dp247
Vtype
p248
Vuri
p249
sVvalue
p250
Vhttp://dbpedia.org/ontology/leaderTitle
p251
ssg8
(dp252
Vxml:lang
p253
Ven
p254
sVtype
p255
Vliteral
p256
sVvalue
p257
VCity Treasurer
p258
ssa(dp259
g7
(dp260
Vtype
p261
Vuri
p262
sVvalue
p263
Vhttp://dbpedia.org/ontology/maximumElevation
p264
ssg8
(dp265
Vdatatype
p266
Vhttp://www.w3.org/2001/XMLSchema#double
p267
sVtype
p268
Vtyped-literal
p269
sVvalue
p270
V204.826
p271
ssa(dp272
g7
(dp273
Vtype
p274
Vuri
p275
sVvalue
p276
Vhttp://dbpedia.org/ontology/minimumElevation
p277
ssg8
(dp278
Vdatatype
p279
Vhttp://www.w3.org/2001/XMLSchema#double
p280
sVtype
p281
Vtyped-literal
p282
sVvalue
p283
V176.174
p284
ssa(dp285
g7
(dp286
Vtype
p287
Vuri
p288
sVvalue
p289
Vhttp://dbpedia.org/ontology/motto
p290
ssg8
(dp291
Vtype
p292
Vliteral
p293
sVvalue
p294
V(City in a Garden), I Will
p295
ssa(dp296
g7
(dp297
Vtype
p298
Vuri
p299
sVvalue
p300
Vhttp://dbpedia.org/ontology/percentageOfAreaWater
p301
ssg8
(dp302
Vdatatype
p303
Vhttp://www.w3.org/2001/XMLSchema#float
p304
sVtype
p305
Vtyped-literal
p306
sVvalue
p307
V3.0
p308
ssa(dp309
g7
(dp310
Vtype
p311
Vuri
p312
sVvalue
p313
Vhttp://dbpedia.org/ontology/populationAsOf
p314
ssg8
(dp315
Vdatatype
p316
Vhttp://www.w3.org/2001/XMLSchema#date
p317
sVtype
p318
Vtyped-literal
p319
sVvalue
p320
V2015-07-01
p321
ssa(dp322
g7
(dp323
Vtype
p324
Vuri
p325
sVvalue
p326
Vhttp://dbpedia.org/ontology/populationDensity
p327
ssg8
(dp328
Vdatatype
p329
Vhttp://www.w3.org/2001/XMLSchema#double
p330
sVtype
p331
Vtyped-literal
p332
sVvalue
p333
V4447.4
p334
ssa(dp335
g7
(dp336
Vtype
p337
Vuri
p338
sVvalue
p339
Vhttp://dbpedia.org/ontology/populationDensity
p340
ssg8
(dp341
Vdatatype
p342
Vhttp://www.w3.org/2001/XMLSchema#double
p343
sVtype
p344
Vtyped-literal
p345
sVvalue
p346
V4580.87
p347
ssa(dp348
g7
(dp349
Vtype
p350
Vuri
p351
sVvalue
p352
Vhttp://dbpedia.org/ontology/populationMetro
p353
ssg8
(dp354
Vdatatype
p355
Vhttp://www.w3.org/2001/XMLSchema#nonNegativeInteger
p356
sVtype
p357
Vtyped-literal
p358
sVvalue
p359
V9551031
p360
ssa(dp361
g7
(dp362
Vtype
p363
Vuri
p364
sVvalue
p365
Vhttp://dbpedia.org/ontology/populationTotal
p366
ssg8
(dp367
Vdatatype
p368
Vhttp://www.w3.org/2001/XMLSchema#nonNegativeInteger
p369
sVtype
p370
Vtyped-literal
p371
sVvalue
p372
V2695598
p373
ssa(dp374
g7
(dp375
Vtype
p376
Vuri
p377
sVvalue
p378
Vhttp://dbpedia.org/ontology/populationTotalRanking
p379
ssg8
(dp380
Vdatatype
p381
Vhttp://www.w3.org/2001/XMLSchema#positiveInteger
p382
sVtype
p383
Vtyped-literal
p384
sVvalue
p385
V3
p386
ssa(dp387
g7
(dp388
Vtype
p389
Vuri
p390
sVvalue
p391
Vhttp://dbpedia.org/ontology/postalCode
p392
ssg8
(dp393
Vtype
p394
Vliteral
p395
sVvalue
p396
V606xx, 607xx, 608xx
p397
ssa(dp398
g7
(dp399
Vtype
p400
Vuri
p401
sVvalue
p402
Vhttp://dbpedia.org/ontology/utcOffset
p403
ssg8
(dp404
Vtype
p405
Vliteral
p406
sVvalue
p407
V-5
p408
ssa(dp409
g7
(dp410
Vtype
p411
Vuri
p412
sVvalue
p413
Vhttp://dbpedia.org/ontology/utcOffset
p414
ssg8
(dp415
Vtype
p416
Vliteral
p417
sVvalue
p418
V-6
p419
ssa(dp420
g7
(dp421
Vtype
p422
Vuri
p423
sVvalue
p424
Vhttp://dbpedia.org/ontology/wikiPageExtracted
p425
ssg8
(dp426
Vdatatype
p427
Vhttp://www.w3.org/2001/XMLSchema#dateTime
p428
sVtype
p429
Vtyped-literal
p430
sVvalue
p431
V2016-10-28T22:53:55Z
p432
ssa(dp433
g7
(dp434
Vtype
p435
Vuri
p436
sVvalue
p437
Vhttp://dbpedia.org/ontology/wikiPageLength
p438
ssg8
(dp439
Vdatatype
p440
Vhttp://www.w3.org/2001/XMLSchema#nonNegativeInteger
p441
sVtype
p442
Vtyped-literal
p443
sVvalue
p444
V188305
p445
ssa(dp446
g7
(dp447
Vtype
p448
Vuri
p449
sVvalue
p450
Vhttp://dbpedia.org/ontology/wikiPageModified
p451
ssg8
(dp452
Vdatatype
p453
Vhttp://www.w3.org/2001/XMLSchema#dateTime
p454
sVtype
p455
Vtyped-literal
p456
sVvalue
p457
V2016-10-28T21:07:21Z
p458
ssa(dp459
g7
(dp460
Vtype
p461
Vuri
p462
sVvalue
p463
Vhttp://dbpedia.org/ontology/wikiPageOutDegree
p464
ssg8
(dp465
Vdatatype
p466
Vhttp://www.w3.org/2001/XMLSchema#nonNegativeInteger
p467
sVtype
p468
Vtyped-literal
p469
sVvalue
p470
V1322
p471
ssasVordered
p472
I01
ss.