(dp0
Vhead
p1
(dp2
Vlink
p3
(lp4
sVvars
p5
(lp6
Vp
p7
aVo
p8
assVresults
p9
(dp10
Vdistinct
p11
I00
sVbindings
p12
(lp13
(dp14
g7
(dp15
Vtype
p16
Vuri
p17
sVvalue
p18
Vhttp://dbpedia.org/ontology/abstract
p19
ssg8
(dp20
Vxml:lang
p21
Ven
p22
sVtype
p23
Vliteral
p24
sVvalue
p25
VThroat Sprockets is an erotic horror novel by Tim Lucas, published in 1994. It concerns an unnamed protagonist's obsessive quest to learn all he can about a mysterious film called Throat Sprockets. As fixation on the film consumes his personal life, he develops a sexual fetish for women's throats, an affinity which begins spreading to global and apocalyptic proportions, as the film's cult status and legend grows.Since its publication, Throat Sprockets has been singled out as one of the outstanding works of contemporary horror fiction by two important reference books, Dark Thoughts by Stanley Wiater and Horror: Another 100 Best Books edited by Stephen Jones and Kim Newman. In October 2006, Rue Morgue magazine included Throat Sprockets on their list of 50 essential alternative horror novels. Ellen Datlow selected it as the best first horror novel of 1994, describing Throat Sprockets as "an unnerving, sophisticated, and passionate novel. . . . Suspenseful and terrifying, with some beautiful writing."
p26
ssa(dp27
g7
(dp28
Vtype
p29
Vuri
p30
sVvalue
p31
Vhttp://dbpedia.org/ontology/dcc
p32
ssg8
(dp33
Vtype
p34
Vliteral
p35
sVvalue
p36
V813/.54 20
p37
ssa(dp38
g7
(dp39
Vtype
p40
Vuri
p41
sVvalue
p42
Vhttp://dbpedia.org/ontology/isbn
p43
ssg8
(dp44
Vtype
p45
Vliteral
p46
sVvalue
p47
V0-385-31290-3
p48
ssa(dp49
g7
(dp50
Vtype
p51
Vuri
p52
sVvalue
p53
Vhttp://dbpedia.org/ontology/lcc
p54
ssg8
(dp55
Vtype
p56
Vliteral
p57
sVvalue
p58
VPS3562.U238 T48 1994
p59
ssa(dp60
g7
(dp61
Vtype
p62
Vuri
p63
sVvalue
p64
Vhttp://dbpedia.org/ontology/numberOfPages
p65
ssg8
(dp66
Vdatatype
p67
Vhttp://www.w3.org/2001/XMLSchema#positiveInteger
p68
sVtype
p69
Vtyped-literal
p70
sVvalue
p71
V232
p72
ssa(dp73
g7
(dp74
Vtype
p75
Vuri
p76
sVvalue
p77
Vhttp://dbpedia.org/ontology/oclc
p78
ssg8
(dp79
Vtype
p80
Vliteral
p81
sVvalue
p82
V29911945
p83
ssa(dp84
g7
(dp85
Vtype
p86
Vuri
p87
sVvalue
p88
Vhttp://dbpedia.org/ontology/wikiPageExtracted
p89
ssg8
(dp90
Vdatatype
p91
Vhttp://www.w3.org/2001/XMLSchema#dateTime
p92
sVtype
p93
Vtyped-literal
p94
sVvalue
p95
V2016-11-07T03:39:33Z
p96
ssa(dp97
g7
(dp98
Vtype
p99
Vuri
p100
sVvalue
p101
Vhttp://dbpedia.org/ontology/wikiPageLength
p102
ssg8
(dp103
Vdatatype
p104
Vhttp://www.w3.org/2001/XMLSchema#nonNegativeInteger
p105
sVtype
p106
Vtyped-literal
p107
sVvalue
p108
V2899
p109
ssa(dp110
g7
(dp111
Vtype
p112
Vuri
p113
sVvalue
p114
Vhttp://dbpedia.org/ontology/wikiPageModified
p115
ssg8
(dp116
Vdatatype
p117
Vhttp://www.w3.org/2001/XMLSchema#dateTime
p118
sVtype
p119
Vtyped-literal
p120
sVvalue
p121
V2016-08-13T00:34:58Z
p122
ssa(dp123
g7
(dp124
Vtype
p125
Vuri
p126
sVvalue
p127
Vhttp://dbpedia.org/ontology/wikiPageOutDegree
p128
ssg8
(dp129
Vdatatype
p130
Vhttp://www.w3.org/2001/XMLSchema#nonNegativeInteger
p131
sVtype
p132
Vtyped-literal
p133
sVvalue
p134
V18
p135
ssasVordered
p136
I01
ss.