(dp0
Vhead
p1
(dp2
Vlink
p3
(lp4
sVvars
p5
(lp6
Vp
p7
aVo
p8
assVresults
p9
(dp10
Vdistinct
p11
I00
sVbindings
p12
(lp13
(dp14
g7
(dp15
Vtype
p16
Vuri
p17
sVvalue
p18
Vhttp://dbpedia.org/ontology/PopulatedPlace/areaTotal
p19
ssg8
(dp20
Vdatatype
p21
Vhttp://dbpedia.org/datatype/squareKilometre
p22
sVtype
p23
Vtyped-literal
p24
sVvalue
p25
V17819.11819911168
p26
ssa(dp27
g7
(dp28
Vtype
p29
Vuri
p30
sVvalue
p31
Vhttp://dbpedia.org/ontology/PopulatedPlace/areaTotal
p32
ssg8
(dp33
Vdatatype
p34
Vhttp://dbpedia.org/datatype/squareKilometre
p35
sVtype
p36
Vtyped-literal
p37
sVvalue
p38
V17820.0
p39
ssa(dp40
g7
(dp41
Vtype
p42
Vuri
p43
sVvalue
p44
Vhttp://dbpedia.org/ontology/PopulatedPlace/populationDensity
p45
ssg8
(dp46
Vdatatype
p47
Vhttp://dbpedia.org/datatype/inhabitantsPerSquareKilometre
p48
sVtype
p49
Vtyped-literal
p50
sVvalue
p51
V200.2
p52
ssa(dp53
g7
(dp54
Vtype
p55
Vuri
p56
sVvalue
p57
Vhttp://dbpedia.org/ontology/PopulatedPlace/populationDensity
p58
ssg8
(dp59
Vdatatype
p60
Vhttp://dbpedia.org/datatype/inhabitantsPerSquareKilometre
p61
sVtype
p62
Vtyped-literal
p63
sVvalue
p64
V200.15535898840395
p65
ssa(dp66
g7
(dp67
Vtype
p68
Vuri
p69
sVvalue
p70
Vhttp://dbpedia.org/ontology/abstract
p71
ssg8
(dp72
Vxml:lang
p73
Ven
p74
sVtype
p75
Vliteral
p76
sVvalue
p77
VKuwait /ku\u02d0\u02c8we\u026at/ (Arabic: \u062f\u0648\u0644\u0629 \u0627\u0644\u0643\u0648\u064a\u062a\u200e\u200e  Dawlat al-Kuwait), officially the State of Kuwait, is a country in Western Asia. Situated in the northern edge of Eastern Arabia at the tip of the Persian Gulf it shares borders with Iraq and Saudi Arabia. As of 2014, Kuwait has a population of 4.2 million people; 1.3 million are Kuwaitis and 2.9 million are expatriates.Oil reserves were discovered in 1938. From 1946 to 1982, the country underwent large-scale modernization. In the 1980s, Kuwait experienced a period of geopolitical instability and an economic crisis following the stock market crash. In 1990, Kuwait was invaded by Iraq. The Iraqi occupation came to an end in 1991 after military intervention by United States-led forces. At the end of the war, there were extensive efforts to revive the economy and rebuild national infrastructure.Kuwait is a constitutional emirate with a high income economy backed by the world's sixth largest oil reserves. The Kuwaiti dinar is the highest valued currency in the world. According to the World Bank, the country has the fourth highest per capita income in the world. The constitution was promulgated in 1962, making Kuwait the most democratic country in the region.From 2001 to 2009, Kuwait had the highest Human Development Index ranking in the Arab world. Only 30% of the population are Kuwaiti citizens, while 70% of the population are expatriates. Kuwait ranks highly in regional metrics of gender equality, as it has the region's highest Global Gender Gap ranking.
p78
ssa(dp79
g7
(dp80
Vtype
p81
Vuri
p82
sVvalue
p83
Vhttp://dbpedia.org/ontology/abstract
p84
ssg8
(dp85
Vxml:lang
p86
Ven
p87
sVtype
p88
Vliteral
p89
sVvalue
p90
VKuwait /ku\u02d0\u02c8we\u026at/ (Arabic: \u0627\u0644\u0643\u0648\u064a\u062a\u200e\u200e al-Kuwait), officially the State of Kuwait (Arabic: \u062f\u0648\u0644\u0629 \u0627\u0644\u0643\u0648\u064a\u062a\u200e\u200e  Dawlat al-Kuwait), is a country in Western Asia. Situated in the northern edge of Eastern Arabia at the tip of the Persian Gulf, it shares borders with Iraq and Saudi Arabia. As of 2014, Kuwait has a population of 4.2 million people; 1.3 million (7001309500000000000\u266030.95%) are Kuwaitis and 2.9 million (7001690500000000000\u266069.05%) are expatriates.Oil reserves were discovered in 1938. From 1946 to 1982, the country underwent large-scale modernization. In the 1980s, Kuwait experienced a period of geopolitical instability and an economic crisis following the stock market crash. In 1990, Kuwait was invaded by Iraq. The Iraqi occupation came to an end in 1991 after military intervention by coalition forces. At the end of the war, there were extensive efforts to revive the economy and rebuild national infrastructure.Kuwait is a constitutional monarchy with a high income economy backed by the world's sixth largest oil reserves. The Kuwaiti dinar is the highest valued currency in the world. According to the World Bank, the country has the fourth highest per capita income in the world. The constitution was promulgated in 1962, making Kuwait the most democratic country in the region.70% of the population are expatriates, while only 30% of the population are Kuwaiti citizens. From 2001 to 2009, Kuwait had the highest Human Development Index ranking in the Arab world. Kuwait ranks highly in regional metrics of gender equality, as it has the region's highest Global Gender Gap ranking.
p91
ssa(dp92
g7
(dp93
Vtype
p94
Vuri
p95
sVvalue
p96
Vhttp://dbpedia.org/ontology/areaTotal
p97
ssg8
(dp98
Vdatatype
p99
Vhttp://www.w3.org/2001/XMLSchema#double
p100
sVtype
p101
Vtyped-literal
p102
sVvalue
p103
V1.78191e+10
p104
ssa(dp105
g7
(dp106
Vtype
p107
Vuri
p108
sVvalue
p109
Vhttp://dbpedia.org/ontology/areaTotal
p110
ssg8
(dp111
Vdatatype
p112
Vhttp://www.w3.org/2001/XMLSchema#double
p113
sVtype
p114
Vtyped-literal
p115
sVvalue
p116
V1.782e+10
p117
ssa(dp118
g7
(dp119
Vtype
p120
Vuri
p121
sVvalue
p122
Vhttp://dbpedia.org/ontology/demonym
p123
ssg8
(dp124
Vxml:lang
p125
Ven
p126
sVtype
p127
Vliteral
p128
sVvalue
p129
VKuwaiti
p130
ssa(dp131
g7
(dp132
Vtype
p133
Vuri
p134
sVvalue
p135
Vhttp://dbpedia.org/ontology/flag
p136
ssg8
(dp137
Vtype
p138
Vliteral
p139
sVvalue
p140
VFlag of Kuwait.svg
p141
ssa(dp142
g7
(dp143
Vtype
p144
Vuri
p145
sVvalue
p146
Vhttp://dbpedia.org/ontology/leaderTitle
p147
ssg8
(dp148
Vxml:lang
p149
Ven
p150
sVtype
p151
Vliteral
p152
sVvalue
p153
VPrime Minister
p154
ssa(dp155
g7
(dp156
Vtype
p157
Vuri
p158
sVvalue
p159
Vhttp://dbpedia.org/ontology/leaderTitle
p160
ssg8
(dp161
Vxml:lang
p162
Ven
p163
sVtype
p164
Vliteral
p165
sVvalue
p166
VCrown Prince
p167
ssa(dp168
g7
(dp169
Vtype
p170
Vuri
p171
sVvalue
p172
Vhttp://dbpedia.org/ontology/leaderTitle
p173
ssg8
(dp174
Vxml:lang
p175
Ven
p176
sVtype
p177
Vliteral
p178
sVvalue
p179
VSpeaker of the National Assembly
p180
ssa(dp181
g7
(dp182
Vtype
p183
Vuri
p184
sVvalue
p185
Vhttp://dbpedia.org/ontology/leaderTitle
p186
ssg8
(dp187
Vxml:lang
p188
Ven
p189
sVtype
p190
Vliteral
p191
sVvalue
p192
VEmir
p193
ssa(dp194
g7
(dp195
Vtype
p196
Vuri
p197
sVvalue
p198
Vhttp://dbpedia.org/ontology/longName
p199
ssg8
(dp200
Vxml:lang
p201
Ven
p202
sVtype
p203
Vliteral
p204
sVvalue
p205
VState of Kuwait
p206
ssa(dp207
g7
(dp208
Vtype
p209
Vuri
p210
sVvalue
p211
Vhttp://dbpedia.org/ontology/populationDensity
p212
ssg8
(dp213
Vdatatype
p214
Vhttp://www.w3.org/2001/XMLSchema#double
p215
sVtype
p216
Vtyped-literal
p217
sVvalue
p218
V200.155
p219
ssa(dp220
g7
(dp221
Vtype
p222
Vuri
p223
sVvalue
p224
Vhttp://dbpedia.org/ontology/populationDensity
p225
ssg8
(dp226
Vdatatype
p227
Vhttp://www.w3.org/2001/XMLSchema#double
p228
sVtype
p229
Vtyped-literal
p230
sVvalue
p231
V200.2
p232
ssa(dp233
g7
(dp234
Vtype
p235
Vuri
p236
sVvalue
p237
Vhttp://dbpedia.org/ontology/populationTotal
p238
ssg8
(dp239
Vdatatype
p240
Vhttp://www.w3.org/2001/XMLSchema#nonNegativeInteger
p241
sVtype
p242
Vtyped-literal
p243
sVvalue
p244
V4348395
p245
ssa(dp246
g7
(dp247
Vtype
p248
Vuri
p249
sVvalue
p250
Vhttp://dbpedia.org/ontology/wikiPageExtracted
p251
ssg8
(dp252
Vdatatype
p253
Vhttp://www.w3.org/2001/XMLSchema#dateTime
p254
sVtype
p255
Vtyped-literal
p256
sVvalue
p257
V2016-11-01T22:04:43Z
p258
ssa(dp259
g7
(dp260
Vtype
p261
Vuri
p262
sVvalue
p263
Vhttp://dbpedia.org/ontology/wikiPageLength
p264
ssg8
(dp265
Vdatatype
p266
Vhttp://www.w3.org/2001/XMLSchema#nonNegativeInteger
p267
sVtype
p268
Vtyped-literal
p269
sVvalue
p270
V123549
p271
ssa(dp272
g7
(dp273
Vtype
p274
Vuri
p275
sVvalue
p276
Vhttp://dbpedia.org/ontology/wikiPageModified
p277
ssg8
(dp278
Vdatatype
p279
Vhttp://www.w3.org/2001/XMLSchema#dateTime
p280
sVtype
p281
Vtyped-literal
p282
sVvalue
p283
V2016-10-30T17:33:02Z
p284
ssa(dp285
g7
(dp286
Vtype
p287
Vuri
p288
sVvalue
p289
Vhttp://dbpedia.org/ontology/wikiPageOutDegree
p290
ssg8
(dp291
Vdatatype
p292
Vhttp://www.w3.org/2001/XMLSchema#nonNegativeInteger
p293
sVtype
p294
Vtyped-literal
p295
sVvalue
p296
V406
p297
ssasVordered
p298
I01
ss.