(dp0
Vhead
p1
(dp2
Vlink
p3
(lp4
sVvars
p5
(lp6
Vp
p7
aVo
p8
assVresults
p9
(dp10
Vdistinct
p11
I00
sVbindings
p12
(lp13
(dp14
g7
(dp15
Vtype
p16
Vuri
p17
sVvalue
p18
Vhttp://dbpedia.org/ontology/PopulatedPlace/populationDensity
p19
ssg8
(dp20
Vdatatype
p21
Vhttp://dbpedia.org/datatype/inhabitantsPerSquareKilometre
p22
sVtype
p23
Vtyped-literal
p24
sVvalue
p25
V855.0
p26
ssa(dp27
g7
(dp28
Vtype
p29
Vuri
p30
sVvalue
p31
Vhttp://dbpedia.org/ontology/abstract
p32
ssg8
(dp33
Vxml:lang
p34
Ven
p35
sVtype
p36
Vliteral
p37
sVvalue
p38
VGauriganj (Hindi: \u0917\u094c\u0930\u0940\u0917\u0902\u091c) is a town in Amethi District in Faizabad division, Uttar Pradesh,India. It is situated about 126 km from Lucknow, the capital of Uttar Pradesh. Gauriganj is the administrative headquarters of Amethi district. It is located in Eastern Uttar Pradesh. Before July 2010, Gauriganj was part of Sultanpur district and then taking Gauriganj, Amethi, Jais, Jagdispur, Salon etc. formed a new district called "Chatrapati Sahuji Maharaj Nagar", later named Gauriganj and now Amethi. From Gauriganj a railway network is supplied to big cities in Uttar Pradesh and other states to Lucknow, Haridwar, Delhi, New Delhi, Kanpur, Allahabad, Varanasi, Howrah, Dehradun. It is an industrial area. It has a well-developed marketplace where all types of goods and services can be purchased. The market was built by Raja Madho Singh of Amethi and was one of the most important grain markets in the district. There is a temple of Lord Shiva and Ram-Janaki besides a mosque near Ramlila ground. Gauriganj is connected with State Highway 34 and National Highway 128. Nearby cities are Sultanpur, Rae Bareilly, and Faizabad. People of many different castes and religions live here. Gauriganj has a warm subtropical climate with very cold and dry winters and hot and humid summers.It has a population of 326,723, of which 165,284 are males and 161,439 are females. There are about 56,787 households living in the region. The Gauriganj telephone code is 05368.
p39
ssa(dp40
g7
(dp41
Vtype
p42
Vuri
p43
sVvalue
p44
Vhttp://dbpedia.org/ontology/elevation
p45
ssg8
(dp46
Vdatatype
p47
Vhttp://www.w3.org/2001/XMLSchema#double
p48
sVtype
p49
Vtyped-literal
p50
sVvalue
p51
V104.0
p52
ssa(dp53
g7
(dp54
Vtype
p55
Vuri
p56
sVvalue
p57
Vhttp://dbpedia.org/ontology/leaderTitle
p58
ssg8
(dp59
Vxml:lang
p60
Ven
p61
sVtype
p62
Vliteral
p63
sVvalue
p64
VMLA
p65
ssa(dp66
g7
(dp67
Vtype
p68
Vuri
p69
sVvalue
p70
Vhttp://dbpedia.org/ontology/populationDensity
p71
ssg8
(dp72
Vdatatype
p73
Vhttp://www.w3.org/2001/XMLSchema#double
p74
sVtype
p75
Vtyped-literal
p76
sVvalue
p77
V855.0
p78
ssa(dp79
g7
(dp80
Vtype
p81
Vuri
p82
sVvalue
p83
Vhttp://dbpedia.org/ontology/populationTotal
p84
ssg8
(dp85
Vdatatype
p86
Vhttp://www.w3.org/2001/XMLSchema#nonNegativeInteger
p87
sVtype
p88
Vtyped-literal
p89
sVvalue
p90
V326723
p91
ssa(dp92
g7
(dp93
Vtype
p94
Vuri
p95
sVvalue
p96
Vhttp://dbpedia.org/ontology/postalCode
p97
ssg8
(dp98
Vtype
p99
Vliteral
p100
sVvalue
p101
V227409
p102
ssa(dp103
g7
(dp104
Vtype
p105
Vuri
p106
sVvalue
p107
Vhttp://dbpedia.org/ontology/synonym
p108
ssg8
(dp109
Vtype
p110
Vliteral
p111
sVvalue
p112
V(\u0917\u094c\u0930\u0940\u0917\u0902\u091c)
p113
ssa(dp114
g7
(dp115
Vtype
p116
Vuri
p117
sVvalue
p118
Vhttp://dbpedia.org/ontology/utcOffset
p119
ssg8
(dp120
Vtype
p121
Vliteral
p122
sVvalue
p123
V+5:30
p124
ssa(dp125
g7
(dp126
Vtype
p127
Vuri
p128
sVvalue
p129
Vhttp://dbpedia.org/ontology/wikiPageExtracted
p130
ssg8
(dp131
Vdatatype
p132
Vhttp://www.w3.org/2001/XMLSchema#dateTime
p133
sVtype
p134
Vtyped-literal
p135
sVvalue
p136
V2016-10-30T20:16:57Z
p137
ssa(dp138
g7
(dp139
Vtype
p140
Vuri
p141
sVvalue
p142
Vhttp://dbpedia.org/ontology/wikiPageLength
p143
ssg8
(dp144
Vdatatype
p145
Vhttp://www.w3.org/2001/XMLSchema#nonNegativeInteger
p146
sVtype
p147
Vtyped-literal
p148
sVvalue
p149
V9988
p150
ssa(dp151
g7
(dp152
Vtype
p153
Vuri
p154
sVvalue
p155
Vhttp://dbpedia.org/ontology/wikiPageModified
p156
ssg8
(dp157
Vdatatype
p158
Vhttp://www.w3.org/2001/XMLSchema#dateTime
p159
sVtype
p160
Vtyped-literal
p161
sVvalue
p162
V2016-10-08T09:44:19Z
p163
ssa(dp164
g7
(dp165
Vtype
p166
Vuri
p167
sVvalue
p168
Vhttp://dbpedia.org/ontology/wikiPageOutDegree
p169
ssg8
(dp170
Vdatatype
p171
Vhttp://www.w3.org/2001/XMLSchema#nonNegativeInteger
p172
sVtype
p173
Vtyped-literal
p174
sVvalue
p175
V37
p176
ssasVordered
p177
I01
ss.