(dp0
Vhead
p1
(dp2
Vlink
p3
(lp4
sVvars
p5
(lp6
Vp
p7
aVo
p8
assVresults
p9
(dp10
Vdistinct
p11
I00
sVbindings
p12
(lp13
(dp14
g7
(dp15
Vtype
p16
Vuri
p17
sVvalue
p18
Vhttp://dbpedia.org/ontology/abstract
p19
ssg8
(dp20
Vxml:lang
p21
Ven
p22
sVtype
p23
Vliteral
p24
sVvalue
p25
VThe Dubois Area School District is a large, rural/suburban public school district located in central Pennsylvania. The district spans portions of two counties. It encompasses an area of approximately 258 square miles (670 km2) with a population of 32,241 (as of 2000) In Clearfield County it covers the City of DuBois, the Boroughs of Falls Creek and Troutville and Bloom Township, Brady Township, Huston Township, Sandy Township and Union Township. In Jefferson County it covers the Boroughs of Falls Creek, Reynoldsville and Sykesville and Winslow Township. According to 2000 federal census data, it served a resident population of 32,200. By 2010, the District's population declined to 30,958 people. The educational attainment levels for the School District population (25 years old and over) were 89.9% high school graduates and 17.6% college graduates.In 2009, Dubois Area School District residents\u2019 per capita income was $17,66, while the median family income was $41,465. In the Commonwealth, the median family income was $49,501 and the United States median family income was $49,445, in 2010.According to Dubois Area School District officials, in school year 2007-2008, the DASD provided basic educational services to 4,193 pupils through the employment of: 287 teachers, 253 full-time and part-time support personnel, and 27 administrators. Dubois Area School District received more than $22 million in state funding in school year 2007-2008. In the 2009-2010 school year, Dubois Area School District provided basic educational services to 4,120 pupils. It employed: 332 teachers, 275 full-time and part-time support personnel, and 28 administrators. Dubois Area School District received more than $24.2 million in state funding in school year 2009-2010. In the 2011-12 school year, Dubois Area School District provided basic educational services to 4,337 pupils. It employed: 335 teachers, 268 full-time and part-time support personnel, and sixteen (16) administrators during the 2011-12 school year. The District received $24,835,491 in state funding for the 2011-2012 school year.
p26
ssa(dp27
g7
(dp28
Vtype
p29
Vuri
p30
sVvalue
p31
Vhttp://dbpedia.org/ontology/wikiPageExtracted
p32
ssg8
(dp33
Vdatatype
p34
Vhttp://www.w3.org/2001/XMLSchema#dateTime
p35
sVtype
p36
Vtyped-literal
p37
sVvalue
p38
V2016-10-29T21:44:41Z
p39
ssa(dp40
g7
(dp41
Vtype
p42
Vuri
p43
sVvalue
p44
Vhttp://dbpedia.org/ontology/wikiPageLength
p45
ssg8
(dp46
Vdatatype
p47
Vhttp://www.w3.org/2001/XMLSchema#nonNegativeInteger
p48
sVtype
p49
Vtyped-literal
p50
sVvalue
p51
V140092
p52
ssa(dp53
g7
(dp54
Vtype
p55
Vuri
p56
sVvalue
p57
Vhttp://dbpedia.org/ontology/wikiPageModified
p58
ssg8
(dp59
Vdatatype
p60
Vhttp://www.w3.org/2001/XMLSchema#dateTime
p61
sVtype
p62
Vtyped-literal
p63
sVvalue
p64
V2016-10-19T20:42:33Z
p65
ssa(dp66
g7
(dp67
Vtype
p68
Vuri
p69
sVvalue
p70
Vhttp://dbpedia.org/ontology/wikiPageOutDegree
p71
ssg8
(dp72
Vdatatype
p73
Vhttp://www.w3.org/2001/XMLSchema#nonNegativeInteger
p74
sVtype
p75
Vtyped-literal
p76
sVvalue
p77
V111
p78
ssasVordered
p79
I01
ss.