(dp0
Vhead
p1
(dp2
Vlink
p3
(lp4
sVvars
p5
(lp6
Vp
p7
aVo
p8
assVresults
p9
(dp10
Vdistinct
p11
I00
sVbindings
p12
(lp13
(dp14
g7
(dp15
Vtype
p16
Vuri
p17
sVvalue
p18
Vhttp://dbpedia.org/ontology/abstract
p19
ssg8
(dp20
Vxml:lang
p21
Ven
p22
sVtype
p23
Vliteral
p24
sVvalue
p25
VStockton Metropolitan Airport (IATA: SCK, ICAO: KSCK, FAA LID: SCK) is three miles southeast of downtown Stockton, a city in San Joaquin County, California. It is owned by the County of San Joaquin.The National Plan of Integrated Airport Systems categorized it as a primary commercial service airport. Federal Aviation Administration records say it had 36,935 passenger boardings (enplanements) in calendar year 2008, 28,368 in 2009 and 50,632 in 2010.
p26
ssa(dp27
g7
(dp28
Vtype
p29
Vuri
p30
sVvalue
p31
Vhttp://dbpedia.org/ontology/elevation
p32
ssg8
(dp33
Vdatatype
p34
Vhttp://www.w3.org/2001/XMLSchema#double
p35
sVtype
p36
Vtyped-literal
p37
sVvalue
p38
V10.0
p39
ssa(dp40
g7
(dp41
Vtype
p42
Vuri
p43
sVvalue
p44
Vhttp://dbpedia.org/ontology/elevation
p45
ssg8
(dp46
Vdatatype
p47
Vhttp://www.w3.org/2001/XMLSchema#double
p48
sVtype
p49
Vtyped-literal
p50
sVvalue
p51
V10.0584
p52
ssa(dp53
g7
(dp54
Vtype
p55
Vuri
p56
sVvalue
p57
Vhttp://dbpedia.org/ontology/icaoLocationIdentifier
p58
ssg8
(dp59
Vtype
p60
Vliteral
p61
sVvalue
p62
VKSCK
p63
ssa(dp64
g7
(dp65
Vtype
p66
Vuri
p67
sVvalue
p68
Vhttp://dbpedia.org/ontology/runwayDesignation
p69
ssg8
(dp70
Vtype
p71
Vliteral
p72
sVvalue
p73
V11L/29R
p74
ssa(dp75
g7
(dp76
Vtype
p77
Vuri
p78
sVvalue
p79
Vhttp://dbpedia.org/ontology/runwayDesignation
p80
ssg8
(dp81
Vtype
p82
Vliteral
p83
sVvalue
p84
V11R/29L
p85
ssa(dp86
g7
(dp87
Vtype
p88
Vuri
p89
sVvalue
p90
Vhttp://dbpedia.org/ontology/runwayLength
p91
ssg8
(dp92
Vdatatype
p93
Vhttp://www.w3.org/2001/XMLSchema#double
p94
sVtype
p95
Vtyped-literal
p96
sVvalue
p97
V1355.75
p98
ssa(dp99
g7
(dp100
Vtype
p101
Vuri
p102
sVvalue
p103
Vhttp://dbpedia.org/ontology/runwayLength
p104
ssg8
(dp105
Vdatatype
p106
Vhttp://www.w3.org/2001/XMLSchema#double
p107
sVtype
p108
Vtyped-literal
p109
sVvalue
p110
V3246.12
p111
ssa(dp112
g7
(dp113
Vtype
p114
Vuri
p115
sVvalue
p116
Vhttp://dbpedia.org/ontology/runwaySurface
p117
ssg8
(dp118
Vtype
p119
Vliteral
p120
sVvalue
p121
VAsphalt
p122
ssa(dp123
g7
(dp124
Vtype
p125
Vuri
p126
sVvalue
p127
Vhttp://dbpedia.org/ontology/wikiPageExtracted
p128
ssg8
(dp129
Vdatatype
p130
Vhttp://www.w3.org/2001/XMLSchema#dateTime
p131
sVtype
p132
Vtyped-literal
p133
sVvalue
p134
V2016-11-06T09:46:16Z
p135
ssa(dp136
g7
(dp137
Vtype
p138
Vuri
p139
sVvalue
p140
Vhttp://dbpedia.org/ontology/wikiPageLength
p141
ssg8
(dp142
Vdatatype
p143
Vhttp://www.w3.org/2001/XMLSchema#nonNegativeInteger
p144
sVtype
p145
Vtyped-literal
p146
sVvalue
p147
V22358
p148
ssa(dp149
g7
(dp150
Vtype
p151
Vuri
p152
sVvalue
p153
Vhttp://dbpedia.org/ontology/wikiPageModified
p154
ssg8
(dp155
Vdatatype
p156
Vhttp://www.w3.org/2001/XMLSchema#dateTime
p157
sVtype
p158
Vtyped-literal
p159
sVvalue
p160
V2016-10-02T19:22:14Z
p161
ssa(dp162
g7
(dp163
Vtype
p164
Vuri
p165
sVvalue
p166
Vhttp://dbpedia.org/ontology/wikiPageOutDegree
p167
ssg8
(dp168
Vdatatype
p169
Vhttp://www.w3.org/2001/XMLSchema#nonNegativeInteger
p170
sVtype
p171
Vtyped-literal
p172
sVvalue
p173
V112
p174
ssa(dp175
g7
(dp176
Vtype
p177
Vuri
p178
sVvalue
p179
Vhttp://dbpedia.org/ontology/iataLocationIdentifier
p180
ssg8
(dp181
Vtype
p182
Vliteral
p183
sVvalue
p184
VSCK
p185
ssa(dp186
g7
(dp187
Vtype
p188
Vuri
p189
sVvalue
p190
Vhttp://dbpedia.org/ontology/faaLocationIdentifier
p191
ssg8
(dp192
Vtype
p193
Vliteral
p194
sVvalue
p195
VSCK
p196
ssasVordered
p197
I01
ss.