(dp0
Vhead
p1
(dp2
Vlink
p3
(lp4
sVvars
p5
(lp6
Vp
p7
aVo
p8
assVresults
p9
(dp10
Vdistinct
p11
I00
sVbindings
p12
(lp13
(dp14
g7
(dp15
Vtype
p16
Vuri
p17
sVvalue
p18
Vhttp://dbpedia.org/ontology/PopulatedPlace/area
p19
ssg8
(dp20
Vdatatype
p21
Vhttp://dbpedia.org/datatype/squareKilometre
p22
sVtype
p23
Vtyped-literal
p24
sVvalue
p25
V1.0E-6
p26
ssa(dp27
g7
(dp28
Vtype
p29
Vuri
p30
sVvalue
p31
Vhttp://dbpedia.org/ontology/PopulatedPlace/areaTotal
p32
ssg8
(dp33
Vdatatype
p34
Vhttp://dbpedia.org/datatype/squareKilometre
p35
sVtype
p36
Vtyped-literal
p37
sVvalue
p38
V271.8
p39
ssa(dp40
g7
(dp41
Vtype
p42
Vuri
p43
sVvalue
p44
Vhttp://dbpedia.org/ontology/PopulatedPlace/areaUrban
p45
ssg8
(dp46
Vdatatype
p47
Vhttp://dbpedia.org/datatype/squareKilometre
p48
sVtype
p49
Vtyped-literal
p50
sVvalue
p51
V1140.0
p52
ssa(dp53
g7
(dp54
Vtype
p55
Vuri
p56
sVvalue
p57
Vhttp://dbpedia.org/ontology/abstract
p58
ssg8
(dp59
Vxml:lang
p60
Ven
p61
sVtype
p62
Vliteral
p63
sVvalue
p64
VTaipei (/\u02ccta\u026a\u02c8pe\u026a/), officially known as Taipei City, is the capital city and a special municipality of Taiwan. Sitting at the northern tip of the state, Taipei City is an enclave of the municipality of New Taipei City. It is about 25 km (16 mi) southwest of the northern port city Keelung. Most of the city is located on the Taipei Basin, an ancient lakebed bounded by the two relatively narrow valleys of the Keelung and Xindian rivers, which join to form the Tamsui River along the city's western border.The city proper is home to an estimated population of 2,693,672 in 2009, forming the core part of the Taipei\u2013Keelung metropolitan area which includes the nearby cities of New Taipei and Keelung with a population of 6,900,273, the 40th most-populous urban area in the world. The name "Taipei" can refer either to the whole metropolitan area or the city proper.Taipei is the political, economic, educational, and cultural center of Taiwan, and one of the major hubs of the Chinese-speaking world. Considered to be a global city, Taipei is part of a major high-tech industrial area. Railways, high-speed rail, highways, airports, and bus lines connect Taipei with all parts of the island. The city is served by two airports \u2013 Taipei Songshan and Taiwan Taoyuan. Taipei is home to various world-famous architectural or cultural landmarks which include Taipei 101, Chiang Kai-shek Memorial Hall, Dalongdong Baoan Temple, Hsing Tian Kong, Mengjia Longshan Temple, National Palace Museum, Presidential Office Building, Taipei Guest House, Ximending, and several night markets dispersing over the city. Its natural features such as Maokong, Yangmingshan, and hot springs are also well known to international visitors.As the capital city, "Taipei" is sometimes used as a synecdoche for Taiwan. Due to the ongoing controversy over the political status of Taiwan, the name Chinese Taipei is designated for official use when Taiwanese governmental representatives or national teams participate in some international organizations or international sporting events (which may require UN statehood) in order to avoid extensive political controversy by using other names.
p65
ssa(dp66
g7
(dp67
Vtype
p68
Vuri
p69
sVvalue
p70
Vhttp://dbpedia.org/ontology/abstract
p71
ssg8
(dp72
Vxml:lang
p73
Ven
p74
sVtype
p75
Vliteral
p76
sVvalue
p77
VTaipei (/\u02ccta\u026a\u02c8pe\u026a/), officially known as Taipei City, is the capital city and a special municipality of Taiwan. Sitting at the northern tip of the state, Taipei City is an enclave of the municipality of New Taipei City. It is about 25 km (16 mi) southwest of the northern port city Keelung. Most of the city is located on the Taipei Basin, an ancient lakebed bounded by the two relatively narrow valleys of the Keelung and Xindian rivers, which join to form the Tamsui River along the city's western border. Since 1949, Taipei has been the capital of the ROC after losing the mainland to the Communists in the Chinese Civil War.The city proper is home to an estimated population of 2,693,672 in 2009, forming the core part of the Taipei\u2013Keelung metropolitan area which includes the nearby cities of New Taipei and Keelung with a population of 6,900,273, the 40th most-populous urban area in the world. The name "Taipei" can refer either to the whole metropolitan area or the city proper.Taipei is the political, economic, educational, and cultural center of Taiwan, and one of the major hubs of the Chinese-speaking world. Considered to be a global city, Taipei is part of a major high-tech industrial area. Railways, high-speed rail, highways, airports, and bus lines connect Taipei with all parts of the island. The city is served by two airports \u2013 Taipei Songshan and Taiwan Taoyuan. Taipei is home to various world-famous architectural or cultural landmarks which include Taipei 101, Chiang Kai-shek Memorial Hall, Dalongdong Baoan Temple, Hsing Tian Kong, Mengjia Longshan Temple, National Palace Museum, Presidential Office Building, Taipei Guest House, Ximending, and several night markets dispersing over the city. Its natural features such as Maokong, Yangmingshan, and hot springs are also well known to international visitors.As the capital city, "Taipei" is sometimes used as a synecdoche for Taiwan. Due to the ongoing controversy over the political status of Taiwan, the name Chinese Taipei is designated for official use when Taiwanese governmental representatives or national teams participate in some international organizations or international sporting events (which may require UN statehood) in order to avoid extensive political controversy by using other names.
p78
ssa(dp79
g7
(dp80
Vtype
p81
Vuri
p82
sVvalue
p83
Vhttp://dbpedia.org/ontology/area
p84
ssg8
(dp85
Vdatatype
p86
Vhttp://www.w3.org/2001/XMLSchema#double
p87
sVtype
p88
Vtyped-literal
p89
sVvalue
p90
V1.0
p91
ssa(dp92
g7
(dp93
Vtype
p94
Vuri
p95
sVvalue
p96
Vhttp://dbpedia.org/ontology/areaCode
p97
ssg8
(dp98
Vtype
p99
Vliteral
p100
sVvalue
p101
V(0)2
p102
ssa(dp103
g7
(dp104
Vtype
p105
Vuri
p106
sVvalue
p107
Vhttp://dbpedia.org/ontology/areaTotal
p108
ssg8
(dp109
Vdatatype
p110
Vhttp://www.w3.org/2001/XMLSchema#double
p111
sVtype
p112
Vtyped-literal
p113
sVvalue
p114
V2.718e+08
p115
ssa(dp116
g7
(dp117
Vtype
p118
Vuri
p119
sVvalue
p120
Vhttp://dbpedia.org/ontology/areaUrban
p121
ssg8
(dp122
Vdatatype
p123
Vhttp://www.w3.org/2001/XMLSchema#double
p124
sVtype
p125
Vtyped-literal
p126
sVvalue
p127
V1.14e+09
p128
ssa(dp129
g7
(dp130
Vtype
p131
Vuri
p132
sVvalue
p133
Vhttp://dbpedia.org/ontology/areaWater
p134
ssg8
(dp135
Vdatatype
p136
Vhttp://www.w3.org/2001/XMLSchema#double
p137
sVtype
p138
Vtyped-literal
p139
sVvalue
p140
V2.7e+06
p141
ssa(dp142
g7
(dp143
Vtype
p144
Vuri
p145
sVvalue
p146
Vhttp://dbpedia.org/ontology/isoCodeRegion
p147
ssg8
(dp148
Vtype
p149
Vliteral
p150
sVvalue
p151
VTW-TPE
p152
ssa(dp153
g7
(dp154
Vtype
p155
Vuri
p156
sVvalue
p157
Vhttp://dbpedia.org/ontology/leaderTitle
p158
ssg8
(dp159
Vxml:lang
p160
Ven
p161
sVtype
p162
Vliteral
p163
sVvalue
p164
VMayor
p165
ssa(dp166
g7
(dp167
Vtype
p168
Vuri
p169
sVvalue
p170
Vhttp://dbpedia.org/ontology/leaderTitle
p171
ssg8
(dp172
Vxml:lang
p173
Ven
p174
sVtype
p175
Vliteral
p176
sVvalue
p177
VCouncil
p178
ssa(dp179
g7
(dp180
Vtype
p181
Vuri
p182
sVvalue
p183
Vhttp://dbpedia.org/ontology/percentageOfAreaWater
p184
ssg8
(dp185
Vdatatype
p186
Vhttp://www.w3.org/2001/XMLSchema#float
p187
sVtype
p188
Vtyped-literal
p189
sVvalue
p190
V1.0
p191
ssa(dp192
g7
(dp193
Vtype
p194
Vuri
p195
sVvalue
p196
Vhttp://dbpedia.org/ontology/populationTotal
p197
ssg8
(dp198
Vdatatype
p199
Vhttp://www.w3.org/2001/XMLSchema#nonNegativeInteger
p200
sVtype
p201
Vtyped-literal
p202
sVvalue
p203
V2704974
p204
ssa(dp205
g7
(dp206
Vtype
p207
Vuri
p208
sVvalue
p209
Vhttp://dbpedia.org/ontology/populationTotalRanking
p210
ssg8
(dp211
Vdatatype
p212
Vhttp://www.w3.org/2001/XMLSchema#positiveInteger
p213
sVtype
p214
Vtyped-literal
p215
sVvalue
p216
V4
p217
ssa(dp218
g7
(dp219
Vtype
p220
Vuri
p221
sVvalue
p222
Vhttp://dbpedia.org/ontology/populationUrban
p223
ssg8
(dp224
Vdatatype
p225
Vhttp://www.w3.org/2001/XMLSchema#nonNegativeInteger
p226
sVtype
p227
Vtyped-literal
p228
sVvalue
p229
V8500000
p230
ssa(dp231
g7
(dp232
Vtype
p233
Vuri
p234
sVvalue
p235
Vhttp://dbpedia.org/ontology/postalCode
p236
ssg8
(dp237
Vtype
p238
Vliteral
p239
sVvalue
p240
V100\u2013116
p241
ssa(dp242
g7
(dp243
Vtype
p244
Vuri
p245
sVvalue
p246
Vhttp://dbpedia.org/ontology/utcOffset
p247
ssg8
(dp248
Vtype
p249
Vliteral
p250
sVvalue
p251
V+8
p252
ssa(dp253
g7
(dp254
Vtype
p255
Vuri
p256
sVvalue
p257
Vhttp://dbpedia.org/ontology/wikiPageExtracted
p258
ssg8
(dp259
Vdatatype
p260
Vhttp://www.w3.org/2001/XMLSchema#dateTime
p261
sVtype
p262
Vtyped-literal
p263
sVvalue
p264
V2016-11-06T15:44:23Z
p265
ssa(dp266
g7
(dp267
Vtype
p268
Vuri
p269
sVvalue
p270
Vhttp://dbpedia.org/ontology/wikiPageLength
p271
ssg8
(dp272
Vdatatype
p273
Vhttp://www.w3.org/2001/XMLSchema#nonNegativeInteger
p274
sVtype
p275
Vtyped-literal
p276
sVvalue
p277
V93615
p278
ssa(dp279
g7
(dp280
Vtype
p281
Vuri
p282
sVvalue
p283
Vhttp://dbpedia.org/ontology/wikiPageModified
p284
ssg8
(dp285
Vdatatype
p286
Vhttp://www.w3.org/2001/XMLSchema#dateTime
p287
sVtype
p288
Vtyped-literal
p289
sVvalue
p290
V2016-11-02T12:31:51Z
p291
ssa(dp292
g7
(dp293
Vtype
p294
Vuri
p295
sVvalue
p296
Vhttp://dbpedia.org/ontology/wikiPageOutDegree
p297
ssg8
(dp298
Vdatatype
p299
Vhttp://www.w3.org/2001/XMLSchema#nonNegativeInteger
p300
sVtype
p301
Vtyped-literal
p302
sVvalue
p303
V719
p304
ssasVordered
p305
I01
ss.