(dp0
Vhead
p1
(dp2
Vlink
p3
(lp4
sVvars
p5
(lp6
Vp
p7
aVo
p8
assVresults
p9
(dp10
Vdistinct
p11
I00
sVbindings
p12
(lp13
(dp14
g7
(dp15
Vtype
p16
Vuri
p17
sVvalue
p18
Vhttp://dbpedia.org/ontology/abstract
p19
ssg8
(dp20
Vxml:lang
p21
Ven
p22
sVtype
p23
Vliteral
p24
sVvalue
p25
VThe Purdue Boilermakers football team represents Purdue University (also referred to as simply "Purdue") in the NCAA Football Bowl Subdivision (FBS) of college football. Darrell Hazell is Purdue's current head coach, the 35th in the program's history. Purdue plays its home games at Ross-Ade Stadium on the campus of Purdue University in West Lafayette, Indiana. The Boilermakers compete in the Big Ten Conference as a member of the West Division. Purdue had most recently been a part of the Leaders Division of the Big Ten, but moved to the West Division in 2014 due to conference expansion.With a 596\u2013535\u201348 record at the conclusion of the 2014 season, Purdue has the 46th-most victories among NCAA FBS programs. Purdue was originally classified as a Major College school in the 1937 season until 1972. Purdue received Division I classification in 1973, becoming a Division I-A program from 1978 to 2006 and an FBS program from 2006 to the present. The Boilermakers have registered 64 winning seasons in their history, with 19 of those seasons resulting in eight victories or more, 10 seasons resulting in at least nine wins, and one season with ten victories or more. Of those successful campaigns, Purdue has produced five unbeaten seasons in its history, going 4\u20130 in 1891, 8\u20130 in 1892, 8\u20130 in 1929, 7\u20130\u20131 in 1932 and 9\u20130 in 1943. The Boilermakers have won a total of 12 conference championships in their history, including four Indiana Intercollegiate Athletic Association titles and eight Big Ten Conference titles.
p26
ssa(dp27
g7
(dp28
Vtype
p29
Vuri
p30
sVvalue
p31
Vhttp://dbpedia.org/ontology/abstract
p32
ssg8
(dp33
Vxml:lang
p34
Ven
p35
sVtype
p36
Vliteral
p37
sVvalue
p38
VThe Purdue Boilermakers football team represents Purdue University (also referred to as simply "Purdue") in the NCAA Football Bowl Subdivision (FBS) of college football. Purdue plays its home games at Ross\u2013Ade Stadium on the campus of Purdue University in West Lafayette, Indiana. Gerad Parker is Purdue's currently the interim head coach. The Boilermakers compete in the Big Ten Conference as a member of the West Division. Purdue had most recently been a part of the Leaders Division of the Big Ten, but moved to the West Division in 2014 due to conference expansion.With a 598\u2013545\u201348 record at the conclusion of the 2015 season, Purdue has the 47th-most victories among NCAA FBS programs. Purdue was originally classified as a Major College school in the 1937 season until 1972. Purdue received Division I classification in 1973, becoming a Division I-A program from 1978 to 2006 and an FBS program from 2006 to the present. The Boilermakers have registered 64 winning seasons in their history, with 19 of those seasons resulting in eight victories or more, 10 seasons resulting in at least nine wins, and one season with ten victories or more. Of those successful campaigns, Purdue has produced five unbeaten seasons in its history, going 4\u20130 in 1891, 8\u20130 in 1892, 8\u20130 in 1929, 7\u20130\u20131 in 1932 and 9\u20130 in 1943. The Boilermakers have won a total of 12 conference championships in their history, including four Indiana Intercollegiate Athletic Association titles and eight Big Ten Conference titles.
p39
ssa(dp40
g7
(dp41
Vtype
p42
Vuri
p43
sVvalue
p44
Vhttp://dbpedia.org/ontology/wikiPageExtracted
p45
ssg8
(dp46
Vdatatype
p47
Vhttp://www.w3.org/2001/XMLSchema#dateTime
p48
sVtype
p49
Vtyped-literal
p50
sVvalue
p51
V2016-11-04T21:09:21Z
p52
ssa(dp53
g7
(dp54
Vtype
p55
Vuri
p56
sVvalue
p57
Vhttp://dbpedia.org/ontology/wikiPageLength
p58
ssg8
(dp59
Vdatatype
p60
Vhttp://www.w3.org/2001/XMLSchema#nonNegativeInteger
p61
sVtype
p62
Vtyped-literal
p63
sVvalue
p64
V149780
p65
ssa(dp66
g7
(dp67
Vtype
p68
Vuri
p69
sVvalue
p70
Vhttp://dbpedia.org/ontology/wikiPageModified
p71
ssg8
(dp72
Vdatatype
p73
Vhttp://www.w3.org/2001/XMLSchema#dateTime
p74
sVtype
p75
Vtyped-literal
p76
sVvalue
p77
V2016-11-02T19:42:59Z
p78
ssa(dp79
g7
(dp80
Vtype
p81
Vuri
p82
sVvalue
p83
Vhttp://dbpedia.org/ontology/wikiPageOutDegree
p84
ssg8
(dp85
Vdatatype
p86
Vhttp://www.w3.org/2001/XMLSchema#nonNegativeInteger
p87
sVtype
p88
Vtyped-literal
p89
sVvalue
p90
V1041
p91
ssasVordered
p92
I01
ss.