(dp0
Vhead
p1
(dp2
Vlink
p3
(lp4
sVvars
p5
(lp6
Vp
p7
aVo
p8
assVresults
p9
(dp10
Vdistinct
p11
I00
sVbindings
p12
(lp13
(dp14
g7
(dp15
Vtype
p16
Vuri
p17
sVvalue
p18
Vhttp://dbpedia.org/ontology/abstract
p19
ssg8
(dp20
Vxml:lang
p21
Ven
p22
sVtype
p23
Vliteral
p24
sVvalue
p25
VFrank William Kuchta (born September 18, 1936 in Cleveland, Ohio) is a former American football center and linebacker in the National Football League for the Washington Redskins. He was also among the players of the inaugural Denver Broncos team in the American Football League. He played college football at the University of Notre Dame and was drafted in the ninth round of the 1958 NFL Draft. During his career at the University of Notre Dame he played in the historic 1957 Notre Dame vs the University of Oklahoma game where the Irish broke Oklahoma's 47-game winning streak\u2014a streak which stands to this day. He made a crucial tackle to help win the game and was awarded AP\u2014Lineman of the Week. After leaving the NFL he played for a season with the Calgary Stampeders in the Canadian Football League. He is married and a father of four.
p26
ssa(dp27
g7
(dp28
Vtype
p29
Vuri
p30
sVvalue
p31
Vhttp://dbpedia.org/ontology/abstract
p32
ssg8
(dp33
Vxml:lang
p34
Ven
p35
sVtype
p36
Vliteral
p37
sVvalue
p38
VFrank William Kuchta (born September 18, 1936) is a former gridiron football center and linebacker in the National Football League (NFL) for the Washington Redskins. He was also among the players of the inaugural Denver Broncos team in the American Football League (AFL). He played college football at the University of Notre Dame and was drafted in the ninth round of the 1958 NFL Draft. During his career at the University of Notre Dame he played in the historic 1957 Notre Dame vs the University of Oklahoma game where the Irish broke Oklahoma's 47-game winning streak\u2014a streak which stands to this day. He made a crucial tackle to help win the game and was awarded AP Lineman of the Week. After leaving the NFL he played for a season with the Calgary Stampeders in the Canadian Football League (CFL).
p39
ssa(dp40
g7
(dp41
Vtype
p42
Vuri
p43
sVvalue
p44
Vhttp://dbpedia.org/ontology/birthDate
p45
ssg8
(dp46
Vdatatype
p47
Vhttp://www.w3.org/2001/XMLSchema#date
p48
sVtype
p49
Vtyped-literal
p50
sVvalue
p51
V1936-09-18
p52
ssa(dp53
g7
(dp54
Vtype
p55
Vuri
p56
sVvalue
p57
Vhttp://dbpedia.org/ontology/wikiPageExtracted
p58
ssg8
(dp59
Vdatatype
p60
Vhttp://www.w3.org/2001/XMLSchema#dateTime
p61
sVtype
p62
Vtyped-literal
p63
sVvalue
p64
V2016-10-30T15:41:46Z
p65
ssa(dp66
g7
(dp67
Vtype
p68
Vuri
p69
sVvalue
p70
Vhttp://dbpedia.org/ontology/wikiPageLength
p71
ssg8
(dp72
Vdatatype
p73
Vhttp://www.w3.org/2001/XMLSchema#nonNegativeInteger
p74
sVtype
p75
Vtyped-literal
p76
sVvalue
p77
V2822
p78
ssa(dp79
g7
(dp80
Vtype
p81
Vuri
p82
sVvalue
p83
Vhttp://dbpedia.org/ontology/wikiPageModified
p84
ssg8
(dp85
Vdatatype
p86
Vhttp://www.w3.org/2001/XMLSchema#dateTime
p87
sVtype
p88
Vtyped-literal
p89
sVvalue
p90
V2016-10-22T04:21:08Z
p91
ssa(dp92
g7
(dp93
Vtype
p94
Vuri
p95
sVvalue
p96
Vhttp://dbpedia.org/ontology/wikiPageOutDegree
p97
ssg8
(dp98
Vdatatype
p99
Vhttp://www.w3.org/2001/XMLSchema#nonNegativeInteger
p100
sVtype
p101
Vtyped-literal
p102
sVvalue
p103
V32
p104
ssa(dp105
g7
(dp106
Vtype
p107
Vuri
p108
sVvalue
p109
Vhttp://dbpedia.org/ontology/draftYear
p110
ssg8
(dp111
Vdatatype
p112
Vhttp://www.w3.org/2001/XMLSchema#gYear
p113
sVtype
p114
Vtyped-literal
p115
sVvalue
p116
V1958
p117
ssa(dp118
g7
(dp119
Vtype
p120
Vuri
p121
sVvalue
p122
Vhttp://dbpedia.org/ontology/draftPick
p123
ssg8
(dp124
Vtype
p125
Vliteral
p126
sVvalue
p127
V102
p128
ssa(dp129
g7
(dp130
Vtype
p131
Vuri
p132
sVvalue
p133
Vhttp://dbpedia.org/ontology/draftRound
p134
ssg8
(dp135
Vtype
p136
Vliteral
p137
sVvalue
p138
V9
p139
ssa(dp140
g7
(dp141
Vtype
p142
Vuri
p143
sVvalue
p144
Vhttp://dbpedia.org/ontology/number
p145
ssg8
(dp146
Vtype
p147
Vliteral
p148
sVvalue
p149
V56, 52
p150
ssasVordered
p151
I01
ss.