(dp0
Vhead
p1
(dp2
Vlink
p3
(lp4
sVvars
p5
(lp6
Vp
p7
aVo
p8
assVresults
p9
(dp10
Vdistinct
p11
I00
sVbindings
p12
(lp13
(dp14
g7
(dp15
Vtype
p16
Vuri
p17
sVvalue
p18
Vhttp://dbpedia.org/ontology/abstract
p19
ssg8
(dp20
Vxml:lang
p21
Ven
p22
sVtype
p23
Vliteral
p24
sVvalue
p25
VJohn David Jackson (born November 18, 1977), better known by his stage name Fabolous, is an American hip hop recording artist from Brooklyn, New York City. Jackson's career began when he was a senior in high school and ended up rapping live on American record producer and music executive DJ Clue's radio show, then on Hot 97. Jackson was subsequently signed by DJ Clue to his label Desert Storm, and later secured a distribution deal with Elektra Records. Fabolous' first release, Ghetto Fabolous (2001), spawned the hit singles "Can't Deny It" and "Young'n (Holla Back)", which led Jackson to prominence. His second release was 2003's Street Dreams, which was supported by two Top 10 singles "Can't Let You Go" and "Into You".Aside from the aforementioned songs, Jackson has released a string of hit singles, such as "Trade It All, Pt. 2", "Breathe", "Make Me Better", "Baby Don't Go", "Throw It in the Bag" and "You Be Killin' Em". He is also known for appearing on several R&B singles, including "Superwoman Pt. II" by Lil' Mo, "Dip It Low" by Christina Milian, "Shawty Is a 10" by The-Dream, "Addiction" by Ryan Leslie, "I Can't Hear the Music" by Brutha, "She Got Her Own" by Jamie Foxx, "Say Aah" by Trey Songz, and much more.In 2004, Jackson signed to Atlantic Records, after leaving Elektra, where he released Real Talk, his first and only album under Atlantic. In 2006, Jackson was let out of his contract with Atlantic and officially signed with Def Jam Recordings. Also in 2006, Jackson founded his own record label, Street Family Records. In 2007, he released From Nothin' to Somethin', under Def Jam. In 2009, he would go on to release his fifth album, Loso's Way. Throughout the years Jackson has released several mixtapes, including several installments of his highly acclaimed There Is No Competition series and The S.O.U.L. Tape series, respectively. He released his sixth album, The Young OG Project, in 2014. Fabolous has a current net worth of $23 million that has accumulated mostly from his lucrative music career.
p26
ssa(dp27
g7
(dp28
Vtype
p29
Vuri
p30
sVvalue
p31
Vhttp://dbpedia.org/ontology/activeYearsStartYear
p32
ssg8
(dp33
Vdatatype
p34
Vhttp://www.w3.org/2001/XMLSchema#gYear
p35
sVtype
p36
Vtyped-literal
p37
sVvalue
p38
V1998
p39
ssa(dp40
g7
(dp41
Vtype
p42
Vuri
p43
sVvalue
p44
Vhttp://dbpedia.org/ontology/background
p45
ssg8
(dp46
Vtype
p47
Vliteral
p48
sVvalue
p49
Vsolo_singer
p50
ssa(dp51
g7
(dp52
Vtype
p53
Vuri
p54
sVvalue
p55
Vhttp://dbpedia.org/ontology/birthDate
p56
ssg8
(dp57
Vdatatype
p58
Vhttp://www.w3.org/2001/XMLSchema#date
p59
sVtype
p60
Vtyped-literal
p61
sVvalue
p62
V1977-11-18
p63
ssa(dp64
g7
(dp65
Vtype
p66
Vuri
p67
sVvalue
p68
Vhttp://dbpedia.org/ontology/wikiPageExtracted
p69
ssg8
(dp70
Vdatatype
p71
Vhttp://www.w3.org/2001/XMLSchema#dateTime
p72
sVtype
p73
Vtyped-literal
p74
sVvalue
p75
V2016-10-30T09:26:48Z
p76
ssa(dp77
g7
(dp78
Vtype
p79
Vuri
p80
sVvalue
p81
Vhttp://dbpedia.org/ontology/wikiPageLength
p82
ssg8
(dp83
Vdatatype
p84
Vhttp://www.w3.org/2001/XMLSchema#nonNegativeInteger
p85
sVtype
p86
Vtyped-literal
p87
sVvalue
p88
V31842
p89
ssa(dp90
g7
(dp91
Vtype
p92
Vuri
p93
sVvalue
p94
Vhttp://dbpedia.org/ontology/wikiPageModified
p95
ssg8
(dp96
Vdatatype
p97
Vhttp://www.w3.org/2001/XMLSchema#dateTime
p98
sVtype
p99
Vtyped-literal
p100
sVvalue
p101
V2016-10-25T20:52:37Z
p102
ssa(dp103
g7
(dp104
Vtype
p105
Vuri
p106
sVvalue
p107
Vhttp://dbpedia.org/ontology/wikiPageOutDegree
p108
ssg8
(dp109
Vdatatype
p110
Vhttp://www.w3.org/2001/XMLSchema#nonNegativeInteger
p111
sVtype
p112
Vtyped-literal
p113
sVvalue
p114
V219
p115
ssasVordered
p116
I01
ss.