(dp0
Vhead
p1
(dp2
Vlink
p3
(lp4
sVvars
p5
(lp6
Vp
p7
aVo
p8
assVresults
p9
(dp10
Vdistinct
p11
I00
sVbindings
p12
(lp13
(dp14
g7
(dp15
Vtype
p16
Vuri
p17
sVvalue
p18
Vhttp://dbpedia.org/ontology/abstract
p19
ssg8
(dp20
Vxml:lang
p21
Ven
p22
sVtype
p23
Vliteral
p24
sVvalue
p25
VH\u014dzan Yamamoto (\u5c71\u672c \u90a6\u5c71, Yamamoto H\u014dzan; October 6, 1937 - February 10, 2014 in \u014ctsu, Shiga prefecture) was a Japanese shakuhachi player, composer and lecturer.Yamamoto started playing the Japanese bamboo flute shakuhachi from the age of nine. He was initially taught by his father and then by Chozan Nakanishi. After graduating from Kyoto Junior College of Foreign Studies in 1958, he participated in UNESCO's World Folk music Festival and graduated from Seiha Music College in 1962. Together with kotoplayer Shinichi Yuize and Tony Scott he recorded the album Music for Zen Meditation in February 1964.After formation with Reibo Aoki and Katsuya Yokoyama of the widely acclaimed "Shakuhachi Sanbon Kai" trio in 1966, he electrified the conservative traditional scene by applying his talents to a variety of crossover collaborations. These have led him to work with such world-renowned musicians as Ravi Shankar, Helen Merrill, Gary Peacock and Karl Berger, but also with flute colleagues Jean-Pierre Rampal and Chris Hinze.In 1980 he was invited to the renowned Donaueschingen music festival with his trio. He recorded the music to the Samurai Reincarnation film and the album Masters of Zen: Shakuhachi & Organ (together with Wolfgang Mitterer at the organ) which he composed for his instrument. Through the 1970s and 1980s to the present he has led the shakuhachi world receiving innumerable honors, including Japanese Ministry of Cultural Affairs and Education Ministerial awards for his performances, recordings (numbering in the hundreds) and compositions. He served as lecturer at the Tokyo National University of Fine Arts and Music and as head of the Hozan-kai Shakuhachi Guild.In 2002 he became designated Living National Treasure of Japan. In 2004, he was awarded a Medal with Purple Ribbon. In 2009, he was awarded an Order of the Rising Sun, Gold Rays with Rosette.On February 10, 2014, he died at a hospital in Tokyo.
p26
ssa(dp27
g7
(dp28
Vtype
p29
Vuri
p30
sVvalue
p31
Vhttp://dbpedia.org/ontology/activeYearsEndYear
p32
ssg8
(dp33
Vdatatype
p34
Vhttp://www.w3.org/2001/XMLSchema#gYear
p35
sVtype
p36
Vtyped-literal
p37
sVvalue
p38
V1958
p39
ssa(dp40
g7
(dp41
Vtype
p42
Vuri
p43
sVvalue
p44
Vhttp://dbpedia.org/ontology/activeYearsStartYear
p45
ssg8
(dp46
Vdatatype
p47
Vhttp://www.w3.org/2001/XMLSchema#gYear
p48
sVtype
p49
Vtyped-literal
p50
sVvalue
p51
V1958
p52
ssa(dp53
g7
(dp54
Vtype
p55
Vuri
p56
sVvalue
p57
Vhttp://dbpedia.org/ontology/background
p58
ssg8
(dp59
Vtype
p60
Vliteral
p61
sVvalue
p62
Vnon_vocal_instrumentalist
p63
ssa(dp64
g7
(dp65
Vtype
p66
Vuri
p67
sVvalue
p68
Vhttp://dbpedia.org/ontology/birthDate
p69
ssg8
(dp70
Vdatatype
p71
Vhttp://www.w3.org/2001/XMLSchema#date
p72
sVtype
p73
Vtyped-literal
p74
sVvalue
p75
V1937-10-06
p76
ssa(dp77
g7
(dp78
Vtype
p79
Vuri
p80
sVvalue
p81
Vhttp://dbpedia.org/ontology/deathDate
p82
ssg8
(dp83
Vdatatype
p84
Vhttp://www.w3.org/2001/XMLSchema#date
p85
sVtype
p86
Vtyped-literal
p87
sVvalue
p88
V2014-02-10
p89
ssa(dp90
g7
(dp91
Vtype
p92
Vuri
p93
sVvalue
p94
Vhttp://dbpedia.org/ontology/wikiPageExtracted
p95
ssg8
(dp96
Vdatatype
p97
Vhttp://www.w3.org/2001/XMLSchema#dateTime
p98
sVtype
p99
Vtyped-literal
p100
sVvalue
p101
V2016-08-26T01:34:56Z
p102
ssa(dp103
g7
(dp104
Vtype
p105
Vuri
p106
sVvalue
p107
Vhttp://dbpedia.org/ontology/wikiPageExtracted
p108
ssg8
(dp109
Vdatatype
p110
Vhttp://www.w3.org/2001/XMLSchema#dateTime
p111
sVtype
p112
Vtyped-literal
p113
sVvalue
p114
V2016-10-24T16:48:46Z
p115
ssa(dp116
g7
(dp117
Vtype
p118
Vuri
p119
sVvalue
p120
Vhttp://dbpedia.org/ontology/wikiPageExtracted
p121
ssg8
(dp122
Vdatatype
p123
Vhttp://www.w3.org/2001/XMLSchema#dateTime
p124
sVtype
p125
Vtyped-literal
p126
sVvalue
p127
V2016-10-31T18:35:40Z
p128
ssa(dp129
g7
(dp130
Vtype
p131
Vuri
p132
sVvalue
p133
Vhttp://dbpedia.org/ontology/wikiPageLength
p134
ssg8
(dp135
Vdatatype
p136
Vhttp://www.w3.org/2001/XMLSchema#nonNegativeInteger
p137
sVtype
p138
Vtyped-literal
p139
sVvalue
p140
V4398
p141
ssa(dp142
g7
(dp143
Vtype
p144
Vuri
p145
sVvalue
p146
Vhttp://dbpedia.org/ontology/wikiPageLength
p147
ssg8
(dp148
Vdatatype
p149
Vhttp://www.w3.org/2001/XMLSchema#nonNegativeInteger
p150
sVtype
p151
Vtyped-literal
p152
sVvalue
p153
V4454
p154
ssa(dp155
g7
(dp156
Vtype
p157
Vuri
p158
sVvalue
p159
Vhttp://dbpedia.org/ontology/wikiPageModified
p160
ssg8
(dp161
Vdatatype
p162
Vhttp://www.w3.org/2001/XMLSchema#dateTime
p163
sVtype
p164
Vtyped-literal
p165
sVvalue
p166
V2016-02-22T06:20:26Z
p167
ssa(dp168
g7
(dp169
Vtype
p170
Vuri
p171
sVvalue
p172
Vhttp://dbpedia.org/ontology/wikiPageModified
p173
ssg8
(dp174
Vdatatype
p175
Vhttp://www.w3.org/2001/XMLSchema#dateTime
p176
sVtype
p177
Vtyped-literal
p178
sVvalue
p179
V2016-10-22T04:12:52Z
p180
ssa(dp181
g7
(dp182
Vtype
p183
Vuri
p184
sVvalue
p185
Vhttp://dbpedia.org/ontology/wikiPageOutDegree
p186
ssg8
(dp187
Vdatatype
p188
Vhttp://www.w3.org/2001/XMLSchema#nonNegativeInteger
p189
sVtype
p190
Vtyped-literal
p191
sVvalue
p192
V52
p193
ssa(dp194
g7
(dp195
Vtype
p196
Vuri
p197
sVvalue
p198
Vhttp://dbpedia.org/ontology/wikiPageOutDegree
p199
ssg8
(dp200
Vdatatype
p201
Vhttp://www.w3.org/2001/XMLSchema#nonNegativeInteger
p202
sVtype
p203
Vtyped-literal
p204
sVvalue
p205
V53
p206
ssasVordered
p207
I01
ss.