(dp0
Vhead
p1
(dp2
Vlink
p3
(lp4
sVvars
p5
(lp6
Vp
p7
aVo
p8
assVresults
p9
(dp10
Vdistinct
p11
I00
sVbindings
p12
(lp13
(dp14
g7
(dp15
Vtype
p16
Vuri
p17
sVvalue
p18
Vhttp://dbpedia.org/ontology/Person/weight
p19
ssg8
(dp20
Vdatatype
p21
Vhttp://dbpedia.org/datatype/kilogram
p22
sVtype
p23
Vtyped-literal
p24
sVvalue
p25
V121.1112
p26
ssa(dp27
g7
(dp28
Vtype
p29
Vuri
p30
sVvalue
p31
Vhttp://dbpedia.org/ontology/abstract
p32
ssg8
(dp33
Vxml:lang
p34
Ven
p35
sVtype
p36
Vliteral
p37
sVvalue
p38
VGreg Romeus (born April 29, 1988) is an American football linebacker for the Boston Brawlers of the Fall Experimental Football League (FXFL). He was drafted by the New Orleans Saints in the seventh round of the 2011 NFL Draft. He played as a defensive end for the Pittsburgh Panthers at the University of Pittsburgh. Romeus played football for just one year before entering college. During high school, he was considered a top college prospect in basketball.
p39
ssa(dp40
g7
(dp41
Vtype
p42
Vuri
p43
sVvalue
p44
Vhttp://dbpedia.org/ontology/activeYearsStartYear
p45
ssg8
(dp46
Vdatatype
p47
Vhttp://www.w3.org/2001/XMLSchema#gYear
p48
sVtype
p49
Vtyped-literal
p50
sVvalue
p51
V2014
p52
ssa(dp53
g7
(dp54
Vtype
p55
Vuri
p56
sVvalue
p57
Vhttp://dbpedia.org/ontology/birthDate
p58
ssg8
(dp59
Vdatatype
p60
Vhttp://www.w3.org/2001/XMLSchema#date
p61
sVtype
p62
Vtyped-literal
p63
sVvalue
p64
V1988-04-29
p65
ssa(dp66
g7
(dp67
Vtype
p68
Vuri
p69
sVvalue
p70
Vhttp://dbpedia.org/ontology/height
p71
ssg8
(dp72
Vdatatype
p73
Vhttp://www.w3.org/2001/XMLSchema#double
p74
sVtype
p75
Vtyped-literal
p76
sVvalue
p77
V1.9558
p78
ssa(dp79
g7
(dp80
Vtype
p81
Vuri
p82
sVvalue
p83
Vhttp://dbpedia.org/ontology/status
p84
ssg8
(dp85
Vtype
p86
Vliteral
p87
sVvalue
p88
VActive
p89
ssa(dp90
g7
(dp91
Vtype
p92
Vuri
p93
sVvalue
p94
Vhttp://dbpedia.org/ontology/weight
p95
ssg8
(dp96
Vdatatype
p97
Vhttp://www.w3.org/2001/XMLSchema#double
p98
sVtype
p99
Vtyped-literal
p100
sVvalue
p101
V121111.0
p102
ssa(dp103
g7
(dp104
Vtype
p105
Vuri
p106
sVvalue
p107
Vhttp://dbpedia.org/ontology/wikiPageExtracted
p108
ssg8
(dp109
Vdatatype
p110
Vhttp://www.w3.org/2001/XMLSchema#dateTime
p111
sVtype
p112
Vtyped-literal
p113
sVvalue
p114
V2016-10-31T04:06:22Z
p115
ssa(dp116
g7
(dp117
Vtype
p118
Vuri
p119
sVvalue
p120
Vhttp://dbpedia.org/ontology/wikiPageLength
p121
ssg8
(dp122
Vdatatype
p123
Vhttp://www.w3.org/2001/XMLSchema#nonNegativeInteger
p124
sVtype
p125
Vtyped-literal
p126
sVvalue
p127
V8150
p128
ssa(dp129
g7
(dp130
Vtype
p131
Vuri
p132
sVvalue
p133
Vhttp://dbpedia.org/ontology/wikiPageModified
p134
ssg8
(dp135
Vdatatype
p136
Vhttp://www.w3.org/2001/XMLSchema#dateTime
p137
sVtype
p138
Vtyped-literal
p139
sVvalue
p140
V2016-04-22T17:51:39Z
p141
ssa(dp142
g7
(dp143
Vtype
p144
Vuri
p145
sVvalue
p146
Vhttp://dbpedia.org/ontology/wikiPageOutDegree
p147
ssg8
(dp148
Vdatatype
p149
Vhttp://www.w3.org/2001/XMLSchema#nonNegativeInteger
p150
sVtype
p151
Vtyped-literal
p152
sVvalue
p153
V59
p154
ssa(dp155
g7
(dp156
Vtype
p157
Vuri
p158
sVvalue
p159
Vhttp://dbpedia.org/ontology/draftYear
p160
ssg8
(dp161
Vdatatype
p162
Vhttp://www.w3.org/2001/XMLSchema#gYear
p163
sVtype
p164
Vtyped-literal
p165
sVvalue
p166
V2011
p167
ssa(dp168
g7
(dp169
Vtype
p170
Vuri
p171
sVvalue
p172
Vhttp://dbpedia.org/ontology/draftPick
p173
ssg8
(dp174
Vtype
p175
Vliteral
p176
sVvalue
p177
V226
p178
ssa(dp179
g7
(dp180
Vtype
p181
Vuri
p182
sVvalue
p183
Vhttp://dbpedia.org/ontology/draftRound
p184
ssg8
(dp185
Vtype
p186
Vliteral
p187
sVvalue
p188
V7
p189
ssa(dp190
g7
(dp191
Vtype
p192
Vuri
p193
sVvalue
p194
Vhttp://dbpedia.org/ontology/number
p195
ssg8
(dp196
Vtype
p197
Vliteral
p198
sVvalue
p199
V91
p200
ssasVordered
p201
I01
ss.