(dp0
Vhead
p1
(dp2
Vlink
p3
(lp4
sVvars
p5
(lp6
Vp
p7
aVo
p8
assVresults
p9
(dp10
Vdistinct
p11
I00
sVbindings
p12
(lp13
(dp14
g7
(dp15
Vtype
p16
Vuri
p17
sVvalue
p18
Vhttp://dbpedia.org/ontology/PopulatedPlace/areaTotal
p19
ssg8
(dp20
Vdatatype
p21
Vhttp://dbpedia.org/datatype/squareKilometre
p22
sVtype
p23
Vtyped-literal
p24
sVvalue
p25
V1.0
p26
ssa(dp27
g7
(dp28
Vtype
p29
Vuri
p30
sVvalue
p31
Vhttp://dbpedia.org/ontology/abstract
p32
ssg8
(dp33
Vxml:lang
p34
Ven
p35
sVtype
p36
Vliteral
p37
sVvalue
p38
VLadonia (Swedish: Ladonien) is a micronation, proclaimed in 1996 as the result of a years-long court battle between artist Lars Vilks and local authorities over two sculptures. The claimed territory is part of the natural reserve of Kullaberg in southern Sweden.
p39
ssa(dp40
g7
(dp41
Vtype
p42
Vuri
p43
sVvalue
p44
Vhttp://dbpedia.org/ontology/areaTotal
p45
ssg8
(dp46
Vdatatype
p47
Vhttp://www.w3.org/2001/XMLSchema#double
p48
sVtype
p49
Vtyped-literal
p50
sVvalue
p51
V1e+06
p52
ssa(dp53
g7
(dp54
Vtype
p55
Vuri
p56
sVvalue
p57
Vhttp://dbpedia.org/ontology/flag
p58
ssg8
(dp59
Vtype
p60
Vliteral
p61
sVvalue
p62
VFlag of Ladonia with contours.svg
p63
ssa(dp64
g7
(dp65
Vtype
p66
Vuri
p67
sVvalue
p68
Vhttp://dbpedia.org/ontology/foundingDate
p69
ssg8
(dp70
Vdatatype
p71
Vhttp://www.w3.org/2001/XMLSchema#date
p72
sVtype
p73
Vtyped-literal
p74
sVvalue
p75
V1996-06-02
p76
ssa(dp77
g7
(dp78
Vtype
p79
Vuri
p80
sVvalue
p81
Vhttp://dbpedia.org/ontology/leaderTitle
p82
ssg8
(dp83
Vxml:lang
p84
Ven
p85
sVtype
p86
Vliteral
p87
sVvalue
p88
VMonarch
p89
ssa(dp90
g7
(dp91
Vtype
p92
Vuri
p93
sVvalue
p94
Vhttp://dbpedia.org/ontology/leaderTitle
p95
ssg8
(dp96
Vxml:lang
p97
Ven
p98
sVtype
p99
Vliteral
p100
sVvalue
p101
VPresident
p102
ssa(dp103
g7
(dp104
Vtype
p105
Vuri
p106
sVvalue
p107
Vhttp://dbpedia.org/ontology/leaderTitle
p108
ssg8
(dp109
Vxml:lang
p110
Ven
p111
sVtype
p112
Vliteral
p113
sVvalue
p114
VVice-President
p115
ssa(dp116
g7
(dp117
Vtype
p118
Vuri
p119
sVvalue
p120
Vhttp://dbpedia.org/ontology/leaderTitle
p121
ssg8
(dp122
Vxml:lang
p123
Ven
p124
sVtype
p125
Vliteral
p126
sVvalue
p127
VState Secretary
p128
ssa(dp129
g7
(dp130
Vtype
p131
Vuri
p132
sVvalue
p133
Vhttp://dbpedia.org/ontology/longName
p134
ssg8
(dp135
Vxml:lang
p136
Ven
p137
sVtype
p138
Vliteral
p139
sVvalue
p140
VRoyal Republic of Ladonia
p141
ssa(dp142
g7
(dp143
Vtype
p144
Vuri
p145
sVvalue
p146
Vhttp://dbpedia.org/ontology/motto
p147
ssg8
(dp148
Vtype
p149
Vliteral
p150
sVvalue
p151
VSuum Cuique
p152
ssa(dp153
g7
(dp154
Vtype
p155
Vuri
p156
sVvalue
p157
Vhttp://dbpedia.org/ontology/wikiPageExtracted
p158
ssg8
(dp159
Vdatatype
p160
Vhttp://www.w3.org/2001/XMLSchema#dateTime
p161
sVtype
p162
Vtyped-literal
p163
sVvalue
p164
V2016-11-01T23:43:28Z
p165
ssa(dp166
g7
(dp167
Vtype
p168
Vuri
p169
sVvalue
p170
Vhttp://dbpedia.org/ontology/wikiPageLength
p171
ssg8
(dp172
Vdatatype
p173
Vhttp://www.w3.org/2001/XMLSchema#nonNegativeInteger
p174
sVtype
p175
Vtyped-literal
p176
sVvalue
p177
V11538
p178
ssa(dp179
g7
(dp180
Vtype
p181
Vuri
p182
sVvalue
p183
Vhttp://dbpedia.org/ontology/wikiPageModified
p184
ssg8
(dp185
Vdatatype
p186
Vhttp://www.w3.org/2001/XMLSchema#dateTime
p187
sVtype
p188
Vtyped-literal
p189
sVvalue
p190
V2016-10-15T14:08:49Z
p191
ssa(dp192
g7
(dp193
Vtype
p194
Vuri
p195
sVvalue
p196
Vhttp://dbpedia.org/ontology/wikiPageOutDegree
p197
ssg8
(dp198
Vdatatype
p199
Vhttp://www.w3.org/2001/XMLSchema#nonNegativeInteger
p200
sVtype
p201
Vtyped-literal
p202
sVvalue
p203
V52
p204
ssasVordered
p205
I01
ss.