(dp0
Vhead
p1
(dp2
Vlink
p3
(lp4
sVvars
p5
(lp6
Vp
p7
aVo
p8
assVresults
p9
(dp10
Vdistinct
p11
I00
sVbindings
p12
(lp13
(dp14
g7
(dp15
Vtype
p16
Vuri
p17
sVvalue
p18
Vhttp://dbpedia.org/ontology/Engine/cylinderBore
p19
ssg8
(dp20
Vdatatype
p21
Vhttp://dbpedia.org/datatype/millimetre
p22
sVtype
p23
Vtyped-literal
p24
sVvalue
p25
V90.0
p26
ssa(dp27
g7
(dp28
Vtype
p29
Vuri
p30
sVvalue
p31
Vhttp://dbpedia.org/ontology/Engine/cylinderBore
p32
ssg8
(dp33
Vdatatype
p34
Vhttp://dbpedia.org/datatype/millimetre
p35
sVtype
p36
Vtyped-literal
p37
sVvalue
p38
V94.0
p39
ssa(dp40
g7
(dp41
Vtype
p42
Vuri
p43
sVvalue
p44
Vhttp://dbpedia.org/ontology/Engine/displacement
p45
ssg8
(dp46
Vdatatype
p47
Vhttp://dbpedia.org/datatype/cubicCentimetre
p48
sVtype
p49
Vtyped-literal
p50
sVvalue
p51
V3900.0
p52
ssa(dp53
g7
(dp54
Vtype
p55
Vuri
p56
sVvalue
p57
Vhttp://dbpedia.org/ontology/Engine/displacement
p58
ssg8
(dp59
Vdatatype
p60
Vhttp://dbpedia.org/datatype/cubicCentimetre
p61
sVtype
p62
Vtyped-literal
p63
sVvalue
p64
V4000.0
p65
ssa(dp66
g7
(dp67
Vtype
p68
Vuri
p69
sVvalue
p70
Vhttp://dbpedia.org/ontology/Engine/displacement
p71
ssg8
(dp72
Vdatatype
p73
Vhttp://dbpedia.org/datatype/cubicCentimetre
p74
sVtype
p75
Vtyped-literal
p76
sVvalue
p77
V4200.0
p78
ssa(dp79
g7
(dp80
Vtype
p81
Vuri
p82
sVvalue
p83
Vhttp://dbpedia.org/ontology/Engine/pistonStroke
p84
ssg8
(dp85
Vdatatype
p86
Vhttp://dbpedia.org/datatype/millimetre
p87
sVtype
p88
Vtyped-literal
p89
sVvalue
p90
V95.0
p91
ssa(dp92
g7
(dp93
Vtype
p94
Vuri
p95
sVvalue
p96
Vhttp://dbpedia.org/ontology/Engine/pistonStroke
p97
ssg8
(dp98
Vdatatype
p99
Vhttp://dbpedia.org/datatype/millimetre
p100
sVtype
p101
Vtyped-literal
p102
sVvalue
p103
V102.0
p104
ssa(dp105
g7
(dp106
Vtype
p107
Vuri
p108
sVvalue
p109
Vhttp://dbpedia.org/ontology/cylinderBore
p110
ssg8
(dp111
Vdatatype
p112
Vhttp://www.w3.org/2001/XMLSchema#double
p113
sVtype
p114
Vtyped-literal
p115
sVvalue
p116
V0.09
p117
ssa(dp118
g7
(dp119
Vtype
p120
Vuri
p121
sVvalue
p122
Vhttp://dbpedia.org/ontology/cylinderBore
p123
ssg8
(dp124
Vdatatype
p125
Vhttp://www.w3.org/2001/XMLSchema#double
p126
sVtype
p127
Vtyped-literal
p128
sVvalue
p129
V0.094
p130
ssa(dp131
g7
(dp132
Vtype
p133
Vuri
p134
sVvalue
p135
Vhttp://dbpedia.org/ontology/pistonStroke
p136
ssg8
(dp137
Vdatatype
p138
Vhttp://www.w3.org/2001/XMLSchema#double
p139
sVtype
p140
Vtyped-literal
p141
sVvalue
p142
V0.095
p143
ssa(dp144
g7
(dp145
Vtype
p146
Vuri
p147
sVvalue
p148
Vhttp://dbpedia.org/ontology/pistonStroke
p149
ssg8
(dp150
Vdatatype
p151
Vhttp://www.w3.org/2001/XMLSchema#double
p152
sVtype
p153
Vtyped-literal
p154
sVvalue
p155
V0.102
p156
ssa(dp157
g7
(dp158
Vtype
p159
Vuri
p160
sVvalue
p161
Vhttp://dbpedia.org/ontology/abstract
p162
ssg8
(dp163
Vxml:lang
p164
Ven
p165
sVtype
p166
Vliteral
p167
sVvalue
p168
VThe Toyota F series engine was a series of OHV inline-6-cylinder engines produced by Toyota between 1955 and 1992. They are known for their high amount of torque at low RPM, massive cast-iron blocks and heads and also their high reliability. The F Engine had one of the longest production runs of any Toyota engine. The F engines all incorporate overhead valves actuated by pushrods from a gear driven camshaft in the lower portion of the engine. The engine was first introduced in the Land Cruiser, and in many countries, was the only engines offered in the Landcruiser until 1993. Although it's commonly badged as the Land Cruiser engine, it was used in a variety of other large truck applications as well, such as in fire trucks and the Toyota FQ15 trucks. It was also used in the Crown-based Japanese police patrol cars FH26 and FS20-FS50.
p169
ssa(dp170
g7
(dp171
Vtype
p172
Vuri
p173
sVvalue
p174
Vhttp://dbpedia.org/ontology/productionEndYear
p175
ssg8
(dp176
Vdatatype
p177
Vhttp://www.w3.org/2001/XMLSchema#gYear
p178
sVtype
p179
Vtyped-literal
p180
sVvalue
p181
V0012
p182
ssa(dp183
g7
(dp184
Vtype
p185
Vuri
p186
sVvalue
p187
Vhttp://dbpedia.org/ontology/productionEndYear
p188
ssg8
(dp189
Vdatatype
p190
Vhttp://www.w3.org/2001/XMLSchema#gYear
p191
sVtype
p192
Vtyped-literal
p193
sVvalue
p194
V1974
p195
ssa(dp196
g7
(dp197
Vtype
p198
Vuri
p199
sVvalue
p200
Vhttp://dbpedia.org/ontology/productionEndYear
p201
ssg8
(dp202
Vdatatype
p203
Vhttp://www.w3.org/2001/XMLSchema#gYear
p204
sVtype
p205
Vtyped-literal
p206
sVvalue
p207
V1988
p208
ssa(dp209
g7
(dp210
Vtype
p211
Vuri
p212
sVvalue
p213
Vhttp://dbpedia.org/ontology/productionEndYear
p214
ssg8
(dp215
Vdatatype
p216
Vhttp://www.w3.org/2001/XMLSchema#gYear
p217
sVtype
p218
Vtyped-literal
p219
sVvalue
p220
V1992
p221
ssa(dp222
g7
(dp223
Vtype
p224
Vuri
p225
sVvalue
p226
Vhttp://dbpedia.org/ontology/productionStartYear
p227
ssg8
(dp228
Vdatatype
p229
Vhttp://www.w3.org/2001/XMLSchema#gYear
p230
sVtype
p231
Vtyped-literal
p232
sVvalue
p233
V0009
p234
ssa(dp235
g7
(dp236
Vtype
p237
Vuri
p238
sVvalue
p239
Vhttp://dbpedia.org/ontology/productionStartYear
p240
ssg8
(dp241
Vdatatype
p242
Vhttp://www.w3.org/2001/XMLSchema#gYear
p243
sVtype
p244
Vtyped-literal
p245
sVvalue
p246
V1955
p247
ssa(dp248
g7
(dp249
Vtype
p250
Vuri
p251
sVvalue
p252
Vhttp://dbpedia.org/ontology/productionStartYear
p253
ssg8
(dp254
Vdatatype
p255
Vhttp://www.w3.org/2001/XMLSchema#gYear
p256
sVtype
p257
Vtyped-literal
p258
sVvalue
p259
V1975
p260
ssa(dp261
g7
(dp262
Vtype
p263
Vuri
p264
sVvalue
p265
Vhttp://dbpedia.org/ontology/productionStartYear
p266
ssg8
(dp267
Vdatatype
p268
Vhttp://www.w3.org/2001/XMLSchema#gYear
p269
sVtype
p270
Vtyped-literal
p271
sVvalue
p272
V1985
p273
ssa(dp274
g7
(dp275
Vtype
p276
Vuri
p277
sVvalue
p278
Vhttp://dbpedia.org/ontology/wikiPageExtracted
p279
ssg8
(dp280
Vdatatype
p281
Vhttp://www.w3.org/2001/XMLSchema#dateTime
p282
sVtype
p283
Vtyped-literal
p284
sVvalue
p285
V2016-11-07T07:21:43Z
p286
ssa(dp287
g7
(dp288
Vtype
p289
Vuri
p290
sVvalue
p291
Vhttp://dbpedia.org/ontology/wikiPageLength
p292
ssg8
(dp293
Vdatatype
p294
Vhttp://www.w3.org/2001/XMLSchema#nonNegativeInteger
p295
sVtype
p296
Vtyped-literal
p297
sVvalue
p298
V7189
p299
ssa(dp300
g7
(dp301
Vtype
p302
Vuri
p303
sVvalue
p304
Vhttp://dbpedia.org/ontology/wikiPageModified
p305
ssg8
(dp306
Vdatatype
p307
Vhttp://www.w3.org/2001/XMLSchema#dateTime
p308
sVtype
p309
Vtyped-literal
p310
sVvalue
p311
V2016-11-03T07:10:30Z
p312
ssa(dp313
g7
(dp314
Vtype
p315
Vuri
p316
sVvalue
p317
Vhttp://dbpedia.org/ontology/wikiPageOutDegree
p318
ssg8
(dp319
Vdatatype
p320
Vhttp://www.w3.org/2001/XMLSchema#nonNegativeInteger
p321
sVtype
p322
Vtyped-literal
p323
sVvalue
p324
V30
p325
ssa(dp326
g7
(dp327
Vtype
p328
Vuri
p329
sVvalue
p330
Vhttp://dbpedia.org/ontology/Engine/powerOutput
p331
ssg8
(dp332
Vdatatype
p333
Vhttp://dbpedia.org/datatype/kilowatt
p334
sVtype
p335
Vtyped-literal
p336
sVvalue
p337
V101.0
p338
ssa(dp339
g7
(dp340
Vtype
p341
Vuri
p342
sVvalue
p343
Vhttp://dbpedia.org/ontology/Engine/powerOutput
p344
ssg8
(dp345
Vdatatype
p346
Vhttp://dbpedia.org/datatype/kilowatt
p347
sVtype
p348
Vtyped-literal
p349
sVvalue
p350
V116.0
p351
ssa(dp352
g7
(dp353
Vtype
p354
Vuri
p355
sVvalue
p356
Vhttp://dbpedia.org/ontology/displacement
p357
ssg8
(dp358
Vdatatype
p359
Vhttp://www.w3.org/2001/XMLSchema#double
p360
sVtype
p361
Vtyped-literal
p362
sVvalue
p363
V0.0039
p364
ssa(dp365
g7
(dp366
Vtype
p367
Vuri
p368
sVvalue
p369
Vhttp://dbpedia.org/ontology/displacement
p370
ssg8
(dp371
Vdatatype
p372
Vhttp://www.w3.org/2001/XMLSchema#double
p373
sVtype
p374
Vtyped-literal
p375
sVvalue
p376
V0.004
p377
ssa(dp378
g7
(dp379
Vtype
p380
Vuri
p381
sVvalue
p382
Vhttp://dbpedia.org/ontology/displacement
p383
ssg8
(dp384
Vdatatype
p385
Vhttp://www.w3.org/2001/XMLSchema#double
p386
sVtype
p387
Vtyped-literal
p388
sVvalue
p389
V0.0042
p390
ssa(dp391
g7
(dp392
Vtype
p393
Vuri
p394
sVvalue
p395
Vhttp://dbpedia.org/ontology/powerOutput
p396
ssg8
(dp397
Vdatatype
p398
Vhttp://www.w3.org/2001/XMLSchema#double
p399
sVtype
p400
Vtyped-literal
p401
sVvalue
p402
V101000.0
p403
ssa(dp404
g7
(dp405
Vtype
p406
Vuri
p407
sVvalue
p408
Vhttp://dbpedia.org/ontology/powerOutput
p409
ssg8
(dp410
Vdatatype
p411
Vhttp://www.w3.org/2001/XMLSchema#double
p412
sVtype
p413
Vtyped-literal
p414
sVvalue
p415
V116000.0
p416
ssa(dp417
g7
(dp418
Vtype
p419
Vuri
p420
sVvalue
p421
Vhttp://dbpedia.org/ontology/torqueOutput
p422
ssg8
(dp423
Vdatatype
p424
Vhttp://www.w3.org/2001/XMLSchema#double
p425
sVtype
p426
Vtyped-literal
p427
sVvalue
p428
V271.0
p429
ssa(dp430
g7
(dp431
Vtype
p432
Vuri
p433
sVvalue
p434
Vhttp://dbpedia.org/ontology/torqueOutput
p435
ssg8
(dp436
Vdatatype
p437
Vhttp://www.w3.org/2001/XMLSchema#double
p438
sVtype
p439
Vtyped-literal
p440
sVvalue
p441
V303.0
p442
ssa(dp443
g7
(dp444
Vtype
p445
Vuri
p446
sVvalue
p447
Vhttp://dbpedia.org/ontology/configuration
p448
ssg8
(dp449
Vdatatype
p450
Vhttp://dbpedia.org/datatype/engineConfiguration
p451
sVtype
p452
Vtyped-literal
p453
sVvalue
p454
Vstraight-six
p455
ssa(dp456
g7
(dp457
Vtype
p458
Vuri
p459
sVvalue
p460
Vhttp://dbpedia.org/ontology/compressionRatio
p461
ssg8
(dp462
Vtype
p463
Vliteral
p464
sVvalue
p465
V7.8:1
p466
ssa(dp467
g7
(dp468
Vtype
p469
Vuri
p470
sVvalue
p471
Vhttp://dbpedia.org/ontology/compressionRatio
p472
ssg8
(dp473
Vtype
p474
Vliteral
p475
sVvalue
p476
V8.1:1
p477
ssa(dp478
g7
(dp479
Vtype
p480
Vuri
p481
sVvalue
p482
Vhttp://dbpedia.org/ontology/compressionRatio
p483
ssg8
(dp484
Vtype
p485
Vliteral
p486
sVvalue
p487
V6.8:1
p488
ssa(dp489
g7
(dp490
Vtype
p491
Vuri
p492
sVvalue
p493
Vhttp://dbpedia.org/ontology/Engine/torqueOutput
p494
ssg8
(dp495
Vdatatype
p496
Vhttp://dbpedia.org/datatype/newtonMetre
p497
sVtype
p498
Vtyped-literal
p499
sVvalue
p500
V271.0
p501
ssa(dp502
g7
(dp503
Vtype
p504
Vuri
p505
sVvalue
p506
Vhttp://dbpedia.org/ontology/Engine/torqueOutput
p507
ssg8
(dp508
Vdatatype
p509
Vhttp://dbpedia.org/datatype/newtonMetre
p510
sVtype
p511
Vtyped-literal
p512
sVvalue
p513
V303.0
p514
ssasVordered
p515
I01
ss.