(dp0
Vhead
p1
(dp2
Vlink
p3
(lp4
sVvars
p5
(lp6
Vp
p7
aVo
p8
assVresults
p9
(dp10
Vdistinct
p11
I00
sVbindings
p12
(lp13
(dp14
g7
(dp15
Vtype
p16
Vuri
p17
sVvalue
p18
Vhttp://dbpedia.org/ontology/PopulatedPlace/areaTotal
p19
ssg8
(dp20
Vdatatype
p21
Vhttp://dbpedia.org/datatype/squareKilometre
p22
sVtype
p23
Vtyped-literal
p24
sVvalue
p25
V100.26
p26
ssa(dp27
g7
(dp28
Vtype
p29
Vuri
p30
sVvalue
p31
Vhttp://dbpedia.org/ontology/abstract
p32
ssg8
(dp33
Vxml:lang
p34
Ven
p35
sVtype
p36
Vliteral
p37
sVvalue
p38
VUrdaneta (Pangasinan: Siyudad na Urdaneta; Ilocano: Ciudad ti Urdaneta) is a second class city in the province of Pangasinan, Philippines. According to the 2010 census, it has a population of 125,451 people, with a land area of 12,100 hectares. Gateway to Northern Philippines, the city's strategic location is on the central part of eastern Pangasinan.
p39
ssa(dp40
g7
(dp41
Vtype
p42
Vuri
p43
sVvalue
p44
Vhttp://dbpedia.org/ontology/abstract
p45
ssg8
(dp46
Vxml:lang
p47
Ven
p48
sVtype
p49
Vliteral
p50
sVvalue
p51
VUrdaneta (Pangasinan: Siyudad na Urdaneta; Ilocano: Ciudad ti Urdaneta) is a second class city in the province of Pangasinan, Philippines. According to the 2010 census, it has a population of 125,451 people, with a land area of 12,100 hectares. Gateway to Northern Philippines, the city's strategic location is on the central part of eastern Pangasinan. Urdaneta City is among the most progressive cities in Northern Luzon in terms of Annual Regular Income beating all cities in Region 1. The City is among the region's cleanest, greenest and most liveable cities.
p52
ssa(dp53
g7
(dp54
Vtype
p55
Vuri
p56
sVvalue
p57
Vhttp://dbpedia.org/ontology/areaCode
p58
ssg8
(dp59
Vtype
p60
Vliteral
p61
sVvalue
p62
VP473
p63
ssa(dp64
g7
(dp65
Vtype
p66
Vuri
p67
sVvalue
p68
Vhttp://dbpedia.org/ontology/areaTotal
p69
ssg8
(dp70
Vdatatype
p71
Vhttp://www.w3.org/2001/XMLSchema#double
p72
sVtype
p73
Vtyped-literal
p74
sVvalue
p75
V1.0026e+08
p76
ssa(dp77
g7
(dp78
Vtype
p79
Vuri
p80
sVvalue
p81
Vhttp://dbpedia.org/ontology/foundingDate
p82
ssg8
(dp83
Vdatatype
p84
Vhttp://www.w3.org/2001/XMLSchema#date
p85
sVtype
p86
Vtyped-literal
p87
sVvalue
p88
V1998-03-21
p89
ssa(dp90
g7
(dp91
Vtype
p92
Vuri
p93
sVvalue
p94
Vhttp://dbpedia.org/ontology/leaderTitle
p95
ssg8
(dp96
Vxml:lang
p97
Ven
p98
sVtype
p99
Vliteral
p100
sVvalue
p101
VMayor
p102
ssa(dp103
g7
(dp104
Vtype
p105
Vuri
p106
sVvalue
p107
Vhttp://dbpedia.org/ontology/motto
p108
ssg8
(dp109
Vtype
p110
Vliteral
p111
sVvalue
p112
VDeo servire populo sufficere
p113
ssa(dp114
g7
(dp115
Vtype
p116
Vuri
p117
sVvalue
p118
Vhttp://dbpedia.org/ontology/populationTotal
p119
ssg8
(dp120
Vdatatype
p121
Vhttp://www.w3.org/2001/XMLSchema#nonNegativeInteger
p122
sVtype
p123
Vtyped-literal
p124
sVvalue
p125
V125451
p126
ssa(dp127
g7
(dp128
Vtype
p129
Vuri
p130
sVvalue
p131
Vhttp://dbpedia.org/ontology/postalCode
p132
ssg8
(dp133
Vtype
p134
Vliteral
p135
sVvalue
p136
VP281
p137
ssa(dp138
g7
(dp139
Vtype
p140
Vuri
p141
sVvalue
p142
Vhttp://dbpedia.org/ontology/utcOffset
p143
ssg8
(dp144
Vtype
p145
Vliteral
p146
sVvalue
p147
V+8
p148
ssa(dp149
g7
(dp150
Vtype
p151
Vuri
p152
sVvalue
p153
Vhttp://dbpedia.org/ontology/wikiPageExtracted
p154
ssg8
(dp155
Vdatatype
p156
Vhttp://www.w3.org/2001/XMLSchema#dateTime
p157
sVtype
p158
Vtyped-literal
p159
sVvalue
p160
V2016-11-07T15:53:54Z
p161
ssa(dp162
g7
(dp163
Vtype
p164
Vuri
p165
sVvalue
p166
Vhttp://dbpedia.org/ontology/wikiPageLength
p167
ssg8
(dp168
Vdatatype
p169
Vhttp://www.w3.org/2001/XMLSchema#nonNegativeInteger
p170
sVtype
p171
Vtyped-literal
p172
sVvalue
p173
V15478
p174
ssa(dp175
g7
(dp176
Vtype
p177
Vuri
p178
sVvalue
p179
Vhttp://dbpedia.org/ontology/wikiPageModified
p180
ssg8
(dp181
Vdatatype
p182
Vhttp://www.w3.org/2001/XMLSchema#dateTime
p183
sVtype
p184
Vtyped-literal
p185
sVvalue
p186
V2016-11-07T05:49:43Z
p187
ssa(dp188
g7
(dp189
Vtype
p190
Vuri
p191
sVvalue
p192
Vhttp://dbpedia.org/ontology/wikiPageOutDegree
p193
ssg8
(dp194
Vdatatype
p195
Vhttp://www.w3.org/2001/XMLSchema#nonNegativeInteger
p196
sVtype
p197
Vtyped-literal
p198
sVvalue
p199
V43
p200
ssasVordered
p201
I01
ss.