(dp0
Vhead
p1
(dp2
Vlink
p3
(lp4
sVvars
p5
(lp6
Vp
p7
aVo
p8
assVresults
p9
(dp10
Vdistinct
p11
I00
sVbindings
p12
(lp13
(dp14
g7
(dp15
Vtype
p16
Vuri
p17
sVvalue
p18
Vhttp://dbpedia.org/ontology/PopulatedPlace/populationDensity
p19
ssg8
(dp20
Vdatatype
p21
Vhttp://dbpedia.org/datatype/inhabitantsPerSquareKilometre
p22
sVtype
p23
Vtyped-literal
p24
sVvalue
p25
V261.6
p26
ssa(dp27
g7
(dp28
Vtype
p29
Vuri
p30
sVvalue
p31
Vhttp://dbpedia.org/ontology/PopulatedPlace/populationDensity
p32
ssg8
(dp33
Vdatatype
p34
Vhttp://dbpedia.org/datatype/inhabitantsPerSquareKilometre
p35
sVtype
p36
Vtyped-literal
p37
sVvalue
p38
V261.62282262836135
p39
ssa(dp40
g7
(dp41
Vtype
p42
Vuri
p43
sVvalue
p44
Vhttp://dbpedia.org/ontology/abstract
p45
ssg8
(dp46
Vxml:lang
p47
Ven
p48
sVtype
p49
Vliteral
p50
sVvalue
p51
VParks is a village in St. Martin Parish, Louisiana, United States. The population was 653 at the 2010 census. It is part of the Lafayette Metropolitan Statistical Area.
p52
ssa(dp53
g7
(dp54
Vtype
p55
Vuri
p56
sVvalue
p57
Vhttp://dbpedia.org/ontology/areaCode
p58
ssg8
(dp59
Vtype
p60
Vliteral
p61
sVvalue
p62
V337
p63
ssa(dp64
g7
(dp65
Vtype
p66
Vuri
p67
sVvalue
p68
Vhttp://dbpedia.org/ontology/leaderTitle
p69
ssg8
(dp70
Vxml:lang
p71
Ven
p72
sVtype
p73
Vliteral
p74
sVvalue
p75
VMayor
p76
ssa(dp77
g7
(dp78
Vtype
p79
Vuri
p80
sVvalue
p81
Vhttp://dbpedia.org/ontology/leaderTitle
p82
ssg8
(dp83
Vxml:lang
p84
Ven
p85
sVtype
p86
Vliteral
p87
sVvalue
p88
VChief Of Police
p89
ssa(dp90
g7
(dp91
Vtype
p92
Vuri
p93
sVvalue
p94
Vhttp://dbpedia.org/ontology/leaderTitle
p95
ssg8
(dp96
Vxml:lang
p97
Ven
p98
sVtype
p99
Vliteral
p100
sVvalue
p101
VAlderman
p102
ssa(dp103
g7
(dp104
Vtype
p105
Vuri
p106
sVvalue
p107
Vhttp://dbpedia.org/ontology/populationDensity
p108
ssg8
(dp109
Vdatatype
p110
Vhttp://www.w3.org/2001/XMLSchema#double
p111
sVtype
p112
Vtyped-literal
p113
sVvalue
p114
V261.6
p115
ssa(dp116
g7
(dp117
Vtype
p118
Vuri
p119
sVvalue
p120
Vhttp://dbpedia.org/ontology/populationDensity
p121
ssg8
(dp122
Vdatatype
p123
Vhttp://www.w3.org/2001/XMLSchema#double
p124
sVtype
p125
Vtyped-literal
p126
sVvalue
p127
V261.623
p128
ssa(dp129
g7
(dp130
Vtype
p131
Vuri
p132
sVvalue
p133
Vhttp://dbpedia.org/ontology/populationTotal
p134
ssg8
(dp135
Vdatatype
p136
Vhttp://www.w3.org/2001/XMLSchema#nonNegativeInteger
p137
sVtype
p138
Vtyped-literal
p139
sVvalue
p140
V671
p141
ssa(dp142
g7
(dp143
Vtype
p144
Vuri
p145
sVvalue
p146
Vhttp://dbpedia.org/ontology/postalCode
p147
ssg8
(dp148
Vtype
p149
Vliteral
p150
sVvalue
p151
V70582
p152
ssa(dp153
g7
(dp154
Vtype
p155
Vuri
p156
sVvalue
p157
Vhttp://dbpedia.org/ontology/utcOffset
p158
ssg8
(dp159
Vtype
p160
Vliteral
p161
sVvalue
p162
V-5
p163
ssa(dp164
g7
(dp165
Vtype
p166
Vuri
p167
sVvalue
p168
Vhttp://dbpedia.org/ontology/utcOffset
p169
ssg8
(dp170
Vtype
p171
Vliteral
p172
sVvalue
p173
V-6
p174
ssa(dp175
g7
(dp176
Vtype
p177
Vuri
p178
sVvalue
p179
Vhttp://dbpedia.org/ontology/wikiPageExtracted
p180
ssg8
(dp181
Vdatatype
p182
Vhttp://www.w3.org/2001/XMLSchema#dateTime
p183
sVtype
p184
Vtyped-literal
p185
sVvalue
p186
V2016-11-04T08:29:20Z
p187
ssa(dp188
g7
(dp189
Vtype
p190
Vuri
p191
sVvalue
p192
Vhttp://dbpedia.org/ontology/wikiPageLength
p193
ssg8
(dp194
Vdatatype
p195
Vhttp://www.w3.org/2001/XMLSchema#nonNegativeInteger
p196
sVtype
p197
Vtyped-literal
p198
sVvalue
p199
V8636
p200
ssa(dp201
g7
(dp202
Vtype
p203
Vuri
p204
sVvalue
p205
Vhttp://dbpedia.org/ontology/wikiPageModified
p206
ssg8
(dp207
Vdatatype
p208
Vhttp://www.w3.org/2001/XMLSchema#dateTime
p209
sVtype
p210
Vtyped-literal
p211
sVvalue
p212
V2016-07-22T23:06:34Z
p213
ssa(dp214
g7
(dp215
Vtype
p216
Vuri
p217
sVvalue
p218
Vhttp://dbpedia.org/ontology/wikiPageOutDegree
p219
ssg8
(dp220
Vdatatype
p221
Vhttp://www.w3.org/2001/XMLSchema#nonNegativeInteger
p222
sVtype
p223
Vtyped-literal
p224
sVvalue
p225
V50
p226
ssasVordered
p227
I01
ss.