(dp0
Vhead
p1
(dp2
Vlink
p3
(lp4
sVvars
p5
(lp6
Vp
p7
aVo
p8
assVresults
p9
(dp10
Vdistinct
p11
I00
sVbindings
p12
(lp13
(dp14
g7
(dp15
Vtype
p16
Vuri
p17
sVvalue
p18
Vhttp://dbpedia.org/ontology/Engine/cylinderBore
p19
ssg8
(dp20
Vdatatype
p21
Vhttp://dbpedia.org/datatype/millimetre
p22
sVtype
p23
Vtyped-literal
p24
sVvalue
p25
V80.0
p26
ssa(dp27
g7
(dp28
Vtype
p29
Vuri
p30
sVvalue
p31
Vhttp://dbpedia.org/ontology/Engine/cylinderBore
p32
ssg8
(dp33
Vdatatype
p34
Vhttp://dbpedia.org/datatype/millimetre
p35
sVtype
p36
Vtyped-literal
p37
sVvalue
p38
V86.0
p39
ssa(dp40
g7
(dp41
Vtype
p42
Vuri
p43
sVvalue
p44
Vhttp://dbpedia.org/ontology/Engine/cylinderBore
p45
ssg8
(dp46
Vdatatype
p47
Vhttp://dbpedia.org/datatype/millimetre
p48
sVtype
p49
Vtyped-literal
p50
sVvalue
p51
V87.5
p52
ssa(dp53
g7
(dp54
Vtype
p55
Vuri
p56
sVvalue
p57
Vhttp://dbpedia.org/ontology/Engine/cylinderBore
p58
ssg8
(dp59
Vdatatype
p60
Vhttp://dbpedia.org/datatype/millimetre
p61
sVtype
p62
Vtyped-literal
p63
sVvalue
p64
V81.6
p65
ssa(dp66
g7
(dp67
Vtype
p68
Vuri
p69
sVvalue
p70
Vhttp://dbpedia.org/ontology/Engine/cylinderBore
p71
ssg8
(dp72
Vdatatype
p73
Vhttp://dbpedia.org/datatype/millimetre
p74
sVtype
p75
Vtyped-literal
p76
sVvalue
p77
V82.0
p78
ssa(dp79
g7
(dp80
Vtype
p81
Vuri
p82
sVvalue
p83
Vhttp://dbpedia.org/ontology/Engine/cylinderBore
p84
ssg8
(dp85
Vdatatype
p86
Vhttp://dbpedia.org/datatype/millimetre
p87
sVtype
p88
Vtyped-literal
p89
sVvalue
p90
V84.8
p91
ssa(dp92
g7
(dp93
Vtype
p94
Vuri
p95
sVvalue
p96
Vhttp://dbpedia.org/ontology/Engine/displacement
p97
ssg8
(dp98
Vdatatype
p99
Vhttp://dbpedia.org/datatype/cubicCentimetre
p100
sVtype
p101
Vtyped-literal
p102
sVvalue
p103
V1598.0
p104
ssa(dp105
g7
(dp106
Vtype
p107
Vuri
p108
sVvalue
p109
Vhttp://dbpedia.org/ontology/Engine/displacement
p110
ssg8
(dp111
Vdatatype
p112
Vhttp://dbpedia.org/datatype/cubicCentimetre
p113
sVtype
p114
Vtyped-literal
p115
sVvalue
p116
V1799.0
p117
ssa(dp118
g7
(dp119
Vtype
p120
Vuri
p121
sVvalue
p122
Vhttp://dbpedia.org/ontology/Engine/pistonStroke
p123
ssg8
(dp124
Vdatatype
p125
Vhttp://dbpedia.org/datatype/millimetre
p126
sVtype
p127
Vtyped-literal
p128
sVvalue
p129
V86.0
p130
ssa(dp131
g7
(dp132
Vtype
p133
Vuri
p134
sVvalue
p135
Vhttp://dbpedia.org/ontology/Engine/pistonStroke
p136
ssg8
(dp137
Vdatatype
p138
Vhttp://dbpedia.org/datatype/millimetre
p139
sVtype
p140
Vtyped-literal
p141
sVvalue
p142
V94.6
p143
ssa(dp144
g7
(dp145
Vtype
p146
Vuri
p147
sVvalue
p148
Vhttp://dbpedia.org/ontology/Engine/pistonStroke
p149
ssg8
(dp150
Vdatatype
p151
Vhttp://dbpedia.org/datatype/millimetre
p152
sVtype
p153
Vtyped-literal
p154
sVvalue
p155
V79.5
p156
ssa(dp157
g7
(dp158
Vtype
p159
Vuri
p160
sVvalue
p161
Vhttp://dbpedia.org/ontology/Engine/pistonStroke
p162
ssg8
(dp163
Vdatatype
p164
Vhttp://dbpedia.org/datatype/millimetre
p165
sVtype
p166
Vtyped-literal
p167
sVvalue
p168
V100.0
p169
ssa(dp170
g7
(dp171
Vtype
p172
Vuri
p173
sVvalue
p174
Vhttp://dbpedia.org/ontology/cylinderBore
p175
ssg8
(dp176
Vdatatype
p177
Vhttp://www.w3.org/2001/XMLSchema#double
p178
sVtype
p179
Vtyped-literal
p180
sVvalue
p181
V0.08
p182
ssa(dp183
g7
(dp184
Vtype
p185
Vuri
p186
sVvalue
p187
Vhttp://dbpedia.org/ontology/cylinderBore
p188
ssg8
(dp189
Vdatatype
p190
Vhttp://www.w3.org/2001/XMLSchema#double
p191
sVtype
p192
Vtyped-literal
p193
sVvalue
p194
V0.0816
p195
ssa(dp196
g7
(dp197
Vtype
p198
Vuri
p199
sVvalue
p200
Vhttp://dbpedia.org/ontology/cylinderBore
p201
ssg8
(dp202
Vdatatype
p203
Vhttp://www.w3.org/2001/XMLSchema#double
p204
sVtype
p205
Vtyped-literal
p206
sVvalue
p207
V0.082
p208
ssa(dp209
g7
(dp210
Vtype
p211
Vuri
p212
sVvalue
p213
Vhttp://dbpedia.org/ontology/cylinderBore
p214
ssg8
(dp215
Vdatatype
p216
Vhttp://www.w3.org/2001/XMLSchema#double
p217
sVtype
p218
Vtyped-literal
p219
sVvalue
p220
V0.0848
p221
ssa(dp222
g7
(dp223
Vtype
p224
Vuri
p225
sVvalue
p226
Vhttp://dbpedia.org/ontology/cylinderBore
p227
ssg8
(dp228
Vdatatype
p229
Vhttp://www.w3.org/2001/XMLSchema#double
p230
sVtype
p231
Vtyped-literal
p232
sVvalue
p233
V0.086
p234
ssa(dp235
g7
(dp236
Vtype
p237
Vuri
p238
sVvalue
p239
Vhttp://dbpedia.org/ontology/cylinderBore
p240
ssg8
(dp241
Vdatatype
p242
Vhttp://www.w3.org/2001/XMLSchema#double
p243
sVtype
p244
Vtyped-literal
p245
sVvalue
p246
V0.0875
p247
ssa(dp248
g7
(dp249
Vtype
p250
Vuri
p251
sVvalue
p252
Vhttp://dbpedia.org/ontology/pistonStroke
p253
ssg8
(dp254
Vdatatype
p255
Vhttp://www.w3.org/2001/XMLSchema#double
p256
sVtype
p257
Vtyped-literal
p258
sVvalue
p259
V0.0795
p260
ssa(dp261
g7
(dp262
Vtype
p263
Vuri
p264
sVvalue
p265
Vhttp://dbpedia.org/ontology/pistonStroke
p266
ssg8
(dp267
Vdatatype
p268
Vhttp://www.w3.org/2001/XMLSchema#double
p269
sVtype
p270
Vtyped-literal
p271
sVvalue
p272
V0.086
p273
ssa(dp274
g7
(dp275
Vtype
p276
Vuri
p277
sVvalue
p278
Vhttp://dbpedia.org/ontology/pistonStroke
p279
ssg8
(dp280
Vdatatype
p281
Vhttp://www.w3.org/2001/XMLSchema#double
p282
sVtype
p283
Vtyped-literal
p284
sVvalue
p285
V0.0946
p286
ssa(dp287
g7
(dp288
Vtype
p289
Vuri
p290
sVvalue
p291
Vhttp://dbpedia.org/ontology/pistonStroke
p292
ssg8
(dp293
Vdatatype
p294
Vhttp://www.w3.org/2001/XMLSchema#double
p295
sVtype
p296
Vtyped-literal
p297
sVvalue
p298
V0.1
p299
ssa(dp300
g7
(dp301
Vtype
p302
Vuri
p303
sVvalue
p304
Vhttp://dbpedia.org/ontology/abstract
p305
ssg8
(dp306
Vxml:lang
p307
Ven
p308
sVtype
p309
Vliteral
p310
sVvalue
p311
VThe Family II is a straight-4 piston engine that was originally developed by Opel in the 1970s, debuting in 1979. Available in a wide range of cubic capacities ranging from 1598 to 2405cc, it simultaneously replaced the Opel OHV, Opel CIH and Vauxhall Slant-4 engines, and was GM Europe's core powerplant design for much of the 1980s.The engine features a cast iron block, an aluminum head, and a timing belt driven valvetrain. The timing belt also drives the water pump. It was first used in the Opel Kadett D, Ascona B, Corsa and their corresponding Vauxhall sister models, the Astra, Cavalier and Nova. Many General Motors subsidiaries, including Daewoo, GM do Brasil, GM Powertrain, and Holden have used this design.By 1986, the Family II unit had completely supplanted the CIH engine as Opel's core 4-cylinder powerplant. although the 6-cylinder versions of the CIH continued in the larger Omega and Senator models until 1995.In 2004, a 2.0 L MultiPower engine was made available for the taxi market which could use gasoline, alcohol and natural gas.The Family II also spawned two diesel variants, the 1.6 L and 1.7 L. These engines are sometimes referred to as "Big-block" engines by enthusiasts; in contrast to the smaller Family 1 engines which are sometimes referred to as the "Small-block" engines.The development track of these engines split in 1987, with the introduction of the 20XE; which featured a 16-valve DOHC head. Although SOHC versions are still in production in Brazil, most DOHC engines were replaced by the all-aluminum GM Ecotec engine family.Holden made various Family II engines for Opel, GM Daewoo, GM India, and Isuzu at its Port Melbourne plant. Variations include displacements from 1.8 L to 2.4 L. Unlike the Ecotec engines, the block is made of iron.
p312
ssa(dp313
g7
(dp314
Vtype
p315
Vuri
p316
sVvalue
p317
Vhttp://dbpedia.org/ontology/abstract
p318
ssg8
(dp319
Vxml:lang
p320
Ven
p321
sVtype
p322
Vliteral
p323
sVvalue
p324
VThe Family II is a straight-4 piston engine that was originally developed by Opel in the 1970s, debuting in 1979. Available in a wide range of cubic capacities ranging from 1598 to 2405cc, it simultaneously replaced the Opel OHV, Opel CIH and Vauxhall Slant-4 engines, and was GM Europe's core powerplant design for much of the 1980s.The engine features a cast iron block, an aluminium head, and a timing belt driven valvetrain. The timing belt also drives the water pump. It was first used in the Opel Kadett D, Ascona B, Corsa and their corresponding Vauxhall sister models, the Astra, Cavalier and Nova. Many General Motors subsidiaries, including Daewoo, GM do Brasil, GM Powertrain, and Holden have used this design.By 1986, the Family II unit had completely supplanted the CIH engine as Opel's core 4-cylinder powerplant. although the 6-cylinder versions of the CIH continued in the larger Omega and Senator models until 1995.In 2004, a 2.0 L MultiPower engine was made available for the taxi market which could use gasoline, alcohol and natural gas.The Family II also spawned two diesel variants, the 1.6 L and 1.7 L. These engines are sometimes referred to as "Big-block" engines by enthusiasts; in contrast to the smaller Family 1 engines which are sometimes referred to as the "Small-block" engines.The development track of these engines split in 1987, with the introduction of the 20XE; which featured a 16-valve DOHC head. Although SOHC versions are still in production in Brazil, most DOHC engines were replaced by the all-aluminium GM Ecotec engine family.Holden made various Family II engines for Opel, GM Daewoo, GM India, and Isuzu at its Port Melbourne plant. Variations include displacements from 1.8 L to 2.4 L. Unlike the Ecotec engines, the block is made of iron.
p325
ssa(dp326
g7
(dp327
Vtype
p328
Vuri
p329
sVvalue
p330
Vhttp://dbpedia.org/ontology/productionEndYear
p331
ssg8
(dp332
Vdatatype
p333
Vhttp://www.w3.org/2001/XMLSchema#gYear
p334
sVtype
p335
Vtyped-literal
p336
sVvalue
p337
V1999
p338
ssa(dp339
g7
(dp340
Vtype
p341
Vuri
p342
sVvalue
p343
Vhttp://dbpedia.org/ontology/productionStartYear
p344
ssg8
(dp345
Vdatatype
p346
Vhttp://www.w3.org/2001/XMLSchema#gYear
p347
sVtype
p348
Vtyped-literal
p349
sVvalue
p350
V1980
p351
ssa(dp352
g7
(dp353
Vtype
p354
Vuri
p355
sVvalue
p356
Vhttp://dbpedia.org/ontology/productionStartYear
p357
ssg8
(dp358
Vdatatype
p359
Vhttp://www.w3.org/2001/XMLSchema#gYear
p360
sVtype
p361
Vtyped-literal
p362
sVvalue
p363
V1987
p364
ssa(dp365
g7
(dp366
Vtype
p367
Vuri
p368
sVvalue
p369
Vhttp://dbpedia.org/ontology/wikiPageExtracted
p370
ssg8
(dp371
Vdatatype
p372
Vhttp://www.w3.org/2001/XMLSchema#dateTime
p373
sVtype
p374
Vtyped-literal
p375
sVvalue
p376
V2016-10-30T18:37:57Z
p377
ssa(dp378
g7
(dp379
Vtype
p380
Vuri
p381
sVvalue
p382
Vhttp://dbpedia.org/ontology/wikiPageLength
p383
ssg8
(dp384
Vdatatype
p385
Vhttp://www.w3.org/2001/XMLSchema#nonNegativeInteger
p386
sVtype
p387
Vtyped-literal
p388
sVvalue
p389
V35574
p390
ssa(dp391
g7
(dp392
Vtype
p393
Vuri
p394
sVvalue
p395
Vhttp://dbpedia.org/ontology/wikiPageModified
p396
ssg8
(dp397
Vdatatype
p398
Vhttp://www.w3.org/2001/XMLSchema#dateTime
p399
sVtype
p400
Vtyped-literal
p401
sVvalue
p402
V2016-10-30T05:09:12Z
p403
ssa(dp404
g7
(dp405
Vtype
p406
Vuri
p407
sVvalue
p408
Vhttp://dbpedia.org/ontology/wikiPageOutDegree
p409
ssg8
(dp410
Vdatatype
p411
Vhttp://www.w3.org/2001/XMLSchema#nonNegativeInteger
p412
sVtype
p413
Vtyped-literal
p414
sVvalue
p415
V275
p416
ssa(dp417
g7
(dp418
Vtype
p419
Vuri
p420
sVvalue
p421
Vhttp://dbpedia.org/ontology/fuelType
p422
ssg8
(dp423
Vdatatype
p424
Vhttp://dbpedia.org/datatype/fuelType
p425
sVtype
p426
Vtyped-literal
p427
sVvalue
p428
Vdiesel
p429
ssa(dp430
g7
(dp431
Vtype
p432
Vuri
p433
sVvalue
p434
Vhttp://dbpedia.org/ontology/displacement
p435
ssg8
(dp436
Vdatatype
p437
Vhttp://www.w3.org/2001/XMLSchema#double
p438
sVtype
p439
Vtyped-literal
p440
sVvalue
p441
V0.001598
p442
ssa(dp443
g7
(dp444
Vtype
p445
Vuri
p446
sVvalue
p447
Vhttp://dbpedia.org/ontology/displacement
p448
ssg8
(dp449
Vdatatype
p450
Vhttp://www.w3.org/2001/XMLSchema#double
p451
sVtype
p452
Vtyped-literal
p453
sVvalue
p454
V0.001799
p455
ssa(dp456
g7
(dp457
Vtype
p458
Vuri
p459
sVvalue
p460
Vhttp://dbpedia.org/ontology/compressionRatio
p461
ssg8
(dp462
Vtype
p463
Vliteral
p464
sVvalue
p465
V9.2:1
p466
ssa(dp467
g7
(dp468
Vtype
p469
Vuri
p470
sVvalue
p471
Vhttp://dbpedia.org/ontology/compressionRatio
p472
ssg8
(dp473
Vtype
p474
Vliteral
p475
sVvalue
p476
V8.0:1
p477
ssa(dp478
g7
(dp479
Vtype
p480
Vuri
p481
sVvalue
p482
Vhttp://dbpedia.org/ontology/compressionRatio
p483
ssg8
(dp484
Vtype
p485
Vliteral
p486
sVvalue
p487
V9.5:1
p488
ssa(dp489
g7
(dp490
Vtype
p491
Vuri
p492
sVvalue
p493
Vhttp://dbpedia.org/ontology/compressionRatio
p494
ssg8
(dp495
Vtype
p496
Vliteral
p497
sVvalue
p498
V10.0:1
p499
ssasVordered
p500
I01
ss.