(dp0
Vhead
p1
(dp2
Vlink
p3
(lp4
sVvars
p5
(lp6
Vp
p7
aVo
p8
assVresults
p9
(dp10
Vdistinct
p11
I00
sVbindings
p12
(lp13
(dp14
g7
(dp15
Vtype
p16
Vuri
p17
sVvalue
p18
Vhttp://dbpedia.org/ontology/abstract
p19
ssg8
(dp20
Vxml:lang
p21
Ven
p22
sVtype
p23
Vliteral
p24
sVvalue
p25
VGalabovo (Bulgarian: \u0413\u044a\u043b\u044a\u0431\u043e\u0432\u043e [\u02c8\u0261\u0259l\u0259b\u0254v\u0254], from \u0433\u044a\u043b\u044a\u0431 galab, "dove" + -ovo) is a town in south-central Bulgaria, part of Stara Zagora Province. It is the administrative centre of the homonymous Galabovo Municipality. As of December 2009, the town has a population of 8,404 inhabitants.Galabovo is located in the southeastern part of the Upper Thracian Plain, in a region economically important due to the extraction of coal and production of electricity in the region. The Maritsa Iztok-1 power plant is situated nearby. The population is predominantly Bulgarian and Bulgarian Orthodox, the employment is pretty high, with the residents employed for the most part in the coal, compressed slacks and electricity industry.
p26
ssa(dp27
g7
(dp28
Vtype
p29
Vuri
p30
sVvalue
p31
Vhttp://dbpedia.org/ontology/areaCode
p32
ssg8
(dp33
Vtype
p34
Vliteral
p35
sVvalue
p36
V0418
p37
ssa(dp38
g7
(dp39
Vtype
p40
Vuri
p41
sVvalue
p42
Vhttp://dbpedia.org/ontology/elevation
p43
ssg8
(dp44
Vdatatype
p45
Vhttp://www.w3.org/2001/XMLSchema#double
p46
sVtype
p47
Vtyped-literal
p48
sVvalue
p49
V83.0
p50
ssa(dp51
g7
(dp52
Vtype
p53
Vuri
p54
sVvalue
p55
Vhttp://dbpedia.org/ontology/leaderTitle
p56
ssg8
(dp57
Vxml:lang
p58
Ven
p59
sVtype
p60
Vliteral
p61
sVvalue
p62
VMayor
p63
ssa(dp64
g7
(dp65
Vtype
p66
Vuri
p67
sVvalue
p68
Vhttp://dbpedia.org/ontology/populationAsOf
p69
ssg8
(dp70
Vdatatype
p71
Vhttp://www.w3.org/2001/XMLSchema#date
p72
sVtype
p73
Vtyped-literal
p74
sVvalue
p75
V2009-12-31
p76
ssa(dp77
g7
(dp78
Vtype
p79
Vuri
p80
sVvalue
p81
Vhttp://dbpedia.org/ontology/populationTotal
p82
ssg8
(dp83
Vdatatype
p84
Vhttp://www.w3.org/2001/XMLSchema#nonNegativeInteger
p85
sVtype
p86
Vtyped-literal
p87
sVvalue
p88
V8404
p89
ssa(dp90
g7
(dp91
Vtype
p92
Vuri
p93
sVvalue
p94
Vhttp://dbpedia.org/ontology/postalCode
p95
ssg8
(dp96
Vtype
p97
Vliteral
p98
sVvalue
p99
V6280
p100
ssa(dp101
g7
(dp102
Vtype
p103
Vuri
p104
sVvalue
p105
Vhttp://dbpedia.org/ontology/utcOffset
p106
ssg8
(dp107
Vtype
p108
Vliteral
p109
sVvalue
p110
V+2
p111
ssa(dp112
g7
(dp113
Vtype
p114
Vuri
p115
sVvalue
p116
Vhttp://dbpedia.org/ontology/utcOffset
p117
ssg8
(dp118
Vtype
p119
Vliteral
p120
sVvalue
p121
V+3
p122
ssa(dp123
g7
(dp124
Vtype
p125
Vuri
p126
sVvalue
p127
Vhttp://dbpedia.org/ontology/wikiPageExtracted
p128
ssg8
(dp129
Vdatatype
p130
Vhttp://www.w3.org/2001/XMLSchema#dateTime
p131
sVtype
p132
Vtyped-literal
p133
sVvalue
p134
V2016-10-30T19:07:54Z
p135
ssa(dp136
g7
(dp137
Vtype
p138
Vuri
p139
sVvalue
p140
Vhttp://dbpedia.org/ontology/wikiPageLength
p141
ssg8
(dp142
Vdatatype
p143
Vhttp://www.w3.org/2001/XMLSchema#nonNegativeInteger
p144
sVtype
p145
Vtyped-literal
p146
sVvalue
p147
V3150
p148
ssa(dp149
g7
(dp150
Vtype
p151
Vuri
p152
sVvalue
p153
Vhttp://dbpedia.org/ontology/wikiPageModified
p154
ssg8
(dp155
Vdatatype
p156
Vhttp://www.w3.org/2001/XMLSchema#dateTime
p157
sVtype
p158
Vtyped-literal
p159
sVvalue
p160
V2016-02-11T15:58:34Z
p161
ssa(dp162
g7
(dp163
Vtype
p164
Vuri
p165
sVvalue
p166
Vhttp://dbpedia.org/ontology/wikiPageOutDegree
p167
ssg8
(dp168
Vdatatype
p169
Vhttp://www.w3.org/2001/XMLSchema#nonNegativeInteger
p170
sVtype
p171
Vtyped-literal
p172
sVvalue
p173
V29
p174
ssasVordered
p175
I01
ss.