(dp0
Vhead
p1
(dp2
Vlink
p3
(lp4
sVvars
p5
(lp6
Vp
p7
aVo
p8
assVresults
p9
(dp10
Vdistinct
p11
I00
sVbindings
p12
(lp13
(dp14
g7
(dp15
Vtype
p16
Vuri
p17
sVvalue
p18
Vhttp://dbpedia.org/ontology/abstract
p19
ssg8
(dp20
Vxml:lang
p21
Ven
p22
sVtype
p23
Vliteral
p24
sVvalue
p25
VPusan National University (PNU, also called Busan National University) is one of ten flagship Korean national universities and a leading university in South Korea. Located mainly in Busan (or Pusan), the university's English name is a translation of its former Korean name, "Gungnip Pusan Daehakgyo" (\uad6d\ub9bd \ubd80\uc0b0 \ub300\ud559\uad50), but has since dropped "national" from its Korean moniker.Continually ranked among one of top 500 world universities by ARWU World University Ranking and QS Top Universities Ranking, Pusan National University is one of only ten Korean universities ranked in both ARWU World University Ranking and QS Top Universities Ranking in 2010. In QS Top Universities Ranking 2010, Pusan National University is ranked in top five in social sciences and management, sixth in engineering and technology, sixth in life science and medicine, and ninth in arts and humanities  among Korean universities. Pusan National University is one of only five Korean universities ranked in four subject areas in QS Top Universities Ranking 2010.
p26
ssa(dp27
g7
(dp28
Vtype
p29
Vuri
p30
sVvalue
p31
Vhttp://dbpedia.org/ontology/wikiPageExtracted
p32
ssg8
(dp33
Vdatatype
p34
Vhttp://www.w3.org/2001/XMLSchema#dateTime
p35
sVtype
p36
Vtyped-literal
p37
sVvalue
p38
V2016-11-04T21:16:36Z
p39
ssa(dp40
g7
(dp41
Vtype
p42
Vuri
p43
sVvalue
p44
Vhttp://dbpedia.org/ontology/wikiPageLength
p45
ssg8
(dp46
Vdatatype
p47
Vhttp://www.w3.org/2001/XMLSchema#nonNegativeInteger
p48
sVtype
p49
Vtyped-literal
p50
sVvalue
p51
V3738
p52
ssa(dp53
g7
(dp54
Vtype
p55
Vuri
p56
sVvalue
p57
Vhttp://dbpedia.org/ontology/wikiPageModified
p58
ssg8
(dp59
Vdatatype
p60
Vhttp://www.w3.org/2001/XMLSchema#dateTime
p61
sVtype
p62
Vtyped-literal
p63
sVvalue
p64
V2016-07-29T10:54:51Z
p65
ssa(dp66
g7
(dp67
Vtype
p68
Vuri
p69
sVvalue
p70
Vhttp://dbpedia.org/ontology/wikiPageOutDegree
p71
ssg8
(dp72
Vdatatype
p73
Vhttp://www.w3.org/2001/XMLSchema#nonNegativeInteger
p74
sVtype
p75
Vtyped-literal
p76
sVvalue
p77
V16
p78
ssasVordered
p79
I01
ss.