(dp0
Vhead
p1
(dp2
Vlink
p3
(lp4
sVvars
p5
(lp6
Vp
p7
aVo
p8
assVresults
p9
(dp10
Vdistinct
p11
I00
sVbindings
p12
(lp13
(dp14
g7
(dp15
Vtype
p16
Vuri
p17
sVvalue
p18
Vhttp://dbpedia.org/ontology/isPartOfName
p19
ssg8
(dp20
Vtype
p21
Vliteral
p22
sVvalue
p23
V20pxJapan National Route 140
p24
ssa(dp25
g7
(dp26
Vtype
p27
Vuri
p28
sVvalue
p29
Vhttp://dbpedia.org/ontology/abstract
p30
ssg8
(dp31
Vxml:lang
p32
Ven
p33
sVtype
p34
Vliteral
p35
sVvalue
p36
VThe Karisaka Tunnel is a Japanese toll tunnel that opened April 23, 1998 between Chichibu, Saitama Prefecture and Yamanashi City, Yamanashi Prefecture. Until this tunnel opened, there was no direct road connection between Saitama and Yamanashi prefectures.
p37
ssa(dp38
g7
(dp39
Vtype
p40
Vuri
p41
sVvalue
p42
Vhttp://dbpedia.org/ontology/length
p43
ssg8
(dp44
Vdatatype
p45
Vhttp://www.w3.org/2001/XMLSchema#double
p46
sVtype
p47
Vtyped-literal
p48
sVvalue
p49
V6625.0
p50
ssa(dp51
g7
(dp52
Vtype
p53
Vuri
p54
sVvalue
p55
Vhttp://dbpedia.org/ontology/status
p56
ssg8
(dp57
Vtype
p58
Vliteral
p59
sVvalue
p60
VIn service
p61
ssa(dp62
g7
(dp63
Vtype
p64
Vuri
p65
sVvalue
p66
Vhttp://dbpedia.org/ontology/width
p67
ssg8
(dp68
Vdatatype
p69
Vhttp://www.w3.org/2001/XMLSchema#double
p70
sVtype
p71
Vtyped-literal
p72
sVvalue
p73
V7.5
p74
ssa(dp75
g7
(dp76
Vtype
p77
Vuri
p78
sVvalue
p79
Vhttp://dbpedia.org/ontology/wikiPageExtracted
p80
ssg8
(dp81
Vdatatype
p82
Vhttp://www.w3.org/2001/XMLSchema#dateTime
p83
sVtype
p84
Vtyped-literal
p85
sVvalue
p86
V2016-11-01T15:17:04Z
p87
ssa(dp88
g7
(dp89
Vtype
p90
Vuri
p91
sVvalue
p92
Vhttp://dbpedia.org/ontology/wikiPageLength
p93
ssg8
(dp94
Vdatatype
p95
Vhttp://www.w3.org/2001/XMLSchema#nonNegativeInteger
p96
sVtype
p97
Vtyped-literal
p98
sVvalue
p99
V3376
p100
ssa(dp101
g7
(dp102
Vtype
p103
Vuri
p104
sVvalue
p105
Vhttp://dbpedia.org/ontology/wikiPageModified
p106
ssg8
(dp107
Vdatatype
p108
Vhttp://www.w3.org/2001/XMLSchema#dateTime
p109
sVtype
p110
Vtyped-literal
p111
sVvalue
p112
V2013-04-20T23:07:48Z
p113
ssa(dp114
g7
(dp115
Vtype
p116
Vuri
p117
sVvalue
p118
Vhttp://dbpedia.org/ontology/wikiPageOutDegree
p119
ssg8
(dp120
Vdatatype
p121
Vhttp://www.w3.org/2001/XMLSchema#nonNegativeInteger
p122
sVtype
p123
Vtyped-literal
p124
sVvalue
p125
V24
p126
ssa(dp127
g7
(dp128
Vtype
p129
Vuri
p130
sVvalue
p131
Vhttp://dbpedia.org/ontology/yearOfConstruction
p132
ssg8
(dp133
Vdatatype
p134
Vhttp://www.w3.org/2001/XMLSchema#gYear
p135
sVtype
p136
Vtyped-literal
p137
sVvalue
p138
V1994
p139
ssa(dp140
g7
(dp141
Vtype
p142
Vuri
p143
sVvalue
p144
Vhttp://dbpedia.org/ontology/Infrastructure/length
p145
ssg8
(dp146
Vdatatype
p147
Vhttp://dbpedia.org/datatype/kilometre
p148
sVtype
p149
Vtyped-literal
p150
sVvalue
p151
V6.625
p152
ssa(dp153
g7
(dp154
Vtype
p155
Vuri
p156
sVvalue
p157
Vhttp://dbpedia.org/ontology/buildingStartYear
p158
ssg8
(dp159
Vdatatype
p160
Vhttp://www.w3.org/2001/XMLSchema#gYear
p161
sVtype
p162
Vtyped-literal
p163
sVvalue
p164
V1994
p165
ssa(dp166
g7
(dp167
Vtype
p168
Vuri
p169
sVvalue
p170
Vhttp://dbpedia.org/ontology/openingYear
p171
ssg8
(dp172
Vdatatype
p173
Vhttp://www.w3.org/2001/XMLSchema#gYear
p174
sVtype
p175
Vtyped-literal
p176
sVvalue
p177
V1998
p178
ssa(dp179
g7
(dp180
Vtype
p181
Vuri
p182
sVvalue
p183
Vhttp://dbpedia.org/ontology/buildingEndYear
p184
ssg8
(dp185
Vdatatype
p186
Vhttp://www.w3.org/2001/XMLSchema#gYear
p187
sVtype
p188
Vtyped-literal
p189
sVvalue
p190
V1994
p191
ssa(dp192
g7
(dp193
Vtype
p194
Vuri
p195
sVvalue
p196
Vhttp://dbpedia.org/ontology/speedLimit
p197
ssg8
(dp198
Vdatatype
p199
Vhttp://www.w3.org/2001/XMLSchema#double
p200
sVtype
p201
Vtyped-literal
p202
sVvalue
p203
V30.0
p204
ssa(dp205
g7
(dp206
Vtype
p207
Vuri
p208
sVvalue
p209
Vhttp://dbpedia.org/ontology/speedLimit
p210
ssg8
(dp211
Vdatatype
p212
Vhttp://www.w3.org/2001/XMLSchema#double
p213
sVtype
p214
Vtyped-literal
p215
sVvalue
p216
V40.0
p217
ssa(dp218
g7
(dp219
Vtype
p220
Vuri
p221
sVvalue
p222
Vhttp://dbpedia.org/ontology/toll
p223
ssg8
(dp224
Vdatatype
p225
Vhttp://dbpedia.org/datatype/japaneseYen
p226
sVtype
p227
Vtyped-literal
p228
sVvalue
p229
V1170.0
p230
ssa(dp231
g7
(dp232
Vtype
p233
Vuri
p234
sVvalue
p235
Vhttp://dbpedia.org/ontology/toll
p236
ssg8
(dp237
Vdatatype
p238
Vhttp://dbpedia.org/datatype/japaneseYen
p239
sVtype
p240
Vtyped-literal
p241
sVvalue
p242
V1980.0
p243
ssa(dp244
g7
(dp245
Vtype
p246
Vuri
p247
sVvalue
p248
Vhttp://dbpedia.org/ontology/toll
p249
ssg8
(dp250
Vdatatype
p251
Vhttp://dbpedia.org/datatype/japaneseYen
p252
sVtype
p253
Vtyped-literal
p254
sVvalue
p255
V70.0
p256
ssa(dp257
g7
(dp258
Vtype
p259
Vuri
p260
sVvalue
p261
Vhttp://dbpedia.org/ontology/toll
p262
ssg8
(dp263
Vdatatype
p264
Vhttp://dbpedia.org/datatype/japaneseYen
p265
sVtype
p266
Vtyped-literal
p267
sVvalue
p268
V710.0
p269
ssa(dp270
g7
(dp271
Vtype
p272
Vuri
p273
sVvalue
p274
Vhttp://dbpedia.org/ontology/toll
p275
ssg8
(dp276
Vdatatype
p277
Vhttp://dbpedia.org/datatype/japaneseYen
p278
sVtype
p279
Vtyped-literal
p280
sVvalue
p281
V860.0
p282
ssasVordered
p283
I01
ss.