(dp0
Vhead
p1
(dp2
Vlink
p3
(lp4
sVvars
p5
(lp6
Vp
p7
aVo
p8
assVresults
p9
(dp10
Vdistinct
p11
I00
sVbindings
p12
(lp13
(dp14
g7
(dp15
Vtype
p16
Vuri
p17
sVvalue
p18
Vhttp://dbpedia.org/ontology/abstract
p19
ssg8
(dp20
Vxml:lang
p21
Ven
p22
sVtype
p23
Vliteral
p24
sVvalue
p25
VSouth Carolina Western Railway Station, also known as the Seaboard Airline Railway Station, is a historic train station located at Darlington, Darlington County, South Carolina. It was built in 1911 by the South Carolina Western Railway, and is a rectangular, brick building with projecting rectangular bays at the center of two sides. The hipped roof features a bell-cast profile, red clay tile, wide bracketed eaves, and intersecting gables. Each gable conains a Palladian window. Lawrence Reese, an African-American master carpenter who had constructed many houses in Darlington, built the station.It was listed on the National Register of Historic Places in 1988.
p26
ssa(dp27
g7
(dp28
Vtype
p29
Vuri
p30
sVvalue
p31
Vhttp://dbpedia.org/ontology/added
p32
ssg8
(dp33
Vdatatype
p34
Vhttp://www.w3.org/2001/XMLSchema#date
p35
sVtype
p36
Vtyped-literal
p37
sVvalue
p38
V1988-02-10
p39
ssa(dp40
g7
(dp41
Vtype
p42
Vuri
p43
sVvalue
p44
Vhttp://dbpedia.org/ontology/nrhpReferenceNumber
p45
ssg8
(dp46
Vtype
p47
Vliteral
p48
sVvalue
p49
V88000040
p50
ssa(dp51
g7
(dp52
Vtype
p53
Vuri
p54
sVvalue
p55
Vhttp://dbpedia.org/ontology/wikiPageExtracted
p56
ssg8
(dp57
Vdatatype
p58
Vhttp://www.w3.org/2001/XMLSchema#dateTime
p59
sVtype
p60
Vtyped-literal
p61
sVvalue
p62
V2016-11-06T03:52:26Z
p63
ssa(dp64
g7
(dp65
Vtype
p66
Vuri
p67
sVvalue
p68
Vhttp://dbpedia.org/ontology/wikiPageLength
p69
ssg8
(dp70
Vdatatype
p71
Vhttp://www.w3.org/2001/XMLSchema#nonNegativeInteger
p72
sVtype
p73
Vtyped-literal
p74
sVvalue
p75
V2594
p76
ssa(dp77
g7
(dp78
Vtype
p79
Vuri
p80
sVvalue
p81
Vhttp://dbpedia.org/ontology/wikiPageModified
p82
ssg8
(dp83
Vdatatype
p84
Vhttp://www.w3.org/2001/XMLSchema#dateTime
p85
sVtype
p86
Vtyped-literal
p87
sVvalue
p88
V2016-06-21T08:09:11Z
p89
ssa(dp90
g7
(dp91
Vtype
p92
Vuri
p93
sVvalue
p94
Vhttp://dbpedia.org/ontology/wikiPageOutDegree
p95
ssg8
(dp96
Vdatatype
p97
Vhttp://www.w3.org/2001/XMLSchema#nonNegativeInteger
p98
sVtype
p99
Vtyped-literal
p100
sVvalue
p101
V12
p102
ssa(dp103
g7
(dp104
Vtype
p105
Vuri
p106
sVvalue
p107
Vhttp://dbpedia.org/ontology/yearOfConstruction
p108
ssg8
(dp109
Vdatatype
p110
Vhttp://www.w3.org/2001/XMLSchema#gYear
p111
sVtype
p112
Vtyped-literal
p113
sVvalue
p114
V1911
p115
ssasVordered
p116
I01
ss.