(dp0
Vhead
p1
(dp2
Vlink
p3
(lp4
sVvars
p5
(lp6
Vp
p7
aVo
p8
assVresults
p9
(dp10
Vdistinct
p11
I00
sVbindings
p12
(lp13
(dp14
g7
(dp15
Vtype
p16
Vuri
p17
sVvalue
p18
Vhttp://dbpedia.org/ontology/PopulatedPlace/areaTotal
p19
ssg8
(dp20
Vdatatype
p21
Vhttp://dbpedia.org/datatype/squareKilometre
p22
sVtype
p23
Vtyped-literal
p24
sVvalue
p25
V55.4257455611904
p26
ssa(dp27
g7
(dp28
Vtype
p29
Vuri
p30
sVvalue
p31
Vhttp://dbpedia.org/ontology/PopulatedPlace/areaTotal
p32
ssg8
(dp33
Vdatatype
p34
Vhttp://dbpedia.org/datatype/squareKilometre
p35
sVtype
p36
Vtyped-literal
p37
sVvalue
p38
V55.4
p39
ssa(dp40
g7
(dp41
Vtype
p42
Vuri
p43
sVvalue
p44
Vhttp://dbpedia.org/ontology/abstract
p45
ssg8
(dp46
Vxml:lang
p47
Ven
p48
sVtype
p49
Vliteral
p50
sVvalue
p51
VBethany is a town in New Haven County, Connecticut, United States. The population was 5,563 at the 2010 census.
p52
ssa(dp53
g7
(dp54
Vtype
p55
Vuri
p56
sVvalue
p57
Vhttp://dbpedia.org/ontology/areaCode
p58
ssg8
(dp59
Vtype
p60
Vliteral
p61
sVvalue
p62
V203
p63
ssa(dp64
g7
(dp65
Vtype
p66
Vuri
p67
sVvalue
p68
Vhttp://dbpedia.org/ontology/areaLand
p69
ssg8
(dp70
Vdatatype
p71
Vhttp://www.w3.org/2001/XMLSchema#double
p72
sVtype
p73
Vtyped-literal
p74
sVvalue
p75
V5.43e+07
p76
ssa(dp77
g7
(dp78
Vtype
p79
Vuri
p80
sVvalue
p81
Vhttp://dbpedia.org/ontology/areaLand
p82
ssg8
(dp83
Vdatatype
p84
Vhttp://www.w3.org/2001/XMLSchema#double
p85
sVtype
p86
Vtyped-literal
p87
sVvalue
p88
V5.43898e+07
p89
ssa(dp90
g7
(dp91
Vtype
p92
Vuri
p93
sVvalue
p94
Vhttp://dbpedia.org/ontology/areaTotal
p95
ssg8
(dp96
Vdatatype
p97
Vhttp://www.w3.org/2001/XMLSchema#double
p98
sVtype
p99
Vtyped-literal
p100
sVvalue
p101
V5.54e+07
p102
ssa(dp103
g7
(dp104
Vtype
p105
Vuri
p106
sVvalue
p107
Vhttp://dbpedia.org/ontology/areaTotal
p108
ssg8
(dp109
Vdatatype
p110
Vhttp://www.w3.org/2001/XMLSchema#double
p111
sVtype
p112
Vtyped-literal
p113
sVvalue
p114
V5.54257e+07
p115
ssa(dp116
g7
(dp117
Vtype
p118
Vuri
p119
sVvalue
p120
Vhttp://dbpedia.org/ontology/areaWater
p121
ssg8
(dp122
Vdatatype
p123
Vhttp://www.w3.org/2001/XMLSchema#double
p124
sVtype
p125
Vtyped-literal
p126
sVvalue
p127
V1e+06
p128
ssa(dp129
g7
(dp130
Vtype
p131
Vuri
p132
sVvalue
p133
Vhttp://dbpedia.org/ontology/areaWater
p134
ssg8
(dp135
Vdatatype
p136
Vhttp://www.w3.org/2001/XMLSchema#double
p137
sVtype
p138
Vtyped-literal
p139
sVvalue
p140
V1.036e+06
p141
ssa(dp142
g7
(dp143
Vtype
p144
Vuri
p145
sVvalue
p146
Vhttp://dbpedia.org/ontology/elevation
p147
ssg8
(dp148
Vdatatype
p149
Vhttp://www.w3.org/2001/XMLSchema#double
p150
sVtype
p151
Vtyped-literal
p152
sVvalue
p153
V174.955
p154
ssa(dp155
g7
(dp156
Vtype
p157
Vuri
p158
sVvalue
p159
Vhttp://dbpedia.org/ontology/elevation
p160
ssg8
(dp161
Vdatatype
p162
Vhttp://www.w3.org/2001/XMLSchema#double
p163
sVtype
p164
Vtyped-literal
p165
sVvalue
p166
V175.0
p167
ssa(dp168
g7
(dp169
Vtype
p170
Vuri
p171
sVvalue
p172
Vhttp://dbpedia.org/ontology/leaderTitle
p173
ssg8
(dp174
Vxml:lang
p175
Ven
p176
sVtype
p177
Vliteral
p178
sVvalue
p179
VFirst selectman
p180
ssa(dp181
g7
(dp182
Vtype
p183
Vuri
p184
sVvalue
p185
Vhttp://dbpedia.org/ontology/leaderTitle
p186
ssg8
(dp187
Vxml:lang
p188
Ven
p189
sVtype
p190
Vliteral
p191
sVvalue
p192
VSelectman
p193
ssa(dp194
g7
(dp195
Vtype
p196
Vuri
p197
sVvalue
p198
Vhttp://dbpedia.org/ontology/motto
p199
ssg8
(dp200
Vtype
p201
Vliteral
p202
sVvalue
p203
V"Rural Is Beautiful"
p204
ssa(dp205
g7
(dp206
Vtype
p207
Vuri
p208
sVvalue
p209
Vhttp://dbpedia.org/ontology/populationTotal
p210
ssg8
(dp211
Vdatatype
p212
Vhttp://www.w3.org/2001/XMLSchema#nonNegativeInteger
p213
sVtype
p214
Vtyped-literal
p215
sVvalue
p216
V5563
p217
ssa(dp218
g7
(dp219
Vtype
p220
Vuri
p221
sVvalue
p222
Vhttp://dbpedia.org/ontology/postalCode
p223
ssg8
(dp224
Vtype
p225
Vliteral
p226
sVvalue
p227
V06524
p228
ssa(dp229
g7
(dp230
Vtype
p231
Vuri
p232
sVvalue
p233
Vhttp://dbpedia.org/ontology/utcOffset
p234
ssg8
(dp235
Vtype
p236
Vliteral
p237
sVvalue
p238
V-4
p239
ssa(dp240
g7
(dp241
Vtype
p242
Vuri
p243
sVvalue
p244
Vhttp://dbpedia.org/ontology/utcOffset
p245
ssg8
(dp246
Vtype
p247
Vliteral
p248
sVvalue
p249
V-5
p250
ssa(dp251
g7
(dp252
Vtype
p253
Vuri
p254
sVvalue
p255
Vhttp://dbpedia.org/ontology/wikiPageExtracted
p256
ssg8
(dp257
Vdatatype
p258
Vhttp://www.w3.org/2001/XMLSchema#dateTime
p259
sVtype
p260
Vtyped-literal
p261
sVvalue
p262
V2016-10-28T03:53:33Z
p263
ssa(dp264
g7
(dp265
Vtype
p266
Vuri
p267
sVvalue
p268
Vhttp://dbpedia.org/ontology/wikiPageLength
p269
ssg8
(dp270
Vdatatype
p271
Vhttp://www.w3.org/2001/XMLSchema#nonNegativeInteger
p272
sVtype
p273
Vtyped-literal
p274
sVvalue
p275
V14566
p276
ssa(dp277
g7
(dp278
Vtype
p279
Vuri
p280
sVvalue
p281
Vhttp://dbpedia.org/ontology/wikiPageModified
p282
ssg8
(dp283
Vdatatype
p284
Vhttp://www.w3.org/2001/XMLSchema#dateTime
p285
sVtype
p286
Vtyped-literal
p287
sVvalue
p288
V2016-10-22T00:07:19Z
p289
ssa(dp290
g7
(dp291
Vtype
p292
Vuri
p293
sVvalue
p294
Vhttp://dbpedia.org/ontology/wikiPageOutDegree
p295
ssg8
(dp296
Vdatatype
p297
Vhttp://www.w3.org/2001/XMLSchema#nonNegativeInteger
p298
sVtype
p299
Vtyped-literal
p300
sVvalue
p301
V62
p302
ssasVordered
p303
I01
ss.