(dp0
Vhead
p1
(dp2
Vlink
p3
(lp4
sVvars
p5
(lp6
Vp
p7
aVo
p8
assVresults
p9
(dp10
Vdistinct
p11
I00
sVbindings
p12
(lp13
(dp14
g7
(dp15
Vtype
p16
Vuri
p17
sVvalue
p18
Vhttp://dbpedia.org/ontology/abstract
p19
ssg8
(dp20
Vxml:lang
p21
Ven
p22
sVtype
p23
Vliteral
p24
sVvalue
p25
VCliffsend is a village (sometimes written, correctly, as Cliffs End) and civil parish situated almost 2 miles (3 km) west of Ramsgate, Kent, United Kingdom, in the Thanet local government district.Hengist and Horsa landed near here in 410AD, and St Augustine in 597.Pegwell Bay Country Park is located here. Also on permanent display on the cliff top at Pegwell Bay is a replica of the Viking longship Hugin , which sailed from Denmark to Thanet in 1949 to celebrate the 1500th anniversary of the invasion of Britain, the traditional landing of the two men, and the betrothal of Hengist's daughter, Rowena, to King Vortigen of Kent. The Hugin was offered as a gift to Ramsgate and Broadstairs by the Daily Mail for preservation.
p26
ssa(dp27
g7
(dp28
Vtype
p29
Vuri
p30
sVvalue
p31
Vhttp://dbpedia.org/ontology/areaCode
p32
ssg8
(dp33
Vtype
p34
Vliteral
p35
sVvalue
p36
V01843
p37
ssa(dp38
g7
(dp39
Vtype
p40
Vuri
p41
sVvalue
p42
Vhttp://dbpedia.org/ontology/gridReference
p43
ssg8
(dp44
Vtype
p45
Vliteral
p46
sVvalue
p47
VTR344643
p48
ssa(dp49
g7
(dp50
Vtype
p51
Vuri
p52
sVvalue
p53
Vhttp://dbpedia.org/ontology/populationTotal
p54
ssg8
(dp55
Vdatatype
p56
Vhttp://www.w3.org/2001/XMLSchema#nonNegativeInteger
p57
sVtype
p58
Vtyped-literal
p59
sVvalue
p60
V1822
p61
ssa(dp62
g7
(dp63
Vtype
p64
Vuri
p65
sVvalue
p66
Vhttp://dbpedia.org/ontology/postalCode
p67
ssg8
(dp68
Vtype
p69
Vliteral
p70
sVvalue
p71
VCT12
p72
ssa(dp73
g7
(dp74
Vtype
p75
Vuri
p76
sVvalue
p77
Vhttp://dbpedia.org/ontology/wikiPageExtracted
p78
ssg8
(dp79
Vdatatype
p80
Vhttp://www.w3.org/2001/XMLSchema#dateTime
p81
sVtype
p82
Vtyped-literal
p83
sVvalue
p84
V2016-10-29T02:51:38Z
p85
ssa(dp86
g7
(dp87
Vtype
p88
Vuri
p89
sVvalue
p90
Vhttp://dbpedia.org/ontology/wikiPageLength
p91
ssg8
(dp92
Vdatatype
p93
Vhttp://www.w3.org/2001/XMLSchema#nonNegativeInteger
p94
sVtype
p95
Vtyped-literal
p96
sVvalue
p97
V6689
p98
ssa(dp99
g7
(dp100
Vtype
p101
Vuri
p102
sVvalue
p103
Vhttp://dbpedia.org/ontology/wikiPageModified
p104
ssg8
(dp105
Vdatatype
p106
Vhttp://www.w3.org/2001/XMLSchema#dateTime
p107
sVtype
p108
Vtyped-literal
p109
sVvalue
p110
V2015-11-23T00:06:48Z
p111
ssa(dp112
g7
(dp113
Vtype
p114
Vuri
p115
sVvalue
p116
Vhttp://dbpedia.org/ontology/wikiPageOutDegree
p117
ssg8
(dp118
Vdatatype
p119
Vhttp://www.w3.org/2001/XMLSchema#nonNegativeInteger
p120
sVtype
p121
Vtyped-literal
p122
sVvalue
p123
V22
p124
ssasVordered
p125
I01
ss.