(dp0
Vhead
p1
(dp2
Vlink
p3
(lp4
sVvars
p5
(lp6
Vp
p7
aVo
p8
assVresults
p9
(dp10
Vdistinct
p11
I00
sVbindings
p12
(lp13
(dp14
g7
(dp15
Vtype
p16
Vuri
p17
sVvalue
p18
Vhttp://dbpedia.org/ontology/abstract
p19
ssg8
(dp20
Vxml:lang
p21
Ven
p22
sVtype
p23
Vliteral
p24
sVvalue
p25
VPeter Mark Andrew Phillips (born 15 November 1977) is the first child and only son of Anne, Princess Royal, and her first husband, Captain Mark Phillips. He is the eldest grandchild of Queen Elizabeth II and Prince Philip, Duke of Edinburgh.Phillips holds no royal title or style and is currently 13th in line to succeed his maternal grandmother, Elizabeth II. After graduating from university in 2000, he worked for Jaguar followed by WilliamsF1. In 2003, while working for WilliamsF1 in Canada, he met Autumn Kelly, whom he married in St George's Chapel at Windsor Castle in 2008. Phillips keeps a low public profile and for the most part, carries out no obligations on behalf of the royal family; for many years he has worked in the sports sponsorship and management fields.
p26
ssa(dp27
g7
(dp28
Vtype
p29
Vuri
p30
sVvalue
p31
Vhttp://dbpedia.org/ontology/abstract
p32
ssg8
(dp33
Vxml:lang
p34
Ven
p35
sVtype
p36
Vliteral
p37
sVvalue
p38
VPeter Mark Andrew Phillips (born 15 November 1977) is the elder child and only son of Anne, Princess Royal, and her first husband, Captain Mark Phillips. He is the eldest grandchild of Queen Elizabeth II and Prince Philip, Duke of Edinburgh.After graduating from university in 2000, he worked for Jaguar followed by WilliamsF1. In 2003, while working for WilliamsF1 in Canada, he met Autumn Kelly, whom he married in St George's Chapel at Windsor Castle in 2008. Phillips keeps a low public profile and for the most part, carries out no obligations on behalf of the royal family; for many years he has worked in the sports sponsorship and management fields.He is currently 13th in line to succeed his maternal grandmother, Elizabeth II.
p39
ssa(dp40
g7
(dp41
Vtype
p42
Vuri
p43
sVvalue
p44
Vhttp://dbpedia.org/ontology/birthDate
p45
ssg8
(dp46
Vdatatype
p47
Vhttp://www.w3.org/2001/XMLSchema#date
p48
sVtype
p49
Vtyped-literal
p50
sVvalue
p51
V1977-11-15
p52
ssa(dp53
g7
(dp54
Vtype
p55
Vuri
p56
sVvalue
p57
Vhttp://dbpedia.org/ontology/birthName
p58
ssg8
(dp59
Vxml:lang
p60
Ven
p61
sVtype
p62
Vliteral
p63
sVvalue
p64
VPeter Mark Andrew Phillips
p65
ssa(dp66
g7
(dp67
Vtype
p68
Vuri
p69
sVvalue
p70
Vhttp://dbpedia.org/ontology/birthYear
p71
ssg8
(dp72
Vdatatype
p73
Vhttp://www.w3.org/2001/XMLSchema#gYear
p74
sVtype
p75
Vtyped-literal
p76
sVvalue
p77
V1977
p78
ssa(dp79
g7
(dp80
Vtype
p81
Vuri
p82
sVvalue
p83
Vhttp://dbpedia.org/ontology/wikiPageExtracted
p84
ssg8
(dp85
Vdatatype
p86
Vhttp://www.w3.org/2001/XMLSchema#dateTime
p87
sVtype
p88
Vtyped-literal
p89
sVvalue
p90
V2016-11-04T12:19:01Z
p91
ssa(dp92
g7
(dp93
Vtype
p94
Vuri
p95
sVvalue
p96
Vhttp://dbpedia.org/ontology/wikiPageLength
p97
ssg8
(dp98
Vdatatype
p99
Vhttp://www.w3.org/2001/XMLSchema#nonNegativeInteger
p100
sVtype
p101
Vtyped-literal
p102
sVvalue
p103
V18803
p104
ssa(dp105
g7
(dp106
Vtype
p107
Vuri
p108
sVvalue
p109
Vhttp://dbpedia.org/ontology/wikiPageModified
p110
ssg8
(dp111
Vdatatype
p112
Vhttp://www.w3.org/2001/XMLSchema#dateTime
p113
sVtype
p114
Vtyped-literal
p115
sVvalue
p116
V2016-11-03T14:15:08Z
p117
ssa(dp118
g7
(dp119
Vtype
p120
Vuri
p121
sVvalue
p122
Vhttp://dbpedia.org/ontology/wikiPageOutDegree
p123
ssg8
(dp124
Vdatatype
p125
Vhttp://www.w3.org/2001/XMLSchema#nonNegativeInteger
p126
sVtype
p127
Vtyped-literal
p128
sVvalue
p129
V115
p130
ssasVordered
p131
I01
ss.