(dp0
Vhead
p1
(dp2
Vlink
p3
(lp4
sVvars
p5
(lp6
Vp
p7
aVo
p8
assVresults
p9
(dp10
Vdistinct
p11
I00
sVbindings
p12
(lp13
(dp14
g7
(dp15
Vtype
p16
Vuri
p17
sVvalue
p18
Vhttp://dbpedia.org/ontology/abstract
p19
ssg8
(dp20
Vxml:lang
p21
Ven
p22
sVtype
p23
Vliteral
p24
sVvalue
p25
VMojave (also Mohave) is the native language of the Mohave people along the Colorado River in southeastern California, northwestern Arizona, and southwestern Nevada. Approximately 70% of the speakers reside in Arizona, while approximately 30% reside in California. Mojave belongs to the River branch of the Yuman language family, together with Quechan and Maricopa.Mojave language became endangered during the 20th century when Mohave children were taken away from their parents to be raised in boarding schools, where they were prohibited to speak the language. They were prohibited from speaking it even with their parents when theyir occasional visits home; many parents spoke no English.
p26
ssa(dp27
g7
(dp28
Vtype
p29
Vuri
p30
sVvalue
p31
Vhttp://dbpedia.org/ontology/abstract
p32
ssg8
(dp33
Vxml:lang
p34
Ven
p35
sVtype
p36
Vliteral
p37
sVvalue
p38
VMojave (also Mohave) is the native language of the Mohave people along the Colorado River in southeastern California, northwestern Arizona, and southwestern Nevada. Approximately 70% of the speakers reside in Arizona, while approximately 30% reside in California. Mojave belongs to the River branch of the Yuman language family, together with Quechan and Maricopa.Mojave language became endangered during the 20th century when Mohave children were taken away from their parents to be raised in boarding schools, where they were prohibited to speak the language. They were prohibited from speaking it even with their parents when they occasionally visited home; while many parents did not speak English.
p39
ssa(dp40
g7
(dp41
Vtype
p42
Vuri
p43
sVvalue
p44
Vhttp://dbpedia.org/ontology/iso6393Code
p45
ssg8
(dp46
Vtype
p47
Vliteral
p48
sVvalue
p49
Vmov
p50
ssa(dp51
g7
(dp52
Vtype
p53
Vuri
p54
sVvalue
p55
Vhttp://dbpedia.org/ontology/wikiPageExtracted
p56
ssg8
(dp57
Vdatatype
p58
Vhttp://www.w3.org/2001/XMLSchema#dateTime
p59
sVtype
p60
Vtyped-literal
p61
sVvalue
p62
V2016-11-03T09:02:02Z
p63
ssa(dp64
g7
(dp65
Vtype
p66
Vuri
p67
sVvalue
p68
Vhttp://dbpedia.org/ontology/wikiPageLength
p69
ssg8
(dp70
Vdatatype
p71
Vhttp://www.w3.org/2001/XMLSchema#nonNegativeInteger
p72
sVtype
p73
Vtyped-literal
p74
sVvalue
p75
V7108
p76
ssa(dp77
g7
(dp78
Vtype
p79
Vuri
p80
sVvalue
p81
Vhttp://dbpedia.org/ontology/wikiPageModified
p82
ssg8
(dp83
Vdatatype
p84
Vhttp://www.w3.org/2001/XMLSchema#dateTime
p85
sVtype
p86
Vtyped-literal
p87
sVvalue
p88
V2016-10-20T07:11:03Z
p89
ssa(dp90
g7
(dp91
Vtype
p92
Vuri
p93
sVvalue
p94
Vhttp://dbpedia.org/ontology/wikiPageOutDegree
p95
ssg8
(dp96
Vdatatype
p97
Vhttp://www.w3.org/2001/XMLSchema#nonNegativeInteger
p98
sVtype
p99
Vtyped-literal
p100
sVvalue
p101
V45
p102
ssasVordered
p103
I01
ss.