(dp0
Vhead
p1
(dp2
Vlink
p3
(lp4
sVvars
p5
(lp6
Vp
p7
aVo
p8
assVresults
p9
(dp10
Vdistinct
p11
I00
sVbindings
p12
(lp13
(dp14
g7
(dp15
Vtype
p16
Vuri
p17
sVvalue
p18
Vhttp://dbpedia.org/ontology/abstract
p19
ssg8
(dp20
Vxml:lang
p21
Ven
p22
sVtype
p23
Vliteral
p24
sVvalue
p25
VUSS Langley (CV-1/AV-3) was the United States Navy's first aircraft carrier, converted in 1920 from the collier USS Jupiter (AC-3), and also the US Navy's first turbo-electric-powered ship. Conversion of another collier was planned but canceled when the Washington Naval Treaty required the cancellation of the partially built Lexington-class battlecruisers Lexington and Saratoga, freeing up their hulls for conversion to the aircraft carriers Lexington and Saratoga. Langley was named after Samuel Pierpont Langley, an American aviation pioneer. Following another conversion, to a seaplane tender, Langley fought in World War II. On 27 February 1942, she was attacked by nine twin-engine Japanese bombers of the Japanese 21st and 23rd Naval Air Flotillas and so badly damaged that she had to be scuttled by her escorts.
p26
ssa(dp27
g7
(dp28
Vtype
p29
Vuri
p30
sVvalue
p31
Vhttp://dbpedia.org/ontology/length
p32
ssg8
(dp33
Vdatatype
p34
Vhttp://www.w3.org/2001/XMLSchema#double
p35
sVtype
p36
Vtyped-literal
p37
sVvalue
p38
V165.202
p39
ssa(dp40
g7
(dp41
Vtype
p42
Vuri
p43
sVvalue
p44
Vhttp://dbpedia.org/ontology/status
p45
ssg8
(dp46
Vtype
p47
Vliteral
p48
sVvalue
p49
Vscuttled, 27 February 1942
p50
ssa(dp51
g7
(dp52
Vtype
p53
Vuri
p54
sVvalue
p55
Vhttp://dbpedia.org/ontology/wikiPageExtracted
p56
ssg8
(dp57
Vdatatype
p58
Vhttp://www.w3.org/2001/XMLSchema#dateTime
p59
sVtype
p60
Vtyped-literal
p61
sVvalue
p62
V2016-11-07T12:29:22Z
p63
ssa(dp64
g7
(dp65
Vtype
p66
Vuri
p67
sVvalue
p68
Vhttp://dbpedia.org/ontology/wikiPageLength
p69
ssg8
(dp70
Vdatatype
p71
Vhttp://www.w3.org/2001/XMLSchema#nonNegativeInteger
p72
sVtype
p73
Vtyped-literal
p74
sVvalue
p75
V24925
p76
ssa(dp77
g7
(dp78
Vtype
p79
Vuri
p80
sVvalue
p81
Vhttp://dbpedia.org/ontology/wikiPageModified
p82
ssg8
(dp83
Vdatatype
p84
Vhttp://www.w3.org/2001/XMLSchema#dateTime
p85
sVtype
p86
Vtyped-literal
p87
sVvalue
p88
V2016-09-14T20:07:01Z
p89
ssa(dp90
g7
(dp91
Vtype
p92
Vuri
p93
sVvalue
p94
Vhttp://dbpedia.org/ontology/wikiPageOutDegree
p95
ssg8
(dp96
Vdatatype
p97
Vhttp://www.w3.org/2001/XMLSchema#nonNegativeInteger
p98
sVtype
p99
Vtyped-literal
p100
sVvalue
p101
V136
p102
ssa(dp103
g7
(dp104
Vtype
p105
Vuri
p106
sVvalue
p107
Vhttp://dbpedia.org/ontology/MeanOfTransportation/length
p108
ssg8
(dp109
Vdatatype
p110
Vhttp://dbpedia.org/datatype/millimetre
p111
sVtype
p112
Vtyped-literal
p113
sVvalue
p114
V165201.6
p115
ssa(dp116
g7
(dp117
Vtype
p118
Vuri
p119
sVvalue
p120
Vhttp://dbpedia.org/ontology/commissioningDate
p121
ssg8
(dp122
Vdatatype
p123
Vhttp://www.w3.org/2001/XMLSchema#date
p124
sVtype
p125
Vtyped-literal
p126
sVvalue
p127
V1913-04-07
p128
ssa(dp129
g7
(dp130
Vtype
p131
Vuri
p132
sVvalue
p133
Vhttp://dbpedia.org/ontology/commissioningDate
p134
ssg8
(dp135
Vdatatype
p136
Vhttp://www.w3.org/2001/XMLSchema#date
p137
sVtype
p138
Vtyped-literal
p139
sVvalue
p140
V1922-03-20
p141
ssa(dp142
g7
(dp143
Vtype
p144
Vuri
p145
sVvalue
p146
Vhttp://dbpedia.org/ontology/commissioningDate
p147
ssg8
(dp148
Vdatatype
p149
Vhttp://www.w3.org/2001/XMLSchema#date
p150
sVtype
p151
Vtyped-literal
p152
sVvalue
p153
V1937-04-21
p154
ssa(dp155
g7
(dp156
Vtype
p157
Vuri
p158
sVvalue
p159
Vhttp://dbpedia.org/ontology/decommissioningDate
p160
ssg8
(dp161
Vdatatype
p162
Vhttp://www.w3.org/2001/XMLSchema#date
p163
sVtype
p164
Vtyped-literal
p165
sVvalue
p166
V1920-03-24
p167
ssa(dp168
g7
(dp169
Vtype
p170
Vuri
p171
sVvalue
p172
Vhttp://dbpedia.org/ontology/decommissioningDate
p173
ssg8
(dp174
Vdatatype
p175
Vhttp://www.w3.org/2001/XMLSchema#date
p176
sVtype
p177
Vtyped-literal
p178
sVvalue
p179
V1936-10-25
p180
ssa(dp181
g7
(dp182
Vtype
p183
Vuri
p184
sVvalue
p185
Vhttp://dbpedia.org/ontology/layingDown
p186
ssg8
(dp187
Vdatatype
p188
Vhttp://www.w3.org/2001/XMLSchema#date
p189
sVtype
p190
Vtyped-literal
p191
sVvalue
p192
V1911-10-18
p193
ssa(dp194
g7
(dp195
Vtype
p196
Vuri
p197
sVvalue
p198
Vhttp://dbpedia.org/ontology/shipBeam
p199
ssg8
(dp200
Vdatatype
p201
Vhttp://www.w3.org/2001/XMLSchema#double
p202
sVtype
p203
Vtyped-literal
p204
sVvalue
p205
V19.812
p206
ssa(dp207
g7
(dp208
Vtype
p209
Vuri
p210
sVvalue
p211
Vhttp://dbpedia.org/ontology/shipLaunch
p212
ssg8
(dp213
Vdatatype
p214
Vhttp://www.w3.org/2001/XMLSchema#date
p215
sVtype
p216
Vtyped-literal
p217
sVvalue
p218
V1912-08-14
p219
ssa(dp220
g7
(dp221
Vtype
p222
Vuri
p223
sVvalue
p224
Vhttp://dbpedia.org/ontology/topSpeed
p225
ssg8
(dp226
Vdatatype
p227
Vhttp://www.w3.org/2001/XMLSchema#double
p228
sVtype
p229
Vtyped-literal
p230
sVvalue
p231
V28.706
p232
ssa(dp233
g7
(dp234
Vtype
p235
Vuri
p236
sVvalue
p237
Vhttp://dbpedia.org/ontology/cost
p238
ssg8
(dp239
Vdatatype
p240
Vhttp://dbpedia.org/datatype/usDollar
p241
sVtype
p242
Vtyped-literal
p243
sVvalue
p244
V1326111.36
p245
ssa(dp246
g7
(dp247
Vtype
p248
Vuri
p249
sVvalue
p250
Vhttp://dbpedia.org/ontology/cost
p251
ssg8
(dp252
Vdatatype
p253
Vhttp://dbpedia.org/datatype/usDollar
p254
sVtype
p255
Vtyped-literal
p256
sVvalue
p257
V395992.8
p258
ssa(dp259
g7
(dp260
Vtype
p261
Vuri
p262
sVvalue
p263
Vhttp://dbpedia.org/ontology/shipDraft
p264
ssg8
(dp265
Vdatatype
p266
Vhttp://www.w3.org/2001/XMLSchema#double
p267
sVtype
p268
Vtyped-literal
p269
sVvalue
p270
V7.3152
p271
ssa(dp272
g7
(dp273
Vtype
p274
Vuri
p275
sVvalue
p276
Vhttp://dbpedia.org/ontology/shipDraft
p277
ssg8
(dp278
Vdatatype
p279
Vhttp://www.w3.org/2001/XMLSchema#double
p280
sVtype
p281
Vtyped-literal
p282
sVvalue
p283
V8.2296
p284
ssasVordered
p285
I01
ss.