(dp0
Vhead
p1
(dp2
Vlink
p3
(lp4
sVvars
p5
(lp6
Vp
p7
aVo
p8
assVresults
p9
(dp10
Vdistinct
p11
I00
sVbindings
p12
(lp13
(dp14
g7
(dp15
Vtype
p16
Vuri
p17
sVvalue
p18
Vhttp://dbpedia.org/ontology/PopulatedPlace/areaTotal
p19
ssg8
(dp20
Vdatatype
p21
Vhttp://dbpedia.org/datatype/squareKilometre
p22
sVtype
p23
Vtyped-literal
p24
sVvalue
p25
V60.68
p26
ssa(dp27
g7
(dp28
Vtype
p29
Vuri
p30
sVvalue
p31
Vhttp://dbpedia.org/ontology/PopulatedPlace/areaTotal
p32
ssg8
(dp33
Vdatatype
p34
Vhttp://dbpedia.org/datatype/squareKilometre
p35
sVtype
p36
Vtyped-literal
p37
sVvalue
p38
V60.68342142517248
p39
ssa(dp40
g7
(dp41
Vtype
p42
Vuri
p43
sVvalue
p44
Vhttp://dbpedia.org/ontology/PopulatedPlace/populationDensity
p45
ssg8
(dp46
Vdatatype
p47
Vhttp://dbpedia.org/datatype/inhabitantsPerSquareKilometre
p48
sVtype
p49
Vtyped-literal
p50
sVvalue
p51
V495.8
p52
ssa(dp53
g7
(dp54
Vtype
p55
Vuri
p56
sVvalue
p57
Vhttp://dbpedia.org/ontology/PopulatedPlace/populationDensity
p58
ssg8
(dp59
Vdatatype
p60
Vhttp://dbpedia.org/datatype/inhabitantsPerSquareKilometre
p61
sVtype
p62
Vtyped-literal
p63
sVvalue
p64
V495.83239200020904
p65
ssa(dp66
g7
(dp67
Vtype
p68
Vuri
p69
sVvalue
p70
Vhttp://dbpedia.org/ontology/abstract
p71
ssg8
(dp72
Vxml:lang
p73
Ven
p74
sVtype
p75
Vliteral
p76
sVvalue
p77
VBurton is a city in Genesee County in the state of Michigan and a suburb of Flint. The population was 29,999 at the 2010 census, making Burton the second largest city in Genesee County.
p78
ssa(dp79
g7
(dp80
Vtype
p81
Vuri
p82
sVvalue
p83
Vhttp://dbpedia.org/ontology/areaCode
p84
ssg8
(dp85
Vtype
p86
Vliteral
p87
sVvalue
p88
V810
p89
ssa(dp90
g7
(dp91
Vtype
p92
Vuri
p93
sVvalue
p94
Vhttp://dbpedia.org/ontology/areaLand
p95
ssg8
(dp96
Vdatatype
p97
Vhttp://www.w3.org/2001/XMLSchema#double
p98
sVtype
p99
Vtyped-literal
p100
sVvalue
p101
V6.05e+07
p102
ssa(dp103
g7
(dp104
Vtype
p105
Vuri
p106
sVvalue
p107
Vhttp://dbpedia.org/ontology/areaLand
p108
ssg8
(dp109
Vdatatype
p110
Vhttp://www.w3.org/2001/XMLSchema#double
p111
sVtype
p112
Vtyped-literal
p113
sVvalue
p114
V6.05021e+07
p115
ssa(dp116
g7
(dp117
Vtype
p118
Vuri
p119
sVvalue
p120
Vhttp://dbpedia.org/ontology/areaTotal
p121
ssg8
(dp122
Vdatatype
p123
Vhttp://www.w3.org/2001/XMLSchema#double
p124
sVtype
p125
Vtyped-literal
p126
sVvalue
p127
V6.068e+07
p128
ssa(dp129
g7
(dp130
Vtype
p131
Vuri
p132
sVvalue
p133
Vhttp://dbpedia.org/ontology/areaTotal
p134
ssg8
(dp135
Vdatatype
p136
Vhttp://www.w3.org/2001/XMLSchema#double
p137
sVtype
p138
Vtyped-literal
p139
sVvalue
p140
V6.06834e+07
p141
ssa(dp142
g7
(dp143
Vtype
p144
Vuri
p145
sVvalue
p146
Vhttp://dbpedia.org/ontology/areaWater
p147
ssg8
(dp148
Vdatatype
p149
Vhttp://www.w3.org/2001/XMLSchema#double
p150
sVtype
p151
Vtyped-literal
p152
sVvalue
p153
V180000.0
p154
ssa(dp155
g7
(dp156
Vtype
p157
Vuri
p158
sVvalue
p159
Vhttp://dbpedia.org/ontology/areaWater
p160
ssg8
(dp161
Vdatatype
p162
Vhttp://www.w3.org/2001/XMLSchema#double
p163
sVtype
p164
Vtyped-literal
p165
sVvalue
p166
V181299.0
p167
ssa(dp168
g7
(dp169
Vtype
p170
Vuri
p171
sVvalue
p172
Vhttp://dbpedia.org/ontology/elevation
p173
ssg8
(dp174
Vdatatype
p175
Vhttp://www.w3.org/2001/XMLSchema#double
p176
sVtype
p177
Vtyped-literal
p178
sVvalue
p179
V235.0
p180
ssa(dp181
g7
(dp182
Vtype
p183
Vuri
p184
sVvalue
p185
Vhttp://dbpedia.org/ontology/elevation
p186
ssg8
(dp187
Vdatatype
p188
Vhttp://www.w3.org/2001/XMLSchema#double
p189
sVtype
p190
Vtyped-literal
p191
sVvalue
p192
V235.001
p193
ssa(dp194
g7
(dp195
Vtype
p196
Vuri
p197
sVvalue
p198
Vhttp://dbpedia.org/ontology/leaderTitle
p199
ssg8
(dp200
Vxml:lang
p201
Ven
p202
sVtype
p203
Vliteral
p204
sVvalue
p205
VMayor
p206
ssa(dp207
g7
(dp208
Vtype
p209
Vuri
p210
sVvalue
p211
Vhttp://dbpedia.org/ontology/leaderTitle
p212
ssg8
(dp213
Vxml:lang
p214
Ven
p215
sVtype
p216
Vliteral
p217
sVvalue
p218
VVice President
p219
ssa(dp220
g7
(dp221
Vtype
p222
Vuri
p223
sVvalue
p224
Vhttp://dbpedia.org/ontology/leaderTitle
p225
ssg8
(dp226
Vxml:lang
p227
Ven
p228
sVtype
p229
Vliteral
p230
sVvalue
p231
VCouncil
p232
ssa(dp233
g7
(dp234
Vtype
p235
Vuri
p236
sVvalue
p237
Vhttp://dbpedia.org/ontology/leaderTitle
p238
ssg8
(dp239
Vxml:lang
p240
Ven
p241
sVtype
p242
Vliteral
p243
sVvalue
p244
VCouncil President
p245
ssa(dp246
g7
(dp247
Vtype
p248
Vuri
p249
sVvalue
p250
Vhttp://dbpedia.org/ontology/populationDensity
p251
ssg8
(dp252
Vdatatype
p253
Vhttp://www.w3.org/2001/XMLSchema#double
p254
sVtype
p255
Vtyped-literal
p256
sVvalue
p257
V495.8
p258
ssa(dp259
g7
(dp260
Vtype
p261
Vuri
p262
sVvalue
p263
Vhttp://dbpedia.org/ontology/populationDensity
p264
ssg8
(dp265
Vdatatype
p266
Vhttp://www.w3.org/2001/XMLSchema#double
p267
sVtype
p268
Vtyped-literal
p269
sVvalue
p270
V495.832
p271
ssa(dp272
g7
(dp273
Vtype
p274
Vuri
p275
sVvalue
p276
Vhttp://dbpedia.org/ontology/populationTotal
p277
ssg8
(dp278
Vdatatype
p279
Vhttp://www.w3.org/2001/XMLSchema#nonNegativeInteger
p280
sVtype
p281
Vtyped-literal
p282
sVvalue
p283
V29999
p284
ssa(dp285
g7
(dp286
Vtype
p287
Vuri
p288
sVvalue
p289
Vhttp://dbpedia.org/ontology/postalCode
p290
ssg8
(dp291
Vtype
p292
Vliteral
p293
sVvalue
p294
V48439, 48509, 48519, 48529
p295
ssa(dp296
g7
(dp297
Vtype
p298
Vuri
p299
sVvalue
p300
Vhttp://dbpedia.org/ontology/utcOffset
p301
ssg8
(dp302
Vtype
p303
Vliteral
p304
sVvalue
p305
V-4
p306
ssa(dp307
g7
(dp308
Vtype
p309
Vuri
p310
sVvalue
p311
Vhttp://dbpedia.org/ontology/utcOffset
p312
ssg8
(dp313
Vtype
p314
Vliteral
p315
sVvalue
p316
V-5
p317
ssa(dp318
g7
(dp319
Vtype
p320
Vuri
p321
sVvalue
p322
Vhttp://dbpedia.org/ontology/wikiPageExtracted
p323
ssg8
(dp324
Vdatatype
p325
Vhttp://www.w3.org/2001/XMLSchema#dateTime
p326
sVtype
p327
Vtyped-literal
p328
sVvalue
p329
V2016-10-28T12:43:00Z
p330
ssa(dp331
g7
(dp332
Vtype
p333
Vuri
p334
sVvalue
p335
Vhttp://dbpedia.org/ontology/wikiPageLength
p336
ssg8
(dp337
Vdatatype
p338
Vhttp://www.w3.org/2001/XMLSchema#nonNegativeInteger
p339
sVtype
p340
Vtyped-literal
p341
sVvalue
p342
V16318
p343
ssa(dp344
g7
(dp345
Vtype
p346
Vuri
p347
sVvalue
p348
Vhttp://dbpedia.org/ontology/wikiPageModified
p349
ssg8
(dp350
Vdatatype
p351
Vhttp://www.w3.org/2001/XMLSchema#dateTime
p352
sVtype
p353
Vtyped-literal
p354
sVvalue
p355
V2016-09-01T00:14:01Z
p356
ssa(dp357
g7
(dp358
Vtype
p359
Vuri
p360
sVvalue
p361
Vhttp://dbpedia.org/ontology/wikiPageOutDegree
p362
ssg8
(dp363
Vdatatype
p364
Vhttp://www.w3.org/2001/XMLSchema#nonNegativeInteger
p365
sVtype
p366
Vtyped-literal
p367
sVvalue
p368
V63
p369
ssasVordered
p370
I01
ss.