(dp0
Vhead
p1
(dp2
Vlink
p3
(lp4
sVvars
p5
(lp6
Vp
p7
aVo
p8
assVresults
p9
(dp10
Vdistinct
p11
I00
sVbindings
p12
(lp13
(dp14
g7
(dp15
Vtype
p16
Vuri
p17
sVvalue
p18
Vhttp://dbpedia.org/ontology/PopulatedPlace/areaTotal
p19
ssg8
(dp20
Vdatatype
p21
Vhttp://dbpedia.org/datatype/squareKilometre
p22
sVtype
p23
Vtyped-literal
p24
sVvalue
p25
V429.938026315776
p26
ssa(dp27
g7
(dp28
Vtype
p29
Vuri
p30
sVvalue
p31
Vhttp://dbpedia.org/ontology/PopulatedPlace/areaTotal
p32
ssg8
(dp33
Vdatatype
p34
Vhttp://dbpedia.org/datatype/squareKilometre
p35
sVtype
p36
Vtyped-literal
p37
sVvalue
p38
V439.0
p39
ssa(dp40
g7
(dp41
Vtype
p42
Vuri
p43
sVvalue
p44
Vhttp://dbpedia.org/ontology/PopulatedPlace/populationDensity
p45
ssg8
(dp46
Vdatatype
p47
Vhttp://dbpedia.org/datatype/inhabitantsPerSquareKilometre
p48
sVtype
p49
Vtyped-literal
p50
sVvalue
p51
V657.9180781563279
p52
ssa(dp53
g7
(dp54
Vtype
p55
Vuri
p56
sVvalue
p57
Vhttp://dbpedia.org/ontology/PopulatedPlace/populationDensity
p58
ssg8
(dp59
Vdatatype
p60
Vhttp://dbpedia.org/datatype/inhabitantsPerSquareKilometre
p61
sVtype
p62
Vtyped-literal
p63
sVvalue
p64
V660.0
p65
ssa(dp66
g7
(dp67
Vtype
p68
Vuri
p69
sVvalue
p70
Vhttp://dbpedia.org/ontology/abstract
p71
ssg8
(dp72
Vxml:lang
p73
Ven
p74
sVtype
p75
Vliteral
p76
sVvalue
p77
VBarbados (/b\u0251\u02d0r\u02c8be\u026ad\u0252s/ or /b\u0251\u02d0r\u02c8be\u026ado\u028as/) is a sovereign island country in the Lesser Antilles, in the Americas. It is 34 kilometres (21 miles) in length and up to 23 km (14 mi) in width, covering an area of 432 km2 (167 sq mi). It is situated in the western area of the North Atlantic and 100 km (62 mi) east of the Windward Islands and the Caribbean Sea; therein, it is about 168 km (104 mi) east of the islands of Saint Vincent and the Grenadines and 400 km (250 mi) north-east of Trinidad and Tobago. Barbados is outside of the principal Atlantic hurricane belt. Its capital is Bridgetown. Barbados is 1,600 mi (2,600 km) Southeast of Miami.Inhabited by Kalinago people since the 13th century, and prior to that by other Amerindians, Barbados was visited by Spanish navigators in the late 15th century and claimed for the Spanish Crown. It first appeared in a Spanish map in 1511. The Portuguese visited the island in 1536, but they left it unclaimed, with their only remnants being an introduction of wild hogs for a good supply of meat whenever the island was visited. An English ship, the Olive Blossom, arrived in Barbados in 1625; its men took possession of it in the name of King James I. In 1627, the first permanent settlers arrived from England, and it became an English and later British colony.In 1966, Barbados became an independent state and Commonwealth realm with the British Monarch (presently Queen Elizabeth II) as hereditary head of state. Due to their colonial history and connection to the United Kingdom, even after independence, it is sometimes referred to as Little England. It has a population of 280,121 people, predominantly of African descent. Despite being classified as an Atlantic island, Barbados is considered to be a part of the Caribbean, where it is ranked as a leading tourist destination. Forty percent of the tourists come from the UK, with the US and Canada making up the next large groups of visitors to the island. In 2014, Transparency International's Corruption Perceptions Index ranked Barbados joint second in the Americas (after Canada, equal with the United States) and joint 17th globally (after Belgium and Japan, equal with the U.S., Hong Kong and Ireland).
p78
ssa(dp79
g7
(dp80
Vtype
p81
Vuri
p82
sVvalue
p83
Vhttp://dbpedia.org/ontology/areaTotal
p84
ssg8
(dp85
Vdatatype
p86
Vhttp://www.w3.org/2001/XMLSchema#double
p87
sVtype
p88
Vtyped-literal
p89
sVvalue
p90
V4.29938e+08
p91
ssa(dp92
g7
(dp93
Vtype
p94
Vuri
p95
sVvalue
p96
Vhttp://dbpedia.org/ontology/areaTotal
p97
ssg8
(dp98
Vdatatype
p99
Vhttp://www.w3.org/2001/XMLSchema#double
p100
sVtype
p101
Vtyped-literal
p102
sVvalue
p103
V4.39e+08
p104
ssa(dp105
g7
(dp106
Vtype
p107
Vuri
p108
sVvalue
p109
Vhttp://dbpedia.org/ontology/demonym
p110
ssg8
(dp111
Vxml:lang
p112
Ven
p113
sVtype
p114
Vliteral
p115
sVvalue
p116
VBajan
p117
ssa(dp118
g7
(dp119
Vtype
p120
Vuri
p121
sVvalue
p122
Vhttp://dbpedia.org/ontology/demonym
p123
ssg8
(dp124
Vxml:lang
p125
Ven
p126
sVtype
p127
Vliteral
p128
sVvalue
p129
VBarbadian
p130
ssa(dp131
g7
(dp132
Vtype
p133
Vuri
p134
sVvalue
p135
Vhttp://dbpedia.org/ontology/ethnicGroupsInYear
p136
ssg8
(dp137
Vdatatype
p138
Vhttp://www.w3.org/2001/XMLSchema#gYear
p139
sVtype
p140
Vtyped-literal
p141
sVvalue
p142
V2010
p143
ssa(dp144
g7
(dp145
Vtype
p146
Vuri
p147
sVvalue
p148
Vhttp://dbpedia.org/ontology/flag
p149
ssg8
(dp150
Vtype
p151
Vliteral
p152
sVvalue
p153
VFlag of Barbados.svg
p154
ssa(dp155
g7
(dp156
Vtype
p157
Vuri
p158
sVvalue
p159
Vhttp://dbpedia.org/ontology/foundingDate
p160
ssg8
(dp161
Vdatatype
p162
Vhttp://www.w3.org/2001/XMLSchema#date
p163
sVtype
p164
Vtyped-literal
p165
sVvalue
p166
V1966-11-30
p167
ssa(dp168
g7
(dp169
Vtype
p170
Vuri
p171
sVvalue
p172
Vhttp://dbpedia.org/ontology/leaderTitle
p173
ssg8
(dp174
Vxml:lang
p175
Ven
p176
sVtype
p177
Vliteral
p178
sVvalue
p179
VMonarch
p180
ssa(dp181
g7
(dp182
Vtype
p183
Vuri
p184
sVvalue
p185
Vhttp://dbpedia.org/ontology/leaderTitle
p186
ssg8
(dp187
Vxml:lang
p188
Ven
p189
sVtype
p190
Vliteral
p191
sVvalue
p192
VPrime Minister
p193
ssa(dp194
g7
(dp195
Vtype
p196
Vuri
p197
sVvalue
p198
Vhttp://dbpedia.org/ontology/leaderTitle
p199
ssg8
(dp200
Vxml:lang
p201
Ven
p202
sVtype
p203
Vliteral
p204
sVvalue
p205
VGovernor-General
p206
ssa(dp207
g7
(dp208
Vtype
p209
Vuri
p210
sVvalue
p211
Vhttp://dbpedia.org/ontology/longName
p212
ssg8
(dp213
Vxml:lang
p214
Ven
p215
sVtype
p216
Vliteral
p217
sVvalue
p218
VBarbados
p219
ssa(dp220
g7
(dp221
Vtype
p222
Vuri
p223
sVvalue
p224
Vhttp://dbpedia.org/ontology/motto
p225
ssg8
(dp226
Vtype
p227
Vliteral
p228
sVvalue
p229
V"Pride and Industry"
p230
ssa(dp231
g7
(dp232
Vtype
p233
Vuri
p234
sVvalue
p235
Vhttp://dbpedia.org/ontology/populationDensity
p236
ssg8
(dp237
Vdatatype
p238
Vhttp://www.w3.org/2001/XMLSchema#double
p239
sVtype
p240
Vtyped-literal
p241
sVvalue
p242
V657.918
p243
ssa(dp244
g7
(dp245
Vtype
p246
Vuri
p247
sVvalue
p248
Vhttp://dbpedia.org/ontology/populationDensity
p249
ssg8
(dp250
Vdatatype
p251
Vhttp://www.w3.org/2001/XMLSchema#double
p252
sVtype
p253
Vtyped-literal
p254
sVvalue
p255
V660.0
p256
ssa(dp257
g7
(dp258
Vtype
p259
Vuri
p260
sVvalue
p261
Vhttp://dbpedia.org/ontology/wikiPageExtracted
p262
ssg8
(dp263
Vdatatype
p264
Vhttp://www.w3.org/2001/XMLSchema#dateTime
p265
sVtype
p266
Vtyped-literal
p267
sVvalue
p268
V2016-10-27T23:30:24Z
p269
ssa(dp270
g7
(dp271
Vtype
p272
Vuri
p273
sVvalue
p274
Vhttp://dbpedia.org/ontology/wikiPageLength
p275
ssg8
(dp276
Vdatatype
p277
Vhttp://www.w3.org/2001/XMLSchema#nonNegativeInteger
p278
sVtype
p279
Vtyped-literal
p280
sVvalue
p281
V74522
p282
ssa(dp283
g7
(dp284
Vtype
p285
Vuri
p286
sVvalue
p287
Vhttp://dbpedia.org/ontology/wikiPageModified
p288
ssg8
(dp289
Vdatatype
p290
Vhttp://www.w3.org/2001/XMLSchema#dateTime
p291
sVtype
p292
Vtyped-literal
p293
sVvalue
p294
V2016-10-27T10:03:28Z
p295
ssa(dp296
g7
(dp297
Vtype
p298
Vuri
p299
sVvalue
p300
Vhttp://dbpedia.org/ontology/wikiPageOutDegree
p301
ssg8
(dp302
Vdatatype
p303
Vhttp://www.w3.org/2001/XMLSchema#nonNegativeInteger
p304
sVtype
p305
Vtyped-literal
p306
sVvalue
p307
V384
p308
ssasVordered
p309
I01
ss.