(dp0
Vhead
p1
(dp2
Vlink
p3
(lp4
sVvars
p5
(lp6
Vp
p7
aVo
p8
assVresults
p9
(dp10
Vdistinct
p11
I00
sVbindings
p12
(lp13
(dp14
g7
(dp15
Vtype
p16
Vuri
p17
sVvalue
p18
Vhttp://dbpedia.org/ontology/PopulatedPlace/areaTotal
p19
ssg8
(dp20
Vdatatype
p21
Vhttp://dbpedia.org/datatype/squareKilometre
p22
sVtype
p23
Vtyped-literal
p24
sVvalue
p25
V1.0
p26
ssa(dp27
g7
(dp28
Vtype
p29
Vuri
p30
sVvalue
p31
Vhttp://dbpedia.org/ontology/PopulatedPlace/areaTotal
p32
ssg8
(dp33
Vdatatype
p34
Vhttp://dbpedia.org/datatype/squareKilometre
p35
sVtype
p36
Vtyped-literal
p37
sVvalue
p38
V1.5539928662016
p39
ssa(dp40
g7
(dp41
Vtype
p42
Vuri
p43
sVvalue
p44
Vhttp://dbpedia.org/ontology/abstract
p45
ssg8
(dp46
Vxml:lang
p47
Ven
p48
sVtype
p49
Vliteral
p50
sVvalue
p51
VMelbourne Village is a town in Brevard County, Florida. The population was 662 at the 2010 United States Census. It is part of the Palm Bay\u2013Melbourne\u2013Titusville Metropolitan Statistical Area, and is the smallest incorporated municipality (by population) in Brevard County.
p52
ssa(dp53
g7
(dp54
Vtype
p55
Vuri
p56
sVvalue
p57
Vhttp://dbpedia.org/ontology/areaCode
p58
ssg8
(dp59
Vtype
p60
Vliteral
p61
sVvalue
p62
V321
p63
ssa(dp64
g7
(dp65
Vtype
p66
Vuri
p67
sVvalue
p68
Vhttp://dbpedia.org/ontology/areaLand
p69
ssg8
(dp70
Vdatatype
p71
Vhttp://www.w3.org/2001/XMLSchema#double
p72
sVtype
p73
Vtyped-literal
p74
sVvalue
p75
V1e+06
p76
ssa(dp77
g7
(dp78
Vtype
p79
Vuri
p80
sVvalue
p81
Vhttp://dbpedia.org/ontology/areaLand
p82
ssg8
(dp83
Vdatatype
p84
Vhttp://www.w3.org/2001/XMLSchema#double
p85
sVtype
p86
Vtyped-literal
p87
sVvalue
p88
V1.55399e+06
p89
ssa(dp90
g7
(dp91
Vtype
p92
Vuri
p93
sVvalue
p94
Vhttp://dbpedia.org/ontology/areaTotal
p95
ssg8
(dp96
Vdatatype
p97
Vhttp://www.w3.org/2001/XMLSchema#double
p98
sVtype
p99
Vtyped-literal
p100
sVvalue
p101
V1e+06
p102
ssa(dp103
g7
(dp104
Vtype
p105
Vuri
p106
sVvalue
p107
Vhttp://dbpedia.org/ontology/areaTotal
p108
ssg8
(dp109
Vdatatype
p110
Vhttp://www.w3.org/2001/XMLSchema#double
p111
sVtype
p112
Vtyped-literal
p113
sVvalue
p114
V1.55399e+06
p115
ssa(dp116
g7
(dp117
Vtype
p118
Vuri
p119
sVvalue
p120
Vhttp://dbpedia.org/ontology/areaWater
p121
ssg8
(dp122
Vdatatype
p123
Vhttp://www.w3.org/2001/XMLSchema#double
p124
sVtype
p125
Vtyped-literal
p126
sVvalue
p127
V0.0
p128
ssa(dp129
g7
(dp130
Vtype
p131
Vuri
p132
sVvalue
p133
Vhttp://dbpedia.org/ontology/elevation
p134
ssg8
(dp135
Vdatatype
p136
Vhttp://www.w3.org/2001/XMLSchema#double
p137
sVtype
p138
Vtyped-literal
p139
sVvalue
p140
V7.0
p141
ssa(dp142
g7
(dp143
Vtype
p144
Vuri
p145
sVvalue
p146
Vhttp://dbpedia.org/ontology/elevation
p147
ssg8
(dp148
Vdatatype
p149
Vhttp://www.w3.org/2001/XMLSchema#double
p150
sVtype
p151
Vtyped-literal
p152
sVvalue
p153
V7.0104
p154
ssa(dp155
g7
(dp156
Vtype
p157
Vuri
p158
sVvalue
p159
Vhttp://dbpedia.org/ontology/leaderTitle
p160
ssg8
(dp161
Vxml:lang
p162
Ven
p163
sVtype
p164
Vliteral
p165
sVvalue
p166
VMayor
p167
ssa(dp168
g7
(dp169
Vtype
p170
Vuri
p171
sVvalue
p172
Vhttp://dbpedia.org/ontology/leaderTitle
p173
ssg8
(dp174
Vxml:lang
p175
Ven
p176
sVtype
p177
Vliteral
p178
sVvalue
p179
VVice Mayor
p180
ssa(dp181
g7
(dp182
Vtype
p183
Vuri
p184
sVvalue
p185
Vhttp://dbpedia.org/ontology/motto
p186
ssg8
(dp187
Vtype
p188
Vliteral
p189
sVvalue
p190
V"The Town That Really Cares!"
p191
ssa(dp192
g7
(dp193
Vtype
p194
Vuri
p195
sVvalue
p196
Vhttp://dbpedia.org/ontology/populationTotal
p197
ssg8
(dp198
Vdatatype
p199
Vhttp://www.w3.org/2001/XMLSchema#nonNegativeInteger
p200
sVtype
p201
Vtyped-literal
p202
sVvalue
p203
V662
p204
ssa(dp205
g7
(dp206
Vtype
p207
Vuri
p208
sVvalue
p209
Vhttp://dbpedia.org/ontology/postalCode
p210
ssg8
(dp211
Vtype
p212
Vliteral
p213
sVvalue
p214
V32904
p215
ssa(dp216
g7
(dp217
Vtype
p218
Vuri
p219
sVvalue
p220
Vhttp://dbpedia.org/ontology/utcOffset
p221
ssg8
(dp222
Vtype
p223
Vliteral
p224
sVvalue
p225
V-4
p226
ssa(dp227
g7
(dp228
Vtype
p229
Vuri
p230
sVvalue
p231
Vhttp://dbpedia.org/ontology/utcOffset
p232
ssg8
(dp233
Vtype
p234
Vliteral
p235
sVvalue
p236
V-5
p237
ssa(dp238
g7
(dp239
Vtype
p240
Vuri
p241
sVvalue
p242
Vhttp://dbpedia.org/ontology/wikiPageExtracted
p243
ssg8
(dp244
Vdatatype
p245
Vhttp://www.w3.org/2001/XMLSchema#dateTime
p246
sVtype
p247
Vtyped-literal
p248
sVvalue
p249
V2016-11-03T02:47:10Z
p250
ssa(dp251
g7
(dp252
Vtype
p253
Vuri
p254
sVvalue
p255
Vhttp://dbpedia.org/ontology/wikiPageLength
p256
ssg8
(dp257
Vdatatype
p258
Vhttp://www.w3.org/2001/XMLSchema#nonNegativeInteger
p259
sVtype
p260
Vtyped-literal
p261
sVvalue
p262
V18660
p263
ssa(dp264
g7
(dp265
Vtype
p266
Vuri
p267
sVvalue
p268
Vhttp://dbpedia.org/ontology/wikiPageModified
p269
ssg8
(dp270
Vdatatype
p271
Vhttp://www.w3.org/2001/XMLSchema#dateTime
p272
sVtype
p273
Vtyped-literal
p274
sVvalue
p275
V2016-09-19T03:01:23Z
p276
ssa(dp277
g7
(dp278
Vtype
p279
Vuri
p280
sVvalue
p281
Vhttp://dbpedia.org/ontology/wikiPageOutDegree
p282
ssg8
(dp283
Vdatatype
p284
Vhttp://www.w3.org/2001/XMLSchema#nonNegativeInteger
p285
sVtype
p286
Vtyped-literal
p287
sVvalue
p288
V56
p289
ssasVordered
p290
I01
ss.