(dp0
Vhead
p1
(dp2
Vlink
p3
(lp4
sVvars
p5
(lp6
Vp
p7
aVo
p8
assVresults
p9
(dp10
Vdistinct
p11
I00
sVbindings
p12
(lp13
(dp14
g7
(dp15
Vtype
p16
Vuri
p17
sVvalue
p18
Vhttp://dbpedia.org/ontology/abstract
p19
ssg8
(dp20
Vxml:lang
p21
Ven
p22
sVtype
p23
Vliteral
p24
sVvalue
p25
VMessini (Greek: \u039c\u03b5\u03c3\u03c3\u03ae\u03bd\u03b7) is a municipal unit (dimotiki enotita) and seat (edra) of the municipality (dimos) of Messini within the regional unit (perifereiaki enotita) of Messenia in the region (perifereia) of Peloponnese, one of 13 regions into which Greece has been divided. Before 2011 the same hierarchy prevailed, according to Law 2539 of 1997, the Kapodistrias Plan, except that Messenia was a nomos and the Municipal unit was a locality (topiko diamerisma). The dimos existed under both laws, but not with the same constituents.Messini (modern pronunciation) is not to be confused with its ancient namesake, Messene, located 15 kilometres (9.3 miles) to the north in the shadow of Mount Ithome. close to . Ancient Messene is an equally large but abandoned site of ruins partially occupied by the small village of Mavrommati (not to be confused with Mavrommati Pamisou, or just Pamisou, on the north of the modern city). Messini did not gradually become nor was it created by population transfer from Ancient Messene. Formerly Nisi, it underwent a name change to Messini in the late 19th century.
p26
ssa(dp27
g7
(dp28
Vtype
p29
Vuri
p30
sVvalue
p31
Vhttp://dbpedia.org/ontology/areaCode
p32
ssg8
(dp33
Vtype
p34
Vliteral
p35
sVvalue
p36
V27220
p37
ssa(dp38
g7
(dp39
Vtype
p40
Vuri
p41
sVvalue
p42
Vhttp://dbpedia.org/ontology/postalCode
p43
ssg8
(dp44
Vtype
p45
Vliteral
p46
sVvalue
p47
V242 00
p48
ssa(dp49
g7
(dp50
Vtype
p51
Vuri
p52
sVvalue
p53
Vhttp://dbpedia.org/ontology/wikiPageExtracted
p54
ssg8
(dp55
Vdatatype
p56
Vhttp://www.w3.org/2001/XMLSchema#dateTime
p57
sVtype
p58
Vtyped-literal
p59
sVvalue
p60
V2016-11-03T03:46:07Z
p61
ssa(dp62
g7
(dp63
Vtype
p64
Vuri
p65
sVvalue
p66
Vhttp://dbpedia.org/ontology/wikiPageLength
p67
ssg8
(dp68
Vdatatype
p69
Vhttp://www.w3.org/2001/XMLSchema#nonNegativeInteger
p70
sVtype
p71
Vtyped-literal
p72
sVvalue
p73
V9142
p74
ssa(dp75
g7
(dp76
Vtype
p77
Vuri
p78
sVvalue
p79
Vhttp://dbpedia.org/ontology/wikiPageModified
p80
ssg8
(dp81
Vdatatype
p82
Vhttp://www.w3.org/2001/XMLSchema#dateTime
p83
sVtype
p84
Vtyped-literal
p85
sVvalue
p86
V2015-01-10T04:36:02Z
p87
ssa(dp88
g7
(dp89
Vtype
p90
Vuri
p91
sVvalue
p92
Vhttp://dbpedia.org/ontology/wikiPageOutDegree
p93
ssg8
(dp94
Vdatatype
p95
Vhttp://www.w3.org/2001/XMLSchema#nonNegativeInteger
p96
sVtype
p97
Vtyped-literal
p98
sVvalue
p99
V43
p100
ssasVordered
p101
I01
ss.