(dp0
Vhead
p1
(dp2
Vlink
p3
(lp4
sVvars
p5
(lp6
Vp
p7
aVo
p8
assVresults
p9
(dp10
Vdistinct
p11
I00
sVbindings
p12
(lp13
(dp14
g7
(dp15
Vtype
p16
Vuri
p17
sVvalue
p18
Vhttp://dbpedia.org/ontology/Person/height
p19
ssg8
(dp20
Vdatatype
p21
Vhttp://dbpedia.org/datatype/centimetre
p22
sVtype
p23
Vtyped-literal
p24
sVvalue
p25
V187.96
p26
ssa(dp27
g7
(dp28
Vtype
p29
Vuri
p30
sVvalue
p31
Vhttp://dbpedia.org/ontology/Person/weight
p32
ssg8
(dp33
Vdatatype
p34
Vhttp://dbpedia.org/datatype/kilogram
p35
sVtype
p36
Vtyped-literal
p37
sVvalue
p38
V106.1424
p39
ssa(dp40
g7
(dp41
Vtype
p42
Vuri
p43
sVvalue
p44
Vhttp://dbpedia.org/ontology/abstract
p45
ssg8
(dp46
Vxml:lang
p47
Ven
p48
sVtype
p49
Vliteral
p50
sVvalue
p51
VMatthew Moore "Matt" Hardy (born September 23, 1974) is an American professional wrestler and wrestling promoter currently signed with Total Nonstop Action Wrestling (TNA). He is best known for his work in the World Wrestling Federation (WWF), later renamed to World Wrestling Entertainment (WWE).Matt (with brother Jeff) gained notoriety in WWE's tag team division due to their participation in Tables, Ladders, and Chairs matches. As a tag team wrestler, Hardy is a nine-time world tag team champion, having held six World Tag Team Championships, one WWE Tag Team Championship, one WCW Tag Team Championship, and one TNA World Tag Team Championship.Apart from his success as a tag team wrestler, Hardy is a three-time world champion, having held the TNA World Heavyweight Championship twice and the ECW Championship once. He has also won the WWE's United States, European, Hardcore, and Cruiserweight Championships once each. All totaled, Hardy has won 16 total championships between WWE and TNA.Hardy has also won numerous championships in independent promotions, including OMEGA Championship Wrestling, where he is the founder, co-owner, and current Heavyweight Champion in his second reign.
p52
ssa(dp53
g7
(dp54
Vtype
p55
Vuri
p56
sVvalue
p57
Vhttp://dbpedia.org/ontology/abstract
p58
ssg8
(dp59
Vxml:lang
p60
Ven
p61
sVtype
p62
Vliteral
p63
sVvalue
p64
VMatthew Moore "Matt" Hardy (born September 23, 1974) is an American professional wrestler and wrestling promoter currently signed with Total Nonstop Action Wrestling (TNA), where he is one-half of the TNA World Tag Team Champions in his second reign. He is best known for his work in the World Wrestling Federation (WWF), later renamed to World Wrestling Entertainment (WWE).Matt, with his brother Jeff, gained notoriety in WWE's tag team division due to their participation in Tables, Ladders, and Chairs matches. As a tag team wrestler, Hardy is a 10-time world tag team champion, having held six World Tag Team Championships, one WWE Tag Team Championship, one WCW Tag Team Championship, and two TNA World Tag Team Championships.Apart from his success as a tag team wrestler, Hardy is a three-time world heavyweight champion, having held the TNA World Heavyweight Championship twice and the ECW Championship once. He has also won the WWE's United States, European, Hardcore, and Cruiserweight Championships once each. All totaled, Hardy has won 17 championships between WWE and TNA.Hardy has also won numerous championships in independent promotions, including OMEGA Championship Wrestling, where he is the founder, co-owner, and current Heavyweight Champion in his second reign.
p65
ssa(dp66
g7
(dp67
Vtype
p68
Vuri
p69
sVvalue
p70
Vhttp://dbpedia.org/ontology/birthDate
p71
ssg8
(dp72
Vdatatype
p73
Vhttp://www.w3.org/2001/XMLSchema#date
p74
sVtype
p75
Vtyped-literal
p76
sVvalue
p77
V1974-09-23
p78
ssa(dp79
g7
(dp80
Vtype
p81
Vuri
p82
sVvalue
p83
Vhttp://dbpedia.org/ontology/height
p84
ssg8
(dp85
Vdatatype
p86
Vhttp://www.w3.org/2001/XMLSchema#double
p87
sVtype
p88
Vtyped-literal
p89
sVvalue
p90
V1.8796
p91
ssa(dp92
g7
(dp93
Vtype
p94
Vuri
p95
sVvalue
p96
Vhttp://dbpedia.org/ontology/imdbId
p97
ssg8
(dp98
Vtype
p99
Vliteral
p100
sVvalue
p101
V0362709
p102
ssa(dp103
g7
(dp104
Vtype
p105
Vuri
p106
sVvalue
p107
Vhttp://dbpedia.org/ontology/weight
p108
ssg8
(dp109
Vdatatype
p110
Vhttp://www.w3.org/2001/XMLSchema#double
p111
sVtype
p112
Vtyped-literal
p113
sVvalue
p114
V106142.0
p115
ssa(dp116
g7
(dp117
Vtype
p118
Vuri
p119
sVvalue
p120
Vhttp://dbpedia.org/ontology/wikiPageExtracted
p121
ssg8
(dp122
Vdatatype
p123
Vhttp://www.w3.org/2001/XMLSchema#dateTime
p124
sVtype
p125
Vtyped-literal
p126
sVvalue
p127
V2016-11-03T00:32:16Z
p128
ssa(dp129
g7
(dp130
Vtype
p131
Vuri
p132
sVvalue
p133
Vhttp://dbpedia.org/ontology/wikiPageLength
p134
ssg8
(dp135
Vdatatype
p136
Vhttp://www.w3.org/2001/XMLSchema#nonNegativeInteger
p137
sVtype
p138
Vtyped-literal
p139
sVvalue
p140
V139022
p141
ssa(dp142
g7
(dp143
Vtype
p144
Vuri
p145
sVvalue
p146
Vhttp://dbpedia.org/ontology/wikiPageModified
p147
ssg8
(dp148
Vdatatype
p149
Vhttp://www.w3.org/2001/XMLSchema#dateTime
p150
sVtype
p151
Vtyped-literal
p152
sVvalue
p153
V2016-10-31T02:21:35Z
p154
ssa(dp155
g7
(dp156
Vtype
p157
Vuri
p158
sVvalue
p159
Vhttp://dbpedia.org/ontology/wikiPageOutDegree
p160
ssg8
(dp161
Vdatatype
p162
Vhttp://www.w3.org/2001/XMLSchema#nonNegativeInteger
p163
sVtype
p164
Vtyped-literal
p165
sVvalue
p166
V582
p167
ssasVordered
p168
I01
ss.