(dp0
Vhead
p1
(dp2
Vlink
p3
(lp4
sVvars
p5
(lp6
Vp
p7
aVo
p8
assVresults
p9
(dp10
Vdistinct
p11
I00
sVbindings
p12
(lp13
(dp14
g7
(dp15
Vtype
p16
Vuri
p17
sVvalue
p18
Vhttp://dbpedia.org/ontology/abstract
p19
ssg8
(dp20
Vxml:lang
p21
Ven
p22
sVtype
p23
Vliteral
p24
sVvalue
p25
VTyreek Hill (born March 1, 1994) is an American football player for the Kansas City Chiefs of the National Football League (NFL). He attended Garden City Community College, Oklahoma State University, and University of West Alabama.A native of Douglas, Georgia, Hill attended Coffee High School, where he won both the 100 metres and 200 metres at the 2012 Georgia 5A state meet.On May 26, 2012, at the 36th Golden South Classic in Orlando, Florida, Hill ran a new season-best in the 100 m (10.19) and a PR in the 200 m (20.14). His time in the 200 m missed Roy Martin's 1985 national high school record by only one hundredth of a second. It was the fastest time by a junior athlete in the 2012 season, and in fact the fastest by a junior since Ramil Guliyev's 20.04 in 2009. His time in the 100 m ties Abraham Hall for second fastest by a junior in the 2012 season, behind only Adam Gemili. He was Track and Field News "High School Athlete of the Year" in 2012. Hill also clocked a 4.25 40-yard dash at a Nike Sparq Camp. Hill ran a wind-assisted (+5.0 m/s) 9.98 in the 100-meter dash at the 2013 Hutchinson NJCCA Championships.He was a USA Today All-American track and field selection in 2012.Tyreek Hill was arrested on December 12, 2014. Stillwater police records indicate that Oklahoma State football player Tyreek Hill was arrested on complaints that he assaulted his 20-year-old girlfriend. OSU dismissed him from the football team after these charges.On September 1, 2015, the University of West Alabama announced that Tyreek Hill enrolled and will play football for the Tigers during the 2015 season.
p26
ssa(dp27
g7
(dp28
Vtype
p29
Vuri
p30
sVvalue
p31
Vhttp://dbpedia.org/ontology/abstract
p32
ssg8
(dp33
Vxml:lang
p34
Ven
p35
sVtype
p36
Vliteral
p37
sVvalue
p38
VTyreek Hill (born March 1, 1994) is an American football wide receiver for the Kansas City Chiefs of the National Football League (NFL). He attended Garden City Community College, Oklahoma State University, and University of West Alabama.
p39
ssa(dp40
g7
(dp41
Vtype
p42
Vuri
p43
sVvalue
p44
Vhttp://dbpedia.org/ontology/birthDate
p45
ssg8
(dp46
Vdatatype
p47
Vhttp://www.w3.org/2001/XMLSchema#date
p48
sVtype
p49
Vtyped-literal
p50
sVvalue
p51
V1994-03-01
p52
ssa(dp53
g7
(dp54
Vtype
p55
Vuri
p56
sVvalue
p57
Vhttp://dbpedia.org/ontology/status
p58
ssg8
(dp59
Vtype
p60
Vliteral
p61
sVvalue
p62
VActive
p63
ssa(dp64
g7
(dp65
Vtype
p66
Vuri
p67
sVvalue
p68
Vhttp://dbpedia.org/ontology/wikiPageExtracted
p69
ssg8
(dp70
Vdatatype
p71
Vhttp://www.w3.org/2001/XMLSchema#dateTime
p72
sVtype
p73
Vtyped-literal
p74
sVvalue
p75
V2016-11-07T10:56:19Z
p76
ssa(dp77
g7
(dp78
Vtype
p79
Vuri
p80
sVvalue
p81
Vhttp://dbpedia.org/ontology/wikiPageLength
p82
ssg8
(dp83
Vdatatype
p84
Vhttp://www.w3.org/2001/XMLSchema#nonNegativeInteger
p85
sVtype
p86
Vtyped-literal
p87
sVvalue
p88
V7373
p89
ssa(dp90
g7
(dp91
Vtype
p92
Vuri
p93
sVvalue
p94
Vhttp://dbpedia.org/ontology/wikiPageModified
p95
ssg8
(dp96
Vdatatype
p97
Vhttp://www.w3.org/2001/XMLSchema#dateTime
p98
sVtype
p99
Vtyped-literal
p100
sVvalue
p101
V2016-10-24T03:44:04Z
p102
ssa(dp103
g7
(dp104
Vtype
p105
Vuri
p106
sVvalue
p107
Vhttp://dbpedia.org/ontology/wikiPageOutDegree
p108
ssg8
(dp109
Vdatatype
p110
Vhttp://www.w3.org/2001/XMLSchema#nonNegativeInteger
p111
sVtype
p112
Vtyped-literal
p113
sVvalue
p114
V55
p115
ssa(dp116
g7
(dp117
Vtype
p118
Vuri
p119
sVvalue
p120
Vhttp://dbpedia.org/ontology/draftYear
p121
ssg8
(dp122
Vdatatype
p123
Vhttp://www.w3.org/2001/XMLSchema#gYear
p124
sVtype
p125
Vtyped-literal
p126
sVvalue
p127
V2016
p128
ssa(dp129
g7
(dp130
Vtype
p131
Vuri
p132
sVvalue
p133
Vhttp://dbpedia.org/ontology/draftPick
p134
ssg8
(dp135
Vtype
p136
Vliteral
p137
sVvalue
p138
V165
p139
ssa(dp140
g7
(dp141
Vtype
p142
Vuri
p143
sVvalue
p144
Vhttp://dbpedia.org/ontology/draftRound
p145
ssg8
(dp146
Vtype
p147
Vliteral
p148
sVvalue
p149
V5
p150
ssa(dp151
g7
(dp152
Vtype
p153
Vuri
p154
sVvalue
p155
Vhttp://dbpedia.org/ontology/number
p156
ssg8
(dp157
Vtype
p158
Vliteral
p159
sVvalue
p160
V10
p161
ssasVordered
p162
I01
ss.