(dp0
Vhead
p1
(dp2
Vlink
p3
(lp4
sVvars
p5
(lp6
Vp
p7
aVo
p8
assVresults
p9
(dp10
Vdistinct
p11
I00
sVbindings
p12
(lp13
(dp14
g7
(dp15
Vtype
p16
Vuri
p17
sVvalue
p18
Vhttp://dbpedia.org/ontology/abstract
p19
ssg8
(dp20
Vxml:lang
p21
Ven
p22
sVtype
p23
Vliteral
p24
sVvalue
p25
VHMS Adamant was a 50-gun Portland-class fourth rate warship of the British Royal Navy. She served during the American War of Independence, the French Revolutionary Wars, and the Napoleonic Wars in a career that spanned thirty years.Built during the American War of Independence she spent the last three years of the war off the American coast, and saw action at the Battle of Cape Henry and at the Battle of the Chesapeake. The years of peace were spent either in the Caribbean or off Nova Scotia, before the outbreak of the French Revolutionary Wars saw her commissioned for service in the Leeward Islands and off the British coast. It was while serving in British waters that she became caught up in the mutiny at the Nore. As one of only two two-decker ships to remain in action during the mutiny she had to maintain the Dutch blockade by creating the illusion of being part of a larger fleet, which she managed successfully. Adamant then went on to fight at the Battle of Camperdown, after which she moved to the English Channel, and then the Indian Ocean via the Cape of Good Hope. Here she took part in the destruction of the French commerce raider Preneuse, and in her later years captured a number of privateers. She became a receiving ship and flagship of a port admiral during the last years of the Napoleonic Wars, until being broken up in June 1814.
p26
ssa(dp27
g7
(dp28
Vtype
p29
Vuri
p30
sVvalue
p31
Vhttp://dbpedia.org/ontology/completionDate
p32
ssg8
(dp33
Vdatatype
p34
Vhttp://www.w3.org/2001/XMLSchema#date
p35
sVtype
p36
Vtyped-literal
p37
sVvalue
p38
V1780-08-12
p39
ssa(dp40
g7
(dp41
Vtype
p42
Vuri
p43
sVvalue
p44
Vhttp://dbpedia.org/ontology/length
p45
ssg8
(dp46
Vdatatype
p47
Vhttp://www.w3.org/2001/XMLSchema#double
p48
sVtype
p49
Vtyped-literal
p50
sVvalue
p51
V44.5008
p52
ssa(dp53
g7
(dp54
Vtype
p55
Vuri
p56
sVvalue
p57
Vhttp://dbpedia.org/ontology/status
p58
ssg8
(dp59
Vtype
p60
Vliteral
p61
sVvalue
p62
VBroken up in June 1814
p63
ssa(dp64
g7
(dp65
Vtype
p66
Vuri
p67
sVvalue
p68
Vhttp://dbpedia.org/ontology/wikiPageExtracted
p69
ssg8
(dp70
Vdatatype
p71
Vhttp://www.w3.org/2001/XMLSchema#dateTime
p72
sVtype
p73
Vtyped-literal
p74
sVvalue
p75
V2016-10-31T06:41:32Z
p76
ssa(dp77
g7
(dp78
Vtype
p79
Vuri
p80
sVvalue
p81
Vhttp://dbpedia.org/ontology/wikiPageLength
p82
ssg8
(dp83
Vdatatype
p84
Vhttp://www.w3.org/2001/XMLSchema#nonNegativeInteger
p85
sVtype
p86
Vtyped-literal
p87
sVvalue
p88
V14403
p89
ssa(dp90
g7
(dp91
Vtype
p92
Vuri
p93
sVvalue
p94
Vhttp://dbpedia.org/ontology/wikiPageModified
p95
ssg8
(dp96
Vdatatype
p97
Vhttp://www.w3.org/2001/XMLSchema#dateTime
p98
sVtype
p99
Vtyped-literal
p100
sVvalue
p101
V2016-10-15T05:03:58Z
p102
ssa(dp103
g7
(dp104
Vtype
p105
Vuri
p106
sVvalue
p107
Vhttp://dbpedia.org/ontology/wikiPageOutDegree
p108
ssg8
(dp109
Vdatatype
p110
Vhttp://www.w3.org/2001/XMLSchema#nonNegativeInteger
p111
sVtype
p112
Vtyped-literal
p113
sVvalue
p114
V79
p115
ssa(dp116
g7
(dp117
Vtype
p118
Vuri
p119
sVvalue
p120
Vhttp://dbpedia.org/ontology/MeanOfTransportation/length
p121
ssg8
(dp122
Vdatatype
p123
Vhttp://dbpedia.org/datatype/millimetre
p124
sVtype
p125
Vtyped-literal
p126
sVvalue
p127
V44500.8
p128
ssa(dp129
g7
(dp130
Vtype
p131
Vuri
p132
sVvalue
p133
Vhttp://dbpedia.org/ontology/layingDown
p134
ssg8
(dp135
Vdatatype
p136
Vhttp://www.w3.org/2001/XMLSchema#date
p137
sVtype
p138
Vtyped-literal
p139
sVvalue
p140
V1777-09-06
p141
ssa(dp142
g7
(dp143
Vtype
p144
Vuri
p145
sVvalue
p146
Vhttp://dbpedia.org/ontology/orderDate
p147
ssg8
(dp148
Vdatatype
p149
Vhttp://www.w3.org/2001/XMLSchema#date
p150
sVtype
p151
Vtyped-literal
p152
sVvalue
p153
V1776-11-13
p154
ssa(dp155
g7
(dp156
Vtype
p157
Vuri
p158
sVvalue
p159
Vhttp://dbpedia.org/ontology/shipBeam
p160
ssg8
(dp161
Vdatatype
p162
Vhttp://www.w3.org/2001/XMLSchema#double
p163
sVtype
p164
Vtyped-literal
p165
sVvalue
p166
V12.192
p167
ssa(dp168
g7
(dp169
Vtype
p170
Vuri
p171
sVvalue
p172
Vhttp://dbpedia.org/ontology/shipLaunch
p173
ssg8
(dp174
Vdatatype
p175
Vhttp://www.w3.org/2001/XMLSchema#date
p176
sVtype
p177
Vtyped-literal
p178
sVvalue
p179
V1780-01-24
p180
ssasVordered
p181
I01
ss.