(dp0
Vhead
p1
(dp2
Vlink
p3
(lp4
sVvars
p5
(lp6
Vp
p7
aVo
p8
assVresults
p9
(dp10
Vdistinct
p11
I00
sVbindings
p12
(lp13
(dp14
g7
(dp15
Vtype
p16
Vuri
p17
sVvalue
p18
Vhttp://dbpedia.org/ontology/abstract
p19
ssg8
(dp20
Vxml:lang
p21
Ven
p22
sVtype
p23
Vliteral
p24
sVvalue
p25
VThe Sayre Area School District is a small, rural public school district located in northcentral Bradford County, Pennsylvania. The District serves two noncontiguous fragments: the Boroughs of Sayre and South Waverly and Litchfield Township in Bradford County, Pennsylvania. Sayre Area School District encompasses approximately 58 square miles (150 km2). According to 2000 federal census data, it serves a resident population of 5,813 people. By 2010, the District's population increased to 7,938 people. The educational attainment levels for the Sayre Area School District population (25 years old and over) were 87.3% high school graduates and 21.4% college graduates. Sayre Area School District is one of the 500 public school districts of PennsylvaniaAccording to the Pennsylvania Budget and Policy Center, 42.7% of the District\u2019s pupils lived at 185% or below the Federal Poverty Level [1] as shown by their eligibility for the federal free or reduced price school meal programs in 2012. In 2009, the district residents\u2019 per capita income was $16,811, while the median family income was $40,063. In the Commonwealth, the median family income was $49,501 and the United States median family income was $49,445, in 2010. In Bradford County, the median household income was $46,936. By 2013, the median household income in the United States rose to $52,100. In 2014, the median household income in the USA was $53,700.Per District officials, in school year 2007-08 the Sayre Area School District provided basic educational services to 1,212 pupils. The district employed: of 86 teachers, 64 full-time and part-time support personnel, and 13 administrators. Sayre Area School District received more than $7.4 million in state funding in school year 2007-08. The District enrollment was 1,122 pupils in 2011-12. The District employed: 85 teachers, 61 full-time and part-time support personnel, and nine (9) administrators during the 2011-12 school year. The District received $8,101,154 in state funding in the 2011-12 school year.Sayre Area School District operates two schools: Sayre Area High School (7th-12th) and H. Austin Snyder Elementary School (pre K-6th). Litchfield Elementary School (K-4th) was closed in June 2011. High school students may choose to attend the Northern Tier Career Center for training in: food service, cosmetology; practical nursing; technology; auto mechanics; as well as construction and electric trades. The BLaST Intermediate Unit IU17 provides the District with a wide variety of services like: specialized education for disabled students; state mandated training on recognizing and reporting child abuse; speech and visual disability services; criminal background check processing for prospective employees and professional development for staff and faculty.
p26
ssa(dp27
g7
(dp28
Vtype
p29
Vuri
p30
sVvalue
p31
Vhttp://dbpedia.org/ontology/wikiPageExtracted
p32
ssg8
(dp33
Vdatatype
p34
Vhttp://www.w3.org/2001/XMLSchema#dateTime
p35
sVtype
p36
Vtyped-literal
p37
sVvalue
p38
V2016-11-05T16:19:41Z
p39
ssa(dp40
g7
(dp41
Vtype
p42
Vuri
p43
sVvalue
p44
Vhttp://dbpedia.org/ontology/wikiPageLength
p45
ssg8
(dp46
Vdatatype
p47
Vhttp://www.w3.org/2001/XMLSchema#nonNegativeInteger
p48
sVtype
p49
Vtyped-literal
p50
sVvalue
p51
V170345
p52
ssa(dp53
g7
(dp54
Vtype
p55
Vuri
p56
sVvalue
p57
Vhttp://dbpedia.org/ontology/wikiPageModified
p58
ssg8
(dp59
Vdatatype
p60
Vhttp://www.w3.org/2001/XMLSchema#dateTime
p61
sVtype
p62
Vtyped-literal
p63
sVvalue
p64
V2016-06-05T20:17:06Z
p65
ssa(dp66
g7
(dp67
Vtype
p68
Vuri
p69
sVvalue
p70
Vhttp://dbpedia.org/ontology/wikiPageOutDegree
p71
ssg8
(dp72
Vdatatype
p73
Vhttp://www.w3.org/2001/XMLSchema#nonNegativeInteger
p74
sVtype
p75
Vtyped-literal
p76
sVvalue
p77
V124
p78
ssasVordered
p79
I01
ss.