(dp0
Vhead
p1
(dp2
Vlink
p3
(lp4
sVvars
p5
(lp6
Vp
p7
aVo
p8
assVresults
p9
(dp10
Vdistinct
p11
I00
sVbindings
p12
(lp13
(dp14
g7
(dp15
Vtype
p16
Vuri
p17
sVvalue
p18
Vhttp://dbpedia.org/ontology/abstract
p19
ssg8
(dp20
Vxml:lang
p21
Ven
p22
sVtype
p23
Vliteral
p24
sVvalue
p25
VThe National Association of Professional Base Ball Players (NAPBBP), or simply the National Association (NA), was founded in 1871 and continued through the 1875 season. It succeeded and incorporated several professional clubs from the National Association of Base Ball Players (NABBP); in turn several of its clubs created the succeeding National League of Professional Baseball Clubs.
p26
ssa(dp27
g7
(dp28
Vtype
p29
Vuri
p30
sVvalue
p31
Vhttp://dbpedia.org/ontology/formationDate
p32
ssg8
(dp33
Vdatatype
p34
Vhttp://www.w3.org/2001/XMLSchema#date
p35
sVtype
p36
Vtyped-literal
p37
sVvalue
p38
V1871-03-17
p39
ssa(dp40
g7
(dp41
Vtype
p42
Vuri
p43
sVvalue
p44
Vhttp://dbpedia.org/ontology/foundingYear
p45
ssg8
(dp46
Vdatatype
p47
Vhttp://www.w3.org/2001/XMLSchema#gYear
p48
sVtype
p49
Vtyped-literal
p50
sVvalue
p51
V1871
p52
ssa(dp53
g7
(dp54
Vtype
p55
Vuri
p56
sVvalue
p57
Vhttp://dbpedia.org/ontology/participant
p58
ssg8
(dp59
Vtype
p60
Vliteral
p61
sVvalue
p62
V12 (1875)
p63
ssa(dp64
g7
(dp65
Vtype
p66
Vuri
p67
sVvalue
p68
Vhttp://dbpedia.org/ontology/participant
p69
ssg8
(dp70
Vtype
p71
Vliteral
p72
sVvalue
p73
V1875Boston Red Stockings
p74
ssa(dp75
g7
(dp76
Vtype
p77
Vuri
p78
sVvalue
p79
Vhttp://dbpedia.org/ontology/participant
p80
ssg8
(dp81
Vtype
p82
Vliteral
p83
sVvalue
p84
V25 (total)
p85
ssa(dp86
g7
(dp87
Vtype
p88
Vuri
p89
sVvalue
p90
Vhttp://dbpedia.org/ontology/participant
p91
ssg8
(dp92
Vtype
p93
Vliteral
p94
sVvalue
p95
V8 (1874)
p96
ssa(dp97
g7
(dp98
Vtype
p99
Vuri
p100
sVvalue
p101
Vhttp://dbpedia.org/ontology/wikiPageExtracted
p102
ssg8
(dp103
Vdatatype
p104
Vhttp://www.w3.org/2001/XMLSchema#dateTime
p105
sVtype
p106
Vtyped-literal
p107
sVvalue
p108
V2016-11-03T16:14:35Z
p109
ssa(dp110
g7
(dp111
Vtype
p112
Vuri
p113
sVvalue
p114
Vhttp://dbpedia.org/ontology/wikiPageLength
p115
ssg8
(dp116
Vdatatype
p117
Vhttp://www.w3.org/2001/XMLSchema#nonNegativeInteger
p118
sVtype
p119
Vtyped-literal
p120
sVvalue
p121
V7844
p122
ssa(dp123
g7
(dp124
Vtype
p125
Vuri
p126
sVvalue
p127
Vhttp://dbpedia.org/ontology/wikiPageModified
p128
ssg8
(dp129
Vdatatype
p130
Vhttp://www.w3.org/2001/XMLSchema#dateTime
p131
sVtype
p132
Vtyped-literal
p133
sVvalue
p134
V2016-06-05T18:11:15Z
p135
ssa(dp136
g7
(dp137
Vtype
p138
Vuri
p139
sVvalue
p140
Vhttp://dbpedia.org/ontology/wikiPageOutDegree
p141
ssg8
(dp142
Vdatatype
p143
Vhttp://www.w3.org/2001/XMLSchema#nonNegativeInteger
p144
sVtype
p145
Vtyped-literal
p146
sVvalue
p147
V78
p148
ssasVordered
p149
I01
ss.