(dp0
Vhead
p1
(dp2
Vlink
p3
(lp4
sVvars
p5
(lp6
Vp
p7
aVo
p8
assVresults
p9
(dp10
Vdistinct
p11
I00
sVbindings
p12
(lp13
(dp14
g7
(dp15
Vtype
p16
Vuri
p17
sVvalue
p18
Vhttp://dbpedia.org/ontology/isPartOfName
p19
ssg8
(dp20
Vtype
p21
Vliteral
p22
sVvalue
p23
VKuala Lumpur-Karak Expressway
p24
ssa(dp25
g7
(dp26
Vtype
p27
Vuri
p28
sVvalue
p29
Vhttp://dbpedia.org/ontology/abstract
p30
ssg8
(dp31
Vxml:lang
p32
Ven
p33
sVtype
p34
Vliteral
p35
sVvalue
p36
VThe Genting Sempah Tunnel is the first highway tunnel in Malaysia. Located on the Kuala Lumpur-Karak Expressway, the 900-metre tunnel connects Hulu Gombak in Selangor to Genting Sempah, Pahang. This tunnel was constructed between 1977 and 1979. The tunnel was officially opened in 1979 by the former Minister of Works and Communications, Abdul Ghani Gilong.The tunnel was once used to be the longest road tunnel in Malaysia before the construction of the 4-km SMART Tunnel which was opened in 2007.Originally, the Genting Sempah Tunnel was used to be a 2-lane single-carriageway tunnel but then an additional tunnel for the eastbound traffic was constructed between 1995 to 1997 when the Karak Expressway was upgraded from a 2-lane highway to a high-speed multi-lane expressway.
p37
ssa(dp38
g7
(dp39
Vtype
p40
Vuri
p41
sVvalue
p42
Vhttp://dbpedia.org/ontology/length
p43
ssg8
(dp44
Vdatatype
p45
Vhttp://www.w3.org/2001/XMLSchema#double
p46
sVtype
p47
Vtyped-literal
p48
sVvalue
p49
V900.0
p50
ssa(dp51
g7
(dp52
Vtype
p53
Vuri
p54
sVvalue
p55
Vhttp://dbpedia.org/ontology/status
p56
ssg8
(dp57
Vtype
p58
Vliteral
p59
sVvalue
p60
VOperational
p61
ssa(dp62
g7
(dp63
Vtype
p64
Vuri
p65
sVvalue
p66
Vhttp://dbpedia.org/ontology/wikiPageExtracted
p67
ssg8
(dp68
Vdatatype
p69
Vhttp://www.w3.org/2001/XMLSchema#dateTime
p70
sVtype
p71
Vtyped-literal
p72
sVvalue
p73
V2016-10-30T21:03:56Z
p74
ssa(dp75
g7
(dp76
Vtype
p77
Vuri
p78
sVvalue
p79
Vhttp://dbpedia.org/ontology/wikiPageLength
p80
ssg8
(dp81
Vdatatype
p82
Vhttp://www.w3.org/2001/XMLSchema#nonNegativeInteger
p83
sVtype
p84
Vtyped-literal
p85
sVvalue
p86
V2001
p87
ssa(dp88
g7
(dp89
Vtype
p90
Vuri
p91
sVvalue
p92
Vhttp://dbpedia.org/ontology/wikiPageModified
p93
ssg8
(dp94
Vdatatype
p95
Vhttp://www.w3.org/2001/XMLSchema#dateTime
p96
sVtype
p97
Vtyped-literal
p98
sVvalue
p99
V2015-09-08T04:19:46Z
p100
ssa(dp101
g7
(dp102
Vtype
p103
Vuri
p104
sVvalue
p105
Vhttp://dbpedia.org/ontology/wikiPageOutDegree
p106
ssg8
(dp107
Vdatatype
p108
Vhttp://www.w3.org/2001/XMLSchema#nonNegativeInteger
p109
sVtype
p110
Vtyped-literal
p111
sVvalue
p112
V26
p113
ssa(dp114
g7
(dp115
Vtype
p116
Vuri
p117
sVvalue
p118
Vhttp://dbpedia.org/ontology/Infrastructure/length
p119
ssg8
(dp120
Vdatatype
p121
Vhttp://dbpedia.org/datatype/kilometre
p122
sVtype
p123
Vtyped-literal
p124
sVvalue
p125
V0.9
p126
ssa(dp127
g7
(dp128
Vtype
p129
Vuri
p130
sVvalue
p131
Vhttp://dbpedia.org/ontology/openingYear
p132
ssg8
(dp133
Vdatatype
p134
Vhttp://www.w3.org/2001/XMLSchema#gYear
p135
sVtype
p136
Vtyped-literal
p137
sVvalue
p138
V1979
p139
ssa(dp140
g7
(dp141
Vtype
p142
Vuri
p143
sVvalue
p144
Vhttp://dbpedia.org/ontology/speedLimit
p145
ssg8
(dp146
Vdatatype
p147
Vhttp://www.w3.org/2001/XMLSchema#double
p148
sVtype
p149
Vtyped-literal
p150
sVvalue
p151
V90.0
p152
ssasVordered
p153
I01
ss.