(dp0
Vhead
p1
(dp2
Vlink
p3
(lp4
sVvars
p5
(lp6
Vp
p7
aVo
p8
assVresults
p9
(dp10
Vdistinct
p11
I00
sVbindings
p12
(lp13
(dp14
g7
(dp15
Vtype
p16
Vuri
p17
sVvalue
p18
Vhttp://dbpedia.org/ontology/abstract
p19
ssg8
(dp20
Vxml:lang
p21
Ven
p22
sVtype
p23
Vliteral
p24
sVvalue
p25
VFereydunshahr (Persian: \u0641\u0631\u06cc\u062f\u0648\u0646\u200c\u0634\u0647\u0631\u200e\u200e, Georgian: \u10db\u10d0\u10e0\u10e2\u10e7\u10dd\u10e4\u10d8 "Martqopi") is a city in and the capital of Fereydunshahr County, about 150 kilometres west of the city of Isfahan in the western part of Isfahan Province, Iran. At the 2011 census, its population was 14,007, in 4,062 families.Fereydunshahr is situated inside the Zagros mountain range. It has one of the country's largest population of ethnic Georgians (\u10e4\u10d4\u10e0\u10d4\u10d8\u10d3\u10dc\u10d4\u10da\u10d8). People from Fereydunshahr speak a Georgian dialect along with Persian. The Georgian alphabet is also used.
p26
ssa(dp27
g7
(dp28
Vtype
p29
Vuri
p30
sVvalue
p31
Vhttp://dbpedia.org/ontology/elevation
p32
ssg8
(dp33
Vdatatype
p34
Vhttp://www.w3.org/2001/XMLSchema#double
p35
sVtype
p36
Vtyped-literal
p37
sVvalue
p38
V2490.0
p39
ssa(dp40
g7
(dp41
Vtype
p42
Vuri
p43
sVvalue
p44
Vhttp://dbpedia.org/ontology/populationTotal
p45
ssg8
(dp46
Vdatatype
p47
Vhttp://www.w3.org/2001/XMLSchema#nonNegativeInteger
p48
sVtype
p49
Vtyped-literal
p50
sVvalue
p51
V14007
p52
ssa(dp53
g7
(dp54
Vtype
p55
Vuri
p56
sVvalue
p57
Vhttp://dbpedia.org/ontology/utcOffset
p58
ssg8
(dp59
Vtype
p60
Vliteral
p61
sVvalue
p62
V+3:30
p63
ssa(dp64
g7
(dp65
Vtype
p66
Vuri
p67
sVvalue
p68
Vhttp://dbpedia.org/ontology/utcOffset
p69
ssg8
(dp70
Vtype
p71
Vliteral
p72
sVvalue
p73
V+4:30
p74
ssa(dp75
g7
(dp76
Vtype
p77
Vuri
p78
sVvalue
p79
Vhttp://dbpedia.org/ontology/wikiPageExtracted
p80
ssg8
(dp81
Vdatatype
p82
Vhttp://www.w3.org/2001/XMLSchema#dateTime
p83
sVtype
p84
Vtyped-literal
p85
sVvalue
p86
V2016-10-30T11:19:26Z
p87
ssa(dp88
g7
(dp89
Vtype
p90
Vuri
p91
sVvalue
p92
Vhttp://dbpedia.org/ontology/wikiPageLength
p93
ssg8
(dp94
Vdatatype
p95
Vhttp://www.w3.org/2001/XMLSchema#nonNegativeInteger
p96
sVtype
p97
Vtyped-literal
p98
sVvalue
p99
V4238
p100
ssa(dp101
g7
(dp102
Vtype
p103
Vuri
p104
sVvalue
p105
Vhttp://dbpedia.org/ontology/wikiPageModified
p106
ssg8
(dp107
Vdatatype
p108
Vhttp://www.w3.org/2001/XMLSchema#dateTime
p109
sVtype
p110
Vtyped-literal
p111
sVvalue
p112
V2016-06-22T14:11:53Z
p113
ssa(dp114
g7
(dp115
Vtype
p116
Vuri
p117
sVvalue
p118
Vhttp://dbpedia.org/ontology/wikiPageOutDegree
p119
ssg8
(dp120
Vdatatype
p121
Vhttp://www.w3.org/2001/XMLSchema#nonNegativeInteger
p122
sVtype
p123
Vtyped-literal
p124
sVvalue
p125
V24
p126
ssasVordered
p127
I01
ss.