(dp0
Vhead
p1
(dp2
Vlink
p3
(lp4
sVvars
p5
(lp6
Vp
p7
aVo
p8
assVresults
p9
(dp10
Vdistinct
p11
I00
sVbindings
p12
(lp13
(dp14
g7
(dp15
Vtype
p16
Vuri
p17
sVvalue
p18
Vhttp://dbpedia.org/ontology/Person/weight
p19
ssg8
(dp20
Vdatatype
p21
Vhttp://dbpedia.org/datatype/kilogram
p22
sVtype
p23
Vtyped-literal
p24
sVvalue
p25
V88.452
p26
ssa(dp27
g7
(dp28
Vtype
p29
Vuri
p30
sVvalue
p31
Vhttp://dbpedia.org/ontology/abstract
p32
ssg8
(dp33
Vxml:lang
p34
Ven
p35
sVtype
p36
Vliteral
p37
sVvalue
p38
VCurtis Murphy (born December 3, 1975 in Kerrobert, Saskatchewan) is a Canadian professional ice hockey defenceman currently an unrestricted free agent who most recently played in the Austrian Hockey League with EHC Black Wings Linz.Murphy was signed as an undrafted free agent by the Minnesota Wild in on June 18, 2001, and he played one game in the National Hockey League with the Wild in the 2002\u201303 season.Murphy was a member of Team Canada at the 2007 Spengler Cup. He has won two American Hockey League Calder Cups, one in 2003 with the Houston Aeros and one in 2004 with the Milwaukee Admirals.
p39
ssa(dp40
g7
(dp41
Vtype
p42
Vuri
p43
sVvalue
p44
Vhttp://dbpedia.org/ontology/activeYearsStartYear
p45
ssg8
(dp46
Vdatatype
p47
Vhttp://www.w3.org/2001/XMLSchema#gYear
p48
sVtype
p49
Vtyped-literal
p50
sVvalue
p51
V1998
p52
ssa(dp53
g7
(dp54
Vtype
p55
Vuri
p56
sVvalue
p57
Vhttp://dbpedia.org/ontology/birthDate
p58
ssg8
(dp59
Vdatatype
p60
Vhttp://www.w3.org/2001/XMLSchema#date
p61
sVtype
p62
Vtyped-literal
p63
sVvalue
p64
V1975-12-03
p65
ssa(dp66
g7
(dp67
Vtype
p68
Vuri
p69
sVvalue
p70
Vhttp://dbpedia.org/ontology/height
p71
ssg8
(dp72
Vdatatype
p73
Vhttp://www.w3.org/2001/XMLSchema#double
p74
sVtype
p75
Vtyped-literal
p76
sVvalue
p77
V1.7272
p78
ssa(dp79
g7
(dp80
Vtype
p81
Vuri
p82
sVvalue
p83
Vhttp://dbpedia.org/ontology/weight
p84
ssg8
(dp85
Vdatatype
p86
Vhttp://www.w3.org/2001/XMLSchema#double
p87
sVtype
p88
Vtyped-literal
p89
sVvalue
p90
V88452.0
p91
ssa(dp92
g7
(dp93
Vtype
p94
Vuri
p95
sVvalue
p96
Vhttp://dbpedia.org/ontology/wikiPageExtracted
p97
ssg8
(dp98
Vdatatype
p99
Vhttp://www.w3.org/2001/XMLSchema#dateTime
p100
sVtype
p101
Vtyped-literal
p102
sVvalue
p103
V2016-10-29T09:47:21Z
p104
ssa(dp105
g7
(dp106
Vtype
p107
Vuri
p108
sVvalue
p109
Vhttp://dbpedia.org/ontology/wikiPageLength
p110
ssg8
(dp111
Vdatatype
p112
Vhttp://www.w3.org/2001/XMLSchema#nonNegativeInteger
p113
sVtype
p114
Vtyped-literal
p115
sVvalue
p116
V8555
p117
ssa(dp118
g7
(dp119
Vtype
p120
Vuri
p121
sVvalue
p122
Vhttp://dbpedia.org/ontology/wikiPageModified
p123
ssg8
(dp124
Vdatatype
p125
Vhttp://www.w3.org/2001/XMLSchema#dateTime
p126
sVtype
p127
Vtyped-literal
p128
sVvalue
p129
V2016-05-13T03:24:31Z
p130
ssa(dp131
g7
(dp132
Vtype
p133
Vuri
p134
sVvalue
p135
Vhttp://dbpedia.org/ontology/wikiPageOutDegree
p136
ssg8
(dp137
Vdatatype
p138
Vhttp://www.w3.org/2001/XMLSchema#nonNegativeInteger
p139
sVtype
p140
Vtyped-literal
p141
sVvalue
p142
V110
p143
ssa(dp144
g7
(dp145
Vtype
p146
Vuri
p147
sVvalue
p148
Vhttp://dbpedia.org/ontology/draft
p149
ssg8
(dp150
Vtype
p151
Vliteral
p152
sVvalue
p153
VUndrafted
p154
ssa(dp155
g7
(dp156
Vtype
p157
Vuri
p158
sVvalue
p159
Vhttp://dbpedia.org/ontology/shoots
p160
ssg8
(dp161
Vtype
p162
Vliteral
p163
sVvalue
p164
VRight
p165
ssasVordered
p166
I01
ss.