(dp0
Vhead
p1
(dp2
Vlink
p3
(lp4
sVvars
p5
(lp6
Vp
p7
aVo
p8
assVresults
p9
(dp10
Vdistinct
p11
I00
sVbindings
p12
(lp13
(dp14
g7
(dp15
Vtype
p16
Vuri
p17
sVvalue
p18
Vhttp://dbpedia.org/ontology/bridgeCarries
p19
ssg8
(dp20
Vtype
p21
Vliteral
p22
sVvalue
p23
VRail traffic
p24
ssa(dp25
g7
(dp26
Vtype
p27
Vuri
p28
sVvalue
p29
Vhttp://dbpedia.org/ontology/abstract
p30
ssg8
(dp31
Vxml:lang
p32
Ven
p33
sVtype
p34
Vliteral
p35
sVvalue
p36
VThe Chikugo River Lift Bridge (\u7b51\u5f8c\u5ddd\u6607\u958b\u6a4b, Chikugo-gawa sh\u014dkaiky\u014d) is a vertical lift railway bridge across the Chikugo River in Ky\u016bsh\u016b, Japan. It was completed in 1935. The bridge has a total length of 507.2 metres (1,664 ft), with a moveable span of 24.2 metres (79 ft) long and a vertical rise of 23 metres (75 ft). It links \u014ckawa, Fukuoka with Morodomi, Saga, and used to be part of the Saga Railway Line. When that line ceased operation in 1987 the bridge was closed to traffic. In 1996 it was reopened for pedestrians in response to requests from the public.A precision miniature model of the bridge, which describes its structure, was exhibited at the Exposition Internationale des Arts et Techniques dans la Vie Moderne (1937). Today this model is on display at the Railway Museum (Saitama).The bridge was designated an Important Cultural Property in 2003, and in 2007 it was included in the Mechanical Engineering Heritage as item No.23.
p37
ssa(dp38
g7
(dp39
Vtype
p40
Vuri
p41
sVvalue
p42
Vhttp://dbpedia.org/ontology/height
p43
ssg8
(dp44
Vdatatype
p45
Vhttp://www.w3.org/2001/XMLSchema#double
p46
sVtype
p47
Vtyped-literal
p48
sVvalue
p49
V23.0
p50
ssa(dp51
g7
(dp52
Vtype
p53
Vuri
p54
sVvalue
p55
Vhttp://dbpedia.org/ontology/length
p56
ssg8
(dp57
Vdatatype
p58
Vhttp://www.w3.org/2001/XMLSchema#double
p59
sVtype
p60
Vtyped-literal
p61
sVvalue
p62
V507.2
p63
ssa(dp64
g7
(dp65
Vtype
p66
Vuri
p67
sVvalue
p68
Vhttp://dbpedia.org/ontology/wikiPageExtracted
p69
ssg8
(dp70
Vdatatype
p71
Vhttp://www.w3.org/2001/XMLSchema#dateTime
p72
sVtype
p73
Vtyped-literal
p74
sVvalue
p75
V2016-10-28T23:07:00Z
p76
ssa(dp77
g7
(dp78
Vtype
p79
Vuri
p80
sVvalue
p81
Vhttp://dbpedia.org/ontology/wikiPageLength
p82
ssg8
(dp83
Vdatatype
p84
Vhttp://www.w3.org/2001/XMLSchema#nonNegativeInteger
p85
sVtype
p86
Vtyped-literal
p87
sVvalue
p88
V3058
p89
ssa(dp90
g7
(dp91
Vtype
p92
Vuri
p93
sVvalue
p94
Vhttp://dbpedia.org/ontology/wikiPageModified
p95
ssg8
(dp96
Vdatatype
p97
Vhttp://www.w3.org/2001/XMLSchema#dateTime
p98
sVtype
p99
Vtyped-literal
p100
sVvalue
p101
V2016-05-17T02:23:34Z
p102
ssa(dp103
g7
(dp104
Vtype
p105
Vuri
p106
sVvalue
p107
Vhttp://dbpedia.org/ontology/wikiPageOutDegree
p108
ssg8
(dp109
Vdatatype
p110
Vhttp://www.w3.org/2001/XMLSchema#nonNegativeInteger
p111
sVtype
p112
Vtyped-literal
p113
sVvalue
p114
V25
p115
ssa(dp116
g7
(dp117
Vtype
p118
Vuri
p119
sVvalue
p120
Vhttp://dbpedia.org/ontology/Infrastructure/length
p121
ssg8
(dp122
Vdatatype
p123
Vhttp://dbpedia.org/datatype/kilometre
p124
sVtype
p125
Vtyped-literal
p126
sVvalue
p127
V0.5072
p128
ssa(dp129
g7
(dp130
Vtype
p131
Vuri
p132
sVvalue
p133
Vhttp://dbpedia.org/ontology/buildingEndDate
p134
ssg8
(dp135
Vtype
p136
Vliteral
p137
sVvalue
p138
V1935
p139
ssa(dp140
g7
(dp141
Vtype
p142
Vuri
p143
sVvalue
p144
Vhttp://dbpedia.org/ontology/mainspan
p145
ssg8
(dp146
Vdatatype
p147
Vhttp://www.w3.org/2001/XMLSchema#double
p148
sVtype
p149
Vtyped-literal
p150
sVvalue
p151
V24.2
p152
ssa(dp153
g7
(dp154
Vtype
p155
Vuri
p156
sVvalue
p157
Vhttp://dbpedia.org/ontology/closingYear
p158
ssg8
(dp159
Vdatatype
p160
Vhttp://www.w3.org/2001/XMLSchema#gYear
p161
sVtype
p162
Vtyped-literal
p163
sVvalue
p164
V1987
p165
ssasVordered
p166
I01
ss.