(dp0
Vhead
p1
(dp2
Vlink
p3
(lp4
sVvars
p5
(lp6
Vp
p7
aVo
p8
assVresults
p9
(dp10
Vdistinct
p11
I00
sVbindings
p12
(lp13
(dp14
g7
(dp15
Vtype
p16
Vuri
p17
sVvalue
p18
Vhttp://dbpedia.org/ontology/abstract
p19
ssg8
(dp20
Vxml:lang
p21
Ven
p22
sVtype
p23
Vliteral
p24
sVvalue
p25
VSylvan Heights Science Charter School is a small, urban, public charter school located at 915 South 13th Street, Harrisburg. It is one of four public charter schools operating in Dauphin County, Pennsylvania. The school is a federally designated Title I school. Students are required to wear uniforms. The school focuses on a science-driven interdisciplinary program which highlights discovery and creativity activities. In 2011, Sylvan Heights Science Charter School offered after-school tutoring and a five-week summer school.Sylvan Heights Science Charter School has a Family Advisory Committee which meets each month. The Committee serves as a liaison between the families and the school; assists with public relations and publicity; and leads the in-school fundraising efforts. Each family is expected to volunteer at least 15 hours of service to the school a year.In 2015, Sylvan Heights Science Charter School's enrollment was 217 pupils in grades kindergarten through 4th, with 82.95% of pupils receiving a federal free or reduced price meals due to family poverty. Additionally, 11.5% of the pupils receive special education services, while none of the pupils are identified as gifted. According to a report by the Pennsylvania Department of Education, 100% of the teachers were rated highly qualified under the federal No Child Left Behind Act. The school provides full day kindergarten. The school is a federally designated Title I school.In 2014, Sylvan Heights Science Charter School provided grades kindergarten through 4th grade, with 86.5% of pupils eligible for a federal free or reduced price lunch due to the family meeting the federal poverty level. The school employed 14 teachers yielding a student-teacher ratio of 15:1. Additionally, 11% of the pupils receive special education services and none of the pupils were identified as gifted. According to a report by the Pennsylvania Department of Education, 100% of the school's teachers were rated "Highly Qualified" under the federal No Child Left Behind Act. The School employs 24 professionals including: a school nurse, 13 teachers, a reading teacher, and a special education specialist and several administrators. Capital Area Intermediate Unit 15 provides a Speech/Language therapist as needed.In 2013, enrollment was 218 pupils in grades kindergarten through 4th grade, with 83.9% of pupils from poverty. Additionally, 8.9% of pupils receive special education services, while none of the pupils were identified as gifted. Per the PDE, 100% of the teachers were rated highly qualified. The school had a waiting list of 396 pupils in October 2012.In 2011, Sylvan Heights Science Charter School's enrollment was 219 pupils in grades kindergarten through 4th, with 179 pupils eligible for a federal free or reduced price lunch due to the family meeting the federal poverty level. The school employed 25 teachers yielding a student-teacher ratio of 14:1. According to a report by the Pennsylvania Department, 100% of the teachers were highly qualified. The teachers worked 6.5 hours a day, five days a week. In 2011, the School's revenues came from two major sources: tuition paid by local school districts whose students attend and operating grants from the state and federal government.During the 2009-10 school year, the Sylvan Heights Science Charter School provided educational services to 217 pupils from 7 sending school districts. It employed: 17 teachers, 12 full-time and part-time support personnel, and 3 administrators.In 2008, Sylvan Heights Science Charter School's enrollment was 219 pupils in grades kindergarten through 4th. The school employed 15 teachers. There was a 185 pupil waiting list for admission. The percentage of students from low income families eligible for a free or reduced lunch was 79%, while 11 pupils received special education services.The Capital Area Intermediate Unit IU15 provides the School with a wide variety of services like specialized education for disabled students and hearing, speech and visual disability services and professional development for staff and faculty. The psychologist's services are purchased from Sleber and Associates.
p26
ssa(dp27
g7
(dp28
Vtype
p29
Vuri
p30
sVvalue
p31
Vhttp://dbpedia.org/ontology/wikiPageExtracted
p32
ssg8
(dp33
Vdatatype
p34
Vhttp://www.w3.org/2001/XMLSchema#dateTime
p35
sVtype
p36
Vtyped-literal
p37
sVvalue
p38
V2016-11-06T13:51:16Z
p39
ssa(dp40
g7
(dp41
Vtype
p42
Vuri
p43
sVvalue
p44
Vhttp://dbpedia.org/ontology/wikiPageLength
p45
ssg8
(dp46
Vdatatype
p47
Vhttp://www.w3.org/2001/XMLSchema#nonNegativeInteger
p48
sVtype
p49
Vtyped-literal
p50
sVvalue
p51
V52285
p52
ssa(dp53
g7
(dp54
Vtype
p55
Vuri
p56
sVvalue
p57
Vhttp://dbpedia.org/ontology/wikiPageModified
p58
ssg8
(dp59
Vdatatype
p60
Vhttp://www.w3.org/2001/XMLSchema#dateTime
p61
sVtype
p62
Vtyped-literal
p63
sVvalue
p64
V2016-06-06T01:59:08Z
p65
ssa(dp66
g7
(dp67
Vtype
p68
Vuri
p69
sVvalue
p70
Vhttp://dbpedia.org/ontology/wikiPageOutDegree
p71
ssg8
(dp72
Vdatatype
p73
Vhttp://www.w3.org/2001/XMLSchema#nonNegativeInteger
p74
sVtype
p75
Vtyped-literal
p76
sVvalue
p77
V35
p78
ssasVordered
p79
I01
ss.