(dp0
Vhead
p1
(dp2
Vlink
p3
(lp4
sVvars
p5
(lp6
Vp
p7
aVo
p8
assVresults
p9
(dp10
Vdistinct
p11
I00
sVbindings
p12
(lp13
(dp14
g7
(dp15
Vtype
p16
Vuri
p17
sVvalue
p18
Vhttp://dbpedia.org/ontology/PopulatedPlace/areaTotal
p19
ssg8
(dp20
Vdatatype
p21
Vhttp://dbpedia.org/datatype/squareKilometre
p22
sVtype
p23
Vtyped-literal
p24
sVvalue
p25
V8.2879619530752
p26
ssa(dp27
g7
(dp28
Vtype
p29
Vuri
p30
sVvalue
p31
Vhttp://dbpedia.org/ontology/PopulatedPlace/areaTotal
p32
ssg8
(dp33
Vdatatype
p34
Vhttp://dbpedia.org/datatype/squareKilometre
p35
sVtype
p36
Vtyped-literal
p37
sVvalue
p38
V8.4
p39
ssa(dp40
g7
(dp41
Vtype
p42
Vuri
p43
sVvalue
p44
Vhttp://dbpedia.org/ontology/abstract
p45
ssg8
(dp46
Vxml:lang
p47
Ven
p48
sVtype
p49
Vliteral
p50
sVvalue
p51
VBaldwinsville is a village in Onondaga County, New York, United States. The population was 7,378 at the 2010 census. It is part of the Syracuse Metropolitan Statistical Area.Baldwinsville is located in the towns of Lysander and Van Buren.
p52
ssa(dp53
g7
(dp54
Vtype
p55
Vuri
p56
sVvalue
p57
Vhttp://dbpedia.org/ontology/areaCode
p58
ssg8
(dp59
Vtype
p60
Vliteral
p61
sVvalue
p62
V315
p63
ssa(dp64
g7
(dp65
Vtype
p66
Vuri
p67
sVvalue
p68
Vhttp://dbpedia.org/ontology/areaLand
p69
ssg8
(dp70
Vdatatype
p71
Vhttp://www.w3.org/2001/XMLSchema#double
p72
sVtype
p73
Vtyped-literal
p74
sVvalue
p75
V8e+06
p76
ssa(dp77
g7
(dp78
Vtype
p79
Vuri
p80
sVvalue
p81
Vhttp://dbpedia.org/ontology/areaLand
p82
ssg8
(dp83
Vdatatype
p84
Vhttp://www.w3.org/2001/XMLSchema#double
p85
sVtype
p86
Vtyped-literal
p87
sVvalue
p88
V8.02896e+06
p89
ssa(dp90
g7
(dp91
Vtype
p92
Vuri
p93
sVvalue
p94
Vhttp://dbpedia.org/ontology/areaTotal
p95
ssg8
(dp96
Vdatatype
p97
Vhttp://www.w3.org/2001/XMLSchema#double
p98
sVtype
p99
Vtyped-literal
p100
sVvalue
p101
V8.28796e+06
p102
ssa(dp103
g7
(dp104
Vtype
p105
Vuri
p106
sVvalue
p107
Vhttp://dbpedia.org/ontology/areaTotal
p108
ssg8
(dp109
Vdatatype
p110
Vhttp://www.w3.org/2001/XMLSchema#double
p111
sVtype
p112
Vtyped-literal
p113
sVvalue
p114
V8.4e+06
p115
ssa(dp116
g7
(dp117
Vtype
p118
Vuri
p119
sVvalue
p120
Vhttp://dbpedia.org/ontology/areaWater
p121
ssg8
(dp122
Vdatatype
p123
Vhttp://www.w3.org/2001/XMLSchema#double
p124
sVtype
p125
Vtyped-literal
p126
sVvalue
p127
V400000.0
p128
ssa(dp129
g7
(dp130
Vtype
p131
Vuri
p132
sVvalue
p133
Vhttp://dbpedia.org/ontology/areaWater
p134
ssg8
(dp135
Vdatatype
p136
Vhttp://www.w3.org/2001/XMLSchema#double
p137
sVtype
p138
Vtyped-literal
p139
sVvalue
p140
V517998.0
p141
ssa(dp142
g7
(dp143
Vtype
p144
Vuri
p145
sVvalue
p146
Vhttp://dbpedia.org/ontology/elevation
p147
ssg8
(dp148
Vdatatype
p149
Vhttp://www.w3.org/2001/XMLSchema#double
p150
sVtype
p151
Vtyped-literal
p152
sVvalue
p153
V116.0
p154
ssa(dp155
g7
(dp156
Vtype
p157
Vuri
p158
sVvalue
p159
Vhttp://dbpedia.org/ontology/elevation
p160
ssg8
(dp161
Vdatatype
p162
Vhttp://www.w3.org/2001/XMLSchema#double
p163
sVtype
p164
Vtyped-literal
p165
sVvalue
p166
V116.129
p167
ssa(dp168
g7
(dp169
Vtype
p170
Vuri
p171
sVvalue
p172
Vhttp://dbpedia.org/ontology/motto
p173
ssg8
(dp174
Vtype
p175
Vliteral
p176
sVvalue
p177
VLock Into an Experience
p178
ssa(dp179
g7
(dp180
Vtype
p181
Vuri
p182
sVvalue
p183
Vhttp://dbpedia.org/ontology/populationTotal
p184
ssg8
(dp185
Vdatatype
p186
Vhttp://www.w3.org/2001/XMLSchema#nonNegativeInteger
p187
sVtype
p188
Vtyped-literal
p189
sVvalue
p190
V7378
p191
ssa(dp192
g7
(dp193
Vtype
p194
Vuri
p195
sVvalue
p196
Vhttp://dbpedia.org/ontology/postalCode
p197
ssg8
(dp198
Vtype
p199
Vliteral
p200
sVvalue
p201
V13027
p202
ssa(dp203
g7
(dp204
Vtype
p205
Vuri
p206
sVvalue
p207
Vhttp://dbpedia.org/ontology/utcOffset
p208
ssg8
(dp209
Vtype
p210
Vliteral
p211
sVvalue
p212
V-4
p213
ssa(dp214
g7
(dp215
Vtype
p216
Vuri
p217
sVvalue
p218
Vhttp://dbpedia.org/ontology/utcOffset
p219
ssg8
(dp220
Vtype
p221
Vliteral
p222
sVvalue
p223
V-5
p224
ssa(dp225
g7
(dp226
Vtype
p227
Vuri
p228
sVvalue
p229
Vhttp://dbpedia.org/ontology/wikiPageExtracted
p230
ssg8
(dp231
Vdatatype
p232
Vhttp://www.w3.org/2001/XMLSchema#dateTime
p233
sVtype
p234
Vtyped-literal
p235
sVvalue
p236
V2016-10-27T22:36:53Z
p237
ssa(dp238
g7
(dp239
Vtype
p240
Vuri
p241
sVvalue
p242
Vhttp://dbpedia.org/ontology/wikiPageLength
p243
ssg8
(dp244
Vdatatype
p245
Vhttp://www.w3.org/2001/XMLSchema#nonNegativeInteger
p246
sVtype
p247
Vtyped-literal
p248
sVvalue
p249
V18272
p250
ssa(dp251
g7
(dp252
Vtype
p253
Vuri
p254
sVvalue
p255
Vhttp://dbpedia.org/ontology/wikiPageModified
p256
ssg8
(dp257
Vdatatype
p258
Vhttp://www.w3.org/2001/XMLSchema#dateTime
p259
sVtype
p260
Vtyped-literal
p261
sVvalue
p262
V2016-10-26T20:14:54Z
p263
ssa(dp264
g7
(dp265
Vtype
p266
Vuri
p267
sVvalue
p268
Vhttp://dbpedia.org/ontology/wikiPageOutDegree
p269
ssg8
(dp270
Vdatatype
p271
Vhttp://www.w3.org/2001/XMLSchema#nonNegativeInteger
p272
sVtype
p273
Vtyped-literal
p274
sVvalue
p275
V85
p276
ssasVordered
p277
I01
ss.