(dp0
Vhead
p1
(dp2
Vlink
p3
(lp4
sVvars
p5
(lp6
Vp
p7
aVo
p8
assVresults
p9
(dp10
Vdistinct
p11
I00
sVbindings
p12
(lp13
(dp14
g7
(dp15
Vtype
p16
Vuri
p17
sVvalue
p18
Vhttp://dbpedia.org/ontology/abstract
p19
ssg8
(dp20
Vxml:lang
p21
Ven
p22
sVtype
p23
Vliteral
p24
sVvalue
p25
VSt Helens College is a general further education college serving the borough of St Helens in Merseyside. In 2009/10 it had 2,193 full-time learners aged 16-18, plus another 585 part-time learners in that age range. It had 541 full-time adult learners (age 19+), plus another 3,215 part-time adult learners. The total number of enrolments in 2009/10, including 14-16, FE, foundation learning, entry to employment, adult learners, Train to Gain, and apprenticeships was 11,408.The College provides a wide range of both further and higher education programmes, including qualifications for City and Guilds, National Diplomas, National Awards, National Certificates and NVQs; it also offers honours and foundation degrees validated through established partnerships with universities, including Central Lancashire, Edge Hill, Huddersfield, Liverpool John Moores, Salford and Sheffield Hallam.There are a number of entry-level qualifications available. The college traces its foundation to 1896 when it was the town's Gamble Institute, created by philanthropic mayor Sir David Gamble to provide a home of education for the rising generations. After substantial growth and expansion, the institute became the town's Technical College in 1959 and merged with Newton College in 1986. The purpose-built Technology centre began construction the same year.St Helens College is a member of the 157 Group of high-performing schools. A report following a 2006 Ofsted inspection awarded the college a Grade 2 (good).
p26
ssa(dp27
g7
(dp28
Vtype
p29
Vuri
p30
sVvalue
p31
Vhttp://dbpedia.org/ontology/abstract
p32
ssg8
(dp33
Vxml:lang
p34
Ven
p35
sVtype
p36
Vliteral
p37
sVvalue
p38
VSt Helens College is a further education college serving the borough of St Helens In 2009/10 it had 2,193 full-time adult learners aged 16-18 plus another 585 part-time learners. It had 541 full-time adult learners (age 19+), plus another 3,215 part-time adult learners. The total number of enrolments in 2009/10, including 14-16, FE, foundation learning, entry to employment, adult learners, Train to Gain, and apprenticeships was 11,408 benefit claimants.The College provides a wide range of both further and higher education programmes, including qualifications for City and Guilds, National Diplomas, National Awards, National Certificates and NVQs; it also offers honours and foundation degrees validated through established partnerships with universities, including Central Lancashire, Edge Hill, Huddersfield, Liverpool John Moores, Salford and Sheffield Hallam.There are a number of entry-level qualifications available. The college traces its foundation to 1896 when it was the town's Gamble Institute, created by philanthropic mayor Sir David Gamble to provide a home of education for the rising generations. After substantial growth and expansion, the institute became the town's Technical College in 1959 and merged with Newton College in 1986. The purpose-built Technology centre began construction the same year.St Helens College is a member of the 157 Group of high-performing schools. A report following a 2006 Ofsted inspection awarded the college a Grade 2 (good).
p39
ssa(dp40
g7
(dp41
Vtype
p42
Vuri
p43
sVvalue
p44
Vhttp://dbpedia.org/ontology/numberOfStudents
p45
ssg8
(dp46
Vdatatype
p47
Vhttp://www.w3.org/2001/XMLSchema#nonNegativeInteger
p48
sVtype
p49
Vtyped-literal
p50
sVvalue
p51
V15000
p52
ssa(dp53
g7
(dp54
Vtype
p55
Vuri
p56
sVvalue
p57
Vhttp://dbpedia.org/ontology/postalCode
p58
ssg8
(dp59
Vtype
p60
Vliteral
p61
sVvalue
p62
VWA10 1PP
p63
ssa(dp64
g7
(dp65
Vtype
p66
Vuri
p67
sVvalue
p68
Vhttp://dbpedia.org/ontology/wikiPageExtracted
p69
ssg8
(dp70
Vdatatype
p71
Vhttp://www.w3.org/2001/XMLSchema#dateTime
p72
sVtype
p73
Vtyped-literal
p74
sVvalue
p75
V2016-11-06T06:45:13Z
p76
ssa(dp77
g7
(dp78
Vtype
p79
Vuri
p80
sVvalue
p81
Vhttp://dbpedia.org/ontology/wikiPageLength
p82
ssg8
(dp83
Vdatatype
p84
Vhttp://www.w3.org/2001/XMLSchema#nonNegativeInteger
p85
sVtype
p86
Vtyped-literal
p87
sVvalue
p88
V4831
p89
ssa(dp90
g7
(dp91
Vtype
p92
Vuri
p93
sVvalue
p94
Vhttp://dbpedia.org/ontology/wikiPageModified
p95
ssg8
(dp96
Vdatatype
p97
Vhttp://www.w3.org/2001/XMLSchema#dateTime
p98
sVtype
p99
Vtyped-literal
p100
sVvalue
p101
V2016-10-24T07:57:59Z
p102
ssa(dp103
g7
(dp104
Vtype
p105
Vuri
p106
sVvalue
p107
Vhttp://dbpedia.org/ontology/wikiPageOutDegree
p108
ssg8
(dp109
Vdatatype
p110
Vhttp://www.w3.org/2001/XMLSchema#nonNegativeInteger
p111
sVtype
p112
Vtyped-literal
p113
sVvalue
p114
V17
p115
ssa(dp116
g7
(dp117
Vtype
p118
Vuri
p119
sVvalue
p120
Vhttp://dbpedia.org/ontology/lowerAge
p121
ssg8
(dp122
Vdatatype
p123
Vhttp://www.w3.org/2001/XMLSchema#nonNegativeInteger
p124
sVtype
p125
Vtyped-literal
p126
sVvalue
p127
V16
p128
ssasVordered
p129
I01
ss.