(dp0
Vhead
p1
(dp2
Vlink
p3
(lp4
sVvars
p5
(lp6
Vp
p7
aVo
p8
assVresults
p9
(dp10
Vdistinct
p11
I00
sVbindings
p12
(lp13
(dp14
g7
(dp15
Vtype
p16
Vuri
p17
sVvalue
p18
Vhttp://dbpedia.org/ontology/abstract
p19
ssg8
(dp20
Vxml:lang
p21
Ven
p22
sVtype
p23
Vliteral
p24
sVvalue
p25
VDonald George Jackson, CM OOnt (born April 2, 1940) is a retired Canadian figure skater. He captured four Canadian titles and a bronze medal at the 1960 Winter Olympics. At the 1962 World Figure Skating Championships in Prague, Czechoslovakia, he landed the first triple lutz jump in international competition and won the competition.Jackson was coached by Pierre Brunet in New York City, where he lived with the family of 1960 Olympic Champion Carol Heiss.In 1997, he was made a Member of the Order of Canada. In 2012 he was made a member of the Order of Ontario.Jackson is the former director of skating and was also a coach at the Minto Skating Club in Ottawa, Ontario.Donald Jackson was inducted into the Ontario Sports Hall of Fame in 2001.In May 2016, Jackson appeared at a couple of Stars on Ice shows in Canada, performing a duet with Kurt Browning. His part included an Axel jump and a waltz jump. He was 76 years old.
p26
ssa(dp27
g7
(dp28
Vtype
p29
Vuri
p30
sVvalue
p31
Vhttp://dbpedia.org/ontology/wikiPageExtracted
p32
ssg8
(dp33
Vdatatype
p34
Vhttp://www.w3.org/2001/XMLSchema#dateTime
p35
sVtype
p36
Vtyped-literal
p37
sVvalue
p38
V2016-10-29T19:58:00Z
p39
ssa(dp40
g7
(dp41
Vtype
p42
Vuri
p43
sVvalue
p44
Vhttp://dbpedia.org/ontology/wikiPageLength
p45
ssg8
(dp46
Vdatatype
p47
Vhttp://www.w3.org/2001/XMLSchema#nonNegativeInteger
p48
sVtype
p49
Vtyped-literal
p50
sVvalue
p51
V6720
p52
ssa(dp53
g7
(dp54
Vtype
p55
Vuri
p56
sVvalue
p57
Vhttp://dbpedia.org/ontology/wikiPageModified
p58
ssg8
(dp59
Vdatatype
p60
Vhttp://www.w3.org/2001/XMLSchema#dateTime
p61
sVtype
p62
Vtyped-literal
p63
sVvalue
p64
V2016-10-07T10:27:13Z
p65
ssa(dp66
g7
(dp67
Vtype
p68
Vuri
p69
sVvalue
p70
Vhttp://dbpedia.org/ontology/wikiPageOutDegree
p71
ssg8
(dp72
Vdatatype
p73
Vhttp://www.w3.org/2001/XMLSchema#nonNegativeInteger
p74
sVtype
p75
Vtyped-literal
p76
sVvalue
p77
V60
p78
ssasVordered
p79
I01
ss.