(dp0
Vhead
p1
(dp2
Vlink
p3
(lp4
sVvars
p5
(lp6
Vp
p7
aVo
p8
assVresults
p9
(dp10
Vdistinct
p11
I00
sVbindings
p12
(lp13
(dp14
g7
(dp15
Vtype
p16
Vuri
p17
sVvalue
p18
Vhttp://dbpedia.org/ontology/abstract
p19
ssg8
(dp20
Vxml:lang
p21
Ven
p22
sVtype
p23
Vliteral
p24
sVvalue
p25
VHadrat or Hadhrat (Arabic: \u062d\u0636\u0631\u0629\u200e\u200e \u1e24a\u1e0drah; Urdu: \u062d\u0636\u0631\u062a\u200e Hazret or Hazrat) is an honorific Arabic title used to honour a person. The literal translation of Hadrah is "Presence". In usage it carries denotations of the charismatic and is comparable to traditional Western honorifics addressing high officials, such as "Your Honour" (for judges), "His Majesty" (for royalty), or "His Holiness" (for high clergy). There are twelve great Hazrats in the Islamic faith, among those being Muhammad, Abraham, Noah, Moses and Jesus. The term was also loaned into Turkish and Bosnian as "Hazreti".Examples of "Hazrat" used as a title are: Hazrat Muhammad, Hazrat Musa, Hazrat Ali, Hazrat Umar Farooq, Hazrat Uthman, Hazrat Abu Bakr Siddiq, Hazrat Hajar (Hagar), A'laHazrat, Hazrat Usman and Hazrat Inayat Khan.This word may sometimes also appear after the names of respected Muslim personalities, such as imams, in the form of "Hazretleri" in Islamic culture. This is similar to the Japanese honorific "sama".
p26
ssa(dp27
g7
(dp28
Vtype
p29
Vuri
p30
sVvalue
p31
Vhttp://dbpedia.org/ontology/wikiPageExtracted
p32
ssg8
(dp33
Vdatatype
p34
Vhttp://www.w3.org/2001/XMLSchema#dateTime
p35
sVtype
p36
Vtyped-literal
p37
sVvalue
p38
V2016-10-31T07:40:08Z
p39
ssa(dp40
g7
(dp41
Vtype
p42
Vuri
p43
sVvalue
p44
Vhttp://dbpedia.org/ontology/wikiPageLength
p45
ssg8
(dp46
Vdatatype
p47
Vhttp://www.w3.org/2001/XMLSchema#nonNegativeInteger
p48
sVtype
p49
Vtyped-literal
p50
sVvalue
p51
V1414
p52
ssa(dp53
g7
(dp54
Vtype
p55
Vuri
p56
sVvalue
p57
Vhttp://dbpedia.org/ontology/wikiPageModified
p58
ssg8
(dp59
Vdatatype
p60
Vhttp://www.w3.org/2001/XMLSchema#dateTime
p61
sVtype
p62
Vtyped-literal
p63
sVvalue
p64
V2016-08-28T22:09:40Z
p65
ssa(dp66
g7
(dp67
Vtype
p68
Vuri
p69
sVvalue
p70
Vhttp://dbpedia.org/ontology/wikiPageOutDegree
p71
ssg8
(dp72
Vdatatype
p73
Vhttp://www.w3.org/2001/XMLSchema#nonNegativeInteger
p74
sVtype
p75
Vtyped-literal
p76
sVvalue
p77
V18
p78
ssasVordered
p79
I01
ss.