(dp0
Vhead
p1
(dp2
Vlink
p3
(lp4
sVvars
p5
(lp6
Vp
p7
aVo
p8
assVresults
p9
(dp10
Vdistinct
p11
I00
sVbindings
p12
(lp13
(dp14
g7
(dp15
Vtype
p16
Vuri
p17
sVvalue
p18
Vhttp://dbpedia.org/ontology/PopulatedPlace/areaTotal
p19
ssg8
(dp20
Vdatatype
p21
Vhttp://dbpedia.org/datatype/squareKilometre
p22
sVtype
p23
Vtyped-literal
p24
sVvalue
p25
V81.0
p26
ssa(dp27
g7
(dp28
Vtype
p29
Vuri
p30
sVvalue
p31
Vhttp://dbpedia.org/ontology/PopulatedPlace/populationDensity
p32
ssg8
(dp33
Vdatatype
p34
Vhttp://dbpedia.org/datatype/inhabitantsPerSquareKilometre
p35
sVtype
p36
Vtyped-literal
p37
sVvalue
p38
V5489.0
p39
ssa(dp40
g7
(dp41
Vtype
p42
Vuri
p43
sVvalue
p44
Vhttp://dbpedia.org/ontology/abstract
p45
ssg8
(dp46
Vxml:lang
p47
Ven
p48
sVtype
p49
Vliteral
p50
sVvalue
p51
VBudaun (also spelled as Badayun) is a city and a headquarter of Budaun district, Uttar Pradesh, India. It is located near the Ganges river. in the center of Western Uttar Pradesh. Budaun is a Hindu and Muslim dominated region. It was the most important post of Northern Frontier during Mughal reign. Budaun is a big market, historically famous and religiously important city. It is the heart of Rohilkhand. Budaun is 229 km from New Delhi and it takes 3 hours 55 mins to 7 hours reach to reach the city depending on mode of transport i.e. car or roadways bus service.  Whilst not a main tourist destination, it still attracts thousands of people annually. Every year it is estimated that 1.5 lac to 2 lac people visit the city, most people coming to visit Ziyarats. Budaun is famous among the Barelwi sectors of Muslims due to the presence of hundreds of martyrs (shaheed) and saints buried there. Iltutmish's period made Budaun the capital of its empire or Medieval India.
p52
ssa(dp53
g7
(dp54
Vtype
p55
Vuri
p56
sVvalue
p57
Vhttp://dbpedia.org/ontology/abstract
p58
ssg8
(dp59
Vxml:lang
p60
Ven
p61
sVtype
p62
Vliteral
p63
sVvalue
p64
VBudaun (also spelled as Badayun) is a city and a headquarter of Budaun district, Uttar Pradesh, India. It is located near the Ganges river. in the center of Western Uttar Pradesh. Budaun is a Hindu and Muslim dominated region. It was the most important post of Northern Frontier during Mughal reign. Budaun is a big market, historically famous and religiously important city. It is the heart of Rohilkhand. Budaun is 229 km from New Delhi and it takes 3 hours 55 mins to 7 hours reach to reach the city depending on mode of transport i.e. car or roadways bus service.  Whilst not a main tourist destination, it still attracts thousands of people annually. Every year it is estimated that 1.5 lac to 2 lac people visit the city, most people coming to visitZiyarats. Budaun is famous among the Barelwi sectors of Muslims due to the presence of hundreds of martyrs (shaheed) and saints buried there. Iltutmish's period made Budaun the capital of its empire or Medieval India.
p65
ssa(dp66
g7
(dp67
Vtype
p68
Vuri
p69
sVvalue
p70
Vhttp://dbpedia.org/ontology/abstract
p71
ssg8
(dp72
Vxml:lang
p73
Ven
p74
sVtype
p75
Vliteral
p76
sVvalue
p77
VBudaun (also spelled as Badayun) is a city and a headquarter of Budaun district, Uttar Pradesh, India. It is located near the Ganges river. in the center of Western Uttar Pradesh. Budaun is a Hindu and Muslim dominated region. It was the most important post of Northern Frontier during Mughal reign. Budaun is a big market, historically famous and religiously important city. It is the heart of Rohilkhand. Budaun is 229 km from New Delhi and it takes 3 hours 55 mins to 7 hours reach to reach the city depending on mode of transport i.e. car or roadways bus service. Whilst not a main tourist destination, it still attracts thousands of people annually. Every year it is estimated that 1.5 lac to 2 lac people visit the city, most people coming to visitZiyarats. Budaun is famous among the Barelwi sectors of Muslims due to the presence of hundreds of martyrs (shaheed) and saints buried there. Iltutmish's period made Budaun the capital of its empire or Medieval India.
p78
ssa(dp79
g7
(dp80
Vtype
p81
Vuri
p82
sVvalue
p83
Vhttp://dbpedia.org/ontology/areaCode
p84
ssg8
(dp85
Vtype
p86
Vliteral
p87
sVvalue
p88
V0583
p89
ssa(dp90
g7
(dp91
Vtype
p92
Vuri
p93
sVvalue
p94
Vhttp://dbpedia.org/ontology/areaTotal
p95
ssg8
(dp96
Vdatatype
p97
Vhttp://www.w3.org/2001/XMLSchema#double
p98
sVtype
p99
Vtyped-literal
p100
sVvalue
p101
V8.1e+07
p102
ssa(dp103
g7
(dp104
Vtype
p105
Vuri
p106
sVvalue
p107
Vhttp://dbpedia.org/ontology/elevation
p108
ssg8
(dp109
Vdatatype
p110
Vhttp://www.w3.org/2001/XMLSchema#double
p111
sVtype
p112
Vtyped-literal
p113
sVvalue
p114
V164.0
p115
ssa(dp116
g7
(dp117
Vtype
p118
Vuri
p119
sVvalue
p120
Vhttp://dbpedia.org/ontology/isoCodeRegion
p121
ssg8
(dp122
Vtype
p123
Vliteral
p124
sVvalue
p125
VIN-UP-BD
p126
ssa(dp127
g7
(dp128
Vtype
p129
Vuri
p130
sVvalue
p131
Vhttp://dbpedia.org/ontology/leaderTitle
p132
ssg8
(dp133
Vxml:lang
p134
Ven
p135
sVtype
p136
Vliteral
p137
sVvalue
p138
VChairman
p139
ssa(dp140
g7
(dp141
Vtype
p142
Vuri
p143
sVvalue
p144
Vhttp://dbpedia.org/ontology/leaderTitle
p145
ssg8
(dp146
Vxml:lang
p147
Ven
p148
sVtype
p149
Vliteral
p150
sVvalue
p151
VMP
p152
ssa(dp153
g7
(dp154
Vtype
p155
Vuri
p156
sVvalue
p157
Vhttp://dbpedia.org/ontology/leaderTitle
p158
ssg8
(dp159
Vxml:lang
p160
Ven
p161
sVtype
p162
Vliteral
p163
sVvalue
p164
VMLA
p165
ssa(dp166
g7
(dp167
Vtype
p168
Vuri
p169
sVvalue
p170
Vhttp://dbpedia.org/ontology/populationDensity
p171
ssg8
(dp172
Vdatatype
p173
Vhttp://www.w3.org/2001/XMLSchema#double
p174
sVtype
p175
Vtyped-literal
p176
sVvalue
p177
V5489.0
p178
ssa(dp179
g7
(dp180
Vtype
p181
Vuri
p182
sVvalue
p183
Vhttp://dbpedia.org/ontology/populationMetro
p184
ssg8
(dp185
Vdatatype
p186
Vhttp://www.w3.org/2001/XMLSchema#nonNegativeInteger
p187
sVtype
p188
Vtyped-literal
p189
sVvalue
p190
V457665
p191
ssa(dp192
g7
(dp193
Vtype
p194
Vuri
p195
sVvalue
p196
Vhttp://dbpedia.org/ontology/populationTotal
p197
ssg8
(dp198
Vdatatype
p199
Vhttp://www.w3.org/2001/XMLSchema#nonNegativeInteger
p200
sVtype
p201
Vtyped-literal
p202
sVvalue
p203
V369221
p204
ssa(dp205
g7
(dp206
Vtype
p207
Vuri
p208
sVvalue
p209
Vhttp://dbpedia.org/ontology/populationTotalRanking
p210
ssg8
(dp211
Vdatatype
p212
Vhttp://www.w3.org/2001/XMLSchema#positiveInteger
p213
sVtype
p214
Vtyped-literal
p215
sVvalue
p216
V17
p217
ssa(dp218
g7
(dp219
Vtype
p220
Vuri
p221
sVvalue
p222
Vhttp://dbpedia.org/ontology/postalCode
p223
ssg8
(dp224
Vtype
p225
Vliteral
p226
sVvalue
p227
V2436xx
p228
ssa(dp229
g7
(dp230
Vtype
p231
Vuri
p232
sVvalue
p233
Vhttp://dbpedia.org/ontology/synonym
p234
ssg8
(dp235
Vtype
p236
Vliteral
p237
sVvalue
p238
VCity Of Saints
p239
ssa(dp240
g7
(dp241
Vtype
p242
Vuri
p243
sVvalue
p244
Vhttp://dbpedia.org/ontology/utcOffset
p245
ssg8
(dp246
Vtype
p247
Vliteral
p248
sVvalue
p249
V+5:30
p250
ssa(dp251
g7
(dp252
Vtype
p253
Vuri
p254
sVvalue
p255
Vhttp://dbpedia.org/ontology/wikiPageExtracted
p256
ssg8
(dp257
Vdatatype
p258
Vhttp://www.w3.org/2001/XMLSchema#dateTime
p259
sVtype
p260
Vtyped-literal
p261
sVvalue
p262
V2016-10-28T11:48:05Z
p263
ssa(dp264
g7
(dp265
Vtype
p266
Vuri
p267
sVvalue
p268
Vhttp://dbpedia.org/ontology/wikiPageLength
p269
ssg8
(dp270
Vdatatype
p271
Vhttp://www.w3.org/2001/XMLSchema#nonNegativeInteger
p272
sVtype
p273
Vtyped-literal
p274
sVvalue
p275
V20720
p276
ssa(dp277
g7
(dp278
Vtype
p279
Vuri
p280
sVvalue
p281
Vhttp://dbpedia.org/ontology/wikiPageModified
p282
ssg8
(dp283
Vdatatype
p284
Vhttp://www.w3.org/2001/XMLSchema#dateTime
p285
sVtype
p286
Vtyped-literal
p287
sVvalue
p288
V2016-10-14T07:23:14Z
p289
ssa(dp290
g7
(dp291
Vtype
p292
Vuri
p293
sVvalue
p294
Vhttp://dbpedia.org/ontology/wikiPageOutDegree
p295
ssg8
(dp296
Vdatatype
p297
Vhttp://www.w3.org/2001/XMLSchema#nonNegativeInteger
p298
sVtype
p299
Vtyped-literal
p300
sVvalue
p301
V125
p302
ssasVordered
p303
I01
ss.