(dp0
Vhead
p1
(dp2
Vlink
p3
(lp4
sVvars
p5
(lp6
Vp
p7
aVo
p8
assVresults
p9
(dp10
Vdistinct
p11
I00
sVbindings
p12
(lp13
(dp14
g7
(dp15
Vtype
p16
Vuri
p17
sVvalue
p18
Vhttp://dbpedia.org/ontology/abstract
p19
ssg8
(dp20
Vxml:lang
p21
Ven
p22
sVtype
p23
Vliteral
p24
sVvalue
p25
VThe Ruacana Power Station is a hydroelectric power plant near Ruacana in northwest Namibia, close to the Angolan border. Water for the power station is stored in a dam just above the Ruacana Falls along the Cunene River in Angola. Several dams upstream help regulate the Cunene River to help the power station operate more efficiently. The Calueque Dam in Calueque, Angola is under construction. Further up is the Gove Dam in west-central Angola and the Olushandja Dam, on the tributary, Etaka River, is in Namibia. The power station is located underground near the bottom of the falls and has an installed capacity of 330 megawatts (440,000 hp).The power station is operated by Namibia's national power utility company, NamPower. The first three 80 MW Francis turbine-generators were commissioned in 1978 and the fourth Francis turbine-generator at 90 MW was commissioned on 5 April 2012.
p26
ssa(dp27
g7
(dp28
Vtype
p29
Vuri
p30
sVvalue
p31
Vhttp://dbpedia.org/ontology/status
p32
ssg8
(dp33
Vtype
p34
Vliteral
p35
sVvalue
p36
VOperating
p37
ssa(dp38
g7
(dp39
Vtype
p40
Vuri
p41
sVvalue
p42
Vhttp://dbpedia.org/ontology/wikiPageExtracted
p43
ssg8
(dp44
Vdatatype
p45
Vhttp://www.w3.org/2001/XMLSchema#dateTime
p46
sVtype
p47
Vtyped-literal
p48
sVvalue
p49
V2016-11-05T09:21:07Z
p50
ssa(dp51
g7
(dp52
Vtype
p53
Vuri
p54
sVvalue
p55
Vhttp://dbpedia.org/ontology/wikiPageLength
p56
ssg8
(dp57
Vdatatype
p58
Vhttp://www.w3.org/2001/XMLSchema#nonNegativeInteger
p59
sVtype
p60
Vtyped-literal
p61
sVvalue
p62
V2987
p63
ssa(dp64
g7
(dp65
Vtype
p66
Vuri
p67
sVvalue
p68
Vhttp://dbpedia.org/ontology/wikiPageModified
p69
ssg8
(dp70
Vdatatype
p71
Vhttp://www.w3.org/2001/XMLSchema#dateTime
p72
sVtype
p73
Vtyped-literal
p74
sVvalue
p75
V2016-08-03T08:28:12Z
p76
ssa(dp77
g7
(dp78
Vtype
p79
Vuri
p80
sVvalue
p81
Vhttp://dbpedia.org/ontology/wikiPageOutDegree
p82
ssg8
(dp83
Vdatatype
p84
Vhttp://www.w3.org/2001/XMLSchema#nonNegativeInteger
p85
sVtype
p86
Vtyped-literal
p87
sVvalue
p88
V26
p89
ssa(dp90
g7
(dp91
Vtype
p92
Vuri
p93
sVvalue
p94
Vhttp://dbpedia.org/ontology/openingYear
p95
ssg8
(dp96
Vdatatype
p97
Vhttp://www.w3.org/2001/XMLSchema#gYear
p98
sVtype
p99
Vtyped-literal
p100
sVvalue
p101
V1978
p102
ssa(dp103
g7
(dp104
Vtype
p105
Vuri
p106
sVvalue
p107
Vhttp://dbpedia.org/ontology/installedCapacity
p108
ssg8
(dp109
Vdatatype
p110
Vhttp://www.w3.org/2001/XMLSchema#double
p111
sVtype
p112
Vtyped-literal
p113
sVvalue
p114
V3.3e+08
p115
ssasVordered
p116
I01
ss.