(dp0
Vhead
p1
(dp2
Vlink
p3
(lp4
sVvars
p5
(lp6
Vp
p7
aVo
p8
assVresults
p9
(dp10
Vdistinct
p11
I00
sVbindings
p12
(lp13
(dp14
g7
(dp15
Vtype
p16
Vuri
p17
sVvalue
p18
Vhttp://dbpedia.org/ontology/abstract
p19
ssg8
(dp20
Vxml:lang
p21
Ven
p22
sVtype
p23
Vliteral
p24
sVvalue
p25
VMejar Jeneral (B) Dato' Seri Jamil Khir bin Baharom is a Malaysian politician, former military officer. He is the Member of Parliament for the seat of Jerai, Kedah, and a Minister in the Prime Minister's Department. Before entering politics, through an appointment to the Senate in 2009, he was a major general in the Military Religious Corps (known as "Kagat").
p26
ssa(dp27
g7
(dp28
Vtype
p29
Vuri
p30
sVvalue
p31
Vhttp://dbpedia.org/ontology/activeYearsStartDate
p32
ssg8
(dp33
Vdatatype
p34
Vhttp://www.w3.org/2001/XMLSchema#date
p35
sVtype
p36
Vtyped-literal
p37
sVvalue
p38
V2009-04-10
p39
ssa(dp40
g7
(dp41
Vtype
p42
Vuri
p43
sVvalue
p44
Vhttp://dbpedia.org/ontology/militaryCommand
p45
ssg8
(dp46
Vtype
p47
Vliteral
p48
sVvalue
p49
VDirector of the Religious Corps
p50
ssa(dp51
g7
(dp52
Vtype
p53
Vuri
p54
sVvalue
p55
Vhttp://dbpedia.org/ontology/orderInOffice
p56
ssg8
(dp57
Vtype
p58
Vliteral
p59
sVvalue
p60
VMalaysian Minister in thePrime Minister's Department
p61
ssa(dp62
g7
(dp63
Vtype
p64
Vuri
p65
sVvalue
p66
Vhttp://dbpedia.org/ontology/orderInOffice
p67
ssg8
(dp68
Vtype
p69
Vliteral
p70
sVvalue
p71
V(Islamic Affairs)
p72
ssa(dp73
g7
(dp74
Vtype
p75
Vuri
p76
sVvalue
p77
Vhttp://dbpedia.org/ontology/serviceEndYear
p78
ssg8
(dp79
Vdatatype
p80
Vhttp://www.w3.org/2001/XMLSchema#gYear
p81
sVtype
p82
Vtyped-literal
p83
sVvalue
p84
V2009
p85
ssa(dp86
g7
(dp87
Vtype
p88
Vuri
p89
sVvalue
p90
Vhttp://dbpedia.org/ontology/serviceStartYear
p91
ssg8
(dp92
Vdatatype
p93
Vhttp://www.w3.org/2001/XMLSchema#gYear
p94
sVtype
p95
Vtyped-literal
p96
sVvalue
p97
V1986
p98
ssa(dp99
g7
(dp100
Vtype
p101
Vuri
p102
sVvalue
p103
Vhttp://dbpedia.org/ontology/wikiPageExtracted
p104
ssg8
(dp105
Vdatatype
p106
Vhttp://www.w3.org/2001/XMLSchema#dateTime
p107
sVtype
p108
Vtyped-literal
p109
sVvalue
p110
V2016-11-01T03:58:59Z
p111
ssa(dp112
g7
(dp113
Vtype
p114
Vuri
p115
sVvalue
p116
Vhttp://dbpedia.org/ontology/wikiPageLength
p117
ssg8
(dp118
Vdatatype
p119
Vhttp://www.w3.org/2001/XMLSchema#nonNegativeInteger
p120
sVtype
p121
Vtyped-literal
p122
sVvalue
p123
V11749
p124
ssa(dp125
g7
(dp126
Vtype
p127
Vuri
p128
sVvalue
p129
Vhttp://dbpedia.org/ontology/wikiPageModified
p130
ssg8
(dp131
Vdatatype
p132
Vhttp://www.w3.org/2001/XMLSchema#dateTime
p133
sVtype
p134
Vtyped-literal
p135
sVvalue
p136
V2016-07-13T12:45:24Z
p137
ssa(dp138
g7
(dp139
Vtype
p140
Vuri
p141
sVvalue
p142
Vhttp://dbpedia.org/ontology/wikiPageOutDegree
p143
ssg8
(dp144
Vdatatype
p145
Vhttp://www.w3.org/2001/XMLSchema#nonNegativeInteger
p146
sVtype
p147
Vtyped-literal
p148
sVvalue
p149
V73
p150
ssa(dp151
g7
(dp152
Vtype
p153
Vuri
p154
sVvalue
p155
Vhttp://dbpedia.org/ontology/electionMajority
p156
ssg8
(dp157
Vdatatype
p158
Vhttp://www.w3.org/2001/XMLSchema#nonNegativeInteger
p159
sVtype
p160
Vtyped-literal
p161
sVvalue
p162
V1196
p163
ssasVordered
p164
I01
ss.