(dp0
Vhead
p1
(dp2
Vlink
p3
(lp4
sVvars
p5
(lp6
Vp
p7
aVo
p8
assVresults
p9
(dp10
Vdistinct
p11
I00
sVbindings
p12
(lp13
(dp14
g7
(dp15
Vtype
p16
Vuri
p17
sVvalue
p18
Vhttp://dbpedia.org/ontology/abstract
p19
ssg8
(dp20
Vxml:lang
p21
Ven
p22
sVtype
p23
Vliteral
p24
sVvalue
p25
VPoprad\u2013Tatry Airport (Slovak: Letisko Poprad-Tatry) (IATA: TAT, ICAO: LZTT), is an airport in the Slovak ski resort town of Poprad. It is an airport with one of the highest elevations in Central Europe, at 718 m, which is 150 m higher than Innsbruck Airport in Austria, and 989 m lower than Samedan Airport in Switzerland (which has no scheduled flights).
p26
ssa(dp27
g7
(dp28
Vtype
p29
Vuri
p30
sVvalue
p31
Vhttp://dbpedia.org/ontology/elevation
p32
ssg8
(dp33
Vdatatype
p34
Vhttp://www.w3.org/2001/XMLSchema#double
p35
sVtype
p36
Vtyped-literal
p37
sVvalue
p38
V718.0
p39
ssa(dp40
g7
(dp41
Vtype
p42
Vuri
p43
sVvalue
p44
Vhttp://dbpedia.org/ontology/elevation
p45
ssg8
(dp46
Vdatatype
p47
Vhttp://www.w3.org/2001/XMLSchema#double
p48
sVtype
p49
Vtyped-literal
p50
sVvalue
p51
V718.109
p52
ssa(dp53
g7
(dp54
Vtype
p55
Vuri
p56
sVvalue
p57
Vhttp://dbpedia.org/ontology/icaoLocationIdentifier
p58
ssg8
(dp59
Vtype
p60
Vliteral
p61
sVvalue
p62
V(Location of airport in Slovakia)
p63
ssa(dp64
g7
(dp65
Vtype
p66
Vuri
p67
sVvalue
p68
Vhttp://dbpedia.org/ontology/icaoLocationIdentifier
p69
ssg8
(dp70
Vtype
p71
Vliteral
p72
sVvalue
p73
VLZTT
p74
ssa(dp75
g7
(dp76
Vtype
p77
Vuri
p78
sVvalue
p79
Vhttp://dbpedia.org/ontology/runwayDesignation
p80
ssg8
(dp81
Vtype
p82
Vliteral
p83
sVvalue
p84
V09/27
p85
ssa(dp86
g7
(dp87
Vtype
p88
Vuri
p89
sVvalue
p90
Vhttp://dbpedia.org/ontology/runwayDesignation
p91
ssg8
(dp92
Vtype
p93
Vliteral
p94
sVvalue
p95
V07L/25R
p96
ssa(dp97
g7
(dp98
Vtype
p99
Vuri
p100
sVvalue
p101
Vhttp://dbpedia.org/ontology/runwayDesignation
p102
ssg8
(dp103
Vtype
p104
Vliteral
p105
sVvalue
p106
V07R/25L
p107
ssa(dp108
g7
(dp109
Vtype
p110
Vuri
p111
sVvalue
p112
Vhttp://dbpedia.org/ontology/runwayLength
p113
ssg8
(dp114
Vdatatype
p115
Vhttp://www.w3.org/2001/XMLSchema#double
p116
sVtype
p117
Vtyped-literal
p118
sVvalue
p119
V759.866
p120
ssa(dp121
g7
(dp122
Vtype
p123
Vuri
p124
sVvalue
p125
Vhttp://dbpedia.org/ontology/runwayLength
p126
ssg8
(dp127
Vdatatype
p128
Vhttp://www.w3.org/2001/XMLSchema#double
p129
sVtype
p130
Vtyped-literal
p131
sVvalue
p132
V760.0
p133
ssa(dp134
g7
(dp135
Vtype
p136
Vuri
p137
sVvalue
p138
Vhttp://dbpedia.org/ontology/runwayLength
p139
ssg8
(dp140
Vdatatype
p141
Vhttp://www.w3.org/2001/XMLSchema#double
p142
sVtype
p143
Vtyped-literal
p144
sVvalue
p145
V2599.94
p146
ssa(dp147
g7
(dp148
Vtype
p149
Vuri
p150
sVvalue
p151
Vhttp://dbpedia.org/ontology/runwayLength
p152
ssg8
(dp153
Vdatatype
p154
Vhttp://www.w3.org/2001/XMLSchema#double
p155
sVtype
p156
Vtyped-literal
p157
sVvalue
p158
V2600.0
p159
ssa(dp160
g7
(dp161
Vtype
p162
Vuri
p163
sVvalue
p164
Vhttp://dbpedia.org/ontology/runwaySurface
p165
ssg8
(dp166
Vtype
p167
Vliteral
p168
sVvalue
p169
VConcrete
p170
ssa(dp171
g7
(dp172
Vtype
p173
Vuri
p174
sVvalue
p175
Vhttp://dbpedia.org/ontology/runwaySurface
p176
ssg8
(dp177
Vtype
p178
Vliteral
p179
sVvalue
p180
VGrass
p181
ssa(dp182
g7
(dp183
Vtype
p184
Vuri
p185
sVvalue
p186
Vhttp://dbpedia.org/ontology/wikiPageExtracted
p187
ssg8
(dp188
Vdatatype
p189
Vhttp://www.w3.org/2001/XMLSchema#dateTime
p190
sVtype
p191
Vtyped-literal
p192
sVvalue
p193
V2016-08-25T23:05:47Z
p194
ssa(dp195
g7
(dp196
Vtype
p197
Vuri
p198
sVvalue
p199
Vhttp://dbpedia.org/ontology/wikiPageExtracted
p200
ssg8
(dp201
Vdatatype
p202
Vhttp://www.w3.org/2001/XMLSchema#dateTime
p203
sVtype
p204
Vtyped-literal
p205
sVvalue
p206
V2016-11-04T17:07:40Z
p207
ssa(dp208
g7
(dp209
Vtype
p210
Vuri
p211
sVvalue
p212
Vhttp://dbpedia.org/ontology/wikiPageLength
p213
ssg8
(dp214
Vdatatype
p215
Vhttp://www.w3.org/2001/XMLSchema#nonNegativeInteger
p216
sVtype
p217
Vtyped-literal
p218
sVvalue
p219
V3840
p220
ssa(dp221
g7
(dp222
Vtype
p223
Vuri
p224
sVvalue
p225
Vhttp://dbpedia.org/ontology/wikiPageLength
p226
ssg8
(dp227
Vdatatype
p228
Vhttp://www.w3.org/2001/XMLSchema#nonNegativeInteger
p229
sVtype
p230
Vtyped-literal
p231
sVvalue
p232
V3911
p233
ssa(dp234
g7
(dp235
Vtype
p236
Vuri
p237
sVvalue
p238
Vhttp://dbpedia.org/ontology/wikiPageModified
p239
ssg8
(dp240
Vdatatype
p241
Vhttp://www.w3.org/2001/XMLSchema#dateTime
p242
sVtype
p243
Vtyped-literal
p244
sVvalue
p245
V2016-08-11T12:01:05Z
p246
ssa(dp247
g7
(dp248
Vtype
p249
Vuri
p250
sVvalue
p251
Vhttp://dbpedia.org/ontology/wikiPageModified
p252
ssg8
(dp253
Vdatatype
p254
Vhttp://www.w3.org/2001/XMLSchema#dateTime
p255
sVtype
p256
Vtyped-literal
p257
sVvalue
p258
V2016-09-18T07:33:24Z
p259
ssa(dp260
g7
(dp261
Vtype
p262
Vuri
p263
sVvalue
p264
Vhttp://dbpedia.org/ontology/wikiPageOutDegree
p265
ssg8
(dp266
Vdatatype
p267
Vhttp://www.w3.org/2001/XMLSchema#nonNegativeInteger
p268
sVtype
p269
Vtyped-literal
p270
sVvalue
p271
V34
p272
ssa(dp273
g7
(dp274
Vtype
p275
Vuri
p276
sVvalue
p277
Vhttp://dbpedia.org/ontology/iataLocationIdentifier
p278
ssg8
(dp279
Vtype
p280
Vliteral
p281
sVvalue
p282
VTAT
p283
ssasVordered
p284
I01
ss.