(dp0
Vhead
p1
(dp2
Vlink
p3
(lp4
sVvars
p5
(lp6
Vp
p7
aVo
p8
assVresults
p9
(dp10
Vdistinct
p11
I00
sVbindings
p12
(lp13
(dp14
g7
(dp15
Vtype
p16
Vuri
p17
sVvalue
p18
Vhttp://dbpedia.org/ontology/abstract
p19
ssg8
(dp20
Vxml:lang
p21
Ven
p22
sVtype
p23
Vliteral
p24
sVvalue
p25
VArromanches (R95) was an aircraft carrier of the French Navy, which served from 1946 to 1974. She was previously HMS Colossus (R15) of the Royal Navy. She was the name-ship of the Colossus class of light carriers. She was commissioned in 1944, but did not see any action in World War II. She served with the British Pacific Fleet in 1945\u201346, as an aircraft transport and repatriation ship.In 1946, she was loaned to the French Navy, and renamed Arromanches; she was bought by the French in 1951.Arromanches participated in the First Indochina War in three campaigns from 1948 to 1954, and the Suez Crisis of 1956. In 1968 she was converted to an anti-submarine warfare (ASW) carrier. She was decommissioned in 1974, and broken up in 1978.
p26
ssa(dp27
g7
(dp28
Vtype
p29
Vuri
p30
sVvalue
p31
Vhttp://dbpedia.org/ontology/length
p32
ssg8
(dp33
Vdatatype
p34
Vhttp://www.w3.org/2001/XMLSchema#double
p35
sVtype
p36
Vtyped-literal
p37
sVvalue
p38
V212.0
p39
ssa(dp40
g7
(dp41
Vtype
p42
Vuri
p43
sVvalue
p44
Vhttp://dbpedia.org/ontology/motto
p45
ssg8
(dp46
Vtype
p47
Vliteral
p48
sVvalue
p49
VOn The Ball
p50
ssa(dp51
g7
(dp52
Vtype
p53
Vuri
p54
sVvalue
p55
Vhttp://dbpedia.org/ontology/status
p56
ssg8
(dp57
Vtype
p58
Vliteral
p59
sVvalue
p60
VScrapped in Toulon, France 1978
p61
ssa(dp62
g7
(dp63
Vtype
p64
Vuri
p65
sVvalue
p66
Vhttp://dbpedia.org/ontology/status
p67
ssg8
(dp68
Vtype
p69
Vliteral
p70
sVvalue
p71
Vloaned to French Navy in 1946
p72
ssa(dp73
g7
(dp74
Vtype
p75
Vuri
p76
sVvalue
p77
Vhttp://dbpedia.org/ontology/wikiPageExtracted
p78
ssg8
(dp79
Vdatatype
p80
Vhttp://www.w3.org/2001/XMLSchema#dateTime
p81
sVtype
p82
Vtyped-literal
p83
sVvalue
p84
V2016-10-30T16:57:50Z
p85
ssa(dp86
g7
(dp87
Vtype
p88
Vuri
p89
sVvalue
p90
Vhttp://dbpedia.org/ontology/wikiPageLength
p91
ssg8
(dp92
Vdatatype
p93
Vhttp://www.w3.org/2001/XMLSchema#nonNegativeInteger
p94
sVtype
p95
Vtyped-literal
p96
sVvalue
p97
V11927
p98
ssa(dp99
g7
(dp100
Vtype
p101
Vuri
p102
sVvalue
p103
Vhttp://dbpedia.org/ontology/wikiPageModified
p104
ssg8
(dp105
Vdatatype
p106
Vhttp://www.w3.org/2001/XMLSchema#dateTime
p107
sVtype
p108
Vtyped-literal
p109
sVvalue
p110
V2016-09-22T10:27:34Z
p111
ssa(dp112
g7
(dp113
Vtype
p114
Vuri
p115
sVvalue
p116
Vhttp://dbpedia.org/ontology/wikiPageOutDegree
p117
ssg8
(dp118
Vdatatype
p119
Vhttp://www.w3.org/2001/XMLSchema#nonNegativeInteger
p120
sVtype
p121
Vtyped-literal
p122
sVvalue
p123
V77
p124
ssa(dp125
g7
(dp126
Vtype
p127
Vuri
p128
sVvalue
p129
Vhttp://dbpedia.org/ontology/MeanOfTransportation/length
p130
ssg8
(dp131
Vdatatype
p132
Vhttp://dbpedia.org/datatype/millimetre
p133
sVtype
p134
Vtyped-literal
p135
sVvalue
p136
V212000.0
p137
ssa(dp138
g7
(dp139
Vtype
p140
Vuri
p141
sVvalue
p142
Vhttp://dbpedia.org/ontology/commissioningDate
p143
ssg8
(dp144
Vdatatype
p145
Vhttp://www.w3.org/2001/XMLSchema#date
p146
sVtype
p147
Vtyped-literal
p148
sVvalue
p149
V1944-12-16
p150
ssa(dp151
g7
(dp152
Vtype
p153
Vuri
p154
sVvalue
p155
Vhttp://dbpedia.org/ontology/shipBeam
p156
ssg8
(dp157
Vdatatype
p158
Vhttp://www.w3.org/2001/XMLSchema#double
p159
sVtype
p160
Vtyped-literal
p161
sVvalue
p162
V24.4
p163
ssa(dp164
g7
(dp165
Vtype
p166
Vuri
p167
sVvalue
p168
Vhttp://dbpedia.org/ontology/shipLaunch
p169
ssg8
(dp170
Vdatatype
p171
Vhttp://www.w3.org/2001/XMLSchema#date
p172
sVtype
p173
Vtyped-literal
p174
sVvalue
p175
V1943-09-30
p176
ssa(dp177
g7
(dp178
Vtype
p179
Vuri
p180
sVvalue
p181
Vhttp://dbpedia.org/ontology/topSpeed
p182
ssg8
(dp183
Vdatatype
p184
Vhttp://www.w3.org/2001/XMLSchema#double
p185
sVtype
p186
Vtyped-literal
p187
sVvalue
p188
V46.3
p189
ssasVordered
p190
I01
ss.