(dp0
Vhead
p1
(dp2
Vlink
p3
(lp4
sVvars
p5
(lp6
Vp
p7
aVo
p8
assVresults
p9
(dp10
Vdistinct
p11
I00
sVbindings
p12
(lp13
(dp14
g7
(dp15
Vtype
p16
Vuri
p17
sVvalue
p18
Vhttp://dbpedia.org/ontology/abstract
p19
ssg8
(dp20
Vxml:lang
p21
Ven
p22
sVtype
p23
Vliteral
p24
sVvalue
p25
VFor the fictional character from the Al-Qadim campaign setting of Dungeons & Dragons, see Selan (Dungeons & Dragons). For the village in Albania, see Selan, Albania.Selan (born Selan Lerner in Queens, New York, United States) is an American musician, singer, songwriter, composer, arranger, musical director and producer who is known for combining electronic, pop, and soul music. He possesses perfect pitch and musical total recall, also known as eidetic memory. He is of Trinidadian and Jewish heritage.Selan has collaborated extensively with "Little" Louie Vega and Kenny "Dope" Gonzales of the house music production team Masters at Work. Notably he plays the extended keyboard improvisation on the Masters at Work remix of Nina Simone's "See-Line Woman" which appears on the highly successful 2002 Verve Remixed collection. He also plays the extended keyboard solos on the DJ Spinna remix of Betty Carter's "Naima's Love Song" which appears on the 2003 follow-up Verve Remixed 2 collection. Selan co-wrote the music for most of DJ Spinna's Intergalactic Soul album, which was released in 2006 on Shanachie Records. He also co-produced, co-wrote and was a featured artist on "Back 2 U", a standout track on that same album.His 2004 single "Unconditional Love," produced by DJ Spinna, was released on the Wonderwax record label. Selan's solo single "Gravity" was released in 2005 on Louie Vega's Vega Records. He is the co-writer of the song "Focus" which appears on Concrete Rose, the multi-platinum 2004 album by American R&B singer Ashanti. He also appears as a co-writer on the songs "Marathon" and "Desire" which appear on the 2007 Grammy-nominated second album Love Behind the Melody by Raheem DeVaughn.As a side musician, he has performed with Adele, Bono, Alejandro Sanz, Toni Braxton, Rihanna, Miley Cyrus, R&B singer Joe, Stevie Wonder and Roy Ayers just to name a few. He's recorded with and/or for Kanye West, Aaliyah, David Byrne, Earth, Wind and Fire, R. Kelly, Musiq Soulchild and many others. Selan's keyboard work on the house remix for Curtis Mayfield's "Superfly" helped DJ/producer Louie Vega win the 2006 Grammy award for BEST REMIX. He has been a member of Little Louie Vega's Elements of Life Band and also plays keyboards and sings background for the classic disco/R&B group CHIC featuring Nile Rodgers.After being traveling as part of Adele's band from January 2009-July 2009, Selan joined the classic r&b/disco band, Chic featuring Nile Rodgers. He played keyboards and sang background vocals.In September 2011, Selan joined the house band as a keyboardist, vocalist and trumpet player for Rosie O'Donnell's The Rosie Show which aired on Oprah Winfrey's OWN network. It was cancelled in March 2012.On August 8, 2012 Selan released his debut album, "Space Flight", which features contributions from legendary producer/guitarist/songwriter and artist Nile Rodgers, Ali Shaheed Muhammad of A Tribe Called Quest fame, M1 from the revolutionary hip-hop group Dead Prez, Grammy-nominated recording artist Emily King and Melissa Jimenez.2013 was a big year for Nile Rodgers, who wound up winning 3 Grammys for his work on Daft Punk's album, "Random Access Memories". All of the frenzy surrounding the song "Get Lucky" brought a very high visibility to Chic and as well as to Nile himself. The band toured all over the world, rejuvenating Nile's career and introducing him to a younger generation. Despite all of this success and exposure, Selan decided to leave the band in January 2014 and subsequently retire from being a side musician period. He decided to focus all of his efforts on music production, his solo career, filmmaking and other business ventures.Selan is currently developing TV shows, short films and documentaries. He is also in the midst of creating innovative vegan clothing, footwear and accessories. Selan is vegan, an environmental, human and animal rights activist and a feminist.Beginning in September 2015, Selan has been a frequent guest musician in the house band for The Late Show with Stephen Colbert.Selan released his album, "The Future" on Pi Day, March 14, 2016.
p26
ssa(dp27
g7
(dp28
Vtype
p29
Vuri
p30
sVvalue
p31
Vhttp://dbpedia.org/ontology/activeYearsEndYear
p32
ssg8
(dp33
Vdatatype
p34
Vhttp://www.w3.org/2001/XMLSchema#gYear
p35
sVtype
p36
Vtyped-literal
p37
sVvalue
p38
V2000
p39
ssa(dp40
g7
(dp41
Vtype
p42
Vuri
p43
sVvalue
p44
Vhttp://dbpedia.org/ontology/activeYearsStartYear
p45
ssg8
(dp46
Vdatatype
p47
Vhttp://www.w3.org/2001/XMLSchema#gYear
p48
sVtype
p49
Vtyped-literal
p50
sVvalue
p51
V2000
p52
ssa(dp53
g7
(dp54
Vtype
p55
Vuri
p56
sVvalue
p57
Vhttp://dbpedia.org/ontology/alias
p58
ssg8
(dp59
Vxml:lang
p60
Ven
p61
sVtype
p62
Vliteral
p63
sVvalue
p64
VSelonius, Selonius Funk
p65
ssa(dp66
g7
(dp67
Vtype
p68
Vuri
p69
sVvalue
p70
Vhttp://dbpedia.org/ontology/background
p71
ssg8
(dp72
Vtype
p73
Vliteral
p74
sVvalue
p75
Vsolo_singer
p76
ssa(dp77
g7
(dp78
Vtype
p79
Vuri
p80
sVvalue
p81
Vhttp://dbpedia.org/ontology/wikiPageExtracted
p82
ssg8
(dp83
Vdatatype
p84
Vhttp://www.w3.org/2001/XMLSchema#dateTime
p85
sVtype
p86
Vtyped-literal
p87
sVvalue
p88
V2016-11-05T18:27:46Z
p89
ssa(dp90
g7
(dp91
Vtype
p92
Vuri
p93
sVvalue
p94
Vhttp://dbpedia.org/ontology/wikiPageLength
p95
ssg8
(dp96
Vdatatype
p97
Vhttp://www.w3.org/2001/XMLSchema#nonNegativeInteger
p98
sVtype
p99
Vtyped-literal
p100
sVvalue
p101
V6004
p102
ssa(dp103
g7
(dp104
Vtype
p105
Vuri
p106
sVvalue
p107
Vhttp://dbpedia.org/ontology/wikiPageModified
p108
ssg8
(dp109
Vdatatype
p110
Vhttp://www.w3.org/2001/XMLSchema#dateTime
p111
sVtype
p112
Vtyped-literal
p113
sVvalue
p114
V2016-09-02T15:55:08Z
p115
ssa(dp116
g7
(dp117
Vtype
p118
Vuri
p119
sVvalue
p120
Vhttp://dbpedia.org/ontology/wikiPageOutDegree
p121
ssg8
(dp122
Vdatatype
p123
Vhttp://www.w3.org/2001/XMLSchema#nonNegativeInteger
p124
sVtype
p125
Vtyped-literal
p126
sVvalue
p127
V78
p128
ssasVordered
p129
I01
ss.