(dp0
Vhead
p1
(dp2
Vlink
p3
(lp4
sVvars
p5
(lp6
Vp
p7
aVo
p8
assVresults
p9
(dp10
Vdistinct
p11
I00
sVbindings
p12
(lp13
(dp14
g7
(dp15
Vtype
p16
Vuri
p17
sVvalue
p18
Vhttp://dbpedia.org/ontology/Work/runtime
p19
ssg8
(dp20
Vdatatype
p21
Vhttp://dbpedia.org/datatype/minute
p22
sVtype
p23
Vtyped-literal
p24
sVvalue
p25
V47.25
p26
ssa(dp27
g7
(dp28
Vtype
p29
Vuri
p30
sVvalue
p31
Vhttp://dbpedia.org/ontology/Work/runtime
p32
ssg8
(dp33
Vdatatype
p34
Vhttp://dbpedia.org/datatype/minute
p35
sVtype
p36
Vtyped-literal
p37
sVvalue
p38
V51.233333333333334
p39
ssa(dp40
g7
(dp41
Vtype
p42
Vuri
p43
sVvalue
p44
Vhttp://dbpedia.org/ontology/Work/runtime
p45
ssg8
(dp46
Vdatatype
p47
Vhttp://dbpedia.org/datatype/minute
p48
sVtype
p49
Vtyped-literal
p50
sVvalue
p51
V43.5
p52
ssa(dp53
g7
(dp54
Vtype
p55
Vuri
p56
sVvalue
p57
Vhttp://dbpedia.org/ontology/Work/runtime
p58
ssg8
(dp59
Vdatatype
p60
Vhttp://dbpedia.org/datatype/minute
p61
sVtype
p62
Vtyped-literal
p63
sVvalue
p64
V101.8
p65
ssa(dp66
g7
(dp67
Vtype
p68
Vuri
p69
sVvalue
p70
Vhttp://dbpedia.org/ontology/abstract
p71
ssg8
(dp72
Vxml:lang
p73
Ven
p74
sVtype
p75
Vliteral
p76
sVvalue
p77
VBilly Talent III is the third studio album by Canadian rock band Billy Talent. It was released on July 10, 2009 in Europe, July 13 in the United Kingdom, July 14 in Canada, and September 22 in the US. The album debuted at No. 1 on the Canadian Albums Chart, selling over 40,000 copies in its first week. It also peaked at #107 on the Billboard 200, making it Billy Talent's highest charting album to date. A demo version of one of the album's songs, "Turn Your Back", was released as a single in September 2008 and featured the band members of Anti-Flag, with the first legitimate single spawned by Billy Talent III is "Rusted from the Rain", which premiered May 17, 2009 on Triple J. The album version of "Turn Your Back" does not include Anti-Flag's vocals, as the single version does.The second single from the album, "Devil on My Shoulder" was released on August 26, 2009.A promotional website located at billytalent3.com has been launched to showcase the making of the album. Part of the promotion also included the Billy Talent Widget which allowed listeners to become the "Ultimate Billy Talent Fan". The widget rewarded users with rare tracks, videos, pictures and interviews as fans "level up" their widgets.On June 8, 2009, the band announced on their website, the release of a special deluxe edition of the album, entitled Billy Talent III: Guitar Villain Edition. The special edition includes a second disc of the album, with the guitar tracks removed so fans can play along. This edition includes also 4 additional demo songs, as well as guitar tabs for the whole album transcribed on 2 full size posters.The band embarked on a supporting tour on February 21, 2009, starting with an Australian first leg.In April 2010, the album won a Juno Award for best rock album of the year. Despite the commercial success, Billy Talent III received mixed reviews. On Metacritic, the album earned a score of 45/100, which means "Mixed or average reviews".
p78
ssa(dp79
g7
(dp80
Vtype
p81
Vuri
p82
sVvalue
p83
Vhttp://dbpedia.org/ontology/releaseDate
p84
ssg8
(dp85
Vdatatype
p86
Vhttp://www.w3.org/2001/XMLSchema#date
p87
sVtype
p88
Vtyped-literal
p89
sVvalue
p90
V2009-07-10
p91
ssa(dp92
g7
(dp93
Vtype
p94
Vuri
p95
sVvalue
p96
Vhttp://dbpedia.org/ontology/runtime
p97
ssg8
(dp98
Vdatatype
p99
Vhttp://www.w3.org/2001/XMLSchema#double
p100
sVtype
p101
Vtyped-literal
p102
sVvalue
p103
V2610.0
p104
ssa(dp105
g7
(dp106
Vtype
p107
Vuri
p108
sVvalue
p109
Vhttp://dbpedia.org/ontology/runtime
p110
ssg8
(dp111
Vdatatype
p112
Vhttp://www.w3.org/2001/XMLSchema#double
p113
sVtype
p114
Vtyped-literal
p115
sVvalue
p116
V2835.0
p117
ssa(dp118
g7
(dp119
Vtype
p120
Vuri
p121
sVvalue
p122
Vhttp://dbpedia.org/ontology/runtime
p123
ssg8
(dp124
Vdatatype
p125
Vhttp://www.w3.org/2001/XMLSchema#double
p126
sVtype
p127
Vtyped-literal
p128
sVvalue
p129
V3074.0
p130
ssa(dp131
g7
(dp132
Vtype
p133
Vuri
p134
sVvalue
p135
Vhttp://dbpedia.org/ontology/runtime
p136
ssg8
(dp137
Vdatatype
p138
Vhttp://www.w3.org/2001/XMLSchema#double
p139
sVtype
p140
Vtyped-literal
p141
sVvalue
p142
V6108.0
p143
ssa(dp144
g7
(dp145
Vtype
p146
Vuri
p147
sVvalue
p148
Vhttp://dbpedia.org/ontology/wikiPageExtracted
p149
ssg8
(dp150
Vdatatype
p151
Vhttp://www.w3.org/2001/XMLSchema#dateTime
p152
sVtype
p153
Vtyped-literal
p154
sVvalue
p155
V2016-10-28T05:13:23Z
p156
ssa(dp157
g7
(dp158
Vtype
p159
Vuri
p160
sVvalue
p161
Vhttp://dbpedia.org/ontology/wikiPageLength
p162
ssg8
(dp163
Vdatatype
p164
Vhttp://www.w3.org/2001/XMLSchema#nonNegativeInteger
p165
sVtype
p166
Vtyped-literal
p167
sVvalue
p168
V12585
p169
ssa(dp170
g7
(dp171
Vtype
p172
Vuri
p173
sVvalue
p174
Vhttp://dbpedia.org/ontology/wikiPageModified
p175
ssg8
(dp176
Vdatatype
p177
Vhttp://www.w3.org/2001/XMLSchema#dateTime
p178
sVtype
p179
Vtyped-literal
p180
sVvalue
p181
V2016-07-15T21:42:00Z
p182
ssa(dp183
g7
(dp184
Vtype
p185
Vuri
p186
sVvalue
p187
Vhttp://dbpedia.org/ontology/wikiPageOutDegree
p188
ssg8
(dp189
Vdatatype
p190
Vhttp://www.w3.org/2001/XMLSchema#nonNegativeInteger
p191
sVtype
p192
Vtyped-literal
p193
sVvalue
p194
V69
p195
ssasVordered
p196
I01
ss.