(dp0
Vhead
p1
(dp2
Vlink
p3
(lp4
sVvars
p5
(lp6
Vp
p7
aVo
p8
assVresults
p9
(dp10
Vdistinct
p11
I00
sVbindings
p12
(lp13
(dp14
g7
(dp15
Vtype
p16
Vuri
p17
sVvalue
p18
Vhttp://dbpedia.org/ontology/abstract
p19
ssg8
(dp20
Vxml:lang
p21
Ven
p22
sVtype
p23
Vliteral
p24
sVvalue
p25
VLarissa (Greek: \u039b\u03ac\u03c1\u03b9\u03c3\u03b1 [\u02c8larisa]) is the capital and largest city of the Thessaly region of Greece and capital of the Larissa regional unit. It is a principal agricultural centre and a national transportation hub, linked by road and rail with the port of Volos, the city of Thessaloniki and Athens. Larissa, within its municipality, has 162,591 inhabitants, while the regional unit of Larissa reached a population of 284,325 (in 2011). The urban area of the city, although mostly contained within the Larissa municipality, also includes the communities of Giannouli, Platykampos, Nikaia, Terpsithea and several other suburban settlements, bringing the wider urban area population of the city to about 174,012 inhabitants and extends over an area of 572.3 km2 (221.0 sq mi). Today, Larissa is a major commercial and industrial centre in Greece. Legend has it that Achilles was born here, and that Hippocrates, the Father of Medicine, died here. As of early 2015, Larissa is a candidate city for the title of the European Capital of Culture 2021
p26
ssa(dp27
g7
(dp28
Vtype
p29
Vuri
p30
sVvalue
p31
Vhttp://dbpedia.org/ontology/abstract
p32
ssg8
(dp33
Vxml:lang
p34
Ven
p35
sVtype
p36
Vliteral
p37
sVvalue
p38
VLarissa (Greek: \u039b\u03ac\u03c1\u03b9\u03c3\u03b1 [\u02c8larisa]) is the capital and largest city of the Thessaly region,the fifth most populous in Greece and capital of the Larissa regional unit. It is a principal agricultural centre and a national transportation hub, linked by road and rail with the port of Volos, the cities of Thessaloniki and Athens. Larissa, within its municipality, has 162,591 inhabitants, while the regional unit of Larissa reached a population of 284,325 (in 2011). The urban area of the city, although mostly contained within the Larissa municipality, also includes the communities of Giannouli, Platykampos, Nikaia, Terpsithea and several other suburban settlements, bringing the wider urban area population of the city to about 174,012 inhabitants and extends over an area of 572.3 km2 (221.0 sq mi). Today, Larissa is a major commercial and industrial centre in Greece. Legend has it that Achilles was born here, and that Hippocrates, the Father of Medicine, died here. As of early 2015, Larissa is a candidate city for the title of the European Capital of Culture 2021
p39
ssa(dp40
g7
(dp41
Vtype
p42
Vuri
p43
sVvalue
p44
Vhttp://dbpedia.org/ontology/areaCode
p45
ssg8
(dp46
Vtype
p47
Vliteral
p48
sVvalue
p49
V241
p50
ssa(dp51
g7
(dp52
Vtype
p53
Vuri
p54
sVvalue
p55
Vhttp://dbpedia.org/ontology/postalCode
p56
ssg8
(dp57
Vtype
p58
Vliteral
p59
sVvalue
p60
V41x xx
p61
ssa(dp62
g7
(dp63
Vtype
p64
Vuri
p65
sVvalue
p66
Vhttp://dbpedia.org/ontology/wikiPageExtracted
p67
ssg8
(dp68
Vdatatype
p69
Vhttp://www.w3.org/2001/XMLSchema#dateTime
p70
sVtype
p71
Vtyped-literal
p72
sVvalue
p73
V2016-11-02T01:03:38Z
p74
ssa(dp75
g7
(dp76
Vtype
p77
Vuri
p78
sVvalue
p79
Vhttp://dbpedia.org/ontology/wikiPageLength
p80
ssg8
(dp81
Vdatatype
p82
Vhttp://www.w3.org/2001/XMLSchema#nonNegativeInteger
p83
sVtype
p84
Vtyped-literal
p85
sVvalue
p86
V32806
p87
ssa(dp88
g7
(dp89
Vtype
p90
Vuri
p91
sVvalue
p92
Vhttp://dbpedia.org/ontology/wikiPageModified
p93
ssg8
(dp94
Vdatatype
p95
Vhttp://www.w3.org/2001/XMLSchema#dateTime
p96
sVtype
p97
Vtyped-literal
p98
sVvalue
p99
V2016-11-01T00:45:25Z
p100
ssa(dp101
g7
(dp102
Vtype
p103
Vuri
p104
sVvalue
p105
Vhttp://dbpedia.org/ontology/wikiPageOutDegree
p106
ssg8
(dp107
Vdatatype
p108
Vhttp://www.w3.org/2001/XMLSchema#nonNegativeInteger
p109
sVtype
p110
Vtyped-literal
p111
sVvalue
p112
V256
p113
ssasVordered
p114
I01
ss.