(dp0
Vhead
p1
(dp2
Vlink
p3
(lp4
sVvars
p5
(lp6
Vp
p7
aVo
p8
assVresults
p9
(dp10
Vdistinct
p11
I00
sVbindings
p12
(lp13
(dp14
g7
(dp15
Vtype
p16
Vuri
p17
sVvalue
p18
Vhttp://dbpedia.org/ontology/PopulatedPlace/areaTotal
p19
ssg8
(dp20
Vdatatype
p21
Vhttp://dbpedia.org/datatype/squareKilometre
p22
sVtype
p23
Vtyped-literal
p24
sVvalue
p25
V1.74
p26
ssa(dp27
g7
(dp28
Vtype
p29
Vuri
p30
sVvalue
p31
Vhttp://dbpedia.org/ontology/PopulatedPlace/populationDensity
p32
ssg8
(dp33
Vdatatype
p34
Vhttp://dbpedia.org/datatype/inhabitantsPerSquareKilometre
p35
sVtype
p36
Vtyped-literal
p37
sVvalue
p38
V25144.0
p39
ssa(dp40
g7
(dp41
Vtype
p42
Vuri
p43
sVvalue
p44
Vhttp://dbpedia.org/ontology/abstract
p45
ssg8
(dp46
Vxml:lang
p47
Ven
p48
sVtype
p49
Vliteral
p50
sVvalue
p51
VNakhalpara is one of the most densely populated small area in the capital city Dhaka of Bangladesh. It is located under Tejgaon Thana. Beside South: Kawran Bazar, farmgate & Tejkunipara, North: Shaheen Bag, Arjat para & Mohakhali, East: Nabisco Biscuit Factory & Channel I and West: Old Airport Road.Nakhalpara is divided into two parts by a rail line of Bangladesh Railway ; west side of rail line is called West Nakhalpara and east side is called East Nakhalpara.Nakhalpara is famous for, it hosts the Prime Minister's Office (Bangladesh) & MP Hostel There is SSF Flat, Nakhalpara Sapra Mosque, Nakhalpara Hossain Ali High School, Haji Moron Ali Islamia Kamil Madrasah, Nakhalpara Government Primary School, New Ananda English School, Rose Bud Kindergarten, Nakhalpara Community Center & Nakhalpara Bazar.Nakhalpara is administered by Dhaka North City Corporation under the zone- 3, Ward No- 25. Newly elected councillor Sheikh Mujibur Rahman for Ward- 25 & councilor reserved for Woman Nazmum Nahar Helen for Ward-25, 24 and 35.Nakhalpara is situated at the heart of Dhaka City's Tejgaon area near the office of the Prime Minister. But the area remained ignored and neglected by Dhaka City Corporation (DCC) for long. Many real estate companies have built hundreds of apartments in this area. The roads and lanes of this area are very narrow and both sides of the roads are occupied by the grabbers.
p52
ssa(dp53
g7
(dp54
Vtype
p55
Vuri
p56
sVvalue
p57
Vhttp://dbpedia.org/ontology/areaTotal
p58
ssg8
(dp59
Vdatatype
p60
Vhttp://www.w3.org/2001/XMLSchema#double
p61
sVtype
p62
Vtyped-literal
p63
sVvalue
p64
V1.74e+06
p65
ssa(dp66
g7
(dp67
Vtype
p68
Vuri
p69
sVvalue
p70
Vhttp://dbpedia.org/ontology/populationDensity
p71
ssg8
(dp72
Vdatatype
p73
Vhttp://www.w3.org/2001/XMLSchema#double
p74
sVtype
p75
Vtyped-literal
p76
sVvalue
p77
V25144.0
p78
ssa(dp79
g7
(dp80
Vtype
p81
Vuri
p82
sVvalue
p83
Vhttp://dbpedia.org/ontology/populationTotal
p84
ssg8
(dp85
Vdatatype
p86
Vhttp://www.w3.org/2001/XMLSchema#nonNegativeInteger
p87
sVtype
p88
Vtyped-literal
p89
sVvalue
p90
V120012
p91
ssa(dp92
g7
(dp93
Vtype
p94
Vuri
p95
sVvalue
p96
Vhttp://dbpedia.org/ontology/postalCode
p97
ssg8
(dp98
Vtype
p99
Vliteral
p100
sVvalue
p101
V1215
p102
ssa(dp103
g7
(dp104
Vtype
p105
Vuri
p106
sVvalue
p107
Vhttp://dbpedia.org/ontology/utcOffset
p108
ssg8
(dp109
Vtype
p110
Vliteral
p111
sVvalue
p112
V+6
p113
ssa(dp114
g7
(dp115
Vtype
p116
Vuri
p117
sVvalue
p118
Vhttp://dbpedia.org/ontology/wikiPageExtracted
p119
ssg8
(dp120
Vdatatype
p121
Vhttp://www.w3.org/2001/XMLSchema#dateTime
p122
sVtype
p123
Vtyped-literal
p124
sVvalue
p125
V2016-11-03T15:12:06Z
p126
ssa(dp127
g7
(dp128
Vtype
p129
Vuri
p130
sVvalue
p131
Vhttp://dbpedia.org/ontology/wikiPageLength
p132
ssg8
(dp133
Vdatatype
p134
Vhttp://www.w3.org/2001/XMLSchema#nonNegativeInteger
p135
sVtype
p136
Vtyped-literal
p137
sVvalue
p138
V4150
p139
ssa(dp140
g7
(dp141
Vtype
p142
Vuri
p143
sVvalue
p144
Vhttp://dbpedia.org/ontology/wikiPageModified
p145
ssg8
(dp146
Vdatatype
p147
Vhttp://www.w3.org/2001/XMLSchema#dateTime
p148
sVtype
p149
Vtyped-literal
p150
sVvalue
p151
V2016-05-29T02:59:40Z
p152
ssa(dp153
g7
(dp154
Vtype
p155
Vuri
p156
sVvalue
p157
Vhttp://dbpedia.org/ontology/wikiPageOutDegree
p158
ssg8
(dp159
Vdatatype
p160
Vhttp://www.w3.org/2001/XMLSchema#nonNegativeInteger
p161
sVtype
p162
Vtyped-literal
p163
sVvalue
p164
V33
p165
ssasVordered
p166
I01
ss.