(dp0
Vhead
p1
(dp2
Vlink
p3
(lp4
sVvars
p5
(lp6
Vp
p7
aVo
p8
assVresults
p9
(dp10
Vdistinct
p11
I00
sVbindings
p12
(lp13
(dp14
g7
(dp15
Vtype
p16
Vuri
p17
sVvalue
p18
Vhttp://dbpedia.org/ontology/abstract
p19
ssg8
(dp20
Vxml:lang
p21
Ven
p22
sVtype
p23
Vliteral
p24
sVvalue
p25
VA sloop (from Dutch sloep, in turn from French chaloupe) is a sailing boat with a single mast and a fore-and-aft rig. A sloop has only one head-sail: if a vessel has two or more head-sails, the term 'cutter' is used, and its mast may be set further aft than on a sloop.The most common rig of modern sailboats is the Bermuda-rigged sloop. Typically, a modern sloop carries a mainsail on a boom aft of the mast, with a single loose-footed head-sail (a jib or a genoa jib) forward of the mast.Sloops are either masthead-rigged or fractional-rigged. On a masthead-rigged sloop, the forestay (on which the headsail is carried) attaches at the top of the mast. The mainsail may be smaller than the headsail, which is then called a genoa jib. On a fractional-rigged sloop, the forestay attaches to the mast at a point below the top, typically 3/4 of the way to top, or perhaps 7/8 or some other fraction. The mast of a fractional-rigged sloop may be placed farther forward; compared to a masthead-rigged sloop, this results in a rather smaller jib relative to the size of the mainsail.
p26
ssa(dp27
g7
(dp28
Vtype
p29
Vuri
p30
sVvalue
p31
Vhttp://dbpedia.org/ontology/wikiPageExtracted
p32
ssg8
(dp33
Vdatatype
p34
Vhttp://www.w3.org/2001/XMLSchema#dateTime
p35
sVtype
p36
Vtyped-literal
p37
sVvalue
p38
V2016-11-06T01:17:14Z
p39
ssa(dp40
g7
(dp41
Vtype
p42
Vuri
p43
sVvalue
p44
Vhttp://dbpedia.org/ontology/wikiPageLength
p45
ssg8
(dp46
Vdatatype
p47
Vhttp://www.w3.org/2001/XMLSchema#nonNegativeInteger
p48
sVtype
p49
Vtyped-literal
p50
sVvalue
p51
V17277
p52
ssa(dp53
g7
(dp54
Vtype
p55
Vuri
p56
sVvalue
p57
Vhttp://dbpedia.org/ontology/wikiPageModified
p58
ssg8
(dp59
Vdatatype
p60
Vhttp://www.w3.org/2001/XMLSchema#dateTime
p61
sVtype
p62
Vtyped-literal
p63
sVvalue
p64
V2016-10-26T18:46:46Z
p65
ssa(dp66
g7
(dp67
Vtype
p68
Vuri
p69
sVvalue
p70
Vhttp://dbpedia.org/ontology/wikiPageOutDegree
p71
ssg8
(dp72
Vdatatype
p73
Vhttp://www.w3.org/2001/XMLSchema#nonNegativeInteger
p74
sVtype
p75
Vtyped-literal
p76
sVvalue
p77
V95
p78
ssasVordered
p79
I01
ss.