(dp0
Vhead
p1
(dp2
Vlink
p3
(lp4
sVvars
p5
(lp6
Vp
p7
aVo
p8
assVresults
p9
(dp10
Vdistinct
p11
I00
sVbindings
p12
(lp13
(dp14
g7
(dp15
Vtype
p16
Vuri
p17
sVvalue
p18
Vhttp://dbpedia.org/ontology/abstract
p19
ssg8
(dp20
Vxml:lang
p21
Ven
p22
sVtype
p23
Vliteral
p24
sVvalue
p25
VYork Suburban School District is a midsized, suburban, public school district located in York County, Pennsylvania. (USA). It encompasses approximately 14 square miles (36 km2). According to 2000 federal census data, it serves a resident population of 21,067 people. In 2010 the US Census Bureau reported a population of 21,684 people. In 2009, the District residents\u2019 per capita income was $27,028, while the median family income was $59,192. In the Commonwealth, the median family income was $49,501  and the United States median family income was $49,445, in 2010. Per District officials, in school year 2007-08 the York Suburban School District provided basic educational services to 2,808 pupils through the employment of 222 teachers, 135 full-time and part-time support personnel, and 15 administrators. York Suburban School District received more than $5.3 million in state funding in school year 2007-08.York Suburban School District operates six schools: Yorkshire Elementary School (Valley View at Yorkshire), Valley View Center, East York Elementary School, Indian Rock Elementary School, York Suburban Middle School, and York Suburban Senior High School. Valley View and Yorkshire consist of grades K-2. Indian Rock Elementary and East York Elementary both consist of grades 3-5. York Suburban Middle School consists of grades 6-8. York Suburban Senior High School consists of grades 9-12. Yorkshire Elementary School will soon be constructed and open to students in August 2010. The district's colors are orange and black with the Trojan as the mascot. Like most other school districts, York Suburban uses the Schaffer paragraph for response to literature.
p26
ssa(dp27
g7
(dp28
Vtype
p29
Vuri
p30
sVvalue
p31
Vhttp://dbpedia.org/ontology/wikiPageExtracted
p32
ssg8
(dp33
Vdatatype
p34
Vhttp://www.w3.org/2001/XMLSchema#dateTime
p35
sVtype
p36
Vtyped-literal
p37
sVvalue
p38
V2016-08-19T22:19:20Z
p39
ssa(dp40
g7
(dp41
Vtype
p42
Vuri
p43
sVvalue
p44
Vhttp://dbpedia.org/ontology/wikiPageLength
p45
ssg8
(dp46
Vdatatype
p47
Vhttp://www.w3.org/2001/XMLSchema#nonNegativeInteger
p48
sVtype
p49
Vtyped-literal
p50
sVvalue
p51
V89479
p52
ssa(dp53
g7
(dp54
Vtype
p55
Vuri
p56
sVvalue
p57
Vhttp://dbpedia.org/ontology/wikiPageModified
p58
ssg8
(dp59
Vdatatype
p60
Vhttp://www.w3.org/2001/XMLSchema#dateTime
p61
sVtype
p62
Vtyped-literal
p63
sVvalue
p64
V2016-07-20T22:18:52Z
p65
ssa(dp66
g7
(dp67
Vtype
p68
Vuri
p69
sVvalue
p70
Vhttp://dbpedia.org/ontology/wikiPageOutDegree
p71
ssg8
(dp72
Vdatatype
p73
Vhttp://www.w3.org/2001/XMLSchema#nonNegativeInteger
p74
sVtype
p75
Vtyped-literal
p76
sVvalue
p77
V64
p78
ssasVordered
p79
I01
ss.