(dp0
Vhead
p1
(dp2
Vlink
p3
(lp4
sVvars
p5
(lp6
Vp
p7
aVo
p8
assVresults
p9
(dp10
Vdistinct
p11
I00
sVbindings
p12
(lp13
(dp14
g7
(dp15
Vtype
p16
Vuri
p17
sVvalue
p18
Vhttp://dbpedia.org/ontology/PopulatedPlace/areaTotal
p19
ssg8
(dp20
Vdatatype
p21
Vhttp://dbpedia.org/datatype/squareKilometre
p22
sVtype
p23
Vtyped-literal
p24
sVvalue
p25
V39.6
p26
ssa(dp27
g7
(dp28
Vtype
p29
Vuri
p30
sVvalue
p31
Vhttp://dbpedia.org/ontology/PopulatedPlace/populationDensity
p32
ssg8
(dp33
Vdatatype
p34
Vhttp://dbpedia.org/datatype/inhabitantsPerSquareKilometre
p35
sVtype
p36
Vtyped-literal
p37
sVvalue
p38
V695.7
p39
ssa(dp40
g7
(dp41
Vtype
p42
Vuri
p43
sVvalue
p44
Vhttp://dbpedia.org/ontology/abstract
p45
ssg8
(dp46
Vxml:lang
p47
Ven
p48
sVtype
p49
Vliteral
p50
sVvalue
p51
VSusquehanna Township is a township in Dauphin County, Pennsylvania, United States. The population was 24,036 at the 2010 census. This represents a 9.8% increase from the 2000 census count of 21,895. Susquehanna Township has the postal ZIP codes 17109 and 17110, which maintain the Harrisburg place name designation. The township is a suburb of Harrisburg and is connected to Marysville by the Rockville Bridge, the world's longest stone-arch rail bridge at the time of its completion.
p52
ssa(dp53
g7
(dp54
Vtype
p55
Vuri
p56
sVvalue
p57
Vhttp://dbpedia.org/ontology/areaCode
p58
ssg8
(dp59
Vtype
p60
Vliteral
p61
sVvalue
p62
V717
p63
ssa(dp64
g7
(dp65
Vtype
p66
Vuri
p67
sVvalue
p68
Vhttp://dbpedia.org/ontology/areaLand
p69
ssg8
(dp70
Vdatatype
p71
Vhttp://www.w3.org/2001/XMLSchema#double
p72
sVtype
p73
Vtyped-literal
p74
sVvalue
p75
V3.45e+07
p76
ssa(dp77
g7
(dp78
Vtype
p79
Vuri
p80
sVvalue
p81
Vhttp://dbpedia.org/ontology/areaTotal
p82
ssg8
(dp83
Vdatatype
p84
Vhttp://www.w3.org/2001/XMLSchema#double
p85
sVtype
p86
Vtyped-literal
p87
sVvalue
p88
V3.96e+07
p89
ssa(dp90
g7
(dp91
Vtype
p92
Vuri
p93
sVvalue
p94
Vhttp://dbpedia.org/ontology/areaWater
p95
ssg8
(dp96
Vdatatype
p97
Vhttp://www.w3.org/2001/XMLSchema#double
p98
sVtype
p99
Vtyped-literal
p100
sVvalue
p101
V5e+06
p102
ssa(dp103
g7
(dp104
Vtype
p105
Vuri
p106
sVvalue
p107
Vhttp://dbpedia.org/ontology/leaderTitle
p108
ssg8
(dp109
Vxml:lang
p110
Ven
p111
sVtype
p112
Vliteral
p113
sVvalue
p114
VPresident
p115
ssa(dp116
g7
(dp117
Vtype
p118
Vuri
p119
sVvalue
p120
Vhttp://dbpedia.org/ontology/populationDensity
p121
ssg8
(dp122
Vdatatype
p123
Vhttp://www.w3.org/2001/XMLSchema#double
p124
sVtype
p125
Vtyped-literal
p126
sVvalue
p127
V695.7
p128
ssa(dp129
g7
(dp130
Vtype
p131
Vuri
p132
sVvalue
p133
Vhttp://dbpedia.org/ontology/populationTotal
p134
ssg8
(dp135
Vdatatype
p136
Vhttp://www.w3.org/2001/XMLSchema#nonNegativeInteger
p137
sVtype
p138
Vtyped-literal
p139
sVvalue
p140
V24036
p141
ssa(dp142
g7
(dp143
Vtype
p144
Vuri
p145
sVvalue
p146
Vhttp://dbpedia.org/ontology/utcOffset
p147
ssg8
(dp148
Vtype
p149
Vliteral
p150
sVvalue
p151
V-4
p152
ssa(dp153
g7
(dp154
Vtype
p155
Vuri
p156
sVvalue
p157
Vhttp://dbpedia.org/ontology/utcOffset
p158
ssg8
(dp159
Vtype
p160
Vliteral
p161
sVvalue
p162
V-5
p163
ssa(dp164
g7
(dp165
Vtype
p166
Vuri
p167
sVvalue
p168
Vhttp://dbpedia.org/ontology/wikiPageExtracted
p169
ssg8
(dp170
Vdatatype
p171
Vhttp://www.w3.org/2001/XMLSchema#dateTime
p172
sVtype
p173
Vtyped-literal
p174
sVvalue
p175
V2016-11-06T12:44:14Z
p176
ssa(dp177
g7
(dp178
Vtype
p179
Vuri
p180
sVvalue
p181
Vhttp://dbpedia.org/ontology/wikiPageLength
p182
ssg8
(dp183
Vdatatype
p184
Vhttp://www.w3.org/2001/XMLSchema#nonNegativeInteger
p185
sVtype
p186
Vtyped-literal
p187
sVvalue
p188
V18267
p189
ssa(dp190
g7
(dp191
Vtype
p192
Vuri
p193
sVvalue
p194
Vhttp://dbpedia.org/ontology/wikiPageModified
p195
ssg8
(dp196
Vdatatype
p197
Vhttp://www.w3.org/2001/XMLSchema#dateTime
p198
sVtype
p199
Vtyped-literal
p200
sVvalue
p201
V2016-11-04T03:47:05Z
p202
ssa(dp203
g7
(dp204
Vtype
p205
Vuri
p206
sVvalue
p207
Vhttp://dbpedia.org/ontology/wikiPageOutDegree
p208
ssg8
(dp209
Vdatatype
p210
Vhttp://www.w3.org/2001/XMLSchema#nonNegativeInteger
p211
sVtype
p212
Vtyped-literal
p213
sVvalue
p214
V99
p215
ssasVordered
p216
I01
ss.