(dp0
Vhead
p1
(dp2
Vlink
p3
(lp4
sVvars
p5
(lp6
Vp
p7
aVo
p8
assVresults
p9
(dp10
Vdistinct
p11
I00
sVbindings
p12
(lp13
(dp14
g7
(dp15
Vtype
p16
Vuri
p17
sVvalue
p18
Vhttp://dbpedia.org/ontology/Work/runtime
p19
ssg8
(dp20
Vdatatype
p21
Vhttp://dbpedia.org/datatype/minute
p22
sVtype
p23
Vtyped-literal
p24
sVvalue
p25
V2.95
p26
ssa(dp27
g7
(dp28
Vtype
p29
Vuri
p30
sVvalue
p31
Vhttp://dbpedia.org/ontology/Work/runtime
p32
ssg8
(dp33
Vdatatype
p34
Vhttp://dbpedia.org/datatype/minute
p35
sVtype
p36
Vtyped-literal
p37
sVvalue
p38
V3.55
p39
ssa(dp40
g7
(dp41
Vtype
p42
Vuri
p43
sVvalue
p44
Vhttp://dbpedia.org/ontology/abstract
p45
ssg8
(dp46
Vxml:lang
p47
Ven
p48
sVtype
p49
Vliteral
p50
sVvalue
p51
V"How Sweet It Is (To Be Loved by You)" is a 1964 song written by the Motown songwriting team of Holland\u2013Dozier\u2013Holland and first recorded by American soul singer Marvin Gaye.
p52
ssa(dp53
g7
(dp54
Vtype
p55
Vuri
p56
sVvalue
p57
Vhttp://dbpedia.org/ontology/bSide
p58
ssg8
(dp59
Vtype
p60
Vliteral
p61
sVvalue
p62
V"Forever"
p63
ssa(dp64
g7
(dp65
Vtype
p66
Vuri
p67
sVvalue
p68
Vhttp://dbpedia.org/ontology/bSide
p69
ssg8
(dp70
Vtype
p71
Vliteral
p72
sVvalue
p73
V"Sarah Maria"
p74
ssa(dp75
g7
(dp76
Vtype
p77
Vuri
p78
sVvalue
p79
Vhttp://dbpedia.org/ontology/recordDate
p80
ssg8
(dp81
Vdatatype
p82
Vhttp://www.w3.org/2001/XMLSchema#date
p83
sVtype
p84
Vtyped-literal
p85
sVvalue
p86
V1964-07-24
p87
ssa(dp88
g7
(dp89
Vtype
p90
Vuri
p91
sVvalue
p92
Vhttp://dbpedia.org/ontology/releaseDate
p93
ssg8
(dp94
Vdatatype
p95
Vhttp://www.w3.org/2001/XMLSchema#date
p96
sVtype
p97
Vtyped-literal
p98
sVvalue
p99
V1964-11-04
p100
ssa(dp101
g7
(dp102
Vtype
p103
Vuri
p104
sVvalue
p105
Vhttp://dbpedia.org/ontology/runtime
p106
ssg8
(dp107
Vdatatype
p108
Vhttp://www.w3.org/2001/XMLSchema#double
p109
sVtype
p110
Vtyped-literal
p111
sVvalue
p112
V177.0
p113
ssa(dp114
g7
(dp115
Vtype
p116
Vuri
p117
sVvalue
p118
Vhttp://dbpedia.org/ontology/runtime
p119
ssg8
(dp120
Vdatatype
p121
Vhttp://www.w3.org/2001/XMLSchema#double
p122
sVtype
p123
Vtyped-literal
p124
sVvalue
p125
V213.0
p126
ssasVordered
p127
I01
ss.