(dp0
Vhead
p1
(dp2
Vlink
p3
(lp4
sVvars
p5
(lp6
Vp
p7
aVo
p8
assVresults
p9
(dp10
Vdistinct
p11
I00
sVbindings
p12
(lp13
(dp14
g7
(dp15
Vtype
p16
Vuri
p17
sVvalue
p18
Vhttp://dbpedia.org/ontology/birthDate
p19
ssg8
(dp20
Vdatatype
p21
Vhttp://www.w3.org/2001/XMLSchema#date
p22
sVtype
p23
Vtyped-literal
p24
sVvalue
p25
V1981-10-30
p26
ssa(dp27
g7
(dp28
Vtype
p29
Vuri
p30
sVvalue
p31
Vhttp://dbpedia.org/ontology/Person/height
p32
ssg8
(dp33
Vdatatype
p34
Vhttp://dbpedia.org/datatype/centimetre
p35
sVtype
p36
Vtyped-literal
p37
sVvalue
p38
V190.0
p39
ssa(dp40
g7
(dp41
Vtype
p42
Vuri
p43
sVvalue
p44
Vhttp://dbpedia.org/ontology/Person/weight
p45
ssg8
(dp46
Vdatatype
p47
Vhttp://dbpedia.org/datatype/kilogram
p48
sVtype
p49
Vtyped-literal
p50
sVvalue
p51
V75.0
p52
ssa(dp53
g7
(dp54
Vtype
p55
Vuri
p56
sVvalue
p57
Vhttp://dbpedia.org/ontology/abstract
p58
ssg8
(dp59
Vxml:lang
p60
Vde
p61
sVtype
p62
Vliteral
p63
sVvalue
p64
VJennifer Fopma (* 30. Oktober 1981 in Leiden, Niederlande) ist eine US-amerikanische Beachvolleyballspielerin.
p65
ssa(dp66
g7
(dp67
Vtype
p68
Vuri
p69
sVvalue
p70
Vhttp://dbpedia.org/ontology/abstract
p71
ssg8
(dp72
Vxml:lang
p73
Vru
p74
sVtype
p75
Vliteral
p76
sVvalue
p77
V\u0414\u0436\u0435\u043d\u043d\u0438\u0444\u0435\u0440 \u0424\u043e\u043f\u043c\u0430 (\u0430\u043d\u0433\u043b. Jennifer Fopma) \u2014 \u0430\u043c\u0435\u0440\u0438\u043a\u0430\u043d\u0441\u043a\u0430\u044f \u043f\u043b\u044f\u0436\u043d\u0430\u044f \u0432\u043e\u043b\u0435\u0439\u0431\u043e\u043b\u0438\u0441\u0442\u043a\u0430. \u0420\u043e\u0434\u0438\u043b\u0430\u0441\u044c \u0432 \u0433\u043e\u043b\u043b\u0430\u043d\u0434\u0441\u043a\u043e\u043c \u041b\u0435\u0439\u0434\u0435\u043d\u0435 \u0432 \u0441\u0435\u043c\u044c\u0435 \u0430\u043c\u0435\u0440\u0438\u043a\u0430\u043d\u0446\u0435\u0432. \u041a\u043e\u0433\u0434\u0430 \u0414\u0436\u0435\u043d\u043d\u0438\u0444\u0435\u0440 \u0431\u044b\u043b \u043e\u0434\u0438\u043d \u0433\u043e\u0434, \u0441\u0435\u043c\u044c\u044f \u0432\u0435\u0440\u043d\u0443\u043b\u0430\u0441\u044c \u0432 \u0421\u0428\u0410. \u041e\u0431\u0443\u0447\u0430\u043b\u0430\u0441\u044c \u0432 \u0423\u043d\u0438\u0432\u0435\u0440\u0441\u0438\u0442\u0435\u0442\u0435 \u041f\u0435\u043f\u043f\u0435\u0440\u0434\u0430\u0439\u043d\u0430, \u043f\u0440\u043e\u0434\u043e\u043b\u0436\u0438\u043b\u0430 \u043e\u0431\u0443\u0447\u0435\u043d\u0438\u0435 \u0432 \u043a\u0430\u043b\u0438\u0444\u043e\u0440\u043d\u0438\u0439\u0441\u043a\u043e\u043c \u0423\u043d\u0438\u0432\u0435\u0440\u0441\u0438\u0442\u0435\u0442\u0435 \u0448\u0442\u0430\u0442\u0430 \u0432 \u041d\u043e\u0440\u0442\u0440\u0438\u0434\u0436\u0435\u0440\u0443\u0441\u0441\u043a.. \u0417\u0430\u043c\u0443\u0436\u0435\u043c \u0437\u0430 \u0442\u0440\u0435\u043d\u0435\u0440\u043e\u043c \u0414\u0436\u0435\u0444\u0444\u043e\u043c \u041a\u043e\u043d\u043e\u0432\u0435\u0440\u043e\u043c.. \u041f\u0440\u043e\u0436\u0438\u0432\u0430\u0435\u0442 \u0432 \u041a\u043e\u0441\u0442\u0430-\u041c\u0435\u0441\u0430, \u041a\u0430\u043b\u0438\u0444\u043e\u0440\u043d\u0438\u044f.
p78
ssa(dp79
g7
(dp80
Vtype
p81
Vuri
p82
sVvalue
p83
Vhttp://dbpedia.org/ontology/abstract
p84
ssg8
(dp85
Vxml:lang
p86
Ven
p87
sVtype
p88
Vliteral
p89
sVvalue
p90
VJennifer Fopma (born October 30, 1981) is an international level beach volleyball player of the United States. She started her career in 2005 with the AVP tours. Fopma had her bestever international (FIVB) finish with her then-partner Brooke Sweat, when they placed third at the 2013 Berlin Grand Slam. Fopma was born in Leiden to American parents living in the Netherlands. Her family moved back to USA when she was aged one. She started her graduation at Pepperdine University, and then moved to California State University, Northridge. She is married to the Men's team's former coach, Jeff Conover.
p91
ssa(dp92
g7
(dp93
Vtype
p94
Vuri
p95
sVvalue
p96
Vhttp://dbpedia.org/ontology/height
p97
ssg8
(dp98
Vdatatype
p99
Vhttp://www.w3.org/2001/XMLSchema#double
p100
sVtype
p101
Vtyped-literal
p102
sVvalue
p103
V1.9
p104
ssa(dp105
g7
(dp106
Vtype
p107
Vuri
p108
sVvalue
p109
Vhttp://dbpedia.org/ontology/weight
p110
ssg8
(dp111
Vdatatype
p112
Vhttp://www.w3.org/2001/XMLSchema#double
p113
sVtype
p114
Vtyped-literal
p115
sVvalue
p116
V75000.0
p117
ssasVordered
p118
I01
ss.