(dp0
Vhead
p1
(dp2
Vlink
p3
(lp4
sVvars
p5
(lp6
Vp
p7
aVo
p8
assVresults
p9
(dp10
Vdistinct
p11
I00
sVbindings
p12
(lp13
(dp14
g7
(dp15
Vtype
p16
Vuri
p17
sVvalue
p18
Vhttp://dbpedia.org/ontology/Engine/displacement
p19
ssg8
(dp20
Vdatatype
p21
Vhttp://dbpedia.org/datatype/cubicCentimetre
p22
sVtype
p23
Vtyped-literal
p24
sVvalue
p25
V7300.0
p26
ssa(dp27
g7
(dp28
Vtype
p29
Vuri
p30
sVvalue
p31
Vhttp://dbpedia.org/ontology/abstract
p32
ssg8
(dp33
Vxml:lang
p34
Ven
p35
sVtype
p36
Vliteral
p37
sVvalue
p38
VPower Stroke is a line of diesel engines found in Ford Diesel trucks, Ford Excursion SUVs, Ford Econoline vans, Ford LCF commercial vehicles and the Brazilian Ford Ranger. The V8gines were produced by Navistar International Corp. until 2010 when Ford decided to build their diesel engine completely in-house. The Power Stroke engines compete primarily in the United States full-size pickup truck market with the Duramax V8 from General Motors/Isuzu and the B series straight 6 from Cummins.
p39
ssa(dp40
g7
(dp41
Vtype
p42
Vuri
p43
sVvalue
p44
Vhttp://dbpedia.org/ontology/configuration
p45
ssg8
(dp46
Vdatatype
p47
Vhttp://dbpedia.org/datatype/engineConfiguration
p48
sVtype
p49
Vtyped-literal
p50
sVvalue
p51
VV8
p52
ssa(dp53
g7
(dp54
Vtype
p55
Vuri
p56
sVvalue
p57
Vhttp://dbpedia.org/ontology/displacement
p58
ssg8
(dp59
Vdatatype
p60
Vhttp://www.w3.org/2001/XMLSchema#double
p61
sVtype
p62
Vtyped-literal
p63
sVvalue
p64
V0.0073
p65
ssa(dp66
g7
(dp67
Vtype
p68
Vuri
p69
sVvalue
p70
Vhttp://dbpedia.org/ontology/fuelType
p71
ssg8
(dp72
Vdatatype
p73
Vhttp://dbpedia.org/datatype/fuelType
p74
sVtype
p75
Vtyped-literal
p76
sVvalue
p77
Vdiesel
p78
ssa(dp79
g7
(dp80
Vtype
p81
Vuri
p82
sVvalue
p83
Vhttp://dbpedia.org/ontology/productionEndYear
p84
ssg8
(dp85
Vdatatype
p86
Vhttp://www.w3.org/2001/XMLSchema#gYear
p87
sVtype
p88
Vtyped-literal
p89
sVvalue
p90
V2003
p91
ssa(dp92
g7
(dp93
Vtype
p94
Vuri
p95
sVvalue
p96
Vhttp://dbpedia.org/ontology/productionStartYear
p97
ssg8
(dp98
Vdatatype
p99
Vhttp://www.w3.org/2001/XMLSchema#gYear
p100
sVtype
p101
Vtyped-literal
p102
sVvalue
p103
V1994
p104
ssa(dp105
g7
(dp106
Vtype
p107
Vuri
p108
sVvalue
p109
Vhttp://dbpedia.org/ontology/valvetrain
p110
ssg8
(dp111
Vdatatype
p112
Vhttp://dbpedia.org/datatype/valvetrain
p113
sVtype
p114
Vtyped-literal
p115
sVvalue
p116
VI-head
p117
ssasVordered
p118
I01
ss.