(dp0
Vhead
p1
(dp2
Vlink
p3
(lp4
sVvars
p5
(lp6
Vp
p7
aVo
p8
assVresults
p9
(dp10
Vdistinct
p11
I00
sVbindings
p12
(lp13
(dp14
g7
(dp15
Vtype
p16
Vuri
p17
sVvalue
p18
Vhttp://dbpedia.org/ontology/abstract
p19
ssg8
(dp20
Vxml:lang
p21
Ven
p22
sVtype
p23
Vliteral
p24
sVvalue
p25
VClarkston RFC is a former rugby union team. It was based in Giffnock, East Renfrewshire. Clarkston R .F.C., since its formation in 1937, was always an "Open" club, created by a variety of former pupil rugby players who did not wish to undertake cross city travel to indulge in their sport. Significantly the first club chairman was a Glasgow Academical, the first President a Glasgow High Former Pupil and the longest serving Club Captain and Coach, Andrew Williams a product of Allan Glen\u2019s. Playing initially at the local authority\u2019s Overlee ground, years of tireless fund raising saw the Club\u2019s new facility at Braidholm opened by S.R.U. President Charlie Drummond in January 1971. The Club entered the new National League structure in 1973 at 4th Division level, rising through the years to division two. With three pitches. floodlights, 250 seater stand and expanded Clubhouse, in recognition of its changing character and by a significant membership majority at the May 1995 A.G.M., the Club altered its name to Glasgow Southern RFC.
p26
ssa(dp27
g7
(dp28
Vtype
p29
Vuri
p30
sVvalue
p31
Vhttp://dbpedia.org/ontology/foundingYear
p32
ssg8
(dp33
Vdatatype
p34
Vhttp://www.w3.org/2001/XMLSchema#gYear
p35
sVtype
p36
Vtyped-literal
p37
sVvalue
p38
V1937
p39
ssa(dp40
g7
(dp41
Vtype
p42
Vuri
p43
sVvalue
p44
Vhttp://dbpedia.org/ontology/teamName
p45
ssg8
(dp46
Vxml:lang
p47
Ven
p48
sVtype
p49
Vliteral
p50
sVvalue
p51
VClarkston
p52
ssasVordered
p53
I01
ss.