(dp0
Vhead
p1
(dp2
Vlink
p3
(lp4
sVvars
p5
(lp6
Vp
p7
aVo
p8
assVresults
p9
(dp10
Vdistinct
p11
I00
sVbindings
p12
(lp13
(dp14
g7
(dp15
Vtype
p16
Vuri
p17
sVvalue
p18
Vhttp://dbpedia.org/ontology/abstract
p19
ssg8
(dp20
Vxml:lang
p21
Ven
p22
sVtype
p23
Vliteral
p24
sVvalue
p25
VElizabeth Broderick AO is an Australian lawyer, who was the Australian Sex Discrimination Commissioner for over eight years from 2007 to 2015. She is a former partner and head of legal technology at Ashurst Australia (then called Blake Dawson Waldron), a global commercial law firm.
p26
ssasVordered
p27
I01
ss.