(dp0
Vhead
p1
(dp2
Vlink
p3
(lp4
sVvars
p5
(lp6
Vp
p7
aVo
p8
assVresults
p9
(dp10
Vdistinct
p11
I00
sVbindings
p12
(lp13
(dp14
g7
(dp15
Vtype
p16
Vuri
p17
sVvalue
p18
Vhttp://dbpedia.org/ontology/birthDate
p19
ssg8
(dp20
Vdatatype
p21
Vhttp://www.w3.org/2001/XMLSchema#date
p22
sVtype
p23
Vtyped-literal
p24
sVvalue
p25
V1951-9-12
p26
ssa(dp27
g7
(dp28
Vtype
p29
Vuri
p30
sVvalue
p31
Vhttp://dbpedia.org/ontology/Person/height
p32
ssg8
(dp33
Vdatatype
p34
Vhttp://dbpedia.org/datatype/centimetre
p35
sVtype
p36
Vtyped-literal
p37
sVvalue
p38
V169.0
p39
ssa(dp40
g7
(dp41
Vtype
p42
Vuri
p43
sVvalue
p44
Vhttp://dbpedia.org/ontology/Person/weight
p45
ssg8
(dp46
Vdatatype
p47
Vhttp://dbpedia.org/datatype/kilogram
p48
sVtype
p49
Vtyped-literal
p50
sVvalue
p51
V72.0
p52
ssa(dp53
g7
(dp54
Vtype
p55
Vuri
p56
sVvalue
p57
Vhttp://dbpedia.org/ontology/abstract
p58
ssg8
(dp59
Vxml:lang
p60
Ven
p61
sVtype
p62
Vliteral
p63
sVvalue
p64
VBrian Jones (born 12 September 1951) is an Australian professional golfer. Jones was born in Sydney. He turned professional in 1971. He played on the throughout Asia and Australasia including on the Japan Golf Tour. He won the Indian Open two times, five times in Australasia, and twelve times in Japan. He won 11 events on the Japan Golf Tour between 1977 and 1993. Jones played on the European Seniors Tour from 2002 to 2005, winning the 2002 De Vere Hotels Seniors Classic.
p65
ssa(dp66
g7
(dp67
Vtype
p68
Vuri
p69
sVvalue
p70
Vhttp://dbpedia.org/ontology/height
p71
ssg8
(dp72
Vdatatype
p73
Vhttp://www.w3.org/2001/XMLSchema#double
p74
sVtype
p75
Vtyped-literal
p76
sVvalue
p77
V1.69
p78
ssa(dp79
g7
(dp80
Vtype
p81
Vuri
p82
sVvalue
p83
Vhttp://dbpedia.org/ontology/weight
p84
ssg8
(dp85
Vdatatype
p86
Vhttp://www.w3.org/2001/XMLSchema#double
p87
sVtype
p88
Vtyped-literal
p89
sVvalue
p90
V72000.0
p91
ssasVordered
p92
I01
ss.