(dp0
Vhead
p1
(dp2
Vlink
p3
(lp4
sVvars
p5
(lp6
Vp
p7
aVo
p8
assVresults
p9
(dp10
Vdistinct
p11
I00
sVbindings
p12
(lp13
(dp14
g7
(dp15
Vtype
p16
Vuri
p17
sVvalue
p18
Vhttp://dbpedia.org/ontology/deathDate
p19
ssg8
(dp20
Vdatatype
p21
Vhttp://www.w3.org/2001/XMLSchema#date
p22
sVtype
p23
Vtyped-literal
p24
sVvalue
p25
V2010-06-25
p26
ssa(dp27
g7
(dp28
Vtype
p29
Vuri
p30
sVvalue
p31
Vhttp://dbpedia.org/ontology/deathDate
p32
ssg8
(dp33
Vdatatype
p34
Vhttp://www.w3.org/2001/XMLSchema#date
p35
sVtype
p36
Vtyped-literal
p37
sVvalue
p38
V2010-6-25
p39
ssa(dp40
g7
(dp41
Vtype
p42
Vuri
p43
sVvalue
p44
Vhttp://dbpedia.org/ontology/birthDate
p45
ssg8
(dp46
Vdatatype
p47
Vhttp://www.w3.org/2001/XMLSchema#date
p48
sVtype
p49
Vtyped-literal
p50
sVvalue
p51
V1973-05-27
p52
ssa(dp53
g7
(dp54
Vtype
p55
Vuri
p56
sVvalue
p57
Vhttp://dbpedia.org/ontology/birthDate
p58
ssg8
(dp59
Vdatatype
p60
Vhttp://www.w3.org/2001/XMLSchema#date
p61
sVtype
p62
Vtyped-literal
p63
sVvalue
p64
V1973-5-23
p65
ssa(dp66
g7
(dp67
Vtype
p68
Vuri
p69
sVvalue
p70
Vhttp://dbpedia.org/ontology/Person/height
p71
ssg8
(dp72
Vdatatype
p73
Vhttp://dbpedia.org/datatype/centimetre
p74
sVtype
p75
Vtyped-literal
p76
sVvalue
p77
V175.26
p78
ssa(dp79
g7
(dp80
Vtype
p81
Vuri
p82
sVvalue
p83
Vhttp://dbpedia.org/ontology/abstract
p84
ssg8
(dp85
Vxml:lang
p86
Ves
p87
sVtype
p88
Vliteral
p89
sVvalue
p90
VViveka Babajee (Port Louis, Mauritius, 23 de marzo de 1973 \u2013 Mumbai, Maharashtra, India, 25 de junio de 2010 ) fue una modelo, actriz y Miss Mundo india.
p91
ssa(dp92
g7
(dp93
Vtype
p94
Vuri
p95
sVvalue
p96
Vhttp://dbpedia.org/ontology/abstract
p97
ssg8
(dp98
Vxml:lang
p99
Vnl
p100
sVtype
p101
Vliteral
p102
sVvalue
p103
VViveka Babajee (23 mei 1973 - Bombay, 25 juni 2010) was een Indiaas model en actrice. Ze werd geboren in Mauritius en werd in 1993 bekroond tot Miss Mauritius. Babajee maakte op 37-jarige leeftijd een eind aan haar leven in haar appartement te Bombay.
p104
ssa(dp105
g7
(dp106
Vtype
p107
Vuri
p108
sVvalue
p109
Vhttp://dbpedia.org/ontology/abstract
p110
ssg8
(dp111
Vxml:lang
p112
Vru
p113
sVtype
p114
Vliteral
p115
sVvalue
p116
V\u0412\u0438\u0432\u0435\u0301\u043a\u0430 \u0411\u0430\u0431\u0430\u0301\u0434\u0436\u0438 (\u0430\u043d\u0433\u043b. Viveka Babajee; \u0440\u043e\u0434. 23 \u043c\u0430\u044f 1973 \u0433\u043e\u0434\u0430, \u041f\u043e\u0440\u0442-\u041b\u0443\u0438, \u041c\u0430\u0432\u0440\u0438\u043a\u0438\u0439 \u2014 25 \u0438\u044e\u043d\u044f 2010 \u0433\u043e\u0434\u0430, \u0411\u0430\u043d\u0434\u0440\u0430\u0440\u0443\u0441\u0441\u043a., \u041c\u0443\u043c\u0431\u0430\u0438, \u0418\u043d\u0434\u0438\u044f) \u2014 \u0438\u043d\u0434\u0438\u0439\u0441\u043a\u0430\u044f \u0444\u043e\u0442\u043e\u043c\u043e\u0434\u0435\u043b\u044c \u0438 \u0430\u043a\u0442\u0440\u0438\u0441\u0430 \u043c\u0430\u0432\u0440\u0438\u043a\u0438\u0439\u0441\u043a\u043e\u0433\u043e \u043f\u0440\u043e\u0438\u0441\u0445\u043e\u0436\u0434\u0435\u043d\u0438\u044f.
p117
ssa(dp118
g7
(dp119
Vtype
p120
Vuri
p121
sVvalue
p122
Vhttp://dbpedia.org/ontology/abstract
p123
ssg8
(dp124
Vxml:lang
p125
Ven
p126
sVtype
p127
Vliteral
p128
sVvalue
p129
VViveka Babajee (May 27, 1973 \u2013 June 25, 2010) was a Mauritian model and actress. She held the titles of Miss Mauritius World 1993 and Miss Mauritius Universe 1994. She was best known for her KamaSutra condom advertisements of the 1990s, and for her involvement in the so-called Manila Film Festival scam of 1994. Babajee was found hanging from the ceiling fan in her apartment on 25 June 2010 at her Bandra residence in Mumbai. The police reports stated that she committed suicide due to depression.
p130
ssa(dp131
g7
(dp132
Vtype
p133
Vuri
p134
sVvalue
p135
Vhttp://dbpedia.org/ontology/birthName
p136
ssg8
(dp137
Vxml:lang
p138
Ven
p139
sVtype
p140
Vliteral
p141
sVvalue
p142
VViveka Babajee
p143
ssa(dp144
g7
(dp145
Vtype
p146
Vuri
p147
sVvalue
p148
Vhttp://dbpedia.org/ontology/eyeColor
p149
ssg8
(dp150
Vtype
p151
Vliteral
p152
sVvalue
p153
VBlack
p154
ssa(dp155
g7
(dp156
Vtype
p157
Vuri
p158
sVvalue
p159
Vhttp://dbpedia.org/ontology/hairColor
p160
ssg8
(dp161
Vtype
p162
Vliteral
p163
sVvalue
p164
VBrown
p165
ssa(dp166
g7
(dp167
Vtype
p168
Vuri
p169
sVvalue
p170
Vhttp://dbpedia.org/ontology/height
p171
ssg8
(dp172
Vdatatype
p173
Vhttp://www.w3.org/2001/XMLSchema#double
p174
sVtype
p175
Vtyped-literal
p176
sVvalue
p177
V1.7526
p178
ssasVordered
p179
I01
ss.