(dp0
Vhead
p1
(dp2
Vlink
p3
(lp4
sVvars
p5
(lp6
Vp
p7
aVo
p8
assVresults
p9
(dp10
Vdistinct
p11
I00
sVbindings
p12
(lp13
(dp14
g7
(dp15
Vtype
p16
Vuri
p17
sVvalue
p18
Vhttp://dbpedia.org/ontology/birthDate
p19
ssg8
(dp20
Vdatatype
p21
Vhttp://www.w3.org/2001/XMLSchema#date
p22
sVtype
p23
Vtyped-literal
p24
sVvalue
p25
V1980-11-27
p26
ssa(dp27
g7
(dp28
Vtype
p29
Vuri
p30
sVvalue
p31
Vhttp://dbpedia.org/ontology/abstract
p32
ssg8
(dp33
Vxml:lang
p34
Vru
p35
sVtype
p36
Vliteral
p37
sVvalue
p38
V\u042d\u0301\u043d\u0434\u0438 \u041b\u0438 (\u0430\u043d\u0433\u043b. Andy Lee, \u0440\u043e\u0434. 27 \u043d\u043e\u044f\u0431\u0440\u044f 1980 \u0433\u043e\u0434\u0430) \u2014 \u0430\u043d\u0433\u043b\u0438\u0439\u0441\u043a\u0438\u0439 \u043f\u0440\u043e\u0444\u0435\u0441\u0441\u0438\u043e\u043d\u0430\u043b\u044c\u043d\u044b\u0439 \u0438\u0433\u0440\u043e\u043a \u0432 \u0441\u043d\u0443\u043a\u0435\u0440 \u043a\u0438\u0442\u0430\u0439\u0441\u043a\u043e\u0433\u043e \u043f\u0440\u043e\u0438\u0441\u0445\u043e\u0436\u0434\u0435\u043d\u0438\u044f. \u041f\u0440\u043e\u0444\u0435\u0441\u0441\u0438\u043e\u043d\u0430\u043b \u0441 2008 \u0433\u043e\u0434\u0430. \u041f\u043e\u043f\u0430\u043b \u0432 \u043c\u044d\u0439\u043d-\u0442\u0443\u0440 \u043f\u043e\u0441\u043b\u0435 \u043f\u043e\u0431\u0435\u0434\u044b \u0432 \u0442\u0443\u0440\u043d\u0438\u0440\u0435 English Pro Ticket Tour Play-offs. \u0412 \u0441\u0435\u0437\u043e\u043d\u0435 2008/09 \u043b\u0443\u0447\u0448\u0438\u043c \u0434\u043e\u0441\u0442\u0438\u0436\u0435\u043d\u0438\u0435\u043c \u0430\u043d\u0433\u043b\u0438\u0447\u0430\u043d\u0438\u043d\u0430 \u0441\u0442\u0430\u043b \u0432\u044b\u0445\u043e\u0434 \u0432 1/32 \u0442\u0443\u0440\u043d\u0438\u0440\u0430 \u0413\u0440\u0430\u043d-\u043f\u0440\u0438, \u043f\u0440\u0438\u0447\u0451\u043c \u043f\u043e \u043f\u0443\u0442\u0438 \u043e\u043d \u0432\u044b\u0438\u0433\u0440\u0430\u043b \u0443 \u0411\u0430\u0440\u0440\u0438 \u041f\u0438\u043d\u0447\u0435\u0441\u0430. \u0422\u0430\u043a\u0436\u0435 \u043e\u043d \u0434\u043e\u0441\u0442\u0438\u0433\u0430\u043b 1/32 \u0444\u0438\u043d\u0430\u043b\u0430 \u043d\u0430 \u0428\u0430\u043d\u0445\u0430\u0439 \u041c\u0430\u0441\u0442\u0435\u0440\u0441. \u041f\u043e\u0441\u043b\u0435 \u044d\u0442\u043e\u0433\u043e \u0441\u0435\u0437\u043e\u043d\u0430 \u042d\u043d\u0434\u0438 \u041b\u0438 \u0432\u044b\u0431\u044b\u043b \u0438\u0437 \u043c\u044d\u0439\u043d-\u0442\u0443\u0440\u0430.
p39
ssa(dp40
g7
(dp41
Vtype
p42
Vuri
p43
sVvalue
p44
Vhttp://dbpedia.org/ontology/abstract
p45
ssg8
(dp46
Vxml:lang
p47
Ven
p48
sVtype
p49
Vliteral
p50
sVvalue
p51
VAndy Lee (born 27 November 1980) is an English professional snooker player from Hong Kong, born 27 November 1980. He has qualified for the main tour for the 2008/2009 season by beating Adam Duffy 6\u20133 in the 2008 English Pro Ticket Tour Play-offs. This season he managed to reach the last 64 of the Royal London Watches Grand Prix, beating seasoned pro Barry Pinches in the process.
p52
ssa(dp53
g7
(dp54
Vtype
p55
Vuri
p56
sVvalue
p57
Vhttp://dbpedia.org/ontology/activeYearsEndYear
p58
ssg8
(dp59
Vdatatype
p60
Vhttp://www.w3.org/2001/XMLSchema#gYear
p61
sVtype
p62
Vtyped-literal
p63
sVvalue
p64
V2008
p65
ssa(dp66
g7
(dp67
Vtype
p68
Vuri
p69
sVvalue
p70
Vhttp://dbpedia.org/ontology/activeYearsStartYear
p71
ssg8
(dp72
Vdatatype
p73
Vhttp://www.w3.org/2001/XMLSchema#gYear
p74
sVtype
p75
Vtyped-literal
p76
sVvalue
p77
V2008
p78
ssa(dp79
g7
(dp80
Vtype
p81
Vuri
p82
sVvalue
p83
Vhttp://dbpedia.org/ontology/bestFinish
p84
ssg8
(dp85
Vtype
p86
Vliteral
p87
sVvalue
p88
V2008 Shanghai Masters and Royal London Watches Grand Prix last 64
p89
ssa(dp90
g7
(dp91
Vtype
p92
Vuri
p93
sVvalue
p94
Vhttp://dbpedia.org/ontology/centuryBreaks
p95
ssg8
(dp96
Vdatatype
p97
Vhttp://www.w3.org/2001/XMLSchema#integer
p98
sVtype
p99
Vtyped-literal
p100
sVvalue
p101
V4
p102
ssa(dp103
g7
(dp104
Vtype
p105
Vuri
p106
sVvalue
p107
Vhttp://dbpedia.org/ontology/gross
p108
ssg8
(dp109
Vdatatype
p110
Vhttp://dbpedia.org/datatype/poundSterling
p111
sVtype
p112
Vtyped-literal
p113
sVvalue
p114
V8155.0
p115
ssa(dp116
g7
(dp117
Vtype
p118
Vuri
p119
sVvalue
p120
Vhttp://dbpedia.org/ontology/highestBreak
p121
ssg8
(dp122
Vdatatype
p123
Vhttp://www.w3.org/2001/XMLSchema#integer
p124
sVtype
p125
Vtyped-literal
p126
sVvalue
p127
V130
p128
ssa(dp129
g7
(dp130
Vtype
p131
Vuri
p132
sVvalue
p133
Vhttp://dbpedia.org/ontology/highestRank
p134
ssg8
(dp135
Vdatatype
p136
Vhttp://www.w3.org/2001/XMLSchema#integer
p137
sVtype
p138
Vtyped-literal
p139
sVvalue
p140
V83
p141
ssasVordered
p142
I01
ss.