(dp0
Vhead
p1
(dp2
Vlink
p3
(lp4
sVvars
p5
(lp6
Vp
p7
aVo
p8
assVresults
p9
(dp10
Vdistinct
p11
I00
sVbindings
p12
(lp13
(dp14
g7
(dp15
Vtype
p16
Vuri
p17
sVvalue
p18
Vhttp://dbpedia.org/ontology/abstract
p19
ssg8
(dp20
Vxml:lang
p21
Ven
p22
sVtype
p23
Vliteral
p24
sVvalue
p25
VThe Bama Boyz (a.k.a. the Bamaz) are a Grammy-nominated, Dove Award-winning, American record production, songwriting, and artist trio, consisting of Eddie \u201cE-Trez\u201d Smith III, Jesse J. Rankins, Jonathan D. Wells. Professionally producing and songwriting since 2003, the Bama Boyz have accumulated a diverse range of music credits, ranging from genres such as Electro, R&B, Pop, hiphop, urban gospel, dance, and Latin pop to soundtracks/theme music for films, television shows, commercials, toy lines, and books. They are now known as Watch The Duck.
p26
ssa(dp27
g7
(dp28
Vtype
p29
Vuri
p30
sVvalue
p31
Vhttp://dbpedia.org/ontology/activeYearsStartYear
p32
ssg8
(dp33
Vdatatype
p34
Vhttp://www.w3.org/2001/XMLSchema#gYear
p35
sVtype
p36
Vtyped-literal
p37
sVvalue
p38
V2003
p39
ssa(dp40
g7
(dp41
Vtype
p42
Vuri
p43
sVvalue
p44
Vhttp://dbpedia.org/ontology/alias
p45
ssg8
(dp46
Vxml:lang
p47
Ven
p48
sVtype
p49
Vliteral
p50
sVvalue
p51
VThe Bamaz, Bama Boys, Bamaz
p52
ssa(dp53
g7
(dp54
Vtype
p55
Vuri
p56
sVvalue
p57
Vhttp://dbpedia.org/ontology/background
p58
ssg8
(dp59
Vtype
p60
Vliteral
p61
sVvalue
p62
Vgroup_or_band
p63
ssasVordered
p64
I01
ss.