(dp0
Vhead
p1
(dp2
Vlink
p3
(lp4
sVvars
p5
(lp6
Vp
p7
aVo
p8
assVresults
p9
(dp10
Vdistinct
p11
I00
sVbindings
p12
(lp13
(dp14
g7
(dp15
Vtype
p16
Vuri
p17
sVvalue
p18
Vhttp://dbpedia.org/ontology/deathDate
p19
ssg8
(dp20
Vdatatype
p21
Vhttp://www.w3.org/2001/XMLSchema#date
p22
sVtype
p23
Vtyped-literal
p24
sVvalue
p25
V1847-12-12
p26
ssa(dp27
g7
(dp28
Vtype
p29
Vuri
p30
sVvalue
p31
Vhttp://dbpedia.org/ontology/birthDate
p32
ssg8
(dp33
Vdatatype
p34
Vhttp://www.w3.org/2001/XMLSchema#date
p35
sVtype
p36
Vtyped-literal
p37
sVvalue
p38
V1763-7-31
p39
ssa(dp40
g7
(dp41
Vtype
p42
Vuri
p43
sVvalue
p44
Vhttp://dbpedia.org/ontology/abstract
p45
ssg8
(dp46
Vxml:lang
p47
Ven
p48
sVtype
p49
Vliteral
p50
sVvalue
p51
VJames Kent (July 31, 1763 in Fredericksburg, then Dutchess, now Putnam County, New York \u2013 December 12, 1847 in New York City) was an American jurist and legal scholar. He was the author of Commentaries on American Law.
p52
ssa(dp53
g7
(dp54
Vtype
p55
Vuri
p56
sVvalue
p57
Vhttp://dbpedia.org/ontology/abstract
p58
ssg8
(dp59
Vxml:lang
p60
Vde
p61
sVtype
p62
Vliteral
p63
sVvalue
p64
VJames Kent (* 31. Juli 1763 in Fredericksburg (heute Patterson, New York); \u2020 12. Dezember 1847 in Kent, New York) war amerikanischer Jurist und Rechtsgelehrter.
p65
ssa(dp66
g7
(dp67
Vtype
p68
Vuri
p69
sVvalue
p70
Vhttp://dbpedia.org/ontology/abstract
p71
ssg8
(dp72
Vxml:lang
p73
Ves
p74
sVtype
p75
Vliteral
p76
sVvalue
p77
VJames Kent (31 de julio, 1763; Fredericksburg, entonces, Dutchess, ahora condado de Putnam, Nueva York - 12 de diciembre, 1847; Nueva York) fue un jurista y experto en leyes de Estados Unidos.
p78
ssa(dp79
g7
(dp80
Vtype
p81
Vuri
p82
sVvalue
p83
Vhttp://dbpedia.org/ontology/abstract
p84
ssg8
(dp85
Vxml:lang
p86
Vru
p87
sVtype
p88
Vliteral
p89
sVvalue
p90
V\u0414\u0436\u0435\u043c\u0441 \u041a\u0435\u043d\u0442 (\u0430\u043d\u0433\u043b. James Kent; 31 \u0438\u044e\u043b\u044f 1763, \u0424\u0440\u0435\u0434\u0435\u0440\u0438\u043a\u0441\u0431\u0435\u0440\u0433 (\u043d\u044b\u043d\u0435 \u0432 \u0441\u043e\u0441\u0442\u0430\u0432\u0435 \u043e\u043a\u0440\u0443\u0433\u0430 \u041f\u0443\u0442\u043d\u044d\u043c), \u2014 12 \u0434\u0435\u043a\u0430\u0431\u0440\u044f 1847, \u041d\u044c\u044e-\u0419\u043e\u0440\u043a) \u2014 \u0441\u0435\u0432\u0435\u0440\u043e\u0430\u043c\u0435\u0440\u0438\u043a\u0430\u043d\u0441\u043a\u0438\u0439 \u044e\u0440\u0438\u0441\u0442.
p91
ssasVordered
p92
I01
ss.