(dp0
Vhead
p1
(dp2
Vlink
p3
(lp4
sVvars
p5
(lp6
Vp
p7
aVo
p8
assVresults
p9
(dp10
Vdistinct
p11
I00
sVbindings
p12
(lp13
(dp14
g7
(dp15
Vtype
p16
Vuri
p17
sVvalue
p18
Vhttp://dbpedia.org/ontology/abstract
p19
ssg8
(dp20
Vxml:lang
p21
Ven
p22
sVtype
p23
Vliteral
p24
sVvalue
p25
VThe East Pennsboro Area School District is a midsized, suburban, public school district located in Cumberland County, Pennsylvania, U.S. The District is one of the 500 public school districts of Pennsylvania. East Pennsboro Area School District serves: East Pennsboro Township and the Villages of Enola, Summerdale, West Fairview and parts of the Borough of Camp Hill. According to 2000 federal census data, it served a resident population of 18,254 people. By 2010, the District's population increased to 20,267 people. In 2009, the East Pennsboro Area School District residents' per capita income was $22,517, while the median family income was $54,142. The educational attainment levels for the School District population (25 years old and over) were 92.2% high school graduates and 29.5% college graduates. Per District officials, in school year 2007-2008, the East Pennsboro Area School District provided basic educational services to 2,901 pupils. It employed 217 teachers, 129 full-time and part-time support personnel, and 15 administrators. The East Pennsboro Area School District received more than $8.6 million in state funding in school year 2007-2008. The District provided basic educational services to 2,830 pupils in 2019-2010. It employed: 233 teachers, 122 full-time and part-time support personnel, and 14 administrators during the 2009-2010 school year. East Pennsboro Area School District received $9 million in state funding in the 2009-2010 school year. East Pennsboro Area School District operates four schools: East Pennsboro Elementary School, West Creek Hills Elementary School, East Pennsboro Area Middle School, and East Pennsboro High School. East Pennsboro Area School District is served by the Capital Area Intermediate Unit 15 which offers a variety of services, including a completely developed K-12 curriculum that is mapped and aligned with the Pennsylvania Academic Standards (available online), shared services, a group purchasing program and a wide variety of special education and special needs services. High school students may choose to attend Cumberland Perry Area Vocational Technical School for training in the construction and mechanical trades.
p26
ssa(dp27
g7
(dp28
Vtype
p29
Vuri
p30
sVvalue
p31
Vhttp://dbpedia.org/ontology/address
p32
ssg8
(dp33
Vxml:lang
p34
Ven
p35
sVtype
p36
Vliteral
p37
sVvalue
p38
V890 Valley Street
p39
ssa(dp40
g7
(dp41
Vtype
p42
Vuri
p43
sVvalue
p44
Vhttp://dbpedia.org/ontology/budget
p45
ssg8
(dp46
Vdatatype
p47
Vhttp://dbpedia.org/datatype/usDollar
p48
sVtype
p49
Vtyped-literal
p50
sVvalue
p51
V3.59E7
p52
ssa(dp53
g7
(dp54
Vtype
p55
Vuri
p56
sVvalue
p57
Vhttp://dbpedia.org/ontology/budget
p58
ssg8
(dp59
Vdatatype
p60
Vhttp://dbpedia.org/datatype/usDollar
p61
sVtype
p62
Vtyped-literal
p63
sVvalue
p64
V3.78E7
p65
ssa(dp66
g7
(dp67
Vtype
p68
Vuri
p69
sVvalue
p70
Vhttp://dbpedia.org/ontology/budget
p71
ssg8
(dp72
Vdatatype
p73
Vhttp://dbpedia.org/datatype/usDollar
p74
sVtype
p75
Vtyped-literal
p76
sVvalue
p77
V3.84E7
p78
ssa(dp79
g7
(dp80
Vtype
p81
Vuri
p82
sVvalue
p83
Vhttp://dbpedia.org/ontology/budget
p84
ssg8
(dp85
Vdatatype
p86
Vhttp://dbpedia.org/datatype/usDollar
p87
sVtype
p88
Vtyped-literal
p89
sVvalue
p90
V3.49E7
p91
ssa(dp92
g7
(dp93
Vtype
p94
Vuri
p95
sVvalue
p96
Vhttp://dbpedia.org/ontology/budget
p97
ssg8
(dp98
Vdatatype
p99
Vhttp://dbpedia.org/datatype/usDollar
p100
sVtype
p101
Vtyped-literal
p102
sVvalue
p103
V3.4216821E7
p104
ssa(dp105
g7
(dp106
Vtype
p107
Vuri
p108
sVvalue
p109
Vhttp://dbpedia.org/ontology/budget
p110
ssg8
(dp111
Vdatatype
p112
Vhttp://dbpedia.org/datatype/usDollar
p113
sVtype
p114
Vtyped-literal
p115
sVvalue
p116
V3.4488025E7
p117
ssa(dp118
g7
(dp119
Vtype
p120
Vuri
p121
sVvalue
p122
Vhttp://dbpedia.org/ontology/budget
p123
ssg8
(dp124
Vdatatype
p125
Vhttp://dbpedia.org/datatype/usDollar
p126
sVtype
p127
Vtyped-literal
p128
sVvalue
p129
V3.7197538E7
p130
ssa(dp131
g7
(dp132
Vtype
p133
Vuri
p134
sVvalue
p135
Vhttp://dbpedia.org/ontology/facultySize
p136
ssg8
(dp137
Vdatatype
p138
Vhttp://www.w3.org/2001/XMLSchema#nonNegativeInteger
p139
sVtype
p140
Vtyped-literal
p141
sVvalue
p142
V213
p143
ssa(dp144
g7
(dp145
Vtype
p146
Vuri
p147
sVvalue
p148
Vhttp://dbpedia.org/ontology/headLabel
p149
ssg8
(dp150
Vxml:lang
p151
Ven
p152
sVtype
p153
Vliteral
p154
sVvalue
p155
VSupervisor
p156
ssa(dp157
g7
(dp158
Vtype
p159
Vuri
p160
sVvalue
p161
Vhttp://dbpedia.org/ontology/lowerAge
p162
ssg8
(dp163
Vdatatype
p164
Vhttp://www.w3.org/2001/XMLSchema#nonNegativeInteger
p165
sVtype
p166
Vtyped-literal
p167
sVvalue
p168
V5
p169
ssa(dp170
g7
(dp171
Vtype
p172
Vuri
p173
sVvalue
p174
Vhttp://dbpedia.org/ontology/mascot
p175
ssg8
(dp176
Vtype
p177
Vliteral
p178
sVvalue
p179
VPanthers
p180
ssa(dp181
g7
(dp182
Vtype
p183
Vuri
p184
sVvalue
p185
Vhttp://dbpedia.org/ontology/numberOfStudents
p186
ssg8
(dp187
Vdatatype
p188
Vhttp://www.w3.org/2001/XMLSchema#nonNegativeInteger
p189
sVtype
p190
Vtyped-literal
p191
sVvalue
p192
V2764
p193
ssa(dp194
g7
(dp195
Vtype
p196
Vuri
p197
sVvalue
p198
Vhttp://dbpedia.org/ontology/postalCode
p199
ssg8
(dp200
Vtype
p201
Vliteral
p202
sVvalue
p203
V17025-1541
p204
ssa(dp205
g7
(dp206
Vtype
p207
Vuri
p208
sVvalue
p209
Vhttp://dbpedia.org/ontology/staff
p210
ssg8
(dp211
Vdatatype
p212
Vhttp://www.w3.org/2001/XMLSchema#nonNegativeInteger
p213
sVtype
p214
Vtyped-literal
p215
sVvalue
p216
V153
p217
ssa(dp218
g7
(dp219
Vtype
p220
Vuri
p221
sVvalue
p222
Vhttp://dbpedia.org/ontology/upperAge
p223
ssg8
(dp224
Vdatatype
p225
Vhttp://www.w3.org/2001/XMLSchema#nonNegativeInteger
p226
sVtype
p227
Vtyped-literal
p228
sVvalue
p229
V21
p230
ssasVordered
p231
I01
ss.