(dp0
Vhead
p1
(dp2
Vlink
p3
(lp4
sVvars
p5
(lp6
Vp
p7
aVo
p8
assVresults
p9
(dp10
Vdistinct
p11
I00
sVbindings
p12
(lp13
(dp14
g7
(dp15
Vtype
p16
Vuri
p17
sVvalue
p18
Vhttp://dbpedia.org/ontology/deathDate
p19
ssg8
(dp20
Vdatatype
p21
Vhttp://www.w3.org/2001/XMLSchema#date
p22
sVtype
p23
Vtyped-literal
p24
sVvalue
p25
V1887-11-03
p26
ssa(dp27
g7
(dp28
Vtype
p29
Vuri
p30
sVvalue
p31
Vhttp://dbpedia.org/ontology/deathDate
p32
ssg8
(dp33
Vdatatype
p34
Vhttp://www.w3.org/2001/XMLSchema#date
p35
sVtype
p36
Vtyped-literal
p37
sVvalue
p38
V1887-11-3
p39
ssa(dp40
g7
(dp41
Vtype
p42
Vuri
p43
sVvalue
p44
Vhttp://dbpedia.org/ontology/birthDate
p45
ssg8
(dp46
Vdatatype
p47
Vhttp://www.w3.org/2001/XMLSchema#date
p48
sVtype
p49
Vtyped-literal
p50
sVvalue
p51
V1824-01-01
p52
ssa(dp53
g7
(dp54
Vtype
p55
Vuri
p56
sVvalue
p57
Vhttp://dbpedia.org/ontology/birthDate
p58
ssg8
(dp59
Vdatatype
p60
Vhttp://www.w3.org/2001/XMLSchema#date
p61
sVtype
p62
Vtyped-literal
p63
sVvalue
p64
V1824-1-1
p65
ssa(dp66
g7
(dp67
Vtype
p68
Vuri
p69
sVvalue
p70
Vhttp://dbpedia.org/ontology/abstract
p71
ssg8
(dp72
Vxml:lang
p73
Ven
p74
sVtype
p75
Vliteral
p76
sVvalue
p77
VJohn O'Connor, PC (January 1, 1824 \u2013 November 3, 1887) was a Canadian politician and cabinet minister. Born in Boston, Massachusetts, the son of Irish immigrants John and Mary O\u2019Connor, he moved with his family to Essex County, Upper Canada in 1828. A lawyer by training, he was elected to the 7th Parliament of the Province of Canada in 1863. In 1867, he was elected to the 1st Canadian Parliament representing the riding of Essex. He was re-elected to the 2nd Canadian Parliament but was defeated in the 1874 federal election. In the period of 1872 to 1873, he was President of the Privy Council, Minister of Inland Revenue, and Postmaster General. He was re-elected again in the 1878 federal election for the riding of Russell. From 1878 to 1880, he again was the President of the Privy Council. As well he was the Postmaster General in 1880 and from 1881 to 1882. From 1880 to 1881, he was the Secretary of State of Canada. In 1884, he was appointed a judge of the Court of Queen\u2019s Bench for Ontario.
p78
ssa(dp79
g7
(dp80
Vtype
p81
Vuri
p82
sVvalue
p83
Vhttp://dbpedia.org/ontology/office
p84
ssg8
(dp85
Vtype
p86
Vliteral
p87
sVvalue
p88
VPostmaster General
p89
ssa(dp90
g7
(dp91
Vtype
p92
Vuri
p93
sVvalue
p94
Vhttp://dbpedia.org/ontology/office
p95
ssg8
(dp96
Vtype
p97
Vliteral
p98
sVvalue
p99
VPresident of the Privy Council
p100
ssa(dp101
g7
(dp102
Vtype
p103
Vuri
p104
sVvalue
p105
Vhttp://dbpedia.org/ontology/office
p106
ssg8
(dp107
Vtype
p108
Vliteral
p109
sVvalue
p110
VSecretary of State of Canada
p111
ssa(dp112
g7
(dp113
Vtype
p114
Vuri
p115
sVvalue
p116
Vhttp://dbpedia.org/ontology/office
p117
ssg8
(dp118
Vtype
p119
Vliteral
p120
sVvalue
p121
VMinister of Inland Revenue
p122
ssasVordered
p123
I01
ss.