(dp0
Vhead
p1
(dp2
Vlink
p3
(lp4
sVvars
p5
(lp6
Vp
p7
aVo
p8
assVresults
p9
(dp10
Vdistinct
p11
I00
sVbindings
p12
(lp13
(dp14
g7
(dp15
Vtype
p16
Vuri
p17
sVvalue
p18
Vhttp://dbpedia.org/ontology/birthDate
p19
ssg8
(dp20
Vdatatype
p21
Vhttp://www.w3.org/2001/XMLSchema#date
p22
sVtype
p23
Vtyped-literal
p24
sVvalue
p25
V1957-08-14
p26
ssa(dp27
g7
(dp28
Vtype
p29
Vuri
p30
sVvalue
p31
Vhttp://dbpedia.org/ontology/birthDate
p32
ssg8
(dp33
Vdatatype
p34
Vhttp://www.w3.org/2001/XMLSchema#date
p35
sVtype
p36
Vtyped-literal
p37
sVvalue
p38
V1957-8-14
p39
ssa(dp40
g7
(dp41
Vtype
p42
Vuri
p43
sVvalue
p44
Vhttp://dbpedia.org/ontology/Person/height
p45
ssg8
(dp46
Vdatatype
p47
Vhttp://dbpedia.org/datatype/centimetre
p48
sVtype
p49
Vtyped-literal
p50
sVvalue
p51
V185.0
p52
ssa(dp53
g7
(dp54
Vtype
p55
Vuri
p56
sVvalue
p57
Vhttp://dbpedia.org/ontology/Person/weight
p58
ssg8
(dp59
Vdatatype
p60
Vhttp://dbpedia.org/datatype/kilogram
p61
sVtype
p62
Vtyped-literal
p63
sVvalue
p64
V85.0
p65
ssa(dp66
g7
(dp67
Vtype
p68
Vuri
p69
sVvalue
p70
Vhttp://dbpedia.org/ontology/abstract
p71
ssg8
(dp72
Vxml:lang
p73
Vnl
p74
sVtype
p75
Vliteral
p76
sVvalue
p77
VFrits Schalij (Weesp, 14 augustus 1957) is een Nederlands oud-langebaanschaatser. Hij was allrounder.
p78
ssa(dp79
g7
(dp80
Vtype
p81
Vuri
p82
sVvalue
p83
Vhttp://dbpedia.org/ontology/abstract
p84
ssg8
(dp85
Vxml:lang
p86
Vpl
p87
sVtype
p88
Vliteral
p89
sVvalue
p90
VFrits Schalij (ur. 14 sierpnia 1957 w Weesp) \u2013 holenderski \u0142y\u017cwiarz szybki, dwukrotny medalista mistrzostw Europy.
p91
ssa(dp92
g7
(dp93
Vtype
p94
Vuri
p95
sVvalue
p96
Vhttp://dbpedia.org/ontology/abstract
p97
ssg8
(dp98
Vxml:lang
p99
Ven
p100
sVtype
p101
Vliteral
p102
sVvalue
p103
VFrits Schalij (born 14 August 1957) is a retired speed skater from the Netherlands who was active between 1978 and 1987. He competed at the 1984 Winter Olympics in the 1500 m and 5000 m and finished in 10th and 17th place, respectively. He won a bronze and a silver medal at the European allround championships in 1984 and 1985, respectively. Nationally, he finished second allround in 1982 and 1984 and third in 1981, 1983, 1985 and 1986. Personal bests: \u000a*    500 m \u2013 0:38.83 (1984) \u000a*  1000 m \u2013 1:16.69 (1985) \u000a*  1500 m \u2013 1:56.42 (1982) \u000a*  5000 m \u2013 7:04.73 (1986) \u000a*  10000 m \u2013 14:36.23 (1986)
p104
ssa(dp105
g7
(dp106
Vtype
p107
Vuri
p108
sVvalue
p109
Vhttp://dbpedia.org/ontology/height
p110
ssg8
(dp111
Vdatatype
p112
Vhttp://www.w3.org/2001/XMLSchema#double
p113
sVtype
p114
Vtyped-literal
p115
sVvalue
p116
V1.85
p117
ssa(dp118
g7
(dp119
Vtype
p120
Vuri
p121
sVvalue
p122
Vhttp://dbpedia.org/ontology/weight
p123
ssg8
(dp124
Vdatatype
p125
Vhttp://www.w3.org/2001/XMLSchema#double
p126
sVtype
p127
Vtyped-literal
p128
sVvalue
p129
V85000.0
p130
ssasVordered
p131
I01
ss.