(dp0
Vhead
p1
(dp2
Vlink
p3
(lp4
sVvars
p5
(lp6
Vp
p7
aVo
p8
assVresults
p9
(dp10
Vdistinct
p11
I00
sVbindings
p12
(lp13
(dp14
g7
(dp15
Vtype
p16
Vuri
p17
sVvalue
p18
Vhttp://dbpedia.org/ontology/abstract
p19
ssg8
(dp20
Vxml:lang
p21
Ven
p22
sVtype
p23
Vliteral
p24
sVvalue
p25
VUpper Harker Lake is a shallow glacial lake located in Kidder County, North Dakota, United States. It is 4.6 km (2.9 mi) south-southeast of the town of Dawson, North Dakota, and 81.2 km (50.5 mi) east of the state capital, Bismarck. The lake is entirely surrounded by the wetlands and marshes of the Slade National Wildlife Refuge, and public access is limited.
p26
ssa(dp27
g7
(dp28
Vtype
p29
Vuri
p30
sVvalue
p31
Vhttp://dbpedia.org/ontology/elevation
p32
ssg8
(dp33
Vdatatype
p34
Vhttp://www.w3.org/2001/XMLSchema#double
p35
sVtype
p36
Vtyped-literal
p37
sVvalue
p38
V529.0
p39
ssasVordered
p40
I01
ss.