(dp0
Vhead
p1
(dp2
Vlink
p3
(lp4
sVvars
p5
(lp6
Vp
p7
aVo
p8
assVresults
p9
(dp10
Vdistinct
p11
I00
sVbindings
p12
(lp13
(dp14
g7
(dp15
Vtype
p16
Vuri
p17
sVvalue
p18
Vhttp://dbpedia.org/ontology/deathDate
p19
ssg8
(dp20
Vdatatype
p21
Vhttp://www.w3.org/2001/XMLSchema#date
p22
sVtype
p23
Vtyped-literal
p24
sVvalue
p25
V2003-09-13
p26
ssa(dp27
g7
(dp28
Vtype
p29
Vuri
p30
sVvalue
p31
Vhttp://dbpedia.org/ontology/deathDate
p32
ssg8
(dp33
Vdatatype
p34
Vhttp://www.w3.org/2001/XMLSchema#date
p35
sVtype
p36
Vtyped-literal
p37
sVvalue
p38
V2003-9-13
p39
ssa(dp40
g7
(dp41
Vtype
p42
Vuri
p43
sVvalue
p44
Vhttp://dbpedia.org/ontology/birthDate
p45
ssg8
(dp46
Vdatatype
p47
Vhttp://www.w3.org/2001/XMLSchema#date
p48
sVtype
p49
Vtyped-literal
p50
sVvalue
p51
V1930-01-30
p52
ssa(dp53
g7
(dp54
Vtype
p55
Vuri
p56
sVvalue
p57
Vhttp://dbpedia.org/ontology/birthDate
p58
ssg8
(dp59
Vdatatype
p60
Vhttp://www.w3.org/2001/XMLSchema#date
p61
sVtype
p62
Vtyped-literal
p63
sVvalue
p64
V1930-1-30
p65
ssa(dp66
g7
(dp67
Vtype
p68
Vuri
p69
sVvalue
p70
Vhttp://dbpedia.org/ontology/abstract
p71
ssg8
(dp72
Vxml:lang
p73
Ven
p74
sVtype
p75
Vliteral
p76
sVvalue
p77
VFrank Lewis O'Bannon (January 30, 1930 \u2013 September 13, 2003) was an American politician who was the 47th Governor of Indiana from 1997 until his death in 2003. O'Bannon was a native of Corydon, Indiana. He attended Corydon Central High School and then Indiana University, where he met his wife Judy. In Corydon he served as a practicing attorney and a newspaper publisher for The Corydon Democrat before his entrance into the political arena. Originally elected to the state senate in 1969, O'Bannon worked his way up in leadership, becoming one of the body's most prominent members. He was briefly a candidate for Governor of Indiana in 1988, however, instead of facing a hotly competitive primary, O'Bannon dropped out of the race and accepted the position of running mate under Evan Bayh. The Bayh/O'Bannon ticket was successful, and O'Bannon served in the role as Lieutenant Governor for 8 years. In this position he served as President of the state senate, and directed the state's agriculture and commerce programs. In 1996 O'Bannon made a bid for Governor. He was initially considered a heavy underdog, but emerged a narrow victor over Indianapolis Mayor Stephen Goldsmith. He was heavily re-elected in 2000 over Congressman David M. McIntosh. As Governor, O'Bannon was known for advocating for education-related issues and helped create the state's AMBER Alert System. He presided over a period of economic prosperity for the state in the 1990s and served as a term as Chairman of Midwestern Governors Association. In 2003 O'Bannon suffered a massive stroke in Chicago, Illinois while attending a trade conference. He died days later and was succeeded by his Lieutenant Governor Joe Kernan. Several memorials were dedicated to his memory and his wife still remains active in community and political issues.
p78
ssa(dp79
g7
(dp80
Vtype
p81
Vuri
p82
sVvalue
p83
Vhttp://dbpedia.org/ontology/abstract
p84
ssg8
(dp85
Vxml:lang
p86
Vde
p87
sVtype
p88
Vliteral
p89
sVvalue
p90
VFrank Lewis O\u2019Bannon (* 30. Januar 1930 in Louisville, Kentucky; \u2020 13. September 2003 in Chicago, Illinois) war ein US-amerikanischer Politiker und zwischen 1997 und 2003 der 47. Gouverneur des Bundesstaates Indiana.
p91
ssa(dp92
g7
(dp93
Vtype
p94
Vuri
p95
sVvalue
p96
Vhttp://dbpedia.org/ontology/activeYearsEndDate
p97
ssg8
(dp98
Vdatatype
p99
Vhttp://www.w3.org/2001/XMLSchema#date
p100
sVtype
p101
Vtyped-literal
p102
sVvalue
p103
V1997-01-13
p104
ssa(dp105
g7
(dp106
Vtype
p107
Vuri
p108
sVvalue
p109
Vhttp://dbpedia.org/ontology/activeYearsEndDate
p110
ssg8
(dp111
Vdatatype
p112
Vhttp://www.w3.org/2001/XMLSchema#date
p113
sVtype
p114
Vtyped-literal
p115
sVvalue
p116
V2003-09-13
p117
ssa(dp118
g7
(dp119
Vtype
p120
Vuri
p121
sVvalue
p122
Vhttp://dbpedia.org/ontology/activeYearsStartDate
p123
ssg8
(dp124
Vdatatype
p125
Vhttp://www.w3.org/2001/XMLSchema#date
p126
sVtype
p127
Vtyped-literal
p128
sVvalue
p129
V1989-01-09
p130
ssa(dp131
g7
(dp132
Vtype
p133
Vuri
p134
sVvalue
p135
Vhttp://dbpedia.org/ontology/activeYearsStartDate
p136
ssg8
(dp137
Vdatatype
p138
Vhttp://www.w3.org/2001/XMLSchema#date
p139
sVtype
p140
Vtyped-literal
p141
sVvalue
p142
V1997-01-13
p143
ssa(dp144
g7
(dp145
Vtype
p146
Vuri
p147
sVvalue
p148
Vhttp://dbpedia.org/ontology/office
p149
ssg8
(dp150
Vtype
p151
Vliteral
p152
sVvalue
p153
VLieutenant Governor of Indiana
p154
ssa(dp155
g7
(dp156
Vtype
p157
Vuri
p158
sVvalue
p159
Vhttp://dbpedia.org/ontology/office
p160
ssg8
(dp161
Vtype
p162
Vliteral
p163
sVvalue
p164
VMember of theIndiana State Senate
p165
ssa(dp166
g7
(dp167
Vtype
p168
Vuri
p169
sVvalue
p170
Vhttp://dbpedia.org/ontology/orderInOffice
p171
ssg8
(dp172
Vtype
p173
Vliteral
p174
sVvalue
p175
V46th
p176
ssa(dp177
g7
(dp178
Vtype
p179
Vuri
p180
sVvalue
p181
Vhttp://dbpedia.org/ontology/orderInOffice
p182
ssg8
(dp183
Vtype
p184
Vliteral
p185
sVvalue
p186
VGovernor of Indiana
p187
ssa(dp188
g7
(dp189
Vtype
p190
Vuri
p191
sVvalue
p192
Vhttp://dbpedia.org/ontology/orderInOffice
p193
ssg8
(dp194
Vtype
p195
Vliteral
p196
sVvalue
p197
V47th
p198
ssa(dp199
g7
(dp200
Vtype
p201
Vuri
p202
sVvalue
p203
Vhttp://dbpedia.org/ontology/serviceEndYear
p204
ssg8
(dp205
Vdatatype
p206
Vhttp://www.w3.org/2001/XMLSchema#gYear
p207
sVtype
p208
Vtyped-literal
p209
sVvalue
p210
V1954
p211
ssa(dp212
g7
(dp213
Vtype
p214
Vuri
p215
sVvalue
p216
Vhttp://dbpedia.org/ontology/serviceStartYear
p217
ssg8
(dp218
Vdatatype
p219
Vhttp://www.w3.org/2001/XMLSchema#gYear
p220
sVtype
p221
Vtyped-literal
p222
sVvalue
p223
V1952
p224
ssasVordered
p225
I01
ss.