(dp0
Vhead
p1
(dp2
Vlink
p3
(lp4
sVvars
p5
(lp6
Vp
p7
aVo
p8
assVresults
p9
(dp10
Vdistinct
p11
I00
sVbindings
p12
(lp13
(dp14
g7
(dp15
Vtype
p16
Vuri
p17
sVvalue
p18
Vhttp://dbpedia.org/ontology/birthDate
p19
ssg8
(dp20
Vdatatype
p21
Vhttp://www.w3.org/2001/XMLSchema#date
p22
sVtype
p23
Vtyped-literal
p24
sVvalue
p25
V1978-09-13
p26
ssa(dp27
g7
(dp28
Vtype
p29
Vuri
p30
sVvalue
p31
Vhttp://dbpedia.org/ontology/birthDate
p32
ssg8
(dp33
Vdatatype
p34
Vhttp://www.w3.org/2001/XMLSchema#date
p35
sVtype
p36
Vtyped-literal
p37
sVvalue
p38
V1978-9-13
p39
ssa(dp40
g7
(dp41
Vtype
p42
Vuri
p43
sVvalue
p44
Vhttp://dbpedia.org/ontology/abstract
p45
ssg8
(dp46
Vxml:lang
p47
Ven
p48
sVtype
p49
Vliteral
p50
sVvalue
p51
VAtthasit Mahitthi (Thai: \u0e2d\u0e23\u0e23\u0e16\u0e2a\u0e34\u0e17\u0e18\u0e34\u0e4c \u0e21\u0e2b\u0e34\u0e17\u0e18\u0e34) (born 13 September 1978) is a former professional Thai snooker player. Mahitthi reached the semi-final at the 2006 IBSF World Amateur Championship in Amman, Jordan, where he was eliminated by Kurt Maflin 8\u20134.He has earned a place on the Main Tour for the 2008/2009 season by winning the 2007 IBSF World Amateur Championship, but dropped off at the end of the 2009/2010 season In 2002 he qualified for the first round of the ranking LG Cup, but lost 1\u20135 in the first round proper to David Gray, in one of the first televised matches to be refereed by Michaela Tabb.
p52
ssa(dp53
g7
(dp54
Vtype
p55
Vuri
p56
sVvalue
p57
Vhttp://dbpedia.org/ontology/abstract
p58
ssg8
(dp59
Vxml:lang
p60
Vru
p61
sVtype
p62
Vliteral
p63
sVvalue
p64
V\u0410\u0442\u0442\u0430\u0441\u0438\u0301\u0442 \u041c\u0430\u0445\u0438\u0301\u0442\u0445\u0438 \u2014 \u043f\u0440\u043e\u0444\u0435\u0441\u0441\u0438\u043e\u043d\u0430\u043b\u044c\u043d\u044b\u0439 \u0442\u0430\u0439\u0441\u043a\u0438\u0439 \u0441\u043d\u0443\u043a\u0435\u0440\u0438\u0441\u0442.
p65
ssa(dp66
g7
(dp67
Vtype
p68
Vuri
p69
sVvalue
p70
Vhttp://dbpedia.org/ontology/activeYearsEndYear
p71
ssg8
(dp72
Vdatatype
p73
Vhttp://www.w3.org/2001/XMLSchema#gYear
p74
sVtype
p75
Vtyped-literal
p76
sVvalue
p77
V2004
p78
ssa(dp79
g7
(dp80
Vtype
p81
Vuri
p82
sVvalue
p83
Vhttp://dbpedia.org/ontology/activeYearsStartYear
p84
ssg8
(dp85
Vdatatype
p86
Vhttp://www.w3.org/2001/XMLSchema#gYear
p87
sVtype
p88
Vtyped-literal
p89
sVvalue
p90
V2001
p91
ssa(dp92
g7
(dp93
Vtype
p94
Vuri
p95
sVvalue
p96
Vhttp://dbpedia.org/ontology/bestFinish
p97
ssg8
(dp98
Vtype
p99
Vliteral
p100
sVvalue
p101
VLast 48 \u2013LG Cup 2002,Bahrain Championship 2008
p102
ssa(dp103
g7
(dp104
Vtype
p105
Vuri
p106
sVvalue
p107
Vhttp://dbpedia.org/ontology/centuryBreaks
p108
ssg8
(dp109
Vdatatype
p110
Vhttp://www.w3.org/2001/XMLSchema#integer
p111
sVtype
p112
Vtyped-literal
p113
sVvalue
p114
V12
p115
ssa(dp116
g7
(dp117
Vtype
p118
Vuri
p119
sVvalue
p120
Vhttp://dbpedia.org/ontology/gross
p121
ssg8
(dp122
Vdatatype
p123
Vhttp://dbpedia.org/datatype/poundSterling
p124
sVtype
p125
Vtyped-literal
p126
sVvalue
p127
V39670.0
p128
ssa(dp129
g7
(dp130
Vtype
p131
Vuri
p132
sVvalue
p133
Vhttp://dbpedia.org/ontology/highestBreak
p134
ssg8
(dp135
Vdatatype
p136
Vhttp://www.w3.org/2001/XMLSchema#integer
p137
sVtype
p138
Vtyped-literal
p139
sVvalue
p140
V140
p141
ssa(dp142
g7
(dp143
Vtype
p144
Vuri
p145
sVvalue
p146
Vhttp://dbpedia.org/ontology/highestRank
p147
ssg8
(dp148
Vdatatype
p149
Vhttp://www.w3.org/2001/XMLSchema#integer
p150
sVtype
p151
Vtyped-literal
p152
sVvalue
p153
V75
p154
ssasVordered
p155
I01
ss.