(dp0
Vhead
p1
(dp2
Vlink
p3
(lp4
sVvars
p5
(lp6
Vp
p7
aVo
p8
assVresults
p9
(dp10
Vdistinct
p11
I00
sVbindings
p12
(lp13
(dp14
g7
(dp15
Vtype
p16
Vuri
p17
sVvalue
p18
Vhttp://dbpedia.org/ontology/Infrastructure/length
p19
ssg8
(dp20
Vdatatype
p21
Vhttp://dbpedia.org/datatype/kilometre
p22
sVtype
p23
Vtyped-literal
p24
sVvalue
p25
V5.61594
p26
ssa(dp27
g7
(dp28
Vtype
p29
Vuri
p30
sVvalue
p31
Vhttp://dbpedia.org/ontology/abstract
p32
ssg8
(dp33
Vxml:lang
p34
Ven
p35
sVtype
p36
Vliteral
p37
sVvalue
p38
VThe Garcon Point Bridge is a 2-lane toll bridge in Santa Rosa County, in the Florida panhandle. The bridge generally runs north - south and connects U.S. Route 98 east of Gulf Breeze, Florida to Interstate 10 and U.S. Route 90 west of Milton, Florida. The road and bridge uses the TOLL 281 shield on signage from US 98 to I-10. North of I-10 the road is signed solely as State Road 281. Exit signs on I-10 display both the State Road 281 and TOLL 281 shields. The bridge crosses East Bay, a large section of Pensacola Bay and serves as an evacuation route during a hurricane watch.
p39
ssa(dp40
g7
(dp41
Vtype
p42
Vuri
p43
sVvalue
p44
Vhttp://dbpedia.org/ontology/bridgeCarries
p45
ssg8
(dp46
Vtype
p47
Vliteral
p48
sVvalue
p49
V2 lanes of
p50
ssa(dp51
g7
(dp52
Vtype
p53
Vuri
p54
sVvalue
p55
Vhttp://dbpedia.org/ontology/length
p56
ssg8
(dp57
Vdatatype
p58
Vhttp://www.w3.org/2001/XMLSchema#double
p59
sVtype
p60
Vtyped-literal
p61
sVvalue
p62
V5615.94
p63
ssa(dp64
g7
(dp65
Vtype
p66
Vuri
p67
sVvalue
p68
Vhttp://dbpedia.org/ontology/numberOfSpans
p69
ssg8
(dp70
Vdatatype
p71
Vhttp://www.w3.org/2001/XMLSchema#nonNegativeInteger
p72
sVtype
p73
Vtyped-literal
p74
sVvalue
p75
V127
p76
ssa(dp77
g7
(dp78
Vtype
p79
Vuri
p80
sVvalue
p81
Vhttp://dbpedia.org/ontology/openingYear
p82
ssg8
(dp83
Vdatatype
p84
Vhttp://www.w3.org/2001/XMLSchema#gYear
p85
sVtype
p86
Vtyped-literal
p87
sVvalue
p88
V1999
p89
ssa(dp90
g7
(dp91
Vtype
p92
Vuri
p93
sVvalue
p94
Vhttp://dbpedia.org/ontology/toll
p95
ssg8
(dp96
Vdatatype
p97
Vhttp://dbpedia.org/datatype/usDollar
p98
sVtype
p99
Vtyped-literal
p100
sVvalue
p101
V3.75
p102
ssa(dp103
g7
(dp104
Vtype
p105
Vuri
p106
sVvalue
p107
Vhttp://dbpedia.org/ontology/unitedStatesNationalBridgeId
p108
ssg8
(dp109
Vtype
p110
Vliteral
p111
sVvalue
p112
V580174
p113
ssa(dp114
g7
(dp115
Vtype
p116
Vuri
p117
sVvalue
p118
Vhttp://dbpedia.org/ontology/vehiclesPerDay
p119
ssg8
(dp120
Vdatatype
p121
Vhttp://www.w3.org/2001/XMLSchema#nonNegativeInteger
p122
sVtype
p123
Vtyped-literal
p124
sVvalue
p125
V3900
p126
ssa(dp127
g7
(dp128
Vtype
p129
Vuri
p130
sVvalue
p131
Vhttp://dbpedia.org/ontology/width
p132
ssg8
(dp133
Vdatatype
p134
Vhttp://www.w3.org/2001/XMLSchema#double
p135
sVtype
p136
Vtyped-literal
p137
sVvalue
p138
V12.192
p139
ssasVordered
p140
I01
ss.