(dp0
Vhead
p1
(dp2
Vlink
p3
(lp4
sVvars
p5
(lp6
Vp
p7
aVo
p8
assVresults
p9
(dp10
Vdistinct
p11
I00
sVbindings
p12
(lp13
(dp14
g7
(dp15
Vtype
p16
Vuri
p17
sVvalue
p18
Vhttp://dbpedia.org/ontology/Weapon/height
p19
ssg8
(dp20
Vdatatype
p21
Vhttp://dbpedia.org/datatype/millimetre
p22
sVtype
p23
Vtyped-literal
p24
sVvalue
p25
V3093.72
p26
ssa(dp27
g7
(dp28
Vtype
p29
Vuri
p30
sVvalue
p31
Vhttp://dbpedia.org/ontology/Weapon/length
p32
ssg8
(dp33
Vdatatype
p34
Vhttp://dbpedia.org/datatype/millimetre
p35
sVtype
p36
Vtyped-literal
p37
sVvalue
p38
V11435.08
p39
ssa(dp40
g7
(dp41
Vtype
p42
Vuri
p43
sVvalue
p44
Vhttp://dbpedia.org/ontology/Weapon/weight
p45
ssg8
(dp46
Vdatatype
p47
Vhttp://dbpedia.org/datatype/kilogram
p48
sVtype
p49
Vtyped-literal
p50
sVvalue
p51
V49896.0
p52
ssa(dp53
g7
(dp54
Vtype
p55
Vuri
p56
sVvalue
p57
Vhttp://dbpedia.org/ontology/Weapon/width
p58
ssg8
(dp59
Vdatatype
p60
Vhttp://dbpedia.org/datatype/millimetre
p61
sVtype
p62
Vtyped-literal
p63
sVvalue
p64
V3632.2
p65
ssa(dp66
g7
(dp67
Vtype
p68
Vuri
p69
sVvalue
p70
Vhttp://dbpedia.org/ontology/abstract
p71
ssg8
(dp72
Vxml:lang
p73
Ven
p74
sVtype
p75
Vliteral
p76
sVvalue
p77
VThe T54 was a series of prototype American tanks of the 1950s with three different turrets, all armed with a 105 mm gun, mounted on the M48 Patton chassis. The original T54 had a conventional turret with an autoloader, while the turret on T54E1 was of an oscillating design with an autoloader and the one on T54E2 was conventional with a human loader. The turret on T54E1 was similar to that of the T69 in its oscillating design and in that it held a crew of three and a nine-round drum autoloader under the gun. The T54E1 was abandoned in 1956 and in 1957 the entire project was cancelled in favor of the T95.
p78
ssa(dp79
g7
(dp80
Vtype
p81
Vuri
p82
sVvalue
p83
Vhttp://dbpedia.org/ontology/abstract
p84
ssg8
(dp85
Vxml:lang
p86
Vzh
p87
sVtype
p88
Vliteral
p89
sVvalue
p90
VT54\u4e2d\u578b\u6230\u8eca\uff08\u82f1\u8a9e\uff1a105mm Gun Tank T54\uff09\u662f\u7f8e\u570b\u65bc1950\u5e74\u4ee3\u6240\u7814\u767c\u7684\u4e00\u7cfb\u5217\u539f\u578b\u4e2d\u6230\u8eca\uff0c\u4e3b\u8981\u542b\u6709\u4e09\u500b\u540c\u6a23\u4f7f\u7528M48\u5df4\u9813\u5766\u514b\u5e95\u76e4\uff0c\u4f46\u5b89\u88dd\u4e0d\u540c\u70ae\u5854\u7684\u7248\u672c\uff1b\u6240\u6709\u7248\u672c\u5747\u88dd\u5099\u4e00\u9580105\u6beb\u7c73\u4e3b\u70ae\u3002\u6700\u521d\u7684T54\u8a2d\u8a08\u4f7f\u7528\u5e38\u898f\u70ae\u5854\u53ca\u4e00\u9580\u81ea\u52d5\u88dd\u586b\u7684105\u6beb\u7c73\u70ae\uff1bT54E1\u5247\u4f7f\u7528\u4e86\u6416\u64fa\u5f0f\u70ae\u5854\uff0c\u540c\u6642\u88dd\u5099\u4e86\u81ea\u52d5\u88dd\u5f48\u6a5f\uff1b\u800cT54E2\u5247\u4f7f\u7528\u4e86\u5e38\u898f\u70ae\u5854\uff0c\u4f46\u53d6\u6d88\u4e86\u81ea\u52d5\u88dd\u5f48\u6a5f\uff0c\u56de\u6b78\u4eba\u529b\u88dd\u586b\u3002T54E1\u7684\u70ae\u5854\u8207T69\u7684\u70ae\u5854\u5341\u5206\u76f8\u4f3c\uff0c\u5169\u8005\u7686\u63a1\u7528\u4e86\u6416\u64fa\u5f0f\u7684\u8a2d\u8a08\uff0c\u4e14\u7d44\u54e1\u5747\u70ba\u4e09\u4eba\u3002T54E1\u7684\u5f48\u5009\u5167\u4e00\u6b21\u53ef\u586b\u5165\u4e5d\u767c\u5f48\u85e5\uff0c\u610f\u5373\u5176\u53ef\u9023\u7e8c\u5c04\u64ca\u4e5d\u767c\u800c\u7121\u9808\u88dd\u586b\u3002T54E1\u7684\u8a2d\u8a08\u65bc1956\u5e74\u88ab\u6452\u68c4\uff0c\u800cT54\u8a08\u756b\u5247\u65bc1957\u5e74\u88ab\u5b8c\u5168\u4e2d\u6b62\uff0c\u4ee5\u958b\u767c\u8f03\u70ba\u5148\u9032\u7684T95\u4e2d\u578b\u6230\u8eca\u3002
p91
ssa(dp92
g7
(dp93
Vtype
p94
Vuri
p95
sVvalue
p96
Vhttp://dbpedia.org/ontology/abstract
p97
ssg8
(dp98
Vxml:lang
p99
Vru
p100
sVtype
p101
Vliteral
p102
sVvalue
p103
VT54 \u2014 \u0441\u0435\u0440\u0438\u044f \u043f\u0440\u043e\u0442\u043e\u0442\u0438\u043f\u043e\u0432 \u0430\u043c\u0435\u0440\u0438\u043a\u0430\u043d\u0441\u043a\u0438\u0445 \u0441\u0440\u0435\u0434\u043d\u0438\u0445 \u0442\u0430\u043d\u043a\u043e\u0432 1950-\u0445 \u0433\u043e\u0434\u043e\u0432. \u041f\u043e\u0441\u043b\u0435 \u043d\u0430\u0447\u0430\u043b\u0430 \u0440\u0430\u0431\u043e\u0442 \u043f\u043e T69, \u0431\u044b\u043b\u0430 \u043d\u0430\u0447\u0430\u0442\u0430 \u0440\u0430\u0437\u0440\u0430\u0431\u043e\u0442\u043a\u0430 \u0435\u0449\u0451 \u043e\u0434\u043d\u043e\u0433\u043e \u0442\u044f\u0436\u0435\u043b\u043e\u0433\u043e \u0442\u0430\u043d\u043a\u0430 \u0441 \u043a\u0430\u0447\u0430\u044e\u0449\u0435\u0439\u0441\u044f \u0431\u0430\u0448\u043d\u0435\u0439 \u0441\u0445\u043e\u0436\u0435\u0439 \u0441\u0445\u0435\u043c\u044b, \u043d\u0430 \u044d\u0442\u043e\u0442 \u0440\u0430\u0437 \u043d\u0430 \u0448\u0430\u0441\u0441\u0438 \u0442\u0430\u043d\u043a\u0430 M48 \u0438 \u0432\u043e\u043e\u0440\u0443\u0436\u0451\u043d\u043d\u043e\u0433\u043e 105-\u043c\u043c \u043f\u0443\u0448\u043a\u043e\u0439, \u043f\u043e\u043b\u0443\u0447\u0438\u0432\u0448\u0435\u0433\u043e \u043e\u0431\u043e\u0437\u043d\u0430\u0447\u0435\u043d\u0438\u0435 T54. \u0412\u0441\u0435\u0433\u043e \u0431\u044b\u043b\u043e \u0437\u0430\u043a\u0430\u0437\u0430\u043d\u043e \u0434\u0432\u0430 \u043f\u0440\u043e\u0442\u043e\u0442\u0438\u043f\u0430 T54E1, \u0438\u0437 \u043a\u043e\u0442\u043e\u0440\u044b\u0445 \u043a\u0430\u043a \u043c\u0438\u043d\u0438\u043c\u0443\u043c \u043e\u0434\u0438\u043d \u0431\u044b\u043b \u0437\u0430\u0432\u0435\u0440\u0448\u0451\u043d \u0438 \u043f\u043e\u0434\u0432\u0435\u0440\u0433\u043d\u0443\u0442 \u0438\u0441\u043f\u044b\u0442\u0430\u043d\u0438\u044f\u043c. \u0421\u0443\u0449\u0435\u0441\u0442\u0432\u043e\u0432\u0430\u043b\u043e \u0442\u0440\u0438 \u0440\u0430\u0437\u043b\u0438\u0447\u043d\u044b\u0445 \u0432\u0430\u0440\u0438\u0430\u043d\u0442\u0430 \u043c\u0430\u0448\u0438\u043d\u044b \u0441 \u0440\u0430\u0437\u043d\u044b\u043c\u0438 \u0431\u0430\u0448\u043d\u044f\u043c\u0438 \u0438 105 \u043c\u043c \u043f\u0443\u0448\u043a\u043e\u0439. \u041e\u0440\u0438\u0433\u0438\u043d\u0430\u043b\u044c\u043d\u044b\u0439 T54 \u0438\u043c\u0435\u043b \u043e\u0431\u044b\u0447\u043d\u0443\u044e \u0431\u0430\u0448\u043d\u044e \u0438 \u043c\u0430\u0433\u0430\u0437\u0438\u043d \u0437\u0430\u0440\u044f\u0436\u0430\u043d\u0438\u044f, \u0432 \u0442\u043e \u0432\u0440\u0435\u043c\u044f \u043a\u0430\u043a T54E1 \u0438\u043c\u0435\u043b \u043a\u0430\u0447\u0430\u044e\u0449\u0443\u044e\u0441\u044f \u0431\u0430\u0448\u043d\u044e \u0438 \u043c\u0430\u0433\u0430\u0437\u0438\u043d \u0437\u0430\u0440\u044f\u0436\u0430\u043d\u0438\u044f, \u0430 \u0431\u0430\u0448\u043d\u044f T54E2 \u0431\u044b\u043b\u0430 \u043e\u0431\u044b\u0447\u043d\u043e\u0439 \u0441 \u0440\u0443\u0447\u043d\u044b\u043c \u0437\u0430\u0440\u044f\u0436\u0430\u043d\u0438\u0435\u043c. \u0411\u0430\u0448\u043d\u044f T54E1 \u0431\u044b\u043b\u0430 \u043f\u043e\u0445\u043e\u0436\u0430 \u043d\u0430 \u0431\u0430\u0448\u043d\u044e \u0442\u0430\u043d\u043a\u0430 T69, \u043e\u043d\u0430 \u0431\u044b\u043b\u0430 \u0442\u0440\u0451\u0445\u043c\u0435\u0441\u0442\u043d\u043e\u0439 \u0438 \u0438\u043c\u0435\u043b\u0430 9-\u0441\u043d\u0430\u0440\u044f\u0434\u043d\u044b\u0439 \u0431\u0430\u0440\u0430\u0431\u0430\u043d \u0437\u0430\u0440\u044f\u0436\u0430\u043d\u0438\u044f \u043f\u043e\u0434 \u043e\u0440\u0443\u0434\u0438\u0435\u043c. \u0412 1956 \u0433\u043e\u0434\u0443 \u043f\u0440\u043e\u0435\u043a\u0442 \u0431\u044b\u043b \u043f\u0440\u0438\u043e\u0441\u0442\u0430\u043d\u043e\u0432\u043b\u0435\u043d, \u0430 \u0432 1957 \u0433\u043e\u0434\u0443 \u0437\u0430\u043a\u0440\u044b\u0442 \u0432 \u043f\u043e\u043b\u044c\u0437\u0443 \u0442\u044f\u0436\u0435\u043b\u043e\u0433\u043e \u0442\u0430\u043d\u043a\u0430 T95. \u0420\u0430\u0437\u0440\u0430\u0431\u043e\u0442\u043a\u0430 \u0435\u0449\u0451 \u043e\u0434\u043d\u043e\u0433\u043e \u043f\u0440\u043e\u0435\u043a\u0442\u0430 \u0442\u0430\u043d\u043a\u0430 \u0441 \u043a\u0430\u0447\u0430\u044e\u0449\u0435\u0439\u0441\u044f \u0431\u0430\u0448\u043d\u0435\u0439, \u0441\u0445\u043e\u0436\u0435\u0433\u043e \u0441 T54E1, \u043d\u043e \u0432\u043e\u043e\u0440\u0443\u0436\u0451\u043d\u043d\u043e\u0433\u043e 120-\u043c\u043c \u043f\u0443\u0448\u043a\u043e\u0439, \u0431\u044b\u043b\u0430 \u043d\u0430\u0447\u0430\u0442\u0430 \u0432 1952\u20141953 \u0433\u043e\u0434\u0430\u0445 \u043f\u043e\u0434 \u043e\u0431\u043e\u0437\u043d\u0430\u0447\u0435\u043d\u0438\u0435\u043c T77. \u041a\u0430\u043a \u0438 \u0441 T54E1, \u0431\u044b\u043b\u0438 \u0437\u0430\u043a\u0430\u0437\u0430\u043d\u044b \u0434\u0432\u0430 \u043f\u0440\u043e\u0442\u043e\u0442\u0438\u043f\u0430 T77, \u043e\u0434\u043d\u0430\u043a\u043e \u0440\u0430\u0431\u043e\u0442\u044b \u043f\u043e \u044d\u0442\u043e\u043c\u0443 \u043f\u0440\u043e\u0435\u043a\u0442\u0443 \u0431\u044b\u043b\u0438 \u043f\u0440\u0435\u043a\u0440\u0430\u0449\u0435\u043d\u044b \u043a 1957 \u0433\u043e\u0434\u0443, \u0435\u0449\u0451 \u0434\u043e \u043d\u0430\u0447\u0430\u043b\u0430 \u0438\u0441\u043f\u044b\u0442\u0430\u043d\u0438\u0439 \u043e\u043f\u044b\u0442\u043d\u044b\u0445 \u043e\u0431\u0440\u0430\u0437\u0446\u043e\u0432.\u0422\u0430\u043a\u0436\u0435 \u0431\u044b\u043b \u0441\u043e\u0437\u0434\u0430\u043d \u043f\u0440\u043e\u0435\u043a\u0442 \u0442\u0430\u043d\u043a\u0430 T57 Heavy, \u043a\u043e\u0442\u043e\u0440\u044b\u0439 \u0431\u044b\u043b \u0432\u043e\u043e\u0440\u0443\u0436\u0435\u043d 120 \u043c\u043c \u043f\u0443\u0448\u043a\u043e\u0439, \u0441 \u0430\u0432\u0442\u043e\u043c\u0430\u0442\u043e\u043c \u0437\u0430\u0440\u044f\u0436\u0430\u043d\u0438\u044f, \u0438 \u0432\u043d\u0435\u0448\u043d\u0435 \u0431\u044b\u043b \u043e\u0447\u0435\u043d\u044c \u043f\u043e\u0445\u043e\u0436 \u043d\u0430 T54E1. \u041e\u043d \u0438\u043c\u0435\u043b \u043a\u0430\u0447\u0430\u044e\u0449\u0443\u044e\u0441\u044f \u0431\u0430\u0448\u043d\u044e, \u0432 \u043a\u043e\u0442\u043e\u0440\u043e\u0439 \u0440\u0430\u0437\u043c\u0435\u0449\u0430\u043b\u0438\u0441\u044c 3 \u0447\u043b\u0435\u043d\u0430 \u044d\u043a\u0438\u043f\u0430\u0436\u0430.
p104
ssa(dp105
g7
(dp106
Vtype
p107
Vuri
p108
sVvalue
p109
Vhttp://dbpedia.org/ontology/height
p110
ssg8
(dp111
Vdatatype
p112
Vhttp://www.w3.org/2001/XMLSchema#double
p113
sVtype
p114
Vtyped-literal
p115
sVvalue
p116
V3.09372
p117
ssa(dp118
g7
(dp119
Vtype
p120
Vuri
p121
sVvalue
p122
Vhttp://dbpedia.org/ontology/length
p123
ssg8
(dp124
Vdatatype
p125
Vhttp://www.w3.org/2001/XMLSchema#double
p126
sVtype
p127
Vtyped-literal
p128
sVvalue
p129
V11.4351
p130
ssa(dp131
g7
(dp132
Vtype
p133
Vuri
p134
sVvalue
p135
Vhttp://dbpedia.org/ontology/weight
p136
ssg8
(dp137
Vdatatype
p138
Vhttp://www.w3.org/2001/XMLSchema#double
p139
sVtype
p140
Vtyped-literal
p141
sVvalue
p142
V4.9896e+07
p143
ssa(dp144
g7
(dp145
Vtype
p146
Vuri
p147
sVvalue
p148
Vhttp://dbpedia.org/ontology/width
p149
ssg8
(dp150
Vdatatype
p151
Vhttp://www.w3.org/2001/XMLSchema#double
p152
sVtype
p153
Vtyped-literal
p154
sVvalue
p155
V3.6322
p156
ssasVordered
p157
I01
ss.