(dp0
Vhead
p1
(dp2
Vlink
p3
(lp4
sVvars
p5
(lp6
Vp
p7
aVo
p8
assVresults
p9
(dp10
Vdistinct
p11
I00
sVbindings
p12
(lp13
(dp14
g7
(dp15
Vtype
p16
Vuri
p17
sVvalue
p18
Vhttp://dbpedia.org/ontology/abstract
p19
ssg8
(dp20
Vxml:lang
p21
Ven
p22
sVtype
p23
Vliteral
p24
sVvalue
p25
VMount Olympus Ski Area, dubbed "playground of the gods", is a club skifield in Craigieburn Range, on New Zealand's South Island. Near the town of Windwhistle, and in the vicinity of other club fields such as Mount Cheeseman and Broken River, it is approximately 2 hours' drive from Christchurch. The skifield is run by the Windwhistle Ski Club. Ranging in elevation from 1430m to 1880m, the terrain distribution is 10% beginner, 55% intermediate and 35% advanced. There are four rope tows, and with a bit of walking, 60 hectares of terrain is available.
p26
ssa(dp27
g7
(dp28
Vtype
p29
Vuri
p30
sVvalue
p31
Vhttp://dbpedia.org/ontology/maximumElevation
p32
ssg8
(dp33
Vdatatype
p34
Vhttp://www.w3.org/2001/XMLSchema#double
p35
sVtype
p36
Vtyped-literal
p37
sVvalue
p38
V1875.0
p39
ssa(dp40
g7
(dp41
Vtype
p42
Vuri
p43
sVvalue
p44
Vhttp://dbpedia.org/ontology/minimumElevation
p45
ssg8
(dp46
Vdatatype
p47
Vhttp://www.w3.org/2001/XMLSchema#double
p48
sVtype
p49
Vtyped-literal
p50
sVvalue
p51
V1425.0
p52
ssasVordered
p53
I01
ss.