(dp0
Vhead
p1
(dp2
Vlink
p3
(lp4
sVvars
p5
(lp6
Vp
p7
aVo
p8
assVresults
p9
(dp10
Vdistinct
p11
I00
sVbindings
p12
(lp13
(dp14
g7
(dp15
Vtype
p16
Vuri
p17
sVvalue
p18
Vhttp://dbpedia.org/ontology/abstract
p19
ssg8
(dp20
Vxml:lang
p21
Ven
p22
sVtype
p23
Vliteral
p24
sVvalue
p25
VCiaran McManus is a Gaelic footballer from County Offaly, Ireland. He has played with the Offaly inter-county team from 1996 to 2011 and won a Leinster Senior Football Championship medal in 1997 and a National Football League Div 1 in 1998 and Div 2 in 2004, Div 4 1997. Before braking into the senior team he helped Offaly to win the Leinster Under-21 Football Championship in 1995. He played with Ireland in the International Rules Series in 2001, 2002, 2003, 2004, 2005, 2006 & 2007. He plays his club football with Tubber, he also played with UCD and won a Dublin Senior Football Championship in 2002, Sigerson Cup 1995.
p26
ssa(dp27
g7
(dp28
Vtype
p29
Vuri
p30
sVvalue
p31
Vhttp://dbpedia.org/ontology/activeYearsEndYear
p32
ssg8
(dp33
Vdatatype
p34
Vhttp://www.w3.org/2001/XMLSchema#gYear
p35
sVtype
p36
Vtyped-literal
p37
sVvalue
p38
V1990
p39
ssa(dp40
g7
(dp41
Vtype
p42
Vuri
p43
sVvalue
p44
Vhttp://dbpedia.org/ontology/activeYearsStartYear
p45
ssg8
(dp46
Vdatatype
p47
Vhttp://www.w3.org/2001/XMLSchema#gYear
p48
sVtype
p49
Vtyped-literal
p50
sVvalue
p51
V1990
p52
ssasVordered
p53
I01
ss.