(dp0
Vhead
p1
(dp2
Vlink
p3
(lp4
sVvars
p5
(lp6
Vp
p7
aVo
p8
assVresults
p9
(dp10
Vdistinct
p11
I00
sVbindings
p12
(lp13
(dp14
g7
(dp15
Vtype
p16
Vuri
p17
sVvalue
p18
Vhttp://dbpedia.org/ontology/abstract
p19
ssg8
(dp20
Vxml:lang
p21
Ven
p22
sVtype
p23
Vliteral
p24
sVvalue
p25
VThe Upper Adams School District is a small, rural public school district serving parts of Adams County, Pennsylvania. The boroughs of Bendersville, Biglerville, Arendtsville. It also serves the residents of: Tyrone Township, Butler Township, and Menallen Township. Upper Adams School District encompasses approximately 90 square miles (230 km2). By 2010, the district's population rose to 10,836 people. According to 2000 federal census data, it served a resident population of 9,693. In 2009, the District residents' per capita income was $17,278, while the median family income was $44,835. and the United States median family income was $49,445, in 2010. By 2013, the median household income in the United States rose to $52,100. According to District officials, in school year 2007\u201308, Upper Adams School District provided basic educational services to 1,776 pupils. It employed 136 teachers, 95 full-time and part-time support personnel, and 11 administrators. Upper Adams School District received more than $8.7 million in state funding in school year 2007\u201308. Per District officials, Upper Adams School District provided basic educational services to 1,706 pupils through the employment of 141 teachers, 100 full-time and part-time support personnel, and 12 administrators during the 2009\u201310 school year. Upper Adams School District received $9.6 million in state funding in the 2009\u201310 school year. Upper Adams School District operates: Biglerville Elementary School (K\u20133), Bendersville Elementary School (4\u20136) and Arendtsville Elementary School (4\u20136), Upper Adams Middle School (7\u20138), and Biglerville High School (9\u201312). High school students may choose to attend Cumberland Perry Vocational Technical School for vocational training. The Lincoln Intermediate Unit IU12 provides the district with a wide variety of services like specialized education for disabled students and hearing, speech and visual disability services and professional development for staff and faculty.
p26
ssa(dp27
g7
(dp28
Vtype
p29
Vuri
p30
sVvalue
p31
Vhttp://dbpedia.org/ontology/address
p32
ssg8
(dp33
Vxml:lang
p34
Ven
p35
sVtype
p36
Vliteral
p37
sVvalue
p38
V161 North Main Street
p39
ssa(dp40
g7
(dp41
Vtype
p42
Vuri
p43
sVvalue
p44
Vhttp://dbpedia.org/ontology/budget
p45
ssg8
(dp46
Vdatatype
p47
Vhttp://dbpedia.org/datatype/usDollar
p48
sVtype
p49
Vtyped-literal
p50
sVvalue
p51
V2.3265925E7
p52
ssa(dp53
g7
(dp54
Vtype
p55
Vuri
p56
sVvalue
p57
Vhttp://dbpedia.org/ontology/budget
p58
ssg8
(dp59
Vdatatype
p60
Vhttp://dbpedia.org/datatype/usDollar
p61
sVtype
p62
Vtyped-literal
p63
sVvalue
p64
V2.3583E7
p65
ssa(dp66
g7
(dp67
Vtype
p68
Vuri
p69
sVvalue
p70
Vhttp://dbpedia.org/ontology/budget
p71
ssg8
(dp72
Vdatatype
p73
Vhttp://dbpedia.org/datatype/usDollar
p74
sVtype
p75
Vtyped-literal
p76
sVvalue
p77
V2.4579E7
p78
ssa(dp79
g7
(dp80
Vtype
p81
Vuri
p82
sVvalue
p83
Vhttp://dbpedia.org/ontology/facultySize
p84
ssg8
(dp85
Vdatatype
p86
Vhttp://www.w3.org/2001/XMLSchema#nonNegativeInteger
p87
sVtype
p88
Vtyped-literal
p89
sVvalue
p90
V118
p91
ssa(dp92
g7
(dp93
Vtype
p94
Vuri
p95
sVvalue
p96
Vhttp://dbpedia.org/ontology/lowerAge
p97
ssg8
(dp98
Vdatatype
p99
Vhttp://www.w3.org/2001/XMLSchema#nonNegativeInteger
p100
sVtype
p101
Vtyped-literal
p102
sVvalue
p103
V5
p104
ssa(dp105
g7
(dp106
Vtype
p107
Vuri
p108
sVvalue
p109
Vhttp://dbpedia.org/ontology/numberOfStudents
p110
ssg8
(dp111
Vdatatype
p112
Vhttp://www.w3.org/2001/XMLSchema#nonNegativeInteger
p113
sVtype
p114
Vtyped-literal
p115
sVvalue
p116
V1669
p117
ssa(dp118
g7
(dp119
Vtype
p120
Vuri
p121
sVvalue
p122
Vhttp://dbpedia.org/ontology/postalCode
p123
ssg8
(dp124
Vtype
p125
Vliteral
p126
sVvalue
p127
V17307-9228
p128
ssa(dp129
g7
(dp130
Vtype
p131
Vuri
p132
sVvalue
p133
Vhttp://dbpedia.org/ontology/staff
p134
ssg8
(dp135
Vdatatype
p136
Vhttp://www.w3.org/2001/XMLSchema#nonNegativeInteger
p137
sVtype
p138
Vtyped-literal
p139
sVvalue
p140
V132
p141
ssa(dp142
g7
(dp143
Vtype
p144
Vuri
p145
sVvalue
p146
Vhttp://dbpedia.org/ontology/upperAge
p147
ssg8
(dp148
Vdatatype
p149
Vhttp://www.w3.org/2001/XMLSchema#nonNegativeInteger
p150
sVtype
p151
Vtyped-literal
p152
sVvalue
p153
V21
p154
ssasVordered
p155
I01
ss.