(dp0
Vhead
p1
(dp2
Vlink
p3
(lp4
sVvars
p5
(lp6
Vp
p7
aVo
p8
assVresults
p9
(dp10
Vdistinct
p11
I00
sVbindings
p12
(lp13
(dp14
g7
(dp15
Vtype
p16
Vuri
p17
sVvalue
p18
Vhttp://dbpedia.org/ontology/abstract
p19
ssg8
(dp20
Vxml:lang
p21
Var
p22
sVtype
p23
Vliteral
p24
sVvalue
p25
V\u063a\u0644\u0648\u0633\u0627 (\u0393\u03bb\u03ce\u03c3\u03c3\u03b1) \u0647\u064a \u0645\u062f\u064a\u0646\u0629 \u0641\u064a \u0645\u0627\u063a\u0646\u064a\u0633\u064a\u0627 \u0641\u064a \u0645\u0642\u0627\u0637\u0639\u0629 \u0641\u0648\u0631\u064a\u0627 \u0625\u0644\u0627\u062f\u0627 \u0641\u064a \u0627\u0644\u064a\u0648\u0646\u0627\u0646. \u064a\u0628\u0644\u063a \u0639\u062f\u062f \u0633\u0643\u0627\u0646\u0647\u0627 \u062d\u0648\u0627\u0644\u064a 928 \u0646\u0633\u0645\u0629.
p26
ssa(dp27
g7
(dp28
Vtype
p29
Vuri
p30
sVvalue
p31
Vhttp://dbpedia.org/ontology/abstract
p32
ssg8
(dp33
Vxml:lang
p34
Ven
p35
sVtype
p36
Vliteral
p37
sVvalue
p38
VGlossa (Greek: \u0393\u03bb\u03ce\u03c3\u03c3\u03b1 meaning "tongue") is a village and a community in the northwestern part of the island of Skopelos in the Northern Sporades. The population in 2011 was 993 for the village and 1,168 for the community, which includes the villages Atheato (pop. 12) and Loutraki (pop. 163). The town's elevation is about 200 meters. Glossa is located 11 km northwest of Skopelos (town). In 1960, Glossa opened a public primary school, a telephone centre and had 1,842 inhabitants. Before the reorganization of the island government in 1997, Glossa and Klima constituted a separate municipality from Skopelos. Currently Glossa has nursery, primary, secondary and high school. There are also several churches. In the neighborhood of Glossa is the chapel of Agios Ioannis, featured in the 2008 film Mamma Mia!.
p39
ssa(dp40
g7
(dp41
Vtype
p42
Vuri
p43
sVvalue
p44
Vhttp://dbpedia.org/ontology/areaCode
p45
ssg8
(dp46
Vtype
p47
Vliteral
p48
sVvalue
p49
V24240
p50
ssa(dp51
g7
(dp52
Vtype
p53
Vuri
p54
sVvalue
p55
Vhttp://dbpedia.org/ontology/maximumElevation
p56
ssg8
(dp57
Vdatatype
p58
Vhttp://www.w3.org/2001/XMLSchema#double
p59
sVtype
p60
Vtyped-literal
p61
sVvalue
p62
V300.0
p63
ssa(dp64
g7
(dp65
Vtype
p66
Vuri
p67
sVvalue
p68
Vhttp://dbpedia.org/ontology/minimumElevation
p69
ssg8
(dp70
Vdatatype
p71
Vhttp://www.w3.org/2001/XMLSchema#double
p72
sVtype
p73
Vtyped-literal
p74
sVvalue
p75
V200.0
p76
ssa(dp77
g7
(dp78
Vtype
p79
Vuri
p80
sVvalue
p81
Vhttp://dbpedia.org/ontology/postalCode
p82
ssg8
(dp83
Vtype
p84
Vliteral
p85
sVvalue
p86
V370 04
p87
ssasVordered
p88
I01
ss.