(dp0
Vhead
p1
(dp2
Vlink
p3
(lp4
sVvars
p5
(lp6
Vp
p7
aVo
p8
assVresults
p9
(dp10
Vdistinct
p11
I00
sVbindings
p12
(lp13
(dp14
g7
(dp15
Vtype
p16
Vuri
p17
sVvalue
p18
Vhttp://dbpedia.org/ontology/birthDate
p19
ssg8
(dp20
Vdatatype
p21
Vhttp://www.w3.org/2001/XMLSchema#date
p22
sVtype
p23
Vtyped-literal
p24
sVvalue
p25
V1983-0-0
p26
ssa(dp27
g7
(dp28
Vtype
p29
Vuri
p30
sVvalue
p31
Vhttp://dbpedia.org/ontology/abstract
p32
ssg8
(dp33
Vxml:lang
p34
Ven
p35
sVtype
p36
Vliteral
p37
sVvalue
p38
VVito de Luca, better known as Aeroplane, is a Belgian nu disco music producer and DJ. Known for incorporating a mix of French house and balearic beat, Aeroplane made a name for himself as a club DJ. Aeroplane's music is disco-styled, often on the 1980s decade. Aeroplane's remixes are described by themselves as "spacious cosmic disco" tracks. Formerly Aeroplane was a duo, consisting of Vito de Luca and Stephen Fasano (currently known as The Magician), who left in 2010.
p39
ssa(dp40
g7
(dp41
Vtype
p42
Vuri
p43
sVvalue
p44
Vhttp://dbpedia.org/ontology/activeYearsStartYear
p45
ssg8
(dp46
Vdatatype
p47
Vhttp://www.w3.org/2001/XMLSchema#gYear
p48
sVtype
p49
Vtyped-literal
p50
sVvalue
p51
V2007
p52
ssa(dp53
g7
(dp54
Vtype
p55
Vuri
p56
sVvalue
p57
Vhttp://dbpedia.org/ontology/background
p58
ssg8
(dp59
Vtype
p60
Vliteral
p61
sVvalue
p62
Vnon_vocal_instrumentalist
p63
ssasVordered
p64
I01
ss.