(dp0
Vhead
p1
(dp2
Vlink
p3
(lp4
sVvars
p5
(lp6
Vp
p7
aVo
p8
assVresults
p9
(dp10
Vdistinct
p11
I00
sVbindings
p12
(lp13
(dp14
g7
(dp15
Vtype
p16
Vuri
p17
sVvalue
p18
Vhttp://dbpedia.org/ontology/MeanOfTransportation/weight
p19
ssg8
(dp20
Vdatatype
p21
Vhttp://dbpedia.org/datatype/kilogram
p22
sVtype
p23
Vtyped-literal
p24
sVvalue
p25
V217000.0
p26
ssa(dp27
g7
(dp28
Vtype
p29
Vuri
p30
sVvalue
p31
Vhttp://dbpedia.org/ontology/abstract
p32
ssg8
(dp33
Vxml:lang
p34
Ven
p35
sVtype
p36
Vliteral
p37
sVvalue
p38
VThe Kawasaki Heavy Industries C151 is a type of train that is one of the four current types of electric multiple unit on the North South and East West Lines of Singapore's Mass Rapid Transit (MRT) system. These are the oldest trains built for the system; they were introduced in 1987 and are still in operation. Sixty-six trainsets consisting of six cars each and a single money trainset consisting of four cars were purchased. These trains are operated by SMRT Trains. These trains were manufactured from 1986 to 1989 in batches by a Japanese consortium consisting of Kawasaki Heavy Industries, Nippon Sharyo, Tokyu Car Corp and Kinki Sharyo following a round of intense competitive bidding by rolling stock manufacturers from around the world. No visible differences can be found in any of these batches, which were built to agreed specifications. The trains underwent a two-year mid-life interior refurbishment programme by Hyundai Rotem. After major train disruptions on 15 and 17 December 2011, further plans to upgrade its mechanical components to increase its reliability were made. The first trainset to receive this upgrade, which included a replacement traction system, entered service in July 2015.
p39
ssa(dp40
g7
(dp41
Vtype
p42
Vuri
p43
sVvalue
p44
Vhttp://dbpedia.org/ontology/abstract
p45
ssg8
(dp46
Vxml:lang
p47
Vja
p48
sVtype
p49
Vliteral
p50
sVvalue
p51
V\u30b7\u30f3\u30ac\u30dd\u30fc\u30eb\u5730\u4e0b\u9244C151\u5f62\u96fb\u8eca\uff08\u30b7\u30f3\u30ac\u30dd\u30fc\u30eb\u3061\u304b\u3066\u3064C151\u304c\u305f\u3067\u3093\u3057\u3083\uff09\u306f\u30b7\u30f3\u30ac\u30dd\u30fc\u30eb\u5730\u4e0b\u9244\uff08MRT\uff09\u306e\u901a\u52e4\u5f62\u96fb\u8eca\u3067\u3042\u308b\u30021987\u5e74\u306e\u958b\u696d\u4ee5\u6765\u306e\u8eca\u4e21\u3067\u3001\u4eca\u3082\u306a\u304a\u904b\u7528\u4e2d\u3067\u3042\u308b\u3002
p52
ssa(dp53
g7
(dp54
Vtype
p55
Vuri
p56
sVvalue
p57
Vhttp://dbpedia.org/ontology/abstract
p58
ssg8
(dp59
Vxml:lang
p60
Vzh
p61
sVtype
p62
Vliteral
p63
sVvalue
p64
V\u65b0\u52a0\u5761\u5730\u9435 C151 \u96fb\u529b\u52d5\u8eca\u7d44\u662f\u65b0\u52a0\u5761\u5730\u9435\u76ee\u524d\u6b63\u5728\u4f7f\u7528\u7684\u56db\u7a2e\u8eca\u8f1b\u7cfb\u7d71\u4e4b\u4e00\uff0c\u5171\u670966\u7d44\u5217\u8eca\uff0c\u6bcf\u7d44\u5217\u8eca\u75316\u500b\u8eca\u5ec2\u7d44\u6210\uff0c\u70baSMRT\u5730\u9435\u6709\u9650\u516c\u53f8\u6240\u64c1\u6709\uff0c\u65bc1987\u5e74\u958b\u59cb\u4f7f\u7528\uff0c\u5728\u5357\u5317\u7dda\u548c\u6771\u897f\u7dda\u4e0a\u904b\u884c\u3002 \u8eca\u8f1b\u57281986\u5e74\u81f31989\u5e74\u4e4b\u9593\u5171\u5206\u4e09\u6279\u751f\u7522\uff0c\u9019\u4e09\u6279\u4e4b\u9593\u4e26\u6c92\u6709\u4efb\u4f55\u898f\u683c\u7684\u5dee\u7570\uff1b\u8eca\u8f1b\u5168\u90e8\u7531\u5ddd\u5d0e\u91cd\u5de5\u696d\u70ba\u9996\u7684\u5718\u968a\u88fd\u9020\uff0c\u5718\u968a\u6210\u54e1\u9084\u5305\u62ec36\u90e8\u65e5\u672c\u8eca\u8f1b\u88fd\u9020\u3001\u6771\u6025\u8eca\u8f1b\u53ca\u8fd1\u757f\u8eca\u8f1b\u3002\u76ee\u524d\u8eca\u8f1b\u5df2\u65bc2008\u5e74\u672b\u5b8c\u6210\u7ffb\u65b0\u7dad\u4fee\u5de5\u7a0b\u3002
p65
ssa(dp66
g7
(dp67
Vtype
p68
Vuri
p69
sVvalue
p70
Vhttp://dbpedia.org/ontology/capacity
p71
ssg8
(dp72
Vdatatype
p73
Vhttp://www.w3.org/2001/XMLSchema#nonNegativeInteger
p74
sVtype
p75
Vtyped-literal
p76
sVvalue
p77
V208
p78
ssa(dp79
g7
(dp80
Vtype
p81
Vuri
p82
sVvalue
p83
Vhttp://dbpedia.org/ontology/capacity
p84
ssg8
(dp85
Vdatatype
p86
Vhttp://www.w3.org/2001/XMLSchema#nonNegativeInteger
p87
sVtype
p88
Vtyped-literal
p89
sVvalue
p90
V372
p91
ssa(dp92
g7
(dp93
Vtype
p94
Vuri
p95
sVvalue
p96
Vhttp://dbpedia.org/ontology/capacity
p97
ssg8
(dp98
Vdatatype
p99
Vhttp://www.w3.org/2001/XMLSchema#nonNegativeInteger
p100
sVtype
p101
Vtyped-literal
p102
sVvalue
p103
V1920
p104
ssa(dp105
g7
(dp106
Vtype
p107
Vuri
p108
sVvalue
p109
Vhttp://dbpedia.org/ontology/numberBuilt
p110
ssg8
(dp111
Vdatatype
p112
Vhttp://www.w3.org/2001/XMLSchema#nonNegativeInteger
p113
sVtype
p114
Vtyped-literal
p115
sVvalue
p116
V4
p117
ssa(dp118
g7
(dp119
Vtype
p120
Vuri
p121
sVvalue
p122
Vhttp://dbpedia.org/ontology/numberBuilt
p123
ssg8
(dp124
Vdatatype
p125
Vhttp://www.w3.org/2001/XMLSchema#nonNegativeInteger
p126
sVtype
p127
Vtyped-literal
p128
sVvalue
p129
V396
p130
ssa(dp131
g7
(dp132
Vtype
p133
Vuri
p134
sVvalue
p135
Vhttp://dbpedia.org/ontology/weight
p136
ssg8
(dp137
Vdatatype
p138
Vhttp://www.w3.org/2001/XMLSchema#double
p139
sVtype
p140
Vtyped-literal
p141
sVvalue
p142
V2.17e+08
p143
ssa(dp144
g7
(dp145
Vtype
p146
Vuri
p147
sVvalue
p148
Vhttp://dbpedia.org/ontology/yearOfConstruction
p149
ssg8
(dp150
Vdatatype
p151
Vhttp://www.w3.org/2001/XMLSchema#gYear
p152
sVtype
p153
Vtyped-literal
p154
sVvalue
p155
V1986
p156
ssa(dp157
g7
(dp158
Vtype
p159
Vuri
p160
sVvalue
p161
Vhttp://dbpedia.org/ontology/yearOfConstruction
p162
ssg8
(dp163
Vdatatype
p164
Vhttp://www.w3.org/2001/XMLSchema#gYear
p165
sVtype
p166
Vtyped-literal
p167
sVvalue
p168
V1989
p169
ssasVordered
p170
I01
ss.