(dp0
Vhead
p1
(dp2
Vlink
p3
(lp4
sVvars
p5
(lp6
Vp
p7
aVo
p8
assVresults
p9
(dp10
Vdistinct
p11
I00
sVbindings
p12
(lp13
(dp14
g7
(dp15
Vtype
p16
Vuri
p17
sVvalue
p18
Vhttp://dbpedia.org/ontology/abstract
p19
ssg8
(dp20
Vxml:lang
p21
Ven
p22
sVtype
p23
Vliteral
p24
sVvalue
p25
VFravashi Academy is a pre-primary, primary and secondary school run by the R. S. Luth Education Trust in Nashik, Maharashtra, India. It also has a junior college. Mr. Ratanshaw Sorabji Luth, after whom the trust is named was also the founder father of Fravashi Academy. He formed the educational trust in 1978. Fravashi Academy was started in 1982. The chairman of the trust is Mr. Ratan Luth. Mrs. C. C. de Rozario acts as the managing director and Mrs. Sudha Murali and Mrs. Nina Deshmukh are the principals of the ICSE and SSC sections respectively. Mrs. Rashida Vasi heads the primary section. Fravashi Academy is the first school in North Maharashtra to get ISO 9001 \u2013 2008 certification of quality management. The school prepares the students to appear for the grade X SSC and ICSE examinations conducted by the Maharashtra State Board of Secondary and Higher Secondary Education and the Indian Certificate of Secondary Education respectively.
p26
ssa(dp27
g7
(dp28
Vtype
p29
Vuri
p30
sVvalue
p31
Vhttp://dbpedia.org/ontology/address
p32
ssg8
(dp33
Vxml:lang
p34
Ven
p35
sVtype
p36
Vliteral
p37
sVvalue
p38
VOpposite MPA, Trimbak Road
p39
ssa(dp40
g7
(dp41
Vtype
p42
Vuri
p43
sVvalue
p44
Vhttp://dbpedia.org/ontology/foundingYear
p45
ssg8
(dp46
Vdatatype
p47
Vhttp://www.w3.org/2001/XMLSchema#gYear
p48
sVtype
p49
Vtyped-literal
p50
sVvalue
p51
V1982
p52
ssa(dp53
g7
(dp54
Vtype
p55
Vuri
p56
sVvalue
p57
Vhttp://dbpedia.org/ontology/motto
p58
ssg8
(dp59
Vtype
p60
Vliteral
p61
sVvalue
p62
VLearn with Humility
p63
ssa(dp64
g7
(dp65
Vtype
p66
Vuri
p67
sVvalue
p68
Vhttp://dbpedia.org/ontology/numberOfStudents
p69
ssg8
(dp70
Vdatatype
p71
Vhttp://www.w3.org/2001/XMLSchema#nonNegativeInteger
p72
sVtype
p73
Vtyped-literal
p74
sVvalue
p75
V1100
p76
ssa(dp77
g7
(dp78
Vtype
p79
Vuri
p80
sVvalue
p81
Vhttp://dbpedia.org/ontology/postalCode
p82
ssg8
(dp83
Vtype
p84
Vliteral
p85
sVvalue
p86
V422002
p87
ssa(dp88
g7
(dp89
Vtype
p90
Vuri
p91
sVvalue
p92
Vhttp://dbpedia.org/ontology/status
p93
ssg8
(dp94
Vtype
p95
Vliteral
p96
sVvalue
p97
VActive
p98
ssasVordered
p99
I01
ss.