(dp0
Vhead
p1
(dp2
Vlink
p3
(lp4
sVvars
p5
(lp6
Vp
p7
aVo
p8
assVresults
p9
(dp10
Vdistinct
p11
I00
sVbindings
p12
(lp13
(dp14
g7
(dp15
Vtype
p16
Vuri
p17
sVvalue
p18
Vhttp://dbpedia.org/ontology/abstract
p19
ssg8
(dp20
Vxml:lang
p21
Ven
p22
sVtype
p23
Vliteral
p24
sVvalue
p25
VThe Rockefeller Republicans, otherwise called Liberal Republicans, were members of the Republican Party (GOP) in the 1940s\u20131970s who held moderate to liberal views on domestic issues, similar to those of Nelson Rockefeller, Governor of New York (1959\u20131973) and Vice President of the United States (1974\u20131977). Rockefeller Republicanism has been described as the last phase of the "Eastern Establishment" of the GOP, which had been led by New York governor Thomas E. Dewey. The group's powerful role in the GOP came under heavy attack in 1964 and it lost most of its influence. At a discouraging point in the 1964 primary campaign against Barry Goldwater in California, political operative Stuart Spencer called on Rockefeller to "summon that fabled nexus of money, influence, and condescension known as the Eastern Establishment. 'You are looking at it, buddy,' Rockefeller told Spencer. 'I am all that is left.'"
p26
ssa(dp27
g7
(dp28
Vtype
p29
Vuri
p30
sVvalue
p31
Vhttp://dbpedia.org/ontology/abstract
p32
ssg8
(dp33
Vxml:lang
p34
Vja
p35
sVtype
p36
Vliteral
p37
sVvalue
p38
V\u30ed\u30c3\u30af\u30d5\u30a7\u30e9\u30fc\u30fb\u30ea\u30d1\u30d6\u30ea\u30ab\u30f3\uff08Rockefeller Republican\uff09\u306f\u3001\u30a2\u30e1\u30ea\u30ab\u653f\u6cbb\u306b\u304a\u3044\u3066\u5171\u548c\u515a\u306e\u7a4f\u5065\u6d3e\u306b\u3064\u3044\u3066\u8a00\u53ca\u3059\u308b\u3068\u304d\u306b\u4f7f\u308f\u308c\u308b\u7528\u8a9e\u3002\u7b2c41\u4ee3\u526f\u5927\u7d71\u9818\u30cd\u30eb\u30bd\u30f3\u30fb\u30ed\u30c3\u30af\u30d5\u30a7\u30e9\u30fc\u306e\u540d\u306b\u7531\u6765\u3057\u3001\u30ed\u30c3\u30af\u30d5\u30a7\u30e9\u30fc\u306e\u3088\u3046\u306b\u5171\u548c\u515a\u306e\u4e2d\u3067\u3082\u6bd4\u8f03\u7684\u30ea\u30d9\u30e9\u30eb\u306a\u515a\u54e1\u3092\u3055\u3059\u3002\u30e2\u30c7\u30ec\u30a4\u30c8\u30fb\u30ea\u30d1\u30d6\u30ea\u30ab\u30f3\uff08\u5171\u548c\u515a\u7a4f\u5065\u6d3e\u3001Moderate Republican\uff09\u3001\u30ea\u30d9\u30e9\u30eb\u30fb\u30ea\u30d1\u30d6\u30ea\u30ab\u30f3\uff08\u5171\u548c\u515a\u30ea\u30d9\u30e9\u30eb\u6d3e\u3001Liberal Republican\uff09\u3068\u3082\u547c\u3070\u308c\u308b\u3002
p39
ssasVordered
p40
I01
ss.