(dp0
Vhead
p1
(dp2
Vlink
p3
(lp4
sVvars
p5
(lp6
Vp
p7
aVo
p8
assVresults
p9
(dp10
Vdistinct
p11
I00
sVbindings
p12
(lp13
(dp14
g7
(dp15
Vtype
p16
Vuri
p17
sVvalue
p18
Vhttp://dbpedia.org/ontology/abstract
p19
ssg8
(dp20
Vxml:lang
p21
Ven
p22
sVtype
p23
Vliteral
p24
sVvalue
p25
VSonoma Valley Airport (FAA LID: 0Q3) is a public-use airstrip opened on August 1959 in Schellville, Sonoma, California, United States. Located 4.14 nmi (7.67 km) south of central district of Sonoma (4.76 mi, 7.67 km) and 26.9 nmi (49.8 km) north of San Francisco (30.94 mi, 49.8 km), the airfield offers two asphalt runways, of which the 17/35 is restricted, with prior permission required.Open to public use for light aircraft, Sonoma Valley Airport does not allow ultralight and rotorcraft operations, except for MEDEVAC or law enforcement helicopters. There are no night operations. Flying hours begin at morning civil twilight and end at evening civil twilight. Among other fixed-wing aircraft, vintage planes can be seen on Sonoma Valley's apron, such as a fully restored, flying Curtiss P-40, a North American SNJ-4, three Boeing-Stearman PT-17 biplanes, a Globe Swift, a Cessna 195, a Douglas DC-3, a Dornier Do 27 or a Seabee amphibious. Others are being restored, like a Howard DGA-15.
p26
ssa(dp27
g7
(dp28
Vtype
p29
Vuri
p30
sVvalue
p31
Vhttp://dbpedia.org/ontology/elevation
p32
ssg8
(dp33
Vdatatype
p34
Vhttp://www.w3.org/2001/XMLSchema#double
p35
sVtype
p36
Vtyped-literal
p37
sVvalue
p38
V3.0
p39
ssa(dp40
g7
(dp41
Vtype
p42
Vuri
p43
sVvalue
p44
Vhttp://dbpedia.org/ontology/elevation
p45
ssg8
(dp46
Vdatatype
p47
Vhttp://www.w3.org/2001/XMLSchema#double
p48
sVtype
p49
Vtyped-literal
p50
sVvalue
p51
V3.048
p52
ssa(dp53
g7
(dp54
Vtype
p55
Vuri
p56
sVvalue
p57
Vhttp://dbpedia.org/ontology/faaLocationIdentifier
p58
ssg8
(dp59
Vtype
p60
Vliteral
p61
sVvalue
p62
V0Q3
p63
ssa(dp64
g7
(dp65
Vtype
p66
Vuri
p67
sVvalue
p68
Vhttp://dbpedia.org/ontology/runwayDesignation
p69
ssg8
(dp70
Vtype
p71
Vliteral
p72
sVvalue
p73
V17/35
p74
ssa(dp75
g7
(dp76
Vtype
p77
Vuri
p78
sVvalue
p79
Vhttp://dbpedia.org/ontology/runwayDesignation
p80
ssg8
(dp81
Vtype
p82
Vliteral
p83
sVvalue
p84
V7/25
p85
ssa(dp86
g7
(dp87
Vtype
p88
Vuri
p89
sVvalue
p90
Vhttp://dbpedia.org/ontology/runwayLength
p91
ssg8
(dp92
Vdatatype
p93
Vhttp://www.w3.org/2001/XMLSchema#double
p94
sVtype
p95
Vtyped-literal
p96
sVvalue
p97
V447.0
p98
ssa(dp99
g7
(dp100
Vtype
p101
Vuri
p102
sVvalue
p103
Vhttp://dbpedia.org/ontology/runwayLength
p104
ssg8
(dp105
Vdatatype
p106
Vhttp://www.w3.org/2001/XMLSchema#double
p107
sVtype
p108
Vtyped-literal
p109
sVvalue
p110
V447.751
p111
ssa(dp112
g7
(dp113
Vtype
p114
Vuri
p115
sVvalue
p116
Vhttp://dbpedia.org/ontology/runwayLength
p117
ssg8
(dp118
Vdatatype
p119
Vhttp://www.w3.org/2001/XMLSchema#double
p120
sVtype
p121
Vtyped-literal
p122
sVvalue
p123
V847.0
p124
ssa(dp125
g7
(dp126
Vtype
p127
Vuri
p128
sVvalue
p129
Vhttp://dbpedia.org/ontology/runwayLength
p130
ssg8
(dp131
Vdatatype
p132
Vhttp://www.w3.org/2001/XMLSchema#double
p133
sVtype
p134
Vtyped-literal
p135
sVvalue
p136
V847.344
p137
ssa(dp138
g7
(dp139
Vtype
p140
Vuri
p141
sVvalue
p142
Vhttp://dbpedia.org/ontology/runwaySurface
p143
ssg8
(dp144
Vtype
p145
Vliteral
p146
sVvalue
p147
VAsphalt
p148
ssasVordered
p149
I01
ss.