(dp0
Vhead
p1
(dp2
Vlink
p3
(lp4
sVvars
p5
(lp6
Vp
p7
aVo
p8
assVresults
p9
(dp10
Vdistinct
p11
I00
sVbindings
p12
(lp13
(dp14
g7
(dp15
Vtype
p16
Vuri
p17
sVvalue
p18
Vhttp://dbpedia.org/ontology/abstract
p19
ssg8
(dp20
Vxml:lang
p21
Ven
p22
sVtype
p23
Vliteral
p24
sVvalue
p25
VJesuit High School is an all-male college-preparatory Catholic high school in New Orleans. The school was founded in 1847 by the Society of Jesus (the Jesuits). It is centrally located in a New Orleans neighborhood known as Mid-City. Jesuit is located in the Roman Catholic Archdiocese of New Orleans, but the school is the responsibility of the Jesuits, not of the Archdiocese.
p26
ssa(dp27
g7
(dp28
Vtype
p29
Vuri
p30
sVvalue
p31
Vhttp://dbpedia.org/ontology/address
p32
ssg8
(dp33
Vxml:lang
p34
Ven
p35
sVtype
p36
Vliteral
p37
sVvalue
p38
V4133 Banks Street
p39
ssa(dp40
g7
(dp41
Vtype
p42
Vuri
p43
sVvalue
p44
Vhttp://dbpedia.org/ontology/averageClassSize
p45
ssg8
(dp46
Vdatatype
p47
Vhttp://www.w3.org/2001/XMLSchema#float
p48
sVtype
p49
Vtyped-literal
p50
sVvalue
p51
V24.0
p52
ssa(dp53
g7
(dp54
Vtype
p55
Vuri
p56
sVvalue
p57
Vhttp://dbpedia.org/ontology/facultySize
p58
ssg8
(dp59
Vdatatype
p60
Vhttp://www.w3.org/2001/XMLSchema#nonNegativeInteger
p61
sVtype
p62
Vtyped-literal
p63
sVvalue
p64
V120
p65
ssa(dp66
g7
(dp67
Vtype
p68
Vuri
p69
sVvalue
p70
Vhttp://dbpedia.org/ontology/fees
p71
ssg8
(dp72
Vdatatype
p73
Vhttp://dbpedia.org/datatype/usDollar
p74
sVtype
p75
Vtyped-literal
p76
sVvalue
p77
V6.0
p78
ssa(dp79
g7
(dp80
Vtype
p81
Vuri
p82
sVvalue
p83
Vhttp://dbpedia.org/ontology/foundingYear
p84
ssg8
(dp85
Vdatatype
p86
Vhttp://www.w3.org/2001/XMLSchema#gYear
p87
sVtype
p88
Vtyped-literal
p89
sVvalue
p90
V1847
p91
ssa(dp92
g7
(dp93
Vtype
p94
Vuri
p95
sVvalue
p96
Vhttp://dbpedia.org/ontology/foundingYear
p97
ssg8
(dp98
Vdatatype
p99
Vhttp://www.w3.org/2001/XMLSchema#gYear
p100
sVtype
p101
Vtyped-literal
p102
sVvalue
p103
V1849
p104
ssa(dp105
g7
(dp106
Vtype
p107
Vuri
p108
sVvalue
p109
Vhttp://dbpedia.org/ontology/mascot
p110
ssg8
(dp111
Vtype
p112
Vliteral
p113
sVvalue
p114
VJayson
p115
ssa(dp116
g7
(dp117
Vtype
p118
Vuri
p119
sVvalue
p120
Vhttp://dbpedia.org/ontology/motto
p121
ssg8
(dp122
Vtype
p123
Vliteral
p124
sVvalue
p125
VAd Majorem Dei Gloriam
p126
ssa(dp127
g7
(dp128
Vtype
p129
Vuri
p130
sVvalue
p131
Vhttp://dbpedia.org/ontology/numberOfGraduateStudents
p132
ssg8
(dp133
Vdatatype
p134
Vhttp://www.w3.org/2001/XMLSchema#nonNegativeInteger
p135
sVtype
p136
Vtyped-literal
p137
sVvalue
p138
V255
p139
ssa(dp140
g7
(dp141
Vtype
p142
Vuri
p143
sVvalue
p144
Vhttp://dbpedia.org/ontology/numberOfStudents
p145
ssg8
(dp146
Vdatatype
p147
Vhttp://www.w3.org/2001/XMLSchema#nonNegativeInteger
p148
sVtype
p149
Vtyped-literal
p150
sVvalue
p151
V1420
p152
ssa(dp153
g7
(dp154
Vtype
p155
Vuri
p156
sVvalue
p157
Vhttp://dbpedia.org/ontology/postalCode
p158
ssg8
(dp159
Vtype
p160
Vliteral
p161
sVvalue
p162
V70119
p163
ssa(dp164
g7
(dp165
Vtype
p166
Vuri
p167
sVvalue
p168
Vhttp://dbpedia.org/ontology/ranking
p169
ssg8
(dp170
Vdatatype
p171
Vhttp://www.w3.org/2001/XMLSchema#positiveInteger
p172
sVtype
p173
Vtyped-literal
p174
sVvalue
p175
V1
p176
ssa(dp177
g7
(dp178
Vtype
p179
Vuri
p180
sVvalue
p181
Vhttp://dbpedia.org/ontology/slogan
p182
ssg8
(dp183
Vxml:lang
p184
Ven
p185
sVtype
p186
Vliteral
p187
sVvalue
p188
VMen for Others
p189
ssa(dp190
g7
(dp191
Vtype
p192
Vuri
p193
sVvalue
p194
Vhttp://dbpedia.org/ontology/slogan
p195
ssg8
(dp196
Vxml:lang
p197
Ven
p198
sVtype
p199
Vliteral
p200
sVvalue
p201
VMen of Faith
p202
ssa(dp203
g7
(dp204
Vtype
p205
Vuri
p206
sVvalue
p207
Vhttp://dbpedia.org/ontology/teamName
p208
ssg8
(dp209
Vxml:lang
p210
Ven
p211
sVtype
p212
Vliteral
p213
sVvalue
p214
VBlue Jays
p215
ssa(dp216
g7
(dp217
Vtype
p218
Vuri
p219
sVvalue
p220
Vhttp://dbpedia.org/ontology/tuition
p221
ssg8
(dp222
Vdatatype
p223
Vhttp://dbpedia.org/datatype/usDollar
p224
sVtype
p225
Vtyped-literal
p226
sVvalue
p227
V8250.0
p228
ssasVordered
p229
I01
ss.