(dp0
Vhead
p1
(dp2
Vlink
p3
(lp4
sVvars
p5
(lp6
Vp
p7
aVo
p8
assVresults
p9
(dp10
Vdistinct
p11
I00
sVbindings
p12
(lp13
(dp14
g7
(dp15
Vtype
p16
Vuri
p17
sVvalue
p18
Vhttp://dbpedia.org/ontology/birthDate
p19
ssg8
(dp20
Vdatatype
p21
Vhttp://www.w3.org/2001/XMLSchema#date
p22
sVtype
p23
Vtyped-literal
p24
sVvalue
p25
V1990-11-29
p26
ssa(dp27
g7
(dp28
Vtype
p29
Vuri
p30
sVvalue
p31
Vhttp://dbpedia.org/ontology/Person/height
p32
ssg8
(dp33
Vdatatype
p34
Vhttp://dbpedia.org/datatype/centimetre
p35
sVtype
p36
Vtyped-literal
p37
sVvalue
p38
V172.0
p39
ssa(dp40
g7
(dp41
Vtype
p42
Vuri
p43
sVvalue
p44
Vhttp://dbpedia.org/ontology/Person/weight
p45
ssg8
(dp46
Vdatatype
p47
Vhttp://dbpedia.org/datatype/kilogram
p48
sVtype
p49
Vtyped-literal
p50
sVvalue
p51
V64.0
p52
ssa(dp53
g7
(dp54
Vtype
p55
Vuri
p56
sVvalue
p57
Vhttp://dbpedia.org/ontology/abstract
p58
ssg8
(dp59
Vxml:lang
p60
Vru
p61
sVtype
p62
Vliteral
p63
sVvalue
p64
V\u041d\u0443\u0440\u0431\u0435\u0440\u0433\u0435\u043d \u0411\u0430\u0442\u044b\u0440\u0433\u0430\u043b\u0438\u0435\u0432\u0438\u0447 \u0416\u0443\u043c\u0430\u0433\u0430\u0437\u0438\u0435\u0432 (\u0440\u043e\u0434. 20 \u043d\u043e\u044f\u0431\u0440\u044f 1990, \u0423\u0440\u0430\u043b\u044c\u0441\u043a) \u2014 \u043a\u0430\u0437\u0430\u0445\u0441\u0442\u0430\u043d\u0441\u043a\u0438\u0439 \u0448\u043e\u0440\u0442-\u0442\u0440\u0435\u043a\u0438\u0441\u0442, \u0443\u0447\u0430\u0441\u0442\u043d\u0438\u043a \u041e\u043b\u0438\u043c\u043f\u0438\u0439\u0441\u043a\u0438\u0445 \u0438\u0433\u0440 2014 \u0433\u043e\u0434\u0430.
p65
ssa(dp66
g7
(dp67
Vtype
p68
Vuri
p69
sVvalue
p70
Vhttp://dbpedia.org/ontology/abstract
p71
ssg8
(dp72
Vxml:lang
p73
Ven
p74
sVtype
p75
Vliteral
p76
sVvalue
p77
VNurbergen Batyrgalitovich Zhumagaziyev  (Kazakh: \u041d\u0443\u0440\u0431\u0435\u0440\u0433\u0435\u043d \u0411\u0430\u0442\u044b\u0440\u0433\u0430\u043b\u0438\u0442\u043e\u0432\u0438\u0447 \u0416\u0443\u043c\u0430\u0433\u0430\u0437\u0438\u0435\u0432, born 29 November 1990 in Oral, Kazakhstan) is a Kazakh male short track speed skater.
p78
ssa(dp79
g7
(dp80
Vtype
p81
Vuri
p82
sVvalue
p83
Vhttp://dbpedia.org/ontology/height
p84
ssg8
(dp85
Vdatatype
p86
Vhttp://www.w3.org/2001/XMLSchema#double
p87
sVtype
p88
Vtyped-literal
p89
sVvalue
p90
V1.72
p91
ssa(dp92
g7
(dp93
Vtype
p94
Vuri
p95
sVvalue
p96
Vhttp://dbpedia.org/ontology/weight
p97
ssg8
(dp98
Vdatatype
p99
Vhttp://www.w3.org/2001/XMLSchema#double
p100
sVtype
p101
Vtyped-literal
p102
sVvalue
p103
V64000.0
p104
ssasVordered
p105
I01
ss.