(dp0
Vhead
p1
(dp2
Vlink
p3
(lp4
sVvars
p5
(lp6
Vp
p7
aVo
p8
assVresults
p9
(dp10
Vdistinct
p11
I00
sVbindings
p12
(lp13
(dp14
g7
(dp15
Vtype
p16
Vuri
p17
sVvalue
p18
Vhttp://dbpedia.org/ontology/abstract
p19
ssg8
(dp20
Vxml:lang
p21
Ven
p22
sVtype
p23
Vliteral
p24
sVvalue
p25
VYoung Royals is a series of novels for children by Carolyn Meyer based on the early lives of multiple royalties such as English and French royalty. Books in the series mostly include the English Tudors such as Mary, Bloody Mary (1999), Beware, Princess Elizabeth (2001), Doomed Queen Anne (2002) and Patience, Princess Catherine (2004). The French books are Duchessina (2007) about the life of Catherine de' Medici and The Bad Queen: Rules and Instructions for Marie-Antoinette (2010). The latest books in the series are Cleopatra Confesses (2011) about Cleopatra who however is an adult, The Wild Queen: The Days and Nights of Mary, Queen of Scots (2012) and the English Victoria Rebels (2013) about Queen Victoria. Each book mostly features inside-looks at what the lives of each girl would have been like, including daily routine, protocol, out-of-the-ordinary experiences, and first-hand views of the lives of the people surrounding each of them. Each book portrays one character as a villain, whereas in a different book that same character is the heroine. The portrayal of each royal is biased according to the position of the observing royal and it provides an interesting window into the life of royalty.
p26
ssa(dp27
g7
(dp28
Vtype
p29
Vuri
p30
sVvalue
p31
Vhttp://dbpedia.org/ontology/isbn
p32
ssg8
(dp33
Vtype
p34
Vliteral
p35
sVvalue
p36
V0-15-201906-5
p37
ssa(dp38
g7
(dp39
Vtype
p40
Vuri
p41
sVvalue
p42
Vhttp://dbpedia.org/ontology/isbn
p43
ssg8
(dp44
Vtype
p45
Vliteral
p46
sVvalue
p47
V0-15-202659-2
p48
ssa(dp49
g7
(dp50
Vtype
p51
Vuri
p52
sVvalue
p53
Vhttp://dbpedia.org/ontology/isbn
p54
ssg8
(dp55
Vtype
p56
Vliteral
p57
sVvalue
p58
V0-15-216544-4
p59
ssa(dp60
g7
(dp61
Vtype
p62
Vuri
p63
sVvalue
p64
Vhttp://dbpedia.org/ontology/lcc
p65
ssg8
(dp66
Vtype
p67
Vliteral
p68
sVvalue
p69
VPZ7.M5685 Be 2001
p70
ssa(dp71
g7
(dp72
Vtype
p73
Vuri
p74
sVvalue
p75
Vhttp://dbpedia.org/ontology/lcc
p76
ssg8
(dp77
Vtype
p78
Vliteral
p79
sVvalue
p80
VPZ7.M5685 Mar 1999
p81
ssa(dp82
g7
(dp83
Vtype
p84
Vuri
p85
sVvalue
p86
Vhttp://dbpedia.org/ontology/lcc
p87
ssg8
(dp88
Vtype
p89
Vliteral
p90
sVvalue
p91
VPZ7.M5685 Pat 2004
p92
ssa(dp93
g7
(dp94
Vtype
p95
Vuri
p96
sVvalue
p97
Vhttp://dbpedia.org/ontology/numberOfPages
p98
ssg8
(dp99
Vdatatype
p100
Vhttp://www.w3.org/2001/XMLSchema#positiveInteger
p101
sVtype
p102
Vtyped-literal
p103
sVvalue
p104
V208
p105
ssa(dp106
g7
(dp107
Vtype
p108
Vuri
p109
sVvalue
p110
Vhttp://dbpedia.org/ontology/numberOfPages
p111
ssg8
(dp112
Vdatatype
p113
Vhttp://www.w3.org/2001/XMLSchema#positiveInteger
p114
sVtype
p115
Vtyped-literal
p116
sVvalue
p117
V224
p118
ssa(dp119
g7
(dp120
Vtype
p121
Vuri
p122
sVvalue
p123
Vhttp://dbpedia.org/ontology/numberOfPages
p124
ssg8
(dp125
Vdatatype
p126
Vhttp://www.w3.org/2001/XMLSchema#positiveInteger
p127
sVtype
p128
Vtyped-literal
p129
sVvalue
p130
V232
p131
ssa(dp132
g7
(dp133
Vtype
p134
Vuri
p135
sVvalue
p136
Vhttp://dbpedia.org/ontology/oclc
p137
ssg8
(dp138
Vtype
p139
Vliteral
p140
sVvalue
p141
V40912656
p142
ssa(dp143
g7
(dp144
Vtype
p145
Vuri
p146
sVvalue
p147
Vhttp://dbpedia.org/ontology/oclc
p148
ssg8
(dp149
Vtype
p150
Vliteral
p151
sVvalue
p152
V45375123
p153
ssa(dp154
g7
(dp155
Vtype
p156
Vuri
p157
sVvalue
p158
Vhttp://dbpedia.org/ontology/oclc
p159
ssg8
(dp160
Vtype
p161
Vliteral
p162
sVvalue
p163
V61117509
p164
ssa(dp165
g7
(dp166
Vtype
p167
Vuri
p168
sVvalue
p169
Vhttp://dbpedia.org/ontology/publicationDate
p170
ssg8
(dp171
Vdatatype
p172
Vhttp://www.w3.org/2001/XMLSchema#date
p173
sVtype
p174
Vtyped-literal
p175
sVvalue
p176
V1999-08-30
p177
ssa(dp178
g7
(dp179
Vtype
p180
Vuri
p181
sVvalue
p182
Vhttp://dbpedia.org/ontology/publicationDate
p183
ssg8
(dp184
Vdatatype
p185
Vhttp://www.w3.org/2001/XMLSchema#date
p186
sVtype
p187
Vtyped-literal
p188
sVvalue
p189
V2001-05-01
p190
ssa(dp191
g7
(dp192
Vtype
p193
Vuri
p194
sVvalue
p195
Vhttp://dbpedia.org/ontology/publicationDate
p196
ssg8
(dp197
Vdatatype
p198
Vhttp://www.w3.org/2001/XMLSchema#date
p199
sVtype
p200
Vtyped-literal
p201
sVvalue
p202
V2004-05-01
p203
ssasVordered
p204
I01
ss.