(dp0
Vhead
p1
(dp2
Vlink
p3
(lp4
sVvars
p5
(lp6
Vp
p7
aVo
p8
assVresults
p9
(dp10
Vdistinct
p11
I00
sVbindings
p12
(lp13
(dp14
g7
(dp15
Vtype
p16
Vuri
p17
sVvalue
p18
Vhttp://dbpedia.org/ontology/birthDate
p19
ssg8
(dp20
Vdatatype
p21
Vhttp://www.w3.org/2001/XMLSchema#date
p22
sVtype
p23
Vtyped-literal
p24
sVvalue
p25
V1981-2-27
p26
ssa(dp27
g7
(dp28
Vtype
p29
Vuri
p30
sVvalue
p31
Vhttp://dbpedia.org/ontology/abstract
p32
ssg8
(dp33
Vxml:lang
p34
Vzh
p35
sVtype
p36
Vliteral
p37
sVvalue
p38
V\u694a\u660e\uff08\u82f1\u8bed\uff1aMat Yeung Ming\uff0c1981\u5e742\u670827\u65e5\uff0d\uff09\uff0c\u539f\u540d\u6797\u694a\u660e\uff0c\u524d\u85dd\u540d\u63da\u660e\uff0c1999\u5e74\u65bc\u7b2c13\u671f\u7121\u7dab\u96fb\u8996\u85dd\u54e1\u8a13\u7df4\u73ed\u5b8c\u6210\u5f8c\u52a0\u5165\u7121\u7dab\u96fb\u8996\uff0c\u73fe\u70baTVB\u529b\u6367\u65b0\u6649\u5c0f\u751f\u4e4b\u4e00\u3002\u66fe\u8207\u85dd\u4eba\u9673\u654f\u4e4b\u4ea4\u5f80\u3002\u521d\u51fa\u9053\u66fe\u7372\u7121\u7dab\u529b\u6367\uff0c\u65e9\u5e74\u5728\u5287\u96c6\u300a\u5a1b\u6a02\u53cd\u6597\u661f\u300b\u4e2d\u98fe\u6f14\u96f7\u9706\uff08\u5f71\u5c04\u8b1d\u9706\u92d2\uff09\u4e00\u89d2\uff0c\u4ea6\u57282000\u5e74\u7372\u516c\u53f8\u6d3e\u5f80\u82f1\u570b\u611b\u4e01\u5821\u53c3\u52a0\u7b2c\u4e09\u5c4a\u4e16\u754c\u5148\u751f\u9078\u8209\u3002 \u694a\u660e\u66fe\u591a\u6b21\u60f9\u4e0a\u5b98\u975e\uff0c\u8ca0\u9762\u65b0\u805e\u4e0d\u65b7\uff0c\u5982\u9189\u9152\u99d5\u99db\u53ca\u5211\u4e8b\u6bc0\u58de\uff08\u5169\u5ea6\u4ee5\u56de\u9109\u5361\u5145\u7576\u516b\u9054\u901a\u4ea4\u6613\u5931\u6557\u5f8c\uff0c\u628a\u5e97\u5167\u9999\u7159\u5ee3\u544a\u7bb1\u5f04\u6bc0\u6d29\u61a4\uff09\u3002\u7121\u7dab\u66fe\u6709\u4e00\u6bb5\u6642\u9593\u5c0d\u5176\u6295\u9592\u7f6e\u6563\u3002
p39
ssa(dp40
g7
(dp41
Vtype
p42
Vuri
p43
sVvalue
p44
Vhttp://dbpedia.org/ontology/abstract
p45
ssg8
(dp46
Vxml:lang
p47
Ven
p48
sVtype
p49
Vliteral
p50
sVvalue
p51
VMat Yeung Ming (born 27 February 1981) is a Hong Kong television actor best known for his roles as Lui Ting in Screen Play (2000), as Wan Po-yu in The 'W' Files (2003), as Tin Hoi in Be Home for Dinner (2011), and as Senior Inspector Jasper Kong in Master of Play (2012).
p52
ssa(dp53
g7
(dp54
Vtype
p55
Vuri
p56
sVvalue
p57
Vhttp://dbpedia.org/ontology/activeYearsEndYear
p58
ssg8
(dp59
Vdatatype
p60
Vhttp://www.w3.org/2001/XMLSchema#gYear
p61
sVtype
p62
Vtyped-literal
p63
sVvalue
p64
V1999
p65
ssa(dp66
g7
(dp67
Vtype
p68
Vuri
p69
sVvalue
p70
Vhttp://dbpedia.org/ontology/activeYearsStartYear
p71
ssg8
(dp72
Vdatatype
p73
Vhttp://www.w3.org/2001/XMLSchema#gYear
p74
sVtype
p75
Vtyped-literal
p76
sVvalue
p77
V1999
p78
ssasVordered
p79
I01
ss.