(dp0
Vhead
p1
(dp2
Vlink
p3
(lp4
sVvars
p5
(lp6
Vp
p7
aVo
p8
assVresults
p9
(dp10
Vdistinct
p11
I00
sVbindings
p12
(lp13
(dp14
g7
(dp15
Vtype
p16
Vuri
p17
sVvalue
p18
Vhttp://dbpedia.org/ontology/Infrastructure/length
p19
ssg8
(dp20
Vdatatype
p21
Vhttp://dbpedia.org/datatype/kilometre
p22
sVtype
p23
Vtyped-literal
p24
sVvalue
p25
V18.143744256
p26
ssa(dp27
g7
(dp28
Vtype
p29
Vuri
p30
sVvalue
p31
Vhttp://dbpedia.org/ontology/abstract
p32
ssg8
(dp33
Vxml:lang
p34
Ven
p35
sVtype
p36
Vliteral
p37
sVvalue
p38
VMinnesota State Highway 51 (MN 51) is a highway in Minnesota, which runs from its intersection with State Highway 5 (W. 7th Street) in Saint Paul and continues north to its northern terminus at its interchange with Interstate 694 / U.S. Highway 10 in Arden Hills. The route is 11 miles (18 km) in length. Highway 51 is also known as Snelling Avenue for most of its route. A small section of the route is known as Montreal Avenue in the "West Seventh" and Highland neighborhoods of Saint Paul, and the northern section in Arden Hills is known as Hamline Avenue.
p39
ssa(dp40
g7
(dp41
Vtype
p42
Vuri
p43
sVvalue
p44
Vhttp://dbpedia.org/ontology/length
p45
ssg8
(dp46
Vdatatype
p47
Vhttp://www.w3.org/2001/XMLSchema#double
p48
sVtype
p49
Vtyped-literal
p50
sVvalue
p51
V18143.7
p52
ssa(dp53
g7
(dp54
Vtype
p55
Vuri
p56
sVvalue
p57
Vhttp://dbpedia.org/ontology/routeEndDirection
p58
ssg8
(dp59
Vtype
p60
Vliteral
p61
sVvalue
p62
VNorth
p63
ssa(dp64
g7
(dp65
Vtype
p66
Vuri
p67
sVvalue
p68
Vhttp://dbpedia.org/ontology/routeNumber
p69
ssg8
(dp70
Vtype
p71
Vliteral
p72
sVvalue
p73
V51
p74
ssa(dp75
g7
(dp76
Vtype
p77
Vuri
p78
sVvalue
p79
Vhttp://dbpedia.org/ontology/routeStartDirection
p80
ssg8
(dp81
Vtype
p82
Vliteral
p83
sVvalue
p84
VSouth
p85
ssa(dp86
g7
(dp87
Vtype
p88
Vuri
p89
sVvalue
p90
Vhttp://dbpedia.org/ontology/routeTypeAbbreviation
p91
ssg8
(dp92
Vtype
p93
Vliteral
p94
sVvalue
p95
VMN
p96
ssasVordered
p97
I01
ss.