(dp0
Vhead
p1
(dp2
Vlink
p3
(lp4
sVvars
p5
(lp6
Vp
p7
aVo
p8
assVresults
p9
(dp10
Vdistinct
p11
I00
sVbindings
p12
(lp13
(dp14
g7
(dp15
Vtype
p16
Vuri
p17
sVvalue
p18
Vhttp://dbpedia.org/ontology/abstract
p19
ssg8
(dp20
Vxml:lang
p21
Ven
p22
sVtype
p23
Vliteral
p24
sVvalue
p25
VClaymont High School is a public high school in Uhrichsville, Ohio. It is the only high school in the Claymont City School district. Students are nicknamed Mustangs. The Principal is Scott Golec and the Vice Principal is Eric Henry. The Guidance Counselors are Vonda Garabrandt (9th-10th) and Lauren Castello (11th-12th). The Athletic Director/Dean of Students is Kyle Daniel. The Claymont City School District also has one junior high school, Claymont Junior High (7th-8th), one intermediate school, Claymont Intermediate (5th-6th), and three elementary schools, Park Elementary, Trenton Elementary, and Eastport Elementary (K-4th). The Superintendent of Claymont City School District is currently, John Rocci. The Board of Education President is Aaron Cottrell and the Claymont Foundation President is Shawn Lindsay.
p26
ssasVordered
p27
I01
ss.