(dp0
Vhead
p1
(dp2
Vlink
p3
(lp4
sVvars
p5
(lp6
Vp
p7
aVo
p8
assVresults
p9
(dp10
Vdistinct
p11
I00
sVbindings
p12
(lp13
(dp14
g7
(dp15
Vtype
p16
Vuri
p17
sVvalue
p18
Vhttp://dbpedia.org/ontology/abstract
p19
ssg8
(dp20
Vxml:lang
p21
Ven
p22
sVtype
p23
Vliteral
p24
sVvalue
p25
VThe Mechanicsburg Area School District is a midsized, suburban, public school district serving the Harrisburg suburbs of Mechanicsburg and Upper Allen Township in Cumberland County, Pennsylvania. The Mechanicsburg Area School District encompasses approximately 16 square miles (41 km2). According to the 2000 federal census data, it served a resident population of 25,901. In 2010, the population had grown to 28,664 people. The US Census Bureau reported that district residents' per capita income was $23,507 while the median family income was $60,722 a year. In school year 2007-08, Mechanicsburg Area School District provided basic educational services to 3,687 pupils through the employment of 297 teachers, 208 full-time and part-time support personnel and 25 administrators. In school year 2009-10, the Mechanicsburg Area School District provided basic educational services to 3,703 pupils and employed: 314 teachers, 217 full-time and part-time support personnel, and 35 administrators. Mechanicsburg Area School District received more than $9.9 million in state funding in school year 2007-08. Mechanicburg Area School District operates: Mechanicsburg Kindergarten Academy, Broad Street Elementary School, Elmwood Elementary School, Northside Elementary School, Shepherdstown Elementary School, Upper Allen Elementary School, Mechanicsburg Area Middle School and Mechanicsburg Area Senior High School. In addition, the District owns the award-winning Trails & Trees Environmental Center, 30-acre (120,000 m2) education area behind the middle school.
p26
ssa(dp27
g7
(dp28
Vtype
p29
Vuri
p30
sVvalue
p31
Vhttp://dbpedia.org/ontology/address
p32
ssg8
(dp33
Vxml:lang
p34
Ven
p35
sVtype
p36
Vliteral
p37
sVvalue
p38
V100 E. Elmwood Ave, 2nd floor
p39
ssa(dp40
g7
(dp41
Vtype
p42
Vuri
p43
sVvalue
p44
Vhttp://dbpedia.org/ontology/budget
p45
ssg8
(dp46
Vdatatype
p47
Vhttp://dbpedia.org/datatype/usDollar
p48
sVtype
p49
Vtyped-literal
p50
sVvalue
p51
V5.5E7
p52
ssa(dp53
g7
(dp54
Vtype
p55
Vuri
p56
sVvalue
p57
Vhttp://dbpedia.org/ontology/budget
p58
ssg8
(dp59
Vdatatype
p60
Vhttp://dbpedia.org/datatype/usDollar
p61
sVtype
p62
Vtyped-literal
p63
sVvalue
p64
V5.36E7
p65
ssa(dp66
g7
(dp67
Vtype
p68
Vuri
p69
sVvalue
p70
Vhttp://dbpedia.org/ontology/budget
p71
ssg8
(dp72
Vdatatype
p73
Vhttp://dbpedia.org/datatype/usDollar
p74
sVtype
p75
Vtyped-literal
p76
sVvalue
p77
V5.1875625E7
p78
ssa(dp79
g7
(dp80
Vtype
p81
Vuri
p82
sVvalue
p83
Vhttp://dbpedia.org/ontology/budget
p84
ssg8
(dp85
Vdatatype
p86
Vhttp://dbpedia.org/datatype/usDollar
p87
sVtype
p88
Vtyped-literal
p89
sVvalue
p90
V5.192486E7
p91
ssa(dp92
g7
(dp93
Vtype
p94
Vuri
p95
sVvalue
p96
Vhttp://dbpedia.org/ontology/budget
p97
ssg8
(dp98
Vdatatype
p99
Vhttp://dbpedia.org/datatype/usDollar
p100
sVtype
p101
Vtyped-literal
p102
sVvalue
p103
V5.8271025E7
p104
ssa(dp105
g7
(dp106
Vtype
p107
Vuri
p108
sVvalue
p109
Vhttp://dbpedia.org/ontology/facultySize
p110
ssg8
(dp111
Vdatatype
p112
Vhttp://www.w3.org/2001/XMLSchema#nonNegativeInteger
p113
sVtype
p114
Vtyped-literal
p115
sVvalue
p116
V271
p117
ssa(dp118
g7
(dp119
Vtype
p120
Vuri
p121
sVvalue
p122
Vhttp://dbpedia.org/ontology/lowerAge
p123
ssg8
(dp124
Vdatatype
p125
Vhttp://www.w3.org/2001/XMLSchema#nonNegativeInteger
p126
sVtype
p127
Vtyped-literal
p128
sVvalue
p129
V4
p130
ssa(dp131
g7
(dp132
Vtype
p133
Vuri
p134
sVvalue
p135
Vhttp://dbpedia.org/ontology/mascot
p136
ssg8
(dp137
Vtype
p138
Vliteral
p139
sVvalue
p140
VWildcats
p141
ssa(dp142
g7
(dp143
Vtype
p144
Vuri
p145
sVvalue
p146
Vhttp://dbpedia.org/ontology/motto
p147
ssg8
(dp148
Vtype
p149
Vliteral
p150
sVvalue
p151
VTradition, Pride, Excellence
p152
ssa(dp153
g7
(dp154
Vtype
p155
Vuri
p156
sVvalue
p157
Vhttp://dbpedia.org/ontology/numberOfStudents
p158
ssg8
(dp159
Vdatatype
p160
Vhttp://www.w3.org/2001/XMLSchema#nonNegativeInteger
p161
sVtype
p162
Vtyped-literal
p163
sVvalue
p164
V3731
p165
ssa(dp166
g7
(dp167
Vtype
p168
Vuri
p169
sVvalue
p170
Vhttp://dbpedia.org/ontology/postalCode
p171
ssg8
(dp172
Vtype
p173
Vliteral
p174
sVvalue
p175
V17013-4101
p176
ssa(dp177
g7
(dp178
Vtype
p179
Vuri
p180
sVvalue
p181
Vhttp://dbpedia.org/ontology/specialist
p182
ssg8
(dp183
Vtype
p184
Vliteral
p185
sVvalue
p186
VVandrew, Alan, Business Manager (salary $119,848  in 2012)
p187
ssa(dp188
g7
(dp189
Vtype
p190
Vuri
p191
sVvalue
p192
Vhttp://dbpedia.org/ontology/staff
p193
ssg8
(dp194
Vdatatype
p195
Vhttp://www.w3.org/2001/XMLSchema#nonNegativeInteger
p196
sVtype
p197
Vtyped-literal
p198
sVvalue
p199
V283
p200
ssa(dp201
g7
(dp202
Vtype
p203
Vuri
p204
sVvalue
p205
Vhttp://dbpedia.org/ontology/upperAge
p206
ssg8
(dp207
Vdatatype
p208
Vhttp://www.w3.org/2001/XMLSchema#nonNegativeInteger
p209
sVtype
p210
Vtyped-literal
p211
sVvalue
p212
V21
p213
ssasVordered
p214
I01
ss.