(dp0
Vhead
p1
(dp2
Vlink
p3
(lp4
sVvars
p5
(lp6
Vp
p7
aVo
p8
assVresults
p9
(dp10
Vdistinct
p11
I00
sVbindings
p12
(lp13
(dp14
g7
(dp15
Vtype
p16
Vuri
p17
sVvalue
p18
Vhttp://dbpedia.org/ontology/Weapon/height
p19
ssg8
(dp20
Vdatatype
p21
Vhttp://dbpedia.org/datatype/millimetre
p22
sVtype
p23
Vtyped-literal
p24
sVvalue
p25
V2600.0
p26
ssa(dp27
g7
(dp28
Vtype
p29
Vuri
p30
sVvalue
p31
Vhttp://dbpedia.org/ontology/Weapon/length
p32
ssg8
(dp33
Vdatatype
p34
Vhttp://dbpedia.org/datatype/millimetre
p35
sVtype
p36
Vtyped-literal
p37
sVvalue
p38
V4800.0
p39
ssa(dp40
g7
(dp41
Vtype
p42
Vuri
p43
sVvalue
p44
Vhttp://dbpedia.org/ontology/Weapon/weight
p45
ssg8
(dp46
Vdatatype
p47
Vhttp://dbpedia.org/datatype/kilogram
p48
sVtype
p49
Vtyped-literal
p50
sVvalue
p51
V5800.0
p52
ssa(dp53
g7
(dp54
Vtype
p55
Vuri
p56
sVvalue
p57
Vhttp://dbpedia.org/ontology/Weapon/width
p58
ssg8
(dp59
Vdatatype
p60
Vhttp://dbpedia.org/datatype/millimetre
p61
sVtype
p62
Vtyped-literal
p63
sVvalue
p64
V2000.0
p65
ssa(dp66
g7
(dp67
Vtype
p68
Vuri
p69
sVvalue
p70
Vhttp://dbpedia.org/ontology/abstract
p71
ssg8
(dp72
Vxml:lang
p73
Ven
p74
sVtype
p75
Vliteral
p76
sVvalue
p77
VThe Unicorn is a MRAP used by the Sri Lankan military based on the Buffel.
p78
ssa(dp79
g7
(dp80
Vtype
p81
Vuri
p82
sVvalue
p83
Vhttp://dbpedia.org/ontology/abstract
p84
ssg8
(dp85
Vxml:lang
p86
Vru
p87
sVtype
p88
Vliteral
p89
sVvalue
p90
V\u042e\u043d\u0438\u043a\u043e\u0440\u043d (\u0435\u0434\u0438\u043d\u043e\u0440\u043e\u0433) (\u0430\u043d\u0433\u043b. Unicorn APC) - \u044d\u0442\u043e \u043c\u0438\u043d\u043d\u043e\u0437\u0430\u0449\u0438\u0449\u0451\u043d\u043d\u044b\u0439 \u0411\u0422\u0420, \u0441\u043e\u0437\u0434\u0430\u043d\u043d\u044b\u0439 \u0438 \u0438\u0441\u043f\u043e\u043b\u044c\u0437\u0443\u0435\u043c\u044b\u0439 \u0412\u043e\u043e\u0440\u0443\u0436\u0451\u043d\u043d\u044b\u043c\u0438 \u0441\u0438\u043b\u0430\u043c\u0438 \u0428\u0440\u0438-\u041b\u0430\u043d\u043a\u0438.
p91
ssa(dp92
g7
(dp93
Vtype
p94
Vuri
p95
sVvalue
p96
Vhttp://dbpedia.org/ontology/height
p97
ssg8
(dp98
Vdatatype
p99
Vhttp://www.w3.org/2001/XMLSchema#double
p100
sVtype
p101
Vtyped-literal
p102
sVvalue
p103
V2.6
p104
ssa(dp105
g7
(dp106
Vtype
p107
Vuri
p108
sVvalue
p109
Vhttp://dbpedia.org/ontology/length
p110
ssg8
(dp111
Vdatatype
p112
Vhttp://www.w3.org/2001/XMLSchema#double
p113
sVtype
p114
Vtyped-literal
p115
sVvalue
p116
V4.8
p117
ssa(dp118
g7
(dp119
Vtype
p120
Vuri
p121
sVvalue
p122
Vhttp://dbpedia.org/ontology/weight
p123
ssg8
(dp124
Vdatatype
p125
Vhttp://www.w3.org/2001/XMLSchema#double
p126
sVtype
p127
Vtyped-literal
p128
sVvalue
p129
V5.8e+06
p130
ssa(dp131
g7
(dp132
Vtype
p133
Vuri
p134
sVvalue
p135
Vhttp://dbpedia.org/ontology/width
p136
ssg8
(dp137
Vdatatype
p138
Vhttp://www.w3.org/2001/XMLSchema#double
p139
sVtype
p140
Vtyped-literal
p141
sVvalue
p142
V2.0
p143
ssasVordered
p144
I01
ss.