(dp0
Vhead
p1
(dp2
Vlink
p3
(lp4
sVvars
p5
(lp6
Vp
p7
aVo
p8
assVresults
p9
(dp10
Vdistinct
p11
I00
sVbindings
p12
(lp13
(dp14
g7
(dp15
Vtype
p16
Vuri
p17
sVvalue
p18
Vhttp://dbpedia.org/ontology/abstract
p19
ssg8
(dp20
Vxml:lang
p21
Ven
p22
sVtype
p23
Vliteral
p24
sVvalue
p25
VPhilip Billard Municipal Airport (IATA: TOP, ICAO: KTOP, FAA LID: TOP) is a public airport three miles (5 km) northeast of downtown Topeka, the capital city of Kansas and the county seat of Shawnee County. It is owned by the Metropolitan Topeka Airport Authority. It was Topeka's airline airport until 1976. In the 1940s TWA, Continental and Braniff stopped there, and Ozark appeared for a couple years starting around 1951. Braniff left in 1953-54 and Continental in 1961; Central replaced TWA in 1958 and successor Frontier lasted until 1976.
p26
ssa(dp27
g7
(dp28
Vtype
p29
Vuri
p30
sVvalue
p31
Vhttp://dbpedia.org/ontology/elevation
p32
ssg8
(dp33
Vdatatype
p34
Vhttp://www.w3.org/2001/XMLSchema#double
p35
sVtype
p36
Vtyped-literal
p37
sVvalue
p38
V268.529
p39
ssa(dp40
g7
(dp41
Vtype
p42
Vuri
p43
sVvalue
p44
Vhttp://dbpedia.org/ontology/elevation
p45
ssg8
(dp46
Vdatatype
p47
Vhttp://www.w3.org/2001/XMLSchema#double
p48
sVtype
p49
Vtyped-literal
p50
sVvalue
p51
V269.0
p52
ssa(dp53
g7
(dp54
Vtype
p55
Vuri
p56
sVvalue
p57
Vhttp://dbpedia.org/ontology/faaLocationIdentifier
p58
ssg8
(dp59
Vtype
p60
Vliteral
p61
sVvalue
p62
VTOP
p63
ssa(dp64
g7
(dp65
Vtype
p66
Vuri
p67
sVvalue
p68
Vhttp://dbpedia.org/ontology/iataLocationIdentifier
p69
ssg8
(dp70
Vtype
p71
Vliteral
p72
sVvalue
p73
VTOP
p74
ssa(dp75
g7
(dp76
Vtype
p77
Vuri
p78
sVvalue
p79
Vhttp://dbpedia.org/ontology/icaoLocationIdentifier
p80
ssg8
(dp81
Vtype
p82
Vliteral
p83
sVvalue
p84
VKTOP
p85
ssa(dp86
g7
(dp87
Vtype
p88
Vuri
p89
sVvalue
p90
Vhttp://dbpedia.org/ontology/runwayDesignation
p91
ssg8
(dp92
Vtype
p93
Vliteral
p94
sVvalue
p95
V13/31
p96
ssa(dp97
g7
(dp98
Vtype
p99
Vuri
p100
sVvalue
p101
Vhttp://dbpedia.org/ontology/runwayDesignation
p102
ssg8
(dp103
Vtype
p104
Vliteral
p105
sVvalue
p106
V18/36
p107
ssa(dp108
g7
(dp109
Vtype
p110
Vuri
p111
sVvalue
p112
Vhttp://dbpedia.org/ontology/runwayDesignation
p113
ssg8
(dp114
Vtype
p115
Vliteral
p116
sVvalue
p117
V4/22
p118
ssa(dp119
g7
(dp120
Vtype
p121
Vuri
p122
sVvalue
p123
Vhttp://dbpedia.org/ontology/runwayLength
p124
ssg8
(dp125
Vdatatype
p126
Vhttp://www.w3.org/2001/XMLSchema#double
p127
sVtype
p128
Vtyped-literal
p129
sVvalue
p130
V915.0
p131
ssa(dp132
g7
(dp133
Vtype
p134
Vuri
p135
sVvalue
p136
Vhttp://dbpedia.org/ontology/runwayLength
p137
ssg8
(dp138
Vdatatype
p139
Vhttp://www.w3.org/2001/XMLSchema#double
p140
sVtype
p141
Vtyped-literal
p142
sVvalue
p143
V915.01
p144
ssa(dp145
g7
(dp146
Vtype
p147
Vuri
p148
sVvalue
p149
Vhttp://dbpedia.org/ontology/runwayLength
p150
ssg8
(dp151
Vdatatype
p152
Vhttp://www.w3.org/2001/XMLSchema#double
p153
sVtype
p154
Vtyped-literal
p155
sVvalue
p156
V1320.0
p157
ssa(dp158
g7
(dp159
Vtype
p160
Vuri
p161
sVvalue
p162
Vhttp://dbpedia.org/ontology/runwayLength
p163
ssg8
(dp164
Vdatatype
p165
Vhttp://www.w3.org/2001/XMLSchema#double
p166
sVtype
p167
Vtyped-literal
p168
sVvalue
p169
V1320.09
p170
ssa(dp171
g7
(dp172
Vtype
p173
Vuri
p174
sVvalue
p175
Vhttp://dbpedia.org/ontology/runwayLength
p176
ssg8
(dp177
Vdatatype
p178
Vhttp://www.w3.org/2001/XMLSchema#double
p179
sVtype
p180
Vtyped-literal
p181
sVvalue
p182
V1554.0
p183
ssa(dp184
g7
(dp185
Vtype
p186
Vuri
p187
sVvalue
p188
Vhttp://dbpedia.org/ontology/runwayLength
p189
ssg8
(dp190
Vdatatype
p191
Vhttp://www.w3.org/2001/XMLSchema#double
p192
sVtype
p193
Vtyped-literal
p194
sVvalue
p195
V1554.18
p196
ssa(dp197
g7
(dp198
Vtype
p199
Vuri
p200
sVvalue
p201
Vhttp://dbpedia.org/ontology/runwaySurface
p202
ssg8
(dp203
Vtype
p204
Vliteral
p205
sVvalue
p206
VAsphalt
p207
ssasVordered
p208
I01
ss.