(dp0
Vhead
p1
(dp2
Vlink
p3
(lp4
sVvars
p5
(lp6
Vp
p7
aVo
p8
assVresults
p9
(dp10
Vdistinct
p11
I00
sVbindings
p12
(lp13
(dp14
g7
(dp15
Vtype
p16
Vuri
p17
sVvalue
p18
Vhttp://dbpedia.org/ontology/deathDate
p19
ssg8
(dp20
Vdatatype
p21
Vhttp://www.w3.org/2001/XMLSchema#date
p22
sVtype
p23
Vtyped-literal
p24
sVvalue
p25
V1989-10-24
p26
ssa(dp27
g7
(dp28
Vtype
p29
Vuri
p30
sVvalue
p31
Vhttp://dbpedia.org/ontology/birthDate
p32
ssg8
(dp33
Vdatatype
p34
Vhttp://www.w3.org/2001/XMLSchema#date
p35
sVtype
p36
Vtyped-literal
p37
sVvalue
p38
V1916-08-11
p39
ssa(dp40
g7
(dp41
Vtype
p42
Vuri
p43
sVvalue
p44
Vhttp://dbpedia.org/ontology/birthDate
p45
ssg8
(dp46
Vdatatype
p47
Vhttp://www.w3.org/2001/XMLSchema#date
p48
sVtype
p49
Vtyped-literal
p50
sVvalue
p51
V1916-8-11
p52
ssa(dp53
g7
(dp54
Vtype
p55
Vuri
p56
sVvalue
p57
Vhttp://dbpedia.org/ontology/abstract
p58
ssg8
(dp59
Vxml:lang
p60
Ven
p61
sVtype
p62
Vliteral
p63
sVvalue
p64
VGeneral Gopal Gurunath Bewoor, Padma Bhushan, PVSM (11 August 1916 \u2013 24 October 1989) was an officer of the Indian Army who served as the 9th Chief of Army Staff. In a long service spanning four decades, Gen. Bewoor saw action during World War II and later was involved in Indian Army operations during the 1965 as well as 1971 Indo-Pakistani war. He succeeded Field Marshal Sam Manekshaw as the Army chief in January 1973 and following his retirement from the army, served as the Indian Ambassador to Denmark till 1979. He was a recipient of the third highest Indian civilian honour of the Padma Bhushan.
p65
ssa(dp66
g7
(dp67
Vtype
p68
Vuri
p69
sVvalue
p70
Vhttp://dbpedia.org/ontology/militaryCommand
p71
ssg8
(dp72
Vtype
p73
Vliteral
p74
sVvalue
p75
VXXXIII Corps
p76
ssa(dp77
g7
(dp78
Vtype
p79
Vuri
p80
sVvalue
p81
Vhttp://dbpedia.org/ontology/militaryCommand
p82
ssg8
(dp83
Vtype
p84
Vliteral
p85
sVvalue
p86
V20pxSouthern Army
p87
ssa(dp88
g7
(dp89
Vtype
p90
Vuri
p91
sVvalue
p92
Vhttp://dbpedia.org/ontology/militaryCommand
p93
ssg8
(dp94
Vtype
p95
Vliteral
p96
sVvalue
p97
V20pxDirector General,NCC
p98
ssa(dp99
g7
(dp100
Vtype
p101
Vuri
p102
sVvalue
p103
Vhttp://dbpedia.org/ontology/militaryCommand
p104
ssg8
(dp105
Vtype
p106
Vliteral
p107
sVvalue
p108
V27 Infantry Division
p109
ssa(dp110
g7
(dp111
Vtype
p112
Vuri
p113
sVvalue
p114
Vhttp://dbpedia.org/ontology/militaryCommand
p115
ssg8
(dp116
Vtype
p117
Vliteral
p118
sVvalue
p119
V80 Infantry Brigade
p120
ssa(dp121
g7
(dp122
Vtype
p123
Vuri
p124
sVvalue
p125
Vhttp://dbpedia.org/ontology/office
p126
ssg8
(dp127
Vtype
p128
Vliteral
p129
sVvalue
p130
VChief of Army Staff (India)
p131
ssa(dp132
g7
(dp133
Vtype
p134
Vuri
p135
sVvalue
p136
Vhttp://dbpedia.org/ontology/office
p137
ssg8
(dp138
Vtype
p139
Vliteral
p140
sVvalue
p141
VAmbassador ofIndiato theDenmark
p142
ssa(dp143
g7
(dp144
Vtype
p145
Vuri
p146
sVvalue
p147
Vhttp://dbpedia.org/ontology/serviceEndYear
p148
ssg8
(dp149
Vdatatype
p150
Vhttp://www.w3.org/2001/XMLSchema#gYear
p151
sVtype
p152
Vtyped-literal
p153
sVvalue
p154
V1975
p155
ssa(dp156
g7
(dp157
Vtype
p158
Vuri
p159
sVvalue
p160
Vhttp://dbpedia.org/ontology/serviceStartYear
p161
ssg8
(dp162
Vdatatype
p163
Vhttp://www.w3.org/2001/XMLSchema#gYear
p164
sVtype
p165
Vtyped-literal
p166
sVvalue
p167
V1937
p168
ssasVordered
p169
I01
ss.