(dp0
Vhead
p1
(dp2
Vlink
p3
(lp4
sVvars
p5
(lp6
Vp
p7
aVo
p8
assVresults
p9
(dp10
Vdistinct
p11
I00
sVbindings
p12
(lp13
(dp14
g7
(dp15
Vtype
p16
Vuri
p17
sVvalue
p18
Vhttp://dbpedia.org/ontology/Infrastructure/length
p19
ssg8
(dp20
Vdatatype
p21
Vhttp://dbpedia.org/datatype/kilometre
p22
sVtype
p23
Vtyped-literal
p24
sVvalue
p25
V0.170688
p26
ssa(dp27
g7
(dp28
Vtype
p29
Vuri
p30
sVvalue
p31
Vhttp://dbpedia.org/ontology/abstract
p32
ssg8
(dp33
Vxml:lang
p34
Ven
p35
sVtype
p36
Vliteral
p37
sVvalue
p38
VThe Westville Dam is located on the Quinebaug River between Southbridge and Sturbridge, about 1.3 miles (2.1 km) west of the Southbridge town center and 18 miles (29 km) southwest of Worcester, Massachusetts. Designed and constructed by the United States Army Corps of Engineers, this dam substantially reduces flooding along the Quinebaug and Thames rivers. Construction of the project began in June 1960 with completion in August 1962 at a cost of US$5.6 million. The Westville reservoir is located within the Quinebaug River Watershed and is part of the Thames River Basin. Access to the site is available from Interstate 84 and State Route 131.
p39
ssa(dp40
g7
(dp41
Vtype
p42
Vuri
p43
sVvalue
p44
Vhttp://dbpedia.org/ontology/buildingStartDate
p45
ssg8
(dp46
Vtype
p47
Vliteral
p48
sVvalue
p49
VJune 1960
p50
ssa(dp51
g7
(dp52
Vtype
p53
Vuri
p54
sVvalue
p55
Vhttp://dbpedia.org/ontology/buildingStartYear
p56
ssg8
(dp57
Vdatatype
p58
Vhttp://www.w3.org/2001/XMLSchema#gYear
p59
sVtype
p60
Vtyped-literal
p61
sVvalue
p62
V1960
p63
ssa(dp64
g7
(dp65
Vtype
p66
Vuri
p67
sVvalue
p68
Vhttp://dbpedia.org/ontology/height
p69
ssg8
(dp70
Vdatatype
p71
Vhttp://www.w3.org/2001/XMLSchema#double
p72
sVtype
p73
Vtyped-literal
p74
sVvalue
p75
V23.7744
p76
ssa(dp77
g7
(dp78
Vtype
p79
Vuri
p80
sVvalue
p81
Vhttp://dbpedia.org/ontology/length
p82
ssg8
(dp83
Vdatatype
p84
Vhttp://www.w3.org/2001/XMLSchema#double
p85
sVtype
p86
Vtyped-literal
p87
sVvalue
p88
V170.688
p89
ssa(dp90
g7
(dp91
Vtype
p92
Vuri
p93
sVvalue
p94
Vhttp://dbpedia.org/ontology/openingYear
p95
ssg8
(dp96
Vdatatype
p97
Vhttp://www.w3.org/2001/XMLSchema#gYear
p98
sVtype
p99
Vtyped-literal
p100
sVvalue
p101
V1962
p102
ssasVordered
p103
I01
ss.