(dp0
Vhead
p1
(dp2
Vlink
p3
(lp4
sVvars
p5
(lp6
Vp
p7
aVo
p8
assVresults
p9
(dp10
Vdistinct
p11
I00
sVbindings
p12
(lp13
(dp14
g7
(dp15
Vtype
p16
Vuri
p17
sVvalue
p18
Vhttp://dbpedia.org/ontology/abbreviation
p19
ssg8
(dp20
Vtype
p21
Vliteral
p22
sVvalue
p23
VWMPTE
p24
ssa(dp25
g7
(dp26
Vtype
p27
Vuri
p28
sVvalue
p29
Vhttp://dbpedia.org/ontology/abstract
p30
ssg8
(dp31
Vxml:lang
p32
Ven
p33
sVtype
p34
Vliteral
p35
sVvalue
p36
VThe West Midlands Passenger Transport Executive (WMPTE) was the public body responsible for public transport in the West Midlands from 1969 until 2016. The organisation operated under the name Centro from 1990, and was publicly branded as Network West Midlands from 2005. Initially, WMPTE was also responsible for the operation of bus services within the West Midlands. However, following deregulation in 1986 it ceased operating services directly and assumed a purely coordinating role. WMPTE was dissolved in 2016 following the establishment of the West Midlands Combined Authority and its transport arm, Transport for West Midlands (TfWM).
p37
ssa(dp38
g7
(dp39
Vtype
p40
Vuri
p41
sVvalue
p42
Vhttp://dbpedia.org/ontology/extinctionDate
p43
ssg8
(dp44
Vdatatype
p45
Vhttp://www.w3.org/2001/XMLSchema#date
p46
sVtype
p47
Vtyped-literal
p48
sVvalue
p49
V2016-06-17
p50
ssa(dp51
g7
(dp52
Vtype
p53
Vuri
p54
sVvalue
p55
Vhttp://dbpedia.org/ontology/extinctionYear
p56
ssg8
(dp57
Vdatatype
p58
Vhttp://www.w3.org/2001/XMLSchema#gYear
p59
sVtype
p60
Vtyped-literal
p61
sVvalue
p62
V2016
p63
ssa(dp64
g7
(dp65
Vtype
p66
Vuri
p67
sVvalue
p68
Vhttp://dbpedia.org/ontology/formationDate
p69
ssg8
(dp70
Vdatatype
p71
Vhttp://www.w3.org/2001/XMLSchema#date
p72
sVtype
p73
Vtyped-literal
p74
sVvalue
p75
V1969-10-01
p76
ssa(dp77
g7
(dp78
Vtype
p79
Vuri
p80
sVvalue
p81
Vhttp://dbpedia.org/ontology/formationYear
p82
ssg8
(dp83
Vdatatype
p84
Vhttp://www.w3.org/2001/XMLSchema#gYear
p85
sVtype
p86
Vtyped-literal
p87
sVvalue
p88
V1969
p89
ssa(dp90
g7
(dp91
Vtype
p92
Vuri
p93
sVvalue
p94
Vhttp://dbpedia.org/ontology/purpose
p95
ssg8
(dp96
Vtype
p97
Vliteral
p98
sVvalue
p99
VPublic transport
p100
ssa(dp101
g7
(dp102
Vtype
p103
Vuri
p104
sVvalue
p105
Vhttp://dbpedia.org/ontology/status
p106
ssg8
(dp107
Vtype
p108
Vliteral
p109
sVvalue
p110
VDissolved
p111
ssasVordered
p112
I01
ss.