(dp0
Vhead
p1
(dp2
Vlink
p3
(lp4
sVvars
p5
(lp6
Vp
p7
aVo
p8
assVresults
p9
(dp10
Vdistinct
p11
I00
sVbindings
p12
(lp13
(dp14
g7
(dp15
Vtype
p16
Vuri
p17
sVvalue
p18
Vhttp://dbpedia.org/ontology/birthDate
p19
ssg8
(dp20
Vdatatype
p21
Vhttp://www.w3.org/2001/XMLSchema#date
p22
sVtype
p23
Vtyped-literal
p24
sVvalue
p25
V1950-10-24
p26
ssa(dp27
g7
(dp28
Vtype
p29
Vuri
p30
sVvalue
p31
Vhttp://dbpedia.org/ontology/abstract
p32
ssg8
(dp33
Vxml:lang
p34
Ven
p35
sVtype
p36
Vliteral
p37
sVvalue
p38
VJeffrey Evan Sevy (born October 24, 1950) was a lineman for six years in the NFL. In his amateur years, he played at Homestead High School then went to De Anza College before transferring to Cal. He was drafted by the Chicago Bears in the 12th round of the 1974 NFL draft. He played for the Bears for four seasons before ending his NFL career with the Seattle Seahawks in 1979 and 1980. Sevy also played for The Hawaiians of the World Football League in 1974 and the Washington Federals of the USFL in 1983 and 1984.
p39
ssa(dp40
g7
(dp41
Vtype
p42
Vuri
p43
sVvalue
p44
Vhttp://dbpedia.org/ontology/draftPick
p45
ssg8
(dp46
Vtype
p47
Vliteral
p48
sVvalue
p49
V290
p50
ssa(dp51
g7
(dp52
Vtype
p53
Vuri
p54
sVvalue
p55
Vhttp://dbpedia.org/ontology/draftRound
p56
ssg8
(dp57
Vtype
p58
Vliteral
p59
sVvalue
p60
V12
p61
ssa(dp62
g7
(dp63
Vtype
p64
Vuri
p65
sVvalue
p66
Vhttp://dbpedia.org/ontology/draftYear
p67
ssg8
(dp68
Vdatatype
p69
Vhttp://www.w3.org/2001/XMLSchema#gYear
p70
sVtype
p71
Vtyped-literal
p72
sVvalue
p73
V1974
p74
ssasVordered
p75
I01
ss.