(dp0
Vhead
p1
(dp2
Vlink
p3
(lp4
sVvars
p5
(lp6
Vp
p7
aVo
p8
assVresults
p9
(dp10
Vdistinct
p11
I00
sVbindings
p12
(lp13
(dp14
g7
(dp15
Vtype
p16
Vuri
p17
sVvalue
p18
Vhttp://dbpedia.org/ontology/abstract
p19
ssg8
(dp20
Vxml:lang
p21
Ven
p22
sVtype
p23
Vliteral
p24
sVvalue
p25
VBallymartle GAA (CLG Baile an Mhairtealaigh) is a Gaelic Athletic Association club based in the village of Riverstick in County Cork, Ireland. The club fields both Gaelic football and hurling teams in competitions organized by Cork County Board. The club is part of the Carrigdhoun division of Cork.The club has achieved most of its success in hurling.
p26
ssasVordered
p27
I01
ss.