(dp0
Vhead
p1
(dp2
Vlink
p3
(lp4
sVvars
p5
(lp6
Vp
p7
aVo
p8
assVresults
p9
(dp10
Vdistinct
p11
I00
sVbindings
p12
(lp13
(dp14
g7
(dp15
Vtype
p16
Vuri
p17
sVvalue
p18
Vhttp://dbpedia.org/ontology/abstract
p19
ssg8
(dp20
Vxml:lang
p21
Ven
p22
sVtype
p23
Vliteral
p24
sVvalue
p25
VFostoria High School is a public high school in Fostoria, Ohio. It is the largest high school in the Fostoria Community Schools district. Their nickname is the Redmen. They are currently members of the Northern Buckeye Conference.
p26
ssa(dp27
g7
(dp28
Vtype
p29
Vuri
p30
sVvalue
p31
Vhttp://dbpedia.org/ontology/mascot
p32
ssg8
(dp33
Vtype
p34
Vliteral
p35
sVvalue
p36
VRedmen
p37
ssa(dp38
g7
(dp39
Vtype
p40
Vuri
p41
sVvalue
p42
Vhttp://dbpedia.org/ontology/motto
p43
ssg8
(dp44
Vtype
p45
Vliteral
p46
sVvalue
p47
V"Watch  Your Time Folks"
p48
ssasVordered
p49
I01
ss.