(dp0
Vhead
p1
(dp2
Vlink
p3
(lp4
sVvars
p5
(lp6
Vp
p7
aVo
p8
assVresults
p9
(dp10
Vdistinct
p11
I00
sVbindings
p12
(lp13
(dp14
g7
(dp15
Vtype
p16
Vuri
p17
sVvalue
p18
Vhttp://dbpedia.org/ontology/birthDate
p19
ssg8
(dp20
Vdatatype
p21
Vhttp://www.w3.org/2001/XMLSchema#date
p22
sVtype
p23
Vtyped-literal
p24
sVvalue
p25
V1990-06-01
p26
ssa(dp27
g7
(dp28
Vtype
p29
Vuri
p30
sVvalue
p31
Vhttp://dbpedia.org/ontology/birthDate
p32
ssg8
(dp33
Vdatatype
p34
Vhttp://www.w3.org/2001/XMLSchema#date
p35
sVtype
p36
Vtyped-literal
p37
sVvalue
p38
V1990-6-1
p39
ssa(dp40
g7
(dp41
Vtype
p42
Vuri
p43
sVvalue
p44
Vhttp://dbpedia.org/ontology/Person/height
p45
ssg8
(dp46
Vdatatype
p47
Vhttp://dbpedia.org/datatype/centimetre
p48
sVtype
p49
Vtyped-literal
p50
sVvalue
p51
V177.0
p52
ssa(dp53
g7
(dp54
Vtype
p55
Vuri
p56
sVvalue
p57
Vhttp://dbpedia.org/ontology/Person/weight
p58
ssg8
(dp59
Vdatatype
p60
Vhttp://dbpedia.org/datatype/kilogram
p61
sVtype
p62
Vtyped-literal
p63
sVvalue
p64
V70.0
p65
ssa(dp66
g7
(dp67
Vtype
p68
Vuri
p69
sVvalue
p70
Vhttp://dbpedia.org/ontology/abstract
p71
ssg8
(dp72
Vxml:lang
p73
Vja
p74
sVtype
p75
Vliteral
p76
sVvalue
p77
V\u6df1\u6d25 \u82f1\u81e3\uff08\u3075\u304b\u3064 \u3072\u3067\u304a\u307f\u3001\u7537\u6027\u30011990\u5e746\u67081\u65e5 - \uff09\u306f\u3001\u8c4a\u7530\u5e02\u51fa\u8eab\u306e\u65e5\u672c\u306e\u30d0\u30ec\u30fc\u30dc\u30fc\u30eb\u9078\u624b\u3002V\u30d7\u30ec\u30df\u30a2\u30ea\u30fc\u30b0\u306e\u30d1\u30ca\u30bd\u30cb\u30c3\u30af\u30fb\u30d1\u30f3\u30b5\u30fc\u30ba\u6240\u5c5e\u3002
p78
ssa(dp79
g7
(dp80
Vtype
p81
Vuri
p82
sVvalue
p83
Vhttp://dbpedia.org/ontology/abstract
p84
ssg8
(dp85
Vxml:lang
p86
Ven
p87
sVtype
p88
Vliteral
p89
sVvalue
p90
VHideomi Fukatsu (born 1 June 1990) is a Japanese male volleyball player. With his club Panasonic Panthers he competed at the 2013 FIVB Volleyball Men's Club World Championship.
p91
ssa(dp92
g7
(dp93
Vtype
p94
Vuri
p95
sVvalue
p96
Vhttp://dbpedia.org/ontology/height
p97
ssg8
(dp98
Vdatatype
p99
Vhttp://www.w3.org/2001/XMLSchema#double
p100
sVtype
p101
Vtyped-literal
p102
sVvalue
p103
V1.77
p104
ssa(dp105
g7
(dp106
Vtype
p107
Vuri
p108
sVvalue
p109
Vhttp://dbpedia.org/ontology/weight
p110
ssg8
(dp111
Vdatatype
p112
Vhttp://www.w3.org/2001/XMLSchema#double
p113
sVtype
p114
Vtyped-literal
p115
sVvalue
p116
V70000.0
p117
ssasVordered
p118
I01
ss.