(dp0
Vhead
p1
(dp2
Vlink
p3
(lp4
sVvars
p5
(lp6
Vp
p7
aVo
p8
assVresults
p9
(dp10
Vdistinct
p11
I00
sVbindings
p12
(lp13
(dp14
g7
(dp15
Vtype
p16
Vuri
p17
sVvalue
p18
Vhttp://dbpedia.org/ontology/birthDate
p19
ssg8
(dp20
Vdatatype
p21
Vhttp://www.w3.org/2001/XMLSchema#date
p22
sVtype
p23
Vtyped-literal
p24
sVvalue
p25
V1973-11-12
p26
ssa(dp27
g7
(dp28
Vtype
p29
Vuri
p30
sVvalue
p31
Vhttp://dbpedia.org/ontology/Person/weight
p32
ssg8
(dp33
Vdatatype
p34
Vhttp://dbpedia.org/datatype/kilogram
p35
sVtype
p36
Vtyped-literal
p37
sVvalue
p38
V91.1736
p39
ssa(dp40
g7
(dp41
Vtype
p42
Vuri
p43
sVvalue
p44
Vhttp://dbpedia.org/ontology/abstract
p45
ssg8
(dp46
Vxml:lang
p47
Ven
p48
sVtype
p49
Vliteral
p50
sVvalue
p51
VDavid Matsos (born November 12, 1973) is a former Canadian professional ice hockey player. He is currently the interim head coach for the Sudbury Wolves in the Ontario Hockey League. On May 16, 1996, after winning a silver medal with Team Canada at the 1996 Men's World Ice Hockey Championships, Matsos signed a multi-year contract as a free agent with the Tampa Bay Lightning.
p52
ssa(dp53
g7
(dp54
Vtype
p55
Vuri
p56
sVvalue
p57
Vhttp://dbpedia.org/ontology/activeYearsEndYear
p58
ssg8
(dp59
Vdatatype
p60
Vhttp://www.w3.org/2001/XMLSchema#gYear
p61
sVtype
p62
Vtyped-literal
p63
sVvalue
p64
V2006
p65
ssa(dp66
g7
(dp67
Vtype
p68
Vuri
p69
sVvalue
p70
Vhttp://dbpedia.org/ontology/activeYearsStartYear
p71
ssg8
(dp72
Vdatatype
p73
Vhttp://www.w3.org/2001/XMLSchema#gYear
p74
sVtype
p75
Vtyped-literal
p76
sVvalue
p77
V1996
p78
ssa(dp79
g7
(dp80
Vtype
p81
Vuri
p82
sVvalue
p83
Vhttp://dbpedia.org/ontology/draft
p84
ssg8
(dp85
Vtype
p86
Vliteral
p87
sVvalue
p88
VUndrafted
p89
ssa(dp90
g7
(dp91
Vtype
p92
Vuri
p93
sVvalue
p94
Vhttp://dbpedia.org/ontology/height
p95
ssg8
(dp96
Vdatatype
p97
Vhttp://www.w3.org/2001/XMLSchema#double
p98
sVtype
p99
Vtyped-literal
p100
sVvalue
p101
V1.8542
p102
ssa(dp103
g7
(dp104
Vtype
p105
Vuri
p106
sVvalue
p107
Vhttp://dbpedia.org/ontology/shoots
p108
ssg8
(dp109
Vtype
p110
Vliteral
p111
sVvalue
p112
VRight
p113
ssa(dp114
g7
(dp115
Vtype
p116
Vuri
p117
sVvalue
p118
Vhttp://dbpedia.org/ontology/weight
p119
ssg8
(dp120
Vdatatype
p121
Vhttp://www.w3.org/2001/XMLSchema#double
p122
sVtype
p123
Vtyped-literal
p124
sVvalue
p125
V91173.6
p126
ssasVordered
p127
I01
ss.