(dp0
Vhead
p1
(dp2
Vlink
p3
(lp4
sVvars
p5
(lp6
Vp
p7
aVo
p8
assVresults
p9
(dp10
Vdistinct
p11
I00
sVbindings
p12
(lp13
(dp14
g7
(dp15
Vtype
p16
Vuri
p17
sVvalue
p18
Vhttp://dbpedia.org/ontology/abstract
p19
ssg8
(dp20
Vxml:lang
p21
Ven
p22
sVtype
p23
Vliteral
p24
sVvalue
p25
VChickasha Municipal Airport (IATA: CHK, ICAO: KCHK, FAA LID: CHK) is a city owned, public use airport located three nautical miles (6 km) northwest of the central business district of Chickasha, a city in Grady County, Oklahoma, United States. It is included in the National Plan of Integrated Airport Systems for 2011\u20132015, which categorized it as a general aviation facility.
p26
ssa(dp27
g7
(dp28
Vtype
p29
Vuri
p30
sVvalue
p31
Vhttp://dbpedia.org/ontology/elevation
p32
ssg8
(dp33
Vdatatype
p34
Vhttp://www.w3.org/2001/XMLSchema#double
p35
sVtype
p36
Vtyped-literal
p37
sVvalue
p38
V351.13
p39
ssa(dp40
g7
(dp41
Vtype
p42
Vuri
p43
sVvalue
p44
Vhttp://dbpedia.org/ontology/faaLocationIdentifier
p45
ssg8
(dp46
Vtype
p47
Vliteral
p48
sVvalue
p49
VCHK
p50
ssa(dp51
g7
(dp52
Vtype
p53
Vuri
p54
sVvalue
p55
Vhttp://dbpedia.org/ontology/iataLocationIdentifier
p56
ssg8
(dp57
Vtype
p58
Vliteral
p59
sVvalue
p60
VCHK
p61
ssa(dp62
g7
(dp63
Vtype
p64
Vuri
p65
sVvalue
p66
Vhttp://dbpedia.org/ontology/icaoLocationIdentifier
p67
ssg8
(dp68
Vtype
p69
Vliteral
p70
sVvalue
p71
VKCHK
p72
ssa(dp73
g7
(dp74
Vtype
p75
Vuri
p76
sVvalue
p77
Vhttp://dbpedia.org/ontology/runwayDesignation
p78
ssg8
(dp79
Vtype
p80
Vliteral
p81
sVvalue
p82
V17/35
p83
ssa(dp84
g7
(dp85
Vtype
p86
Vuri
p87
sVvalue
p88
Vhttp://dbpedia.org/ontology/runwayDesignation
p89
ssg8
(dp90
Vtype
p91
Vliteral
p92
sVvalue
p93
V18/36
p94
ssa(dp95
g7
(dp96
Vtype
p97
Vuri
p98
sVvalue
p99
Vhttp://dbpedia.org/ontology/runwayDesignation
p100
ssg8
(dp101
Vtype
p102
Vliteral
p103
sVvalue
p104
V2/20
p105
ssa(dp106
g7
(dp107
Vtype
p108
Vuri
p109
sVvalue
p110
Vhttp://dbpedia.org/ontology/runwayLength
p111
ssg8
(dp112
Vdatatype
p113
Vhttp://www.w3.org/2001/XMLSchema#double
p114
sVtype
p115
Vtyped-literal
p116
sVvalue
p117
V769.62
p118
ssa(dp119
g7
(dp120
Vtype
p121
Vuri
p122
sVvalue
p123
Vhttp://dbpedia.org/ontology/runwayLength
p124
ssg8
(dp125
Vdatatype
p126
Vhttp://www.w3.org/2001/XMLSchema#double
p127
sVtype
p128
Vtyped-literal
p129
sVvalue
p130
V865.632
p131
ssa(dp132
g7
(dp133
Vtype
p134
Vuri
p135
sVvalue
p136
Vhttp://dbpedia.org/ontology/runwayLength
p137
ssg8
(dp138
Vdatatype
p139
Vhttp://www.w3.org/2001/XMLSchema#double
p140
sVtype
p141
Vtyped-literal
p142
sVvalue
p143
V1554.78
p144
ssa(dp145
g7
(dp146
Vtype
p147
Vuri
p148
sVvalue
p149
Vhttp://dbpedia.org/ontology/runwaySurface
p150
ssg8
(dp151
Vtype
p152
Vliteral
p153
sVvalue
p154
VConcrete
p155
ssa(dp156
g7
(dp157
Vtype
p158
Vuri
p159
sVvalue
p160
Vhttp://dbpedia.org/ontology/runwaySurface
p161
ssg8
(dp162
Vtype
p163
Vliteral
p164
sVvalue
p165
VTurf
p166
ssasVordered
p167
I01
ss.