(dp0
Vhead
p1
(dp2
Vlink
p3
(lp4
sVvars
p5
(lp6
Vp
p7
aVo
p8
assVresults
p9
(dp10
Vdistinct
p11
I00
sVbindings
p12
(lp13
(dp14
g7
(dp15
Vtype
p16
Vuri
p17
sVvalue
p18
Vhttp://dbpedia.org/ontology/abstract
p19
ssg8
(dp20
Vxml:lang
p21
Ven
p22
sVtype
p23
Vliteral
p24
sVvalue
p25
VFarhad (Middle Persian: Frah\u0101t, Persian: \u0641\u0631\u0647\u0627\u062f\u200e\u200e), also transliterated Farhat, Ferhad or Farkhad is a Persian name meaning elation or happiness, and may refer to: \u000a* Farhad or Phraates, the name of 5 kings in the Arsacid Empire \u000a* Phraates I of Parthia \u000a* Phraates II of Parthia \u000a* Phraates III of Parthia \u000a* Phraates IV of Parthia \u000a* Phraates V of Parthia Other people with given name Farhad or Farkhat: \u000a* Farrhad Acidwalla, an Indian entrepreneur \u000a* Farkhad Akhmedov, Russian businessman of Azerbaijani origin \u000a* Farhad Aliyev, Azerbaijani politician \u000a* Farhad Badalbeyli, Azerbaijani pianist and composer \u000a* Farkhat Bazarov, Russian footballer \u000a* Farhad Daftary, Ismaili scholar \u000a* Farhad Darya, Afghan singer \u000a* Farhad Fakhreddini, Iranian composer \u000a* Farkhad Gystarov, Russian footballer \u000a* Farhad Kazemi, Iranian football manager \u000a* Farhad Khoiee-Abbasi, public protester in Chicago \u000a* Farkhad Magametov, Uzbek footballer \u000a* Farhad Majidi, Iranian footballer \u000a* Farhad Manjoo, American journalist and author \u000a* Farhad Mehrad, Iranian singer \u000a* Farhad Moshiri, British-Iranian businessman \u000a* Farhad Rahbar, Iranian politician \u000a* Farhad Veliyev, Azerbaijani footballer
p26
ssa(dp27
g7
(dp28
Vtype
p29
Vuri
p30
sVvalue
p31
Vhttp://dbpedia.org/ontology/abstract
p32
ssg8
(dp33
Vxml:lang
p34
Vja
p35
sVtype
p36
Vliteral
p37
sVvalue
p38
V\u30d5\u30a1\u30eb\u30cf\u30fc\u30c9\u3001\u30d5\u30a1\u30eb\u30cf\u30c9\u3001\u30d5\u30a7\u30eb\u30cf\u30c9 (\u30da\u30eb\u30b7\u30a2\u8a9e: \u0641\u0631\u0647\u0627\u062f\u200e\u3001\u30e9\u30c6\u30f3\u6587\u5b57:Farhad, Farkhad, Ferhad, Farkhod\u3001\u30ad\u30ea\u30eb\u6587\u5b57: \u0424\u0430\u0440\u0445\u0430\u0434) \u306f\u30da\u30eb\u30b7\u30a2\u8a9e\u3067\u300c\u559c\u3073\u300d\u3084\u300c\u9ad8\u63da\u300d\u3092\u8868\u3059\u5358\u8a9e\u3067\u3001\u7537\u6027\u306b\u3088\u304f\u7528\u3044\u3089\u308c\u308b\u540d\u524d\u3002\u73fe\u4ee3\u3067\u306f\u30a4\u30e9\u30f3\u3084\u30a2\u30bc\u30eb\u30d0\u30a4\u30b8\u30e3\u30f3\u306e\u307b\u304b\u3001\u30a2\u30d5\u30ac\u30cb\u30b9\u30bf\u30f3\u3001\u30a4\u30f3\u30c9\u3001\u30d1\u30ad\u30b9\u30bf\u30f3\u306a\u3069\u306e\u5357\u30a2\u30b8\u30a2\u3001\u30a6\u30ba\u30d9\u30ad\u30b9\u30bf\u30f3\u3001\u30ab\u30b6\u30d5\u30b9\u30bf\u30f3\u306a\u3069\u306e\u4e2d\u592e\u30a2\u30b8\u30a2\u3067\u7537\u6027\u540d\u306b\u7528\u3044\u3089\u308c\u308b\u3053\u3068\u304c\u591a\u3044\u3002 \u000a* \u30d5\u30a1\u30eb\u30cf\u30fc\u30c9 (\u30e9\u30c6\u30f3\u8a9e\u540d\uff1a\u30d5\u30e9\u30fc\u30c6\u30b9) - \u30a2\u30eb\u30b5\u30b1\u30b9\u671d\u30d1\u30eb\u30c6\u30a3\u30a2\u306e\u738b5\u4eba\u304c\u3053\u306e\u540d\u524d\u3092\u6301\u3064\u3002 \u000a* \u30d5\u30e9\u30fc\u30c6\u30b91\u4e16 \u000a* \u30d5\u30e9\u30fc\u30c6\u30b92\u4e16 \u000a* \u30d5\u30e9\u30fc\u30c6\u30b93\u4e16 \u000a* \u30d5\u30e9\u30fc\u30c6\u30b94\u4e16 \u000a* \u30d5\u30e9\u30fc\u30c6\u30b95\u4e16 \u4e00\u822c\u7684\u306a\u7537\u6027\u540d\u3068\u3057\u3066\u306f\u30d5\u30a1\u30eb\u30cf\u30fc\u30c9\u3001\u30d5\u30a1\u30eb\u30cf\u30c9\u3001\u30d5\u30a1\u30eb\u30cf\u30c8 (Farkhat) \u306a\u3069\u304c\u7528\u3044\u3089\u308c\u3066\u3044\u308b\u3002 \u000a* \u30d5\u30a1\u30eb\u30cf\u30fc\u30c9\u30fb\u30e9\u30d5\u30d0\u30eb, \u30a4\u30e9\u30f3\u306e\u653f\u6cbb\u5bb6\u3002 \u000a* \u30d5\u30a1\u30eb\u30cf\u30fc\u30c9\u30fb\u30c0\u30d5\u30bf\u30ea\u30fc, \u30a4\u30b9\u30de\u30fc\u30a4\u30fc\u30eb\u6d3e\u306e\u6cd5\u5b66\u8005\u3002 \u000a* \u30d5\u30a1\u30eb\u30cf\u30fc\u30c9\u30fb\u30d5\u30a1\u30d5\u30e9\u30fc\u30eb\u30c7\u30a3\u30fc\u30cb\u30fc, \u30a4\u30e9\u30f3\u306e\u4f5c\u66f2\u5bb6\u3002 \u000a* \u30d5\u30a1\u30eb\u30cf\u30fc\u30c9\u30fb\u30e1\u30d5\u30e9\u30fc\u30c9, \u30a4\u30e9\u30f3\u306e\u6b4c\u624b\u3002 \u000a* \u30d5\u30a1\u30eb\u30cf\u30fc\u30c9\u30fb\u30de\u30b8\u30fc\u30c7\u30a3\u30fc, \u30a4\u30e9\u30f3\u306e\u30b5\u30c3\u30ab\u30fc\u9078\u624b\u3002 \u000a* \u30d5\u30a1\u30eb\u30cf\u30fc\u30c9\u30fb\u30ab\u30fc\u30bc\u30df\u30fc, \u30a4\u30e9\u30f3\u306e\u30b5\u30c3\u30ab\u30fc\u76e3\u7763\u3002 \u000a* \u30d5\u30a1\u30eb\u30cf\u30fc\u30c9\u30fb\u30c0\u30fc\u30ea\u30e4\u30fc, \u30a2\u30d5\u30ac\u30cb\u30b9\u30bf\u30f3\u306e\u6b4c\u624b\u3002 \u000a* \u30d5\u30a1\u30eb\u30cf\u30c9\u30fb\u30a2\u30d5\u30e1\u30c9\u30d5, \u30a2\u30bc\u30eb\u30d0\u30a4\u30b8\u30e3\u30f3\u751f\u307e\u308c\u306e\u30ed\u30b7\u30a2\u306e\u5b9f\u696d\u5bb6\u3002 \u000a* \u30d5\u30a1\u30eb\u30cf\u30c9\u30fb\u30a2\u30ea\u30a4\u30a7\u30d5, \u30a2\u30bc\u30eb\u30d0\u30a4\u30b8\u30e3\u30f3\u306e\u653f\u6cbb\u5bb6\u3002 \u000a* \u30d5\u30a1\u30eb\u30cf\u30c9\u30fb\u30d0\u30c0\u30eb\u30d9\u30a4\u30ea, \u30a2\u30bc\u30eb\u30d0\u30a4\u30b8\u30e3\u30f3\u306e\u30d4\u30a2\u30cb\u30b9\u30c8\u3001\u4f5c\u66f2\u5bb6\u3002 \u000a* \u30d5\u30a1\u30eb\u30cf\u30c8\u30fb\u30d0\u30b6\u30fc\u30ed\u30d5, \u30ed\u30b7\u30a2\u306e\u30b5\u30c3\u30ab\u30fc\u9078\u624b\u3002 \u000a* \u30d5\u30a1\u30eb\u30cf\u30c9\u30fb\u30ae\u30b9\u30bf\u30ed\u30d5, \u30ed\u30b7\u30a2\u306e\u30b5\u30c3\u30ab\u30fc\u9078\u624b\u3002 \u000a* \u30d5\u30a1\u30eb\u30cf\u30c9\u30fb\u30db\u30a4\u30a8\u30fc\uff1d\u30a2\u30c3\u30d0\u30fc\u30b7\u30fc, \u30b7\u30ab\u30b4\u306e\u30c7\u30e2\u6d3b\u52d5\u5bb6\u3002 \u000a* \u30d5\u30a1\u30eb\u30cf\u30c9\u30fb\u30de\u30ac\u30e1\u30c8\u30d5, \u30a6\u30ba\u30d9\u30ad\u30b9\u30bf\u30f3\u306e\u30b5\u30c3\u30ab\u30fc\u9078\u624b\u3002 \u000a* \u30d5\u30a1\u30eb\u30cf\u30c9\u30fb\u30de\u30f3\u30b8\u30e5\u30fc, \u30a2\u30e1\u30ea\u30ab\u5408\u8846\u56fd\u306e\u30b8\u30e3\u30fc\u30ca\u30ea\u30b9\u30c8\u3001\u4f5c\u5bb6\u3002 \u000a* \u30d5\u30a1\u30eb\u30cf\u30c9\u30fb\u30e2\u30b7\u30ea, \u30a4\u30ae\u30ea\u30b9\u30fb\u30a4\u30e9\u30f3\u306e\u5b9f\u696d\u5bb6\u3002 \u000a* \u30d5\u30a1\u30eb\u30cf\u30c9\u30fb\u30f4\u30a7\u30ea\u30a4\u30a7\u30d5, \u30a2\u30bc\u30eb\u30d0\u30a4\u30b8\u30e3\u30f3\u306e\u30b5\u30c3\u30ab\u30fc\u9078\u624b\u3002\u305d\u306e\u4ed6 \u000a* \u30db\u30b9\u30ed\u30fc\u3068\u30b7\u30fc\u30ea\u30fc\u30f3 - \u30b5\u30fc\u30b5\u30fc\u30f3\u671d\u306e\u738b\u30db\u30b9\u30ed\u30fc2\u4e16\u3068\u7f8e\u5973\u30b7\u30fc\u30ea\u30fc\u30f3\u306e\u60b2\u5287\u7684\u306a\u604b\u3092\u63cf\u3044\u305f\u53d9\u4e8b\u8a69\u3002\u300c\u30d5\u30a1\u30eb\u30cf\u30fc\u30c9\u3068\u30b7\u30fc\u30ea\u30fc\u30f3\u300d\u306e\u540d\u524d\u3067\u3082\u77e5\u3089\u308c\u308b\u3002
p39
ssasVordered
p40
I01
ss.