(dp0
Vhead
p1
(dp2
Vlink
p3
(lp4
sVvars
p5
(lp6
Vp
p7
aVo
p8
assVresults
p9
(dp10
Vdistinct
p11
I00
sVbindings
p12
(lp13
(dp14
g7
(dp15
Vtype
p16
Vuri
p17
sVvalue
p18
Vhttp://dbpedia.org/ontology/abstract
p19
ssg8
(dp20
Vxml:lang
p21
Ven
p22
sVtype
p23
Vliteral
p24
sVvalue
p25
VThe American Swedish Institute (ASI) is a museum and cultural center in the Phillips West neighborhood of Minneapolis, Minnesota, United States. The organization is dedicated to the preservation and study of the historic role Sweden and Americans of Swedish heritage have played in US culture and history. The museum complex includes the Swan Turnblad Mansion, completed in 1910, and the adjoining Nelson Cultural Center, completed in 2012. Today, ASI serves as a gathering place for all people to share experiences around themes of culture, migration, the environment and the arts, informed by enduring links to Sweden. The museum offers exhibitions from Sweden and the Nordic region, programming for youth and family and in recent years, has expanded its performing arts offerings to critical acclaim. The museum's restaurant, FIKA, was named "Best Lunch In Minnesota" by the Minneapolis Star Tribune in 2013 for its New Nordic cuisine. The museum also features a highly acclaimed Museum Store.
p26
ssa(dp27
g7
(dp28
Vtype
p29
Vuri
p30
sVvalue
p31
Vhttp://dbpedia.org/ontology/abstract
p32
ssg8
(dp33
Vxml:lang
p34
Vzh
p35
sVtype
p36
Vliteral
p37
sVvalue
p38
V\u7f8e\u56fd\u745e\u5178\u5b66\u4f1a\uff08American Swedish Institute\uff09\u662f\u4e00\u4e2a\u975e\u8425\u5229\u6027\u7684\u6559\u80b2\u548c\u7814\u7a76\u673a\u6784\u548c\u535a\u7269\u9986\uff0c\u4f4d\u4e8e\u7f8e\u56fd\u660e\u5c3c\u82cf\u8fbe\u5dde\u660e\u5c3c\u963f\u6ce2\u5229\u65af\u3002\u8be5\u7ec4\u7ec7\u81f4\u529b\u4e8e\u4fdd\u62a4\u548c\u7814\u7a76\u745e\u5178\u548c\u745e\u5178\u88d4\u7f8e\u570b\u4eba\u5728\u7f8e\u56fd\u6587\u5316\u548c\u5386\u53f2\u4e2d\u7684\u5386\u53f2\u89d2\u8272\u3002\u5305\u62ec\u201c\u65af\u7ef4\u4ff1\u4e50\u90e8\u201d\uff08Svea Club\uff09\uff0c\u745e\u5178\u8bed\u6559\u80b2\u534f\u4f1a\u548c Turnblad Mansion\u535a\u7269\u9986\uff0c\u8bbe\u6709\u5c55\u89c8\u548c\u7279\u522b\u6d3b\u52a8\u3002
p39
ssa(dp40
g7
(dp41
Vtype
p42
Vuri
p43
sVvalue
p44
Vhttp://dbpedia.org/ontology/added
p45
ssg8
(dp46
Vdatatype
p47
Vhttp://www.w3.org/2001/XMLSchema#date
p48
sVtype
p49
Vtyped-literal
p50
sVvalue
p51
V1971-08-26
p52
ssa(dp53
g7
(dp54
Vtype
p55
Vuri
p56
sVvalue
p57
Vhttp://dbpedia.org/ontology/nrhpReferenceNumber
p58
ssg8
(dp59
Vtype
p60
Vliteral
p61
sVvalue
p62
V71000436
p63
ssa(dp64
g7
(dp65
Vtype
p66
Vuri
p67
sVvalue
p68
Vhttp://dbpedia.org/ontology/yearOfConstruction
p69
ssg8
(dp70
Vdatatype
p71
Vhttp://www.w3.org/2001/XMLSchema#gYear
p72
sVtype
p73
Vtyped-literal
p74
sVvalue
p75
V1903
p76
ssasVordered
p77
I01
ss.