(dp0
Vhead
p1
(dp2
Vlink
p3
(lp4
sVvars
p5
(lp6
Vp
p7
aVo
p8
assVresults
p9
(dp10
Vdistinct
p11
I00
sVbindings
p12
(lp13
(dp14
g7
(dp15
Vtype
p16
Vuri
p17
sVvalue
p18
Vhttp://dbpedia.org/ontology/abstract
p19
ssg8
(dp20
Vxml:lang
p21
Ven
p22
sVtype
p23
Vliteral
p24
sVvalue
p25
VThe Royal Free Hospital (also known simply as the Royal Free) is a major teaching hospital in Hampstead, London. The hospital is part of the Royal Free London NHS Foundation Trust, which is a member of the UCL Partners academic health science centre and also runs services at Barnet Hospital, Chase Farm Hospital and a number of other sites. It was rated 'excellent' for quality of services and 'good' for quality of financial management by the Healthcare Commission in 2009. The nearest London Underground station is Belsize Park, and the hospital is situated very near Hampstead Heath station on the London Overground.
p26
ssa(dp27
g7
(dp28
Vtype
p29
Vuri
p30
sVvalue
p31
Vhttp://dbpedia.org/ontology/bedCount
p32
ssg8
(dp33
Vdatatype
p34
Vhttp://www.w3.org/2001/XMLSchema#nonNegativeInteger
p35
sVtype
p36
Vtyped-literal
p37
sVvalue
p38
V839
p39
ssa(dp40
g7
(dp41
Vtype
p42
Vuri
p43
sVvalue
p44
Vhttp://dbpedia.org/ontology/openingYear
p45
ssg8
(dp46
Vdatatype
p47
Vhttp://www.w3.org/2001/XMLSchema#gYear
p48
sVtype
p49
Vtyped-literal
p50
sVvalue
p51
V1828
p52
ssasVordered
p53
I01
ss.