(dp0
Vhead
p1
(dp2
Vlink
p3
(lp4
sVvars
p5
(lp6
Vp
p7
aVo
p8
assVresults
p9
(dp10
Vdistinct
p11
I00
sVbindings
p12
(lp13
(dp14
g7
(dp15
Vtype
p16
Vuri
p17
sVvalue
p18
Vhttp://dbpedia.org/ontology/PopulatedPlace/areaTotal
p19
ssg8
(dp20
Vdatatype
p21
Vhttp://dbpedia.org/datatype/squareKilometre
p22
sVtype
p23
Vtyped-literal
p24
sVvalue
p25
V0.06252
p26
ssa(dp27
g7
(dp28
Vtype
p29
Vuri
p30
sVvalue
p31
Vhttp://dbpedia.org/ontology/abstract
p32
ssg8
(dp33
Vxml:lang
p34
Vja
p35
sVtype
p36
Vliteral
p37
sVvalue
p38
V\u516b\u4e08\u5c0f\u5cf6\uff08\u306f\u3061\u3058\u3087\u3046\u3053\u3058\u307e\uff09\u306f\u4f0a\u8c46\u8af8\u5cf6\u306e\u5cf6\u3002\u884c\u653f\u4e0a\u306f\u6771\u4eac\u90fd\u516b\u4e08\u753a\u306b\u5c5e\u3059\u308b\u3002\u4f4f\u6c11\u306e\u96c6\u56e3\u96e2\u5cf6\u306e\u30e2\u30c7\u30eb\u3068\u3057\u3066\u5c0f\u5b66\u6821\u7b49\u306e\u6559\u79d1\u66f8\u3067\u7d39\u4ecb\u3055\u308c\u308b\u3053\u3068\u304c\u3042\u308b\u3002
p39
ssa(dp40
g7
(dp41
Vtype
p42
Vuri
p43
sVvalue
p44
Vhttp://dbpedia.org/ontology/abstract
p45
ssg8
(dp46
Vxml:lang
p47
Vzh
p48
sVtype
p49
Vliteral
p50
sVvalue
p51
V\u516b\u4e08\u5c0f\u5cf6\u70ba\u65e5\u672c\u4f0a\u8c46\u7fa4\u5cf6\u5176\u4e2d\u7684\u4e00\u500b\u5cf6\u5dbc\uff0c\u884c\u653f\u5340\u57df\u5c6c\u65bc\u6771\u4eac\u90fd\u516b\u4e08\u753a\u3002 \u516b\u4e08\u5c0f\u5cf6\u9762\u7a4d\u70ba3.08\u5e73\u65b9\u516c\u91cc\uff0c\u4f4d\u65bc\u516b\u4e08\u5cf6\u897f\u65b9\u3002\u516b\u4e08\u5c0f\u5cf6\u66fe\u7d93\u6709\u6c11\u773e\u5c45\u4f4f\uff0c1969\u5e74\u5cf6\u6c11\u96c6\u9ad4\u642c\u9077\u81f3\u516b\u4e08\u5cf6\u5f8c\uff0c\u516b\u4e08\u5c0f\u5cf6\u6210\u70ba\u7121\u4eba\u5cf6\u3002 1707\u5e74\u516b\u4e08\u5c0f\u5cf6\u66fe\u56e0\u5bf6\u6c38\u5730\u9707\u53d7\u5230\u6d77\u562f\u8972\u64ca\u3002
p52
ssa(dp53
g7
(dp54
Vtype
p55
Vuri
p56
sVvalue
p57
Vhttp://dbpedia.org/ontology/abstract
p58
ssg8
(dp59
Vxml:lang
p60
Ven
p61
sVtype
p62
Vliteral
p63
sVvalue
p64
VHachij\u014d-kojima (\u516b\u4e08\u5c0f\u5cf6) is a small volcanic deserted island in the Philippine Sea approximately 287 kilometres (178 mi) south of Tokyo and 7.5 kilometres (4.7 mi) west of Hachij\u014d-jima, in the northern Izu archipelago, Japan. Administratively the island is within Hachij\u014d, Tokyo, Japan.
p65
ssa(dp66
g7
(dp67
Vtype
p68
Vuri
p69
sVvalue
p70
Vhttp://dbpedia.org/ontology/areaTotal
p71
ssg8
(dp72
Vdatatype
p73
Vhttp://www.w3.org/2001/XMLSchema#double
p74
sVtype
p75
Vtyped-literal
p76
sVvalue
p77
V62520.0
p78
ssa(dp79
g7
(dp80
Vtype
p81
Vuri
p82
sVvalue
p83
Vhttp://dbpedia.org/ontology/elevation
p84
ssg8
(dp85
Vdatatype
p86
Vhttp://www.w3.org/2001/XMLSchema#double
p87
sVtype
p88
Vtyped-literal
p89
sVvalue
p90
V616.8
p91
ssa(dp92
g7
(dp93
Vtype
p94
Vuri
p95
sVvalue
p96
Vhttp://dbpedia.org/ontology/length
p97
ssg8
(dp98
Vdatatype
p99
Vhttp://www.w3.org/2001/XMLSchema#double
p100
sVtype
p101
Vtyped-literal
p102
sVvalue
p103
V3000.0
p104
ssa(dp105
g7
(dp106
Vtype
p107
Vuri
p108
sVvalue
p109
Vhttp://dbpedia.org/ontology/populationTotal
p110
ssg8
(dp111
Vdatatype
p112
Vhttp://www.w3.org/2001/XMLSchema#nonNegativeInteger
p113
sVtype
p114
Vtyped-literal
p115
sVvalue
p116
V0
p117
ssasVordered
p118
I01
ss.