(dp0
Vhead
p1
(dp2
Vlink
p3
(lp4
sVvars
p5
(lp6
Vp
p7
aVo
p8
assVresults
p9
(dp10
Vdistinct
p11
I00
sVbindings
p12
(lp13
(dp14
g7
(dp15
Vtype
p16
Vuri
p17
sVvalue
p18
Vhttp://dbpedia.org/ontology/abstract
p19
ssg8
(dp20
Vxml:lang
p21
Vde
p22
sVtype
p23
Vliteral
p24
sVvalue
p25
VAtlantic Media ist ein privater amerikanischer Medienkonzern im Besitz von David G. Bradley. Er gibt die Zeitschriften The Atlantic, Government Executive, Defense One sowie das Onlineportal Quartz heraus. Die Tochtergesellschaft National Journal Group gibt das National Journal, The Hotline, National Journal Daily und Technology Daily heraus. Von 1984 bis 2014 erschien bei ihr The Almanac of American Politics.
p26
ssa(dp27
g7
(dp28
Vtype
p29
Vuri
p30
sVvalue
p31
Vhttp://dbpedia.org/ontology/abstract
p32
ssg8
(dp33
Vxml:lang
p34
Ven
p35
sVtype
p36
Vliteral
p37
sVvalue
p38
VAtlantic Media is an American print and online media company owned by David G. Bradley and based in the Watergate in Washington, D.C. The company publishes several prominent news magazines and digital publications including The Atlantic, Quartz, Government Executive, Defense One and those belonging to its National Journal Group subsidiary: National Journal, The Hotline, National Journal Daily (previously known as Congress Daily), and Technology Daily. The National Journal Group also publishes books and directories, the most known of which is the biennial Almanac of American Politics.
p39
ssa(dp40
g7
(dp41
Vtype
p42
Vuri
p43
sVvalue
p44
Vhttp://dbpedia.org/ontology/numberOfEmployees
p45
ssg8
(dp46
Vdatatype
p47
Vhttp://www.w3.org/2001/XMLSchema#nonNegativeInteger
p48
sVtype
p49
Vtyped-literal
p50
sVvalue
p51
V469
p52
ssasVordered
p53
I01
ss.