(dp0
Vhead
p1
(dp2
Vlink
p3
(lp4
sVvars
p5
(lp6
Vp
p7
aVo
p8
assVresults
p9
(dp10
Vdistinct
p11
I00
sVbindings
p12
(lp13
(dp14
g7
(dp15
Vtype
p16
Vuri
p17
sVvalue
p18
Vhttp://dbpedia.org/ontology/Infrastructure/length
p19
ssg8
(dp20
Vdatatype
p21
Vhttp://dbpedia.org/datatype/kilometre
p22
sVtype
p23
Vtyped-literal
p24
sVvalue
p25
V1.92
p26
ssa(dp27
g7
(dp28
Vtype
p29
Vuri
p30
sVvalue
p31
Vhttp://dbpedia.org/ontology/abstract
p32
ssg8
(dp33
Vxml:lang
p34
Ven
p35
sVtype
p36
Vliteral
p37
sVvalue
p38
VThe Basarab Overpass (Romanian: Pasajul Basarab) is a road overpass in Bucharest, Romania, connecting Nicolae Titulescu blvd. and Groz\u01ceve\u015fti Road, part of Bucharest's inner city ring. The construction was undertaken by FCC and Astaldi. On 17 June 2011, the overpass was officially inaugurated, and was opened to traffic on 19 June. The project was completed in August 2011, when ramps and elevators for the tram stations were installed. The bridge now accommodates the number 1 tram line, the only circular tram line in Bucharest that follows the inner traffic circle of the city.
p39
ssa(dp40
g7
(dp41
Vtype
p42
Vuri
p43
sVvalue
p44
Vhttp://dbpedia.org/ontology/bridgeCarries
p45
ssg8
(dp46
Vtype
p47
Vliteral
p48
sVvalue
p49
VMotor vehicles,pedestrians,trams
p50
ssa(dp51
g7
(dp52
Vtype
p53
Vuri
p54
sVvalue
p55
Vhttp://dbpedia.org/ontology/buildingEndDate
p56
ssg8
(dp57
Vtype
p58
Vliteral
p59
sVvalue
p60
VAugust 2011
p61
ssa(dp62
g7
(dp63
Vtype
p64
Vuri
p65
sVvalue
p66
Vhttp://dbpedia.org/ontology/buildingStartDate
p67
ssg8
(dp68
Vtype
p69
Vliteral
p70
sVvalue
p71
VNovember 2006
p72
ssa(dp73
g7
(dp74
Vtype
p75
Vuri
p76
sVvalue
p77
Vhttp://dbpedia.org/ontology/length
p78
ssg8
(dp79
Vdatatype
p80
Vhttp://www.w3.org/2001/XMLSchema#double
p81
sVtype
p82
Vtyped-literal
p83
sVvalue
p84
V1920.0
p85
ssa(dp86
g7
(dp87
Vtype
p88
Vuri
p89
sVvalue
p90
Vhttp://dbpedia.org/ontology/openingDate
p91
ssg8
(dp92
Vdatatype
p93
Vhttp://www.w3.org/2001/XMLSchema#date
p94
sVtype
p95
Vtyped-literal
p96
sVvalue
p97
V2011-06-19
p98
ssa(dp99
g7
(dp100
Vtype
p101
Vuri
p102
sVvalue
p103
Vhttp://dbpedia.org/ontology/openingYear
p104
ssg8
(dp105
Vdatatype
p106
Vhttp://www.w3.org/2001/XMLSchema#gYear
p107
sVtype
p108
Vtyped-literal
p109
sVvalue
p110
V2011
p111
ssa(dp112
g7
(dp113
Vtype
p114
Vuri
p115
sVvalue
p116
Vhttp://dbpedia.org/ontology/width
p117
ssg8
(dp118
Vdatatype
p119
Vhttp://www.w3.org/2001/XMLSchema#double
p120
sVtype
p121
Vtyped-literal
p122
sVvalue
p123
V43.3
p124
ssasVordered
p125
I01
ss.