(dp0
Vhead
p1
(dp2
Vlink
p3
(lp4
sVvars
p5
(lp6
Vp
p7
aVo
p8
assVresults
p9
(dp10
Vdistinct
p11
I00
sVbindings
p12
(lp13
(dp14
g7
(dp15
Vtype
p16
Vuri
p17
sVvalue
p18
Vhttp://dbpedia.org/ontology/Infrastructure/length
p19
ssg8
(dp20
Vdatatype
p21
Vhttp://dbpedia.org/datatype/kilometre
p22
sVtype
p23
Vtyped-literal
p24
sVvalue
p25
V0.06858
p26
ssa(dp27
g7
(dp28
Vtype
p29
Vuri
p30
sVvalue
p31
Vhttp://dbpedia.org/ontology/abstract
p32
ssg8
(dp33
Vxml:lang
p34
Ven
p35
sVtype
p36
Vliteral
p37
sVvalue
p38
VThe Walden Veterans' Memorial Bridge, sometimes referred as the Walden High Bridge, from its predecessor, carries NY 52 over the Wallkill River in the Orange County village of Walden, New York, United States. It is the more heavily used of the two bridges in the village. The current bridge was built between 2003 and 2005 when its predecessor, a steel truss bridge built in the 1920s, had to be completely torn down due to severe deterioration of the support foundations. While construction was underway, traffic on Route 52 was diverted down Oak Street to the Walden Low Bridge. The new bridge features some architectural improvements, such as lighting and wide sidewalks on both sides. The bridge was officially renamed in honor of the village's war veterans under state law passed in 2004.Banners naming individual residents and commemorating their service flutter from the decorative lampposts along the bridge.
p39
ssa(dp40
g7
(dp41
Vtype
p42
Vuri
p43
sVvalue
p44
Vhttp://dbpedia.org/ontology/bridgeCarries
p45
ssg8
(dp46
Vtype
p47
Vliteral
p48
sVvalue
p49
VTwo lanes of
p50
ssa(dp51
g7
(dp52
Vtype
p53
Vuri
p54
sVvalue
p55
Vhttp://dbpedia.org/ontology/length
p56
ssg8
(dp57
Vdatatype
p58
Vhttp://www.w3.org/2001/XMLSchema#double
p59
sVtype
p60
Vtyped-literal
p61
sVvalue
p62
V68.58
p63
ssa(dp64
g7
(dp65
Vtype
p66
Vuri
p67
sVvalue
p68
Vhttp://dbpedia.org/ontology/openingYear
p69
ssg8
(dp70
Vdatatype
p71
Vhttp://www.w3.org/2001/XMLSchema#gYear
p72
sVtype
p73
Vtyped-literal
p74
sVvalue
p75
V2005
p76
ssa(dp77
g7
(dp78
Vtype
p79
Vuri
p80
sVvalue
p81
Vhttp://dbpedia.org/ontology/unitedStatesNationalBridgeId
p82
ssg8
(dp83
Vtype
p84
Vliteral
p85
sVvalue
p86
V000000001026680
p87
ssa(dp88
g7
(dp89
Vtype
p90
Vuri
p91
sVvalue
p92
Vhttp://dbpedia.org/ontology/vehiclesPerDay
p93
ssg8
(dp94
Vdatatype
p95
Vhttp://www.w3.org/2001/XMLSchema#nonNegativeInteger
p96
sVtype
p97
Vtyped-literal
p98
sVvalue
p99
V10929
p100
ssa(dp101
g7
(dp102
Vtype
p103
Vuri
p104
sVvalue
p105
Vhttp://dbpedia.org/ontology/width
p106
ssg8
(dp107
Vdatatype
p108
Vhttp://www.w3.org/2001/XMLSchema#double
p109
sVtype
p110
Vtyped-literal
p111
sVvalue
p112
V13.1064
p113
ssasVordered
p114
I01
ss.