(dp0
Vhead
p1
(dp2
Vlink
p3
(lp4
sVvars
p5
(lp6
Vp
p7
aVo
p8
assVresults
p9
(dp10
Vdistinct
p11
I00
sVbindings
p12
(lp13
(dp14
g7
(dp15
Vtype
p16
Vuri
p17
sVvalue
p18
Vhttp://dbpedia.org/ontology/abstract
p19
ssg8
(dp20
Vxml:lang
p21
Ven
p22
sVtype
p23
Vliteral
p24
sVvalue
p25
VThis list of prehistoric barnacles is an attempt to create a comprehensive listing of all genera that have ever been considered to be barnacles, excluding purely vernacular terms: \u000a* Acasta \u000a* Actinobalanus \u000a* Aporolepas \u000a* Archaeolepas \u000a* Arcoscalpellum \u000a* Armatobalanus \u000a* Arossia \u000a* Austrobalanus \u000a* Austromegabalanus \u000a* Austrominius \u000a* Balanus \u000a* Bassettina \u000a* Bathylasma \u000a* Blastolepas \u000a* Brachylepas \u000a* Bryozobia \u000a* Calantica \u000a* Catolasmus \u000a* Catomerus \u000a* Catophragmus \u000a* Ceratoconcha \u000a* Chamaesipho \u000a* Chelonibia \u000a* Chesaconcavus \u000a* Chionelasmus \u000a* Chirona \u000a* Chthamalus \u000a* Concavus \u000a* Coronula \u000a* Cretiscalpellum \u000a* Creusia \u000a* Cryptolepas \u000a* Cyprilepas \u000a* Dosima \u000a* Elminius \u000a* Emersonius \u000a* Endosacculus \u000a* Eoacasta \u000a* Eoceratoconcha \u000a* Eolasma \u000a* Eolepas \u000a* Eoverruca \u000a* Epopella \u000a* Euscalpellum \u000a* Fistulobalanus \u000a* Fosterella \u000a* Graviscalpellum \u000a* Hesperibalanus \u000a* Hexechamaesipho \u000a* Hexelasma \u000a* Ibla \u000a* Illilepas \u000a* Kathpalmeria \u000a* Lepas \u000a* Lophobalanus \u000a* Loriculina \u000a* Mclellania \u000a* Megabalanus \u000a* Membranobalanus \u000a* Mesolasma \u000a* Mesoscalpellum \u000a* Neolepas \u000a* Neoscalpellum \u000a* Nesochthamalus \u000a* Notobalanus \u000a* Notochthamalus \u000a* Octomeris \u000a* Oxynaspis \u000a* Pachydiadema \u000a* Pachylasma \u000a* Palaeobalanus \u000a* Paraconcavus \u000a* Pectinoacasta \u000a* Platylepas \u000a* Poecilasma \u000a* Pollicipes \u000a* Priscansermarinus \u000a* Proverruca \u000a* Pseudoacasta \u000a* Pseudoctomeris \u000a* Pycnolepas \u000a* Pyrgoma \u000a* Rehderella \u000a* Rogerella \u000a* Scalpellum \u000a* Schreteriella \u000a* Scillaelepas \u000a* Semibalanus \u000a* Smilium \u000a* Solidobalanus \u000a* Stramentum \u000a* Tamiosoma \u000a* Tasmanobalanus \u000a* Tessarelasma \u000a* Tesseroplax \u000a* Tesseropora \u000a* Tetraclita \u000a* Tetrinis \u000a* Titanolepas \u000a* Trilasmis \u000a* Trypetesa \u000a* Ulophysema \u000a* Verruca \u000a* Virgiscalpellum \u000a* Waikalasma \u000a* Waiparaconus \u000a* Zeascalpellum \u000a* Zeugmatolepas
p26
ssasVordered
p27
I01
ss.