(dp0
Vhead
p1
(dp2
Vlink
p3
(lp4
sVvars
p5
(lp6
Vp
p7
aVo
p8
assVresults
p9
(dp10
Vdistinct
p11
I00
sVbindings
p12
(lp13
(dp14
g7
(dp15
Vtype
p16
Vuri
p17
sVvalue
p18
Vhttp://dbpedia.org/ontology/abstract
p19
ssg8
(dp20
Vxml:lang
p21
Ven
p22
sVtype
p23
Vliteral
p24
sVvalue
p25
VGrant County Airport (IATA: SVC, ICAO: KSVC, FAA LID: SVC) is a county owned, public use airport in Grant County, New Mexico, United States. It is located 10 nautical miles (12 mi, 19 km) southeast of the central business district of Silver City, New Mexico. The airport is mostly used for general aviation, but is also served by one commercial airline. Service is subsidized by the Essential Air Service program. As per Federal Aviation Administration records, the airport had 2,607 passenger boardings (enplanements) in calendar year 2008, 1,860 enplanements in 2009, and 1,501 in 2010. It is included in the National Plan of Integrated Airport Systems for 2011\u20132015, which categorized it as a non-primary commercial service airport (between 2,500 and 10,000 enplanements per year).
p26
ssa(dp27
g7
(dp28
Vtype
p29
Vuri
p30
sVvalue
p31
Vhttp://dbpedia.org/ontology/elevation
p32
ssg8
(dp33
Vdatatype
p34
Vhttp://www.w3.org/2001/XMLSchema#double
p35
sVtype
p36
Vtyped-literal
p37
sVvalue
p38
V1659.94
p39
ssa(dp40
g7
(dp41
Vtype
p42
Vuri
p43
sVvalue
p44
Vhttp://dbpedia.org/ontology/faaLocationIdentifier
p45
ssg8
(dp46
Vtype
p47
Vliteral
p48
sVvalue
p49
VSVC
p50
ssa(dp51
g7
(dp52
Vtype
p53
Vuri
p54
sVvalue
p55
Vhttp://dbpedia.org/ontology/iataLocationIdentifier
p56
ssg8
(dp57
Vtype
p58
Vliteral
p59
sVvalue
p60
VSVC
p61
ssa(dp62
g7
(dp63
Vtype
p64
Vuri
p65
sVvalue
p66
Vhttp://dbpedia.org/ontology/icaoLocationIdentifier
p67
ssg8
(dp68
Vtype
p69
Vliteral
p70
sVvalue
p71
VKSVC
p72
ssa(dp73
g7
(dp74
Vtype
p75
Vuri
p76
sVvalue
p77
Vhttp://dbpedia.org/ontology/runwayDesignation
p78
ssg8
(dp79
Vtype
p80
Vliteral
p81
sVvalue
p82
V12/30
p83
ssa(dp84
g7
(dp85
Vtype
p86
Vuri
p87
sVvalue
p88
Vhttp://dbpedia.org/ontology/runwayDesignation
p89
ssg8
(dp90
Vtype
p91
Vliteral
p92
sVvalue
p93
V8/26
p94
ssa(dp95
g7
(dp96
Vtype
p97
Vuri
p98
sVvalue
p99
Vhttp://dbpedia.org/ontology/runwayDesignation
p100
ssg8
(dp101
Vtype
p102
Vliteral
p103
sVvalue
p104
V17/35
p105
ssa(dp106
g7
(dp107
Vtype
p108
Vuri
p109
sVvalue
p110
Vhttp://dbpedia.org/ontology/runwayDesignation
p111
ssg8
(dp112
Vtype
p113
Vliteral
p114
sVvalue
p115
V3/21
p116
ssa(dp117
g7
(dp118
Vtype
p119
Vuri
p120
sVvalue
p121
Vhttp://dbpedia.org/ontology/runwayLength
p122
ssg8
(dp123
Vdatatype
p124
Vhttp://www.w3.org/2001/XMLSchema#double
p125
sVtype
p126
Vtyped-literal
p127
sVvalue
p128
V1382.88
p129
ssa(dp130
g7
(dp131
Vtype
p132
Vuri
p133
sVvalue
p134
Vhttp://dbpedia.org/ontology/runwayLength
p135
ssg8
(dp136
Vdatatype
p137
Vhttp://www.w3.org/2001/XMLSchema#double
p138
sVtype
p139
Vtyped-literal
p140
sVvalue
p141
V1424.94
p142
ssa(dp143
g7
(dp144
Vtype
p145
Vuri
p146
sVvalue
p147
Vhttp://dbpedia.org/ontology/runwayLength
p148
ssg8
(dp149
Vdatatype
p150
Vhttp://www.w3.org/2001/XMLSchema#double
p151
sVtype
p152
Vtyped-literal
p153
sVvalue
p154
V1668.17
p155
ssa(dp156
g7
(dp157
Vtype
p158
Vuri
p159
sVvalue
p160
Vhttp://dbpedia.org/ontology/runwayLength
p161
ssg8
(dp162
Vdatatype
p163
Vhttp://www.w3.org/2001/XMLSchema#double
p164
sVtype
p165
Vtyped-literal
p166
sVvalue
p167
V2073.25
p168
ssa(dp169
g7
(dp170
Vtype
p171
Vuri
p172
sVvalue
p173
Vhttp://dbpedia.org/ontology/runwaySurface
p174
ssg8
(dp175
Vtype
p176
Vliteral
p177
sVvalue
p178
VAsphalt
p179
ssa(dp180
g7
(dp181
Vtype
p182
Vuri
p183
sVvalue
p184
Vhttp://dbpedia.org/ontology/runwaySurface
p185
ssg8
(dp186
Vtype
p187
Vliteral
p188
sVvalue
p189
VDirt
p190
ssasVordered
p191
I01
ss.