(dp0
Vhead
p1
(dp2
Vlink
p3
(lp4
sVvars
p5
(lp6
Vp
p7
aVo
p8
assVresults
p9
(dp10
Vdistinct
p11
I00
sVbindings
p12
(lp13
(dp14
g7
(dp15
Vtype
p16
Vuri
p17
sVvalue
p18
Vhttp://dbpedia.org/ontology/abstract
p19
ssg8
(dp20
Vxml:lang
p21
Ven
p22
sVtype
p23
Vliteral
p24
sVvalue
p25
VDodge County Airport (IATA: UNU, ICAO: KUNU, FAA LID: UNU) is a county owned public use airport in Dodge County, Wisconsin, United States. It is located two nautical miles (4 km) north of the central business district of Juneau, Wisconsin. This airport is included in the National Plan of Integrated Airport Systems for 2015\u20132019, which categorized it as a general aviation facility. It is situated along Wisconsin Highway 26.
p26
ssa(dp27
g7
(dp28
Vtype
p29
Vuri
p30
sVvalue
p31
Vhttp://dbpedia.org/ontology/elevation
p32
ssg8
(dp33
Vdatatype
p34
Vhttp://www.w3.org/2001/XMLSchema#double
p35
sVtype
p36
Vtyped-literal
p37
sVvalue
p38
V284.683
p39
ssa(dp40
g7
(dp41
Vtype
p42
Vuri
p43
sVvalue
p44
Vhttp://dbpedia.org/ontology/faaLocationIdentifier
p45
ssg8
(dp46
Vtype
p47
Vliteral
p48
sVvalue
p49
VUNU
p50
ssa(dp51
g7
(dp52
Vtype
p53
Vuri
p54
sVvalue
p55
Vhttp://dbpedia.org/ontology/iataLocationIdentifier
p56
ssg8
(dp57
Vtype
p58
Vliteral
p59
sVvalue
p60
VUNU
p61
ssa(dp62
g7
(dp63
Vtype
p64
Vuri
p65
sVvalue
p66
Vhttp://dbpedia.org/ontology/icaoLocationIdentifier
p67
ssg8
(dp68
Vtype
p69
Vliteral
p70
sVvalue
p71
VKUNU
p72
ssa(dp73
g7
(dp74
Vtype
p75
Vuri
p76
sVvalue
p77
Vhttp://dbpedia.org/ontology/runwayDesignation
p78
ssg8
(dp79
Vtype
p80
Vliteral
p81
sVvalue
p82
V8/26
p83
ssa(dp84
g7
(dp85
Vtype
p86
Vuri
p87
sVvalue
p88
Vhttp://dbpedia.org/ontology/runwayDesignation
p89
ssg8
(dp90
Vtype
p91
Vliteral
p92
sVvalue
p93
V2/20
p94
ssa(dp95
g7
(dp96
Vtype
p97
Vuri
p98
sVvalue
p99
Vhttp://dbpedia.org/ontology/runwayLength
p100
ssg8
(dp101
Vdatatype
p102
Vhttp://www.w3.org/2001/XMLSchema#double
p103
sVtype
p104
Vtyped-literal
p105
sVvalue
p106
V1227.73
p107
ssa(dp108
g7
(dp109
Vtype
p110
Vuri
p111
sVvalue
p112
Vhttp://dbpedia.org/ontology/runwayLength
p113
ssg8
(dp114
Vdatatype
p115
Vhttp://www.w3.org/2001/XMLSchema#double
p116
sVtype
p117
Vtyped-literal
p118
sVvalue
p119
V1545.34
p120
ssa(dp121
g7
(dp122
Vtype
p123
Vuri
p124
sVvalue
p125
Vhttp://dbpedia.org/ontology/runwaySurface
p126
ssg8
(dp127
Vtype
p128
Vliteral
p129
sVvalue
p130
VAsphalt
p131
ssasVordered
p132
I01
ss.