(dp0
Vhead
p1
(dp2
Vlink
p3
(lp4
sVvars
p5
(lp6
Vp
p7
aVo
p8
assVresults
p9
(dp10
Vdistinct
p11
I00
sVbindings
p12
(lp13
(dp14
g7
(dp15
Vtype
p16
Vuri
p17
sVvalue
p18
Vhttp://dbpedia.org/ontology/birthDate
p19
ssg8
(dp20
Vdatatype
p21
Vhttp://www.w3.org/2001/XMLSchema#date
p22
sVtype
p23
Vtyped-literal
p24
sVvalue
p25
V1976-11-01
p26
ssa(dp27
g7
(dp28
Vtype
p29
Vuri
p30
sVvalue
p31
Vhttp://dbpedia.org/ontology/birthDate
p32
ssg8
(dp33
Vdatatype
p34
Vhttp://www.w3.org/2001/XMLSchema#date
p35
sVtype
p36
Vtyped-literal
p37
sVvalue
p38
V1976-11-1
p39
ssa(dp40
g7
(dp41
Vtype
p42
Vuri
p43
sVvalue
p44
Vhttp://dbpedia.org/ontology/Person/weight
p45
ssg8
(dp46
Vdatatype
p47
Vhttp://dbpedia.org/datatype/kilogram
p48
sVtype
p49
Vtyped-literal
p50
sVvalue
p51
V90.72
p52
ssa(dp53
g7
(dp54
Vtype
p55
Vuri
p56
sVvalue
p57
Vhttp://dbpedia.org/ontology/abstract
p58
ssg8
(dp59
Vxml:lang
p60
Ven
p61
sVtype
p62
Vliteral
p63
sVvalue
p64
VMichael Edward Roger Minard (born November 1, 1976) is a retired Canadian professional ice hockey goaltender who played in one National Hockey League game for the Edmonton Oilers during the 1999\u20132000 NHL season. Mike Minard is a Senior Instructor at the Minard Goaltending School after playing 13 years professionally. He has played at every level (NHL, AHL, ECHL, CHL, Europe). Mike was part of the Edmonton Oilers from 1996\u20132000 and with the Toronto Maple Leafs from 2000-2004. Mike is a strong body within the community receiving several community service awards. He was twice the recipient of the AHL's Yanick Dupre Memorial Award for his contribution to the community's Sick Children's Hospital, schools and hockey organizations in Hamilton, Ontario and St. John's, Newfoundland and Labrador. Mike has 16 years experience in running both player and goalie development programs and coaching. His brother, Chris Minard has played for the Pittsburgh Penguins in the 2007-2008 year, and the 2008-2009 year, when they won the Stanley Cup, the Edmonton Oilers in 2009-2010 and is currently playing for the Detroit Red Wings for the upcoming 2010-2011 season. Minard previously served on the coaching staff for the AHL's Portland Pirates. He was terminated from the position, after he was arrested and charged for sexual misconduct after it was revealed he and a 13-year-old girl engaged in lewd text messages. On August 29, 2014, Minard was sentenced to two months in prison after pleading no contest to sexual misconduct charges.
p65
ssa(dp66
g7
(dp67
Vtype
p68
Vuri
p69
sVvalue
p70
Vhttp://dbpedia.org/ontology/activeYearsEndYear
p71
ssg8
(dp72
Vdatatype
p73
Vhttp://www.w3.org/2001/XMLSchema#gYear
p74
sVtype
p75
Vtyped-literal
p76
sVvalue
p77
V2008
p78
ssa(dp79
g7
(dp80
Vtype
p81
Vuri
p82
sVvalue
p83
Vhttp://dbpedia.org/ontology/activeYearsStartYear
p84
ssg8
(dp85
Vdatatype
p86
Vhttp://www.w3.org/2001/XMLSchema#gYear
p87
sVtype
p88
Vtyped-literal
p89
sVvalue
p90
V1996
p91
ssa(dp92
g7
(dp93
Vtype
p94
Vuri
p95
sVvalue
p96
Vhttp://dbpedia.org/ontology/draft
p97
ssg8
(dp98
Vtype
p99
Vliteral
p100
sVvalue
p101
V83rd overall
p102
ssa(dp103
g7
(dp104
Vtype
p105
Vuri
p106
sVvalue
p107
Vhttp://dbpedia.org/ontology/draftYear
p108
ssg8
(dp109
Vdatatype
p110
Vhttp://www.w3.org/2001/XMLSchema#gYear
p111
sVtype
p112
Vtyped-literal
p113
sVvalue
p114
V1995
p115
ssa(dp116
g7
(dp117
Vtype
p118
Vuri
p119
sVvalue
p120
Vhttp://dbpedia.org/ontology/height
p121
ssg8
(dp122
Vdatatype
p123
Vhttp://www.w3.org/2001/XMLSchema#double
p124
sVtype
p125
Vtyped-literal
p126
sVvalue
p127
V1.8796
p128
ssa(dp129
g7
(dp130
Vtype
p131
Vuri
p132
sVvalue
p133
Vhttp://dbpedia.org/ontology/shoots
p134
ssg8
(dp135
Vtype
p136
Vliteral
p137
sVvalue
p138
VLeft
p139
ssa(dp140
g7
(dp141
Vtype
p142
Vuri
p143
sVvalue
p144
Vhttp://dbpedia.org/ontology/weight
p145
ssg8
(dp146
Vdatatype
p147
Vhttp://www.w3.org/2001/XMLSchema#double
p148
sVtype
p149
Vtyped-literal
p150
sVvalue
p151
V90720.0
p152
ssasVordered
p153
I01
ss.