(dp0
Vhead
p1
(dp2
Vlink
p3
(lp4
sVvars
p5
(lp6
Vp
p7
aVo
p8
assVresults
p9
(dp10
Vdistinct
p11
I00
sVbindings
p12
(lp13
(dp14
g7
(dp15
Vtype
p16
Vuri
p17
sVvalue
p18
Vhttp://dbpedia.org/ontology/abstract
p19
ssg8
(dp20
Vxml:lang
p21
Vja
p22
sVtype
p23
Vliteral
p24
sVvalue
p25
V\u30eb\u30b9\u30c4\u30ea\u30be\u30fc\u30c8\u306f\u3001\u5317\u6d77\u9053\u867b\u7530\u90e1\u7559\u5bff\u90fd\u6751\uff08\u30b4\u30eb\u30d5\u5834\u30b3\u30fc\u30b9\u306e\u4e00\u90e8\u306f\u559c\u8302\u5225\u753a\uff09\u306b\u3042\u308b\u30ea\u30be\u30fc\u30c8\u3002
p26
ssa(dp27
g7
(dp28
Vtype
p29
Vuri
p30
sVvalue
p31
Vhttp://dbpedia.org/ontology/abstract
p32
ssg8
(dp33
Vxml:lang
p34
Ven
p35
sVtype
p36
Vliteral
p37
sVvalue
p38
VThe Rusutsu Resort (\u30eb\u30b9\u30c4\u30ea\u30be\u30fc\u30c8 Rusutsu Riz\u014dto) is the largest resort in Hokkaid\u014d, Japan, operated by Kamori Kank\u014d. The resort is mostly famous for its ski slopes, but it also has an amusement park, golf courses and others.
p39
ssa(dp40
g7
(dp41
Vtype
p42
Vuri
p43
sVvalue
p44
Vhttp://dbpedia.org/ontology/areaTotal
p45
ssg8
(dp46
Vdatatype
p47
Vhttp://www.w3.org/2001/XMLSchema#double
p48
sVtype
p49
Vtyped-literal
p50
sVvalue
p51
V2.12e+06
p52
ssa(dp53
g7
(dp54
Vtype
p55
Vuri
p56
sVvalue
p57
Vhttp://dbpedia.org/ontology/maximumElevation
p58
ssg8
(dp59
Vdatatype
p60
Vhttp://www.w3.org/2001/XMLSchema#double
p61
sVtype
p62
Vtyped-literal
p63
sVvalue
p64
V994.0
p65
ssa(dp66
g7
(dp67
Vtype
p68
Vuri
p69
sVvalue
p70
Vhttp://dbpedia.org/ontology/minimumElevation
p71
ssg8
(dp72
Vdatatype
p73
Vhttp://www.w3.org/2001/XMLSchema#double
p74
sVtype
p75
Vtyped-literal
p76
sVvalue
p77
V400.0
p78
ssasVordered
p79
I01
ss.