(dp0
Vhead
p1
(dp2
Vlink
p3
(lp4
sVvars
p5
(lp6
Vp
p7
aVo
p8
assVresults
p9
(dp10
Vdistinct
p11
I00
sVbindings
p12
(lp13
(dp14
g7
(dp15
Vtype
p16
Vuri
p17
sVvalue
p18
Vhttp://dbpedia.org/ontology/abstract
p19
ssg8
(dp20
Vxml:lang
p21
Vja
p22
sVtype
p23
Vliteral
p24
sVvalue
p25
V\u5b89\u6bd4\u9ad8\u539f\u30b9\u30ad\u30fc\u5834\uff08\u3042\u3063\u3074\u3053\u3046\u3052\u3093\u30b9\u30ad\u30fc\u3058\u3087\u3046\uff09\u306f\u3001\u5ca9\u624b\u770c\u516b\u5e61\u5e73\u5e02\u5b89\u6bd4\u9ad8\u539f\u306b\u3042\u308b\u30b9\u30ad\u30fc\u5834\u3002\u4f8b\u5e7412\u6708\u4e0a\u65ec\u304b\u30895\u6708\u4e0a\u65ec\u307e\u3067\u6ed1\u8d70\u304c\u53ef\u80fd\u3002
p26
ssa(dp27
g7
(dp28
Vtype
p29
Vuri
p30
sVvalue
p31
Vhttp://dbpedia.org/ontology/abstract
p32
ssg8
(dp33
Vxml:lang
p34
Ven
p35
sVtype
p36
Vliteral
p37
sVvalue
p38
VThe Appi Kogen Ski Resort (\u5b89\u6bd4\u9ad8\u539f\u30b9\u30ad\u30fc\u5834 Appi Kogen Suk\u012b-j\u014d) is one of the largest ski resorts in Japan, operated by Iwate Hotel & Resort, adjacent to the Towada-Hachimantai National Park. The resort is most famous for its ski slopes, but it also has a guest ranch, golf courses, tennis courts, soccer fields, sports clubs, hot springs (onsen), and others.The resort is 50 minutes from Morioka Station on the Tohoku Shinkansen by non-stop express bus. This station is approximately 496.5 km (308.5 mi) (2 hr 10 min) from Tokyo Station. By car, it is about 30-50 minute drive from the city of Morioka, 15 min from Matsuo-Hachimantai IC on the T\u014dhoku Expressway, or 20 min from Ashiro IC on the Tohoku Expwy.
p39
ssa(dp40
g7
(dp41
Vtype
p42
Vuri
p43
sVvalue
p44
Vhttp://dbpedia.org/ontology/areaTotal
p45
ssg8
(dp46
Vdatatype
p47
Vhttp://www.w3.org/2001/XMLSchema#double
p48
sVtype
p49
Vtyped-literal
p50
sVvalue
p51
V2.82e+06
p52
ssa(dp53
g7
(dp54
Vtype
p55
Vuri
p56
sVvalue
p57
Vhttp://dbpedia.org/ontology/maximumElevation
p58
ssg8
(dp59
Vdatatype
p60
Vhttp://www.w3.org/2001/XMLSchema#double
p61
sVtype
p62
Vtyped-literal
p63
sVvalue
p64
V1328.0
p65
ssa(dp66
g7
(dp67
Vtype
p68
Vuri
p69
sVvalue
p70
Vhttp://dbpedia.org/ontology/minimumElevation
p71
ssg8
(dp72
Vdatatype
p73
Vhttp://www.w3.org/2001/XMLSchema#double
p74
sVtype
p75
Vtyped-literal
p76
sVvalue
p77
V500.0
p78
ssasVordered
p79
I01
ss.