(dp0
Vhead
p1
(dp2
Vlink
p3
(lp4
sVvars
p5
(lp6
Vp
p7
aVo
p8
assVresults
p9
(dp10
Vdistinct
p11
I00
sVbindings
p12
(lp13
(dp14
g7
(dp15
Vtype
p16
Vuri
p17
sVvalue
p18
Vhttp://dbpedia.org/ontology/abstract
p19
ssg8
(dp20
Vxml:lang
p21
Ven
p22
sVtype
p23
Vliteral
p24
sVvalue
p25
VThe Bhote Koshi is the upper river course of the Sun Kosi, known as Poiqu in Tibet. It is part of the Koshi River system in Nepal. A western tributary of the upper Dudh Koshi is also called Bhote Koshi.
p26
ssa(dp27
g7
(dp28
Vtype
p29
Vuri
p30
sVvalue
p31
Vhttp://dbpedia.org/ontology/abstract
p32
ssg8
(dp33
Vxml:lang
p34
Vzh
p35
sVtype
p36
Vliteral
p37
sVvalue
p38
V\u6ce2\u7279\u79d1\u897f\u6cb3\uff08\u5c3c\u6cca\u5c14\u8bed\uff1a\u092d\u094b\u091f\u0947 \u0915\u094b\u0936\u0940\uff1bBhote Koshi\u6216Rongshar Tsangpo\uff09\u662f\u79d1\u897f\u6cb3\u4e0a\u6e38\u7684\u4e00\u689d\u652f\u6d41\u3002\u6ce2\u7279\u79d1\u897f\uff08\uff08\u092d\u094b\u091f\u0947 \u0915\u094b\u0936\u0940\uff0cBhote Koshi\uff09\u610f\u70ba\u300c\u6e90\u81ea\u897f\u85cf\u7684\u6cb3\u300d\u3002
p39
ssa(dp40
g7
(dp41
Vtype
p42
Vuri
p43
sVvalue
p44
Vhttp://dbpedia.org/ontology/mouthElevation
p45
ssg8
(dp46
Vdatatype
p47
Vhttp://www.w3.org/2001/XMLSchema#double
p48
sVtype
p49
Vtyped-literal
p50
sVvalue
p51
V640.0
p52
ssasVordered
p53
I01
ss.