(dp0
Vhead
p1
(dp2
Vlink
p3
(lp4
sVvars
p5
(lp6
Vp
p7
aVo
p8
assVresults
p9
(dp10
Vdistinct
p11
I00
sVbindings
p12
(lp13
(dp14
g7
(dp15
Vtype
p16
Vuri
p17
sVvalue
p18
Vhttp://dbpedia.org/ontology/abbreviation
p19
ssg8
(dp20
Vtype
p21
Vliteral
p22
sVvalue
p23
V(
p24
ssa(dp25
g7
(dp26
Vtype
p27
Vuri
p28
sVvalue
p29
Vhttp://dbpedia.org/ontology/abbreviation
p30
ssg8
(dp31
Vtype
p32
Vliteral
p33
sVvalue
p34
V)
p35
ssa(dp36
g7
(dp37
Vtype
p38
Vuri
p39
sVvalue
p40
Vhttp://dbpedia.org/ontology/abbreviation
p41
ssg8
(dp42
Vtype
p43
Vliteral
p44
sVvalue
p45
VZhongyang Zhengyanshi
p46
ssa(dp47
g7
(dp48
Vtype
p49
Vuri
p50
sVvalue
p51
Vhttp://dbpedia.org/ontology/abstract
p52
ssg8
(dp53
Vxml:lang
p54
Vzh
p55
sVtype
p56
Vliteral
p57
sVvalue
p58
V\u4e2d\u5171\u4e2d\u592e\u653f\u7b56\u7814\u7a76\u5ba4\uff0c\u7b80\u79f0\u4e2d\u592e\u653f\u7814\u5ba4\u3002\u6839\u636e\u4e2d\u592e\u653f\u7b56\u7814\u7a76\u5ba4\u5de5\u4f5c\u5927\u7eb2\uff0c\u653f\u7b56\u7814\u7a76\u5ba4\u7684\u4e3b\u8981\u804c\u80fd\u662f\u8d1f\u8d23\u5206\u6790\u56fd\u5bb6\u60c5\u51b5\uff0c\u56e0\u800c\u4f5c\u51fa\u5236\u5b9a\u653f\u7b56\uff0c\u5e76\u8d1f\u8d23\u8d77\u8349\u4e2d\u5171\u4e2d\u592e\u7684\u4e3b\u8981\u6587\u4ef6\u3001\u8349\u6848\u3001\u62a5\u544a\u3001\u7406\u8bba\u3002\u73b0\u4efb\u4e3b\u4efb\u4e3a\u4e2d\u5171\u4e2d\u592e\u653f\u6cbb\u5c40\u59d4\u5458\u738b\u6caa\u5b81\u3002
p59
ssa(dp60
g7
(dp61
Vtype
p62
Vuri
p63
sVvalue
p64
Vhttp://dbpedia.org/ontology/abstract
p65
ssg8
(dp66
Vxml:lang
p67
Ven
p68
sVtype
p69
Vliteral
p70
sVvalue
p71
VThe Central Policy Research Office (Chinese: \u4e2d\u5171\u4e2d\u592e\u653f\u7b56\u7814\u7a76\u5ba4) is an institution of the Central Committee of the Communist Party of China responsible for providing policy recommendations and insights to matters of governance, spanning political, social, and economic realms. It is responsible for drafting the ideology and theories of the Communist Party, as well as various policy pronouncements at major congresses or plenums.
p72
ssa(dp73
g7
(dp74
Vtype
p75
Vuri
p76
sVvalue
p77
Vhttp://dbpedia.org/ontology/formationYear
p78
ssg8
(dp79
Vdatatype
p80
Vhttp://www.w3.org/2001/XMLSchema#gYear
p81
sVtype
p82
Vtyped-literal
p83
sVvalue
p84
V1981
p85
ssasVordered
p86
I01
ss.