(dp0
Vhead
p1
(dp2
Vlink
p3
(lp4
sVvars
p5
(lp6
Vp
p7
aVo
p8
assVresults
p9
(dp10
Vdistinct
p11
I00
sVbindings
p12
(lp13
(dp14
g7
(dp15
Vtype
p16
Vuri
p17
sVvalue
p18
Vhttp://dbpedia.org/ontology/abstract
p19
ssg8
(dp20
Vxml:lang
p21
Ven
p22
sVtype
p23
Vliteral
p24
sVvalue
p25
VWyomissing Area School District is a diminutive, suburban, public school district located in Berks County, Pennsylvania. The Wyomissing Area School District encompasses approximately 4 square miles (10 km2). The district is the smallest one operating in Berks County. According to 2000 federal census data, it serves a resident population of 12,440. By 2010, the district's population declined to 12,359 people. In 2009, the district residents\u2019 per capita income was $35,814, while the median family income was $70,875. In the Commonwealth, the median family income was $49,501  and the United States median family income was $49,445, in 2010. By 2013, the median household income in the United States rose to $52,100. According to District officials, in school year 2007\u201308 the Wyomissing Area School District provided basic educational services to 2,028 pupils through the employment of 171 teachers, 141 full-time and part-time support personnel, and 14 administrators. Wyomissing Area School District received more than $3.4 million in state funding in school year 2007\u201308. Wyomissing Area School District operates three schools: Wyomissing Area Junior Senior High School, West Reading Elementary Center, and Wyomissing Hills Elementary Center. The district is one of 19 public school districts operating in Berks County, Pennsylvania. The district is one of the 500 public school districts of Pennsylvania. The West Reading School District and Wyomissing School District officially merged into the Wyomissing Area School over several years finalizing the process in 1969.
p26
ssa(dp27
g7
(dp28
Vtype
p29
Vuri
p30
sVvalue
p31
Vhttp://dbpedia.org/ontology/address
p32
ssg8
(dp33
Vxml:lang
p34
Ven
p35
sVtype
p36
Vliteral
p37
sVvalue
p38
V630 Evans Ave
p39
ssa(dp40
g7
(dp41
Vtype
p42
Vuri
p43
sVvalue
p44
Vhttp://dbpedia.org/ontology/ageRange
p45
ssg8
(dp46
Vdatatype
p47
Vhttp://www.w3.org/2001/XMLSchema#nonNegativeInteger
p48
sVtype
p49
Vtyped-literal
p50
sVvalue
p51
V5
p52
ssa(dp53
g7
(dp54
Vtype
p55
Vuri
p56
sVvalue
p57
Vhttp://dbpedia.org/ontology/budget
p58
ssg8
(dp59
Vdatatype
p60
Vhttp://dbpedia.org/datatype/usDollar
p61
sVtype
p62
Vtyped-literal
p63
sVvalue
p64
V1106.0
p65
ssa(dp66
g7
(dp67
Vtype
p68
Vuri
p69
sVvalue
p70
Vhttp://dbpedia.org/ontology/budget
p71
ssg8
(dp72
Vdatatype
p73
Vhttp://dbpedia.org/datatype/usDollar
p74
sVtype
p75
Vtyped-literal
p76
sVvalue
p77
V2.8775018E7
p78
ssa(dp79
g7
(dp80
Vtype
p81
Vuri
p82
sVvalue
p83
Vhttp://dbpedia.org/ontology/budget
p84
ssg8
(dp85
Vdatatype
p86
Vhttp://dbpedia.org/datatype/usDollar
p87
sVtype
p88
Vtyped-literal
p89
sVvalue
p90
V2.9800473E7
p91
ssa(dp92
g7
(dp93
Vtype
p94
Vuri
p95
sVvalue
p96
Vhttp://dbpedia.org/ontology/budget
p97
ssg8
(dp98
Vdatatype
p99
Vhttp://dbpedia.org/datatype/usDollar
p100
sVtype
p101
Vtyped-literal
p102
sVvalue
p103
V3.0083748E7
p104
ssa(dp105
g7
(dp106
Vtype
p107
Vuri
p108
sVvalue
p109
Vhttp://dbpedia.org/ontology/budget
p110
ssg8
(dp111
Vdatatype
p112
Vhttp://dbpedia.org/datatype/usDollar
p113
sVtype
p114
Vtyped-literal
p115
sVvalue
p116
V3.0145567E7
p117
ssa(dp118
g7
(dp119
Vtype
p120
Vuri
p121
sVvalue
p122
Vhttp://dbpedia.org/ontology/budget
p123
ssg8
(dp124
Vdatatype
p125
Vhttp://dbpedia.org/datatype/usDollar
p126
sVtype
p127
Vtyped-literal
p128
sVvalue
p129
V3.0351798E7
p130
ssa(dp131
g7
(dp132
Vtype
p133
Vuri
p134
sVvalue
p135
Vhttp://dbpedia.org/ontology/budget
p136
ssg8
(dp137
Vdatatype
p138
Vhttp://dbpedia.org/datatype/usDollar
p139
sVtype
p140
Vtyped-literal
p141
sVvalue
p142
V3.0795088E7
p143
ssa(dp144
g7
(dp145
Vtype
p146
Vuri
p147
sVvalue
p148
Vhttp://dbpedia.org/ontology/facultySize
p149
ssg8
(dp150
Vdatatype
p151
Vhttp://www.w3.org/2001/XMLSchema#nonNegativeInteger
p152
sVtype
p153
Vtyped-literal
p154
sVvalue
p155
V105
p156
ssa(dp157
g7
(dp158
Vtype
p159
Vuri
p160
sVvalue
p161
Vhttp://dbpedia.org/ontology/lowerAge
p162
ssg8
(dp163
Vdatatype
p164
Vhttp://www.w3.org/2001/XMLSchema#nonNegativeInteger
p165
sVtype
p166
Vtyped-literal
p167
sVvalue
p168
g52
ssa(dp169
g7
(dp170
Vtype
p171
Vuri
p172
sVvalue
p173
Vhttp://dbpedia.org/ontology/numberOfStudents
p174
ssg8
(dp175
Vdatatype
p176
Vhttp://www.w3.org/2001/XMLSchema#nonNegativeInteger
p177
sVtype
p178
Vtyped-literal
p179
sVvalue
p180
V1858
p181
ssa(dp182
g7
(dp183
Vtype
p184
Vuri
p185
sVvalue
p186
Vhttp://dbpedia.org/ontology/postalCode
p187
ssg8
(dp188
Vtype
p189
Vliteral
p190
sVvalue
p191
V19610-2636
p192
ssa(dp193
g7
(dp194
Vtype
p195
Vuri
p196
sVvalue
p197
Vhttp://dbpedia.org/ontology/schoolNumber
p198
ssg8
(dp199
Vtype
p200
Vliteral
p201
sVvalue
p202
V(610) 374-0739
p203
ssa(dp204
g7
(dp205
Vtype
p206
Vuri
p207
sVvalue
p208
Vhttp://dbpedia.org/ontology/staff
p209
ssg8
(dp210
Vdatatype
p211
Vhttp://www.w3.org/2001/XMLSchema#nonNegativeInteger
p212
sVtype
p213
Vtyped-literal
p214
sVvalue
p215
V184
p216
ssa(dp217
g7
(dp218
Vtype
p219
Vuri
p220
sVvalue
p221
Vhttp://dbpedia.org/ontology/upperAge
p222
ssg8
(dp223
Vdatatype
p224
Vhttp://www.w3.org/2001/XMLSchema#nonNegativeInteger
p225
sVtype
p226
Vtyped-literal
p227
sVvalue
p228
V21
p229
ssasVordered
p230
I01
ss.