(dp0
Vhead
p1
(dp2
Vlink
p3
(lp4
sVvars
p5
(lp6
Vp
p7
aVo
p8
assVresults
p9
(dp10
Vdistinct
p11
I00
sVbindings
p12
(lp13
(dp14
g7
(dp15
Vtype
p16
Vuri
p17
sVvalue
p18
Vhttp://dbpedia.org/ontology/abstract
p19
ssg8
(dp20
Vxml:lang
p21
Ven
p22
sVtype
p23
Vliteral
p24
sVvalue
p25
VThe Pacific War is a series of alternate history novels written by Newt Gingrich and William R. Forstchen with Albert S. Hanser. The series deals with the Pacific War between the United States of America and the Empire of Japan. The point of divergence is the decision of Admiral Isoroku Yamamoto, commander-in-chief of the Japanese Combined Fleet, to take personal command of the 1st Air Fleet for the attack on Pearl Harbor, rather than delegate it to Adm. Ch\u016bichi Nagumo.
p26
ssa(dp27
g7
(dp28
Vtype
p29
Vuri
p30
sVvalue
p31
Vhttp://dbpedia.org/ontology/dcc
p32
ssg8
(dp33
Vtype
p34
Vliteral
p35
sVvalue
p36
V813/.54 22
p37
ssa(dp38
g7
(dp39
Vtype
p40
Vuri
p41
sVvalue
p42
Vhttp://dbpedia.org/ontology/isbn
p43
ssg8
(dp44
Vtype
p45
Vliteral
p46
sVvalue
p47
V0-312-36350-8
p48
ssa(dp49
g7
(dp50
Vtype
p51
Vuri
p52
sVvalue
p53
Vhttp://dbpedia.org/ontology/isbn
p54
ssg8
(dp55
Vtype
p56
Vliteral
p57
sVvalue
p58
V978-0-312-36351-2
p59
ssa(dp60
g7
(dp61
Vtype
p62
Vuri
p63
sVvalue
p64
Vhttp://dbpedia.org/ontology/lcc
p65
ssg8
(dp66
Vtype
p67
Vliteral
p68
sVvalue
p69
VPS3557.I4945 P43 2007
p70
ssa(dp71
g7
(dp72
Vtype
p73
Vuri
p74
sVvalue
p75
Vhttp://dbpedia.org/ontology/numberOfPages
p76
ssg8
(dp77
Vdatatype
p78
Vhttp://www.w3.org/2001/XMLSchema#positiveInteger
p79
sVtype
p80
Vtyped-literal
p81
sVvalue
p82
V384
p83
ssa(dp84
g7
(dp85
Vtype
p86
Vuri
p87
sVvalue
p88
Vhttp://dbpedia.org/ontology/oclc
p89
ssg8
(dp90
Vtype
p91
Vliteral
p92
sVvalue
p93
V85830772
p94
ssa(dp95
g7
(dp96
Vtype
p97
Vuri
p98
sVvalue
p99
Vhttp://dbpedia.org/ontology/releaseDate
p100
ssg8
(dp101
Vdatatype
p102
Vhttp://www.w3.org/2001/XMLSchema#date
p103
sVtype
p104
Vtyped-literal
p105
sVvalue
p106
V2007-05-15
p107
ssa(dp108
g7
(dp109
Vtype
p110
Vuri
p111
sVvalue
p112
Vhttp://dbpedia.org/ontology/releaseDate
p113
ssg8
(dp114
Vdatatype
p115
Vhttp://www.w3.org/2001/XMLSchema#date
p116
sVtype
p117
Vtyped-literal
p118
sVvalue
p119
V2008-04-29
p120
ssasVordered
p121
I01
ss.