(dp0
Vhead
p1
(dp2
Vlink
p3
(lp4
sVvars
p5
(lp6
Vp
p7
aVo
p8
assVresults
p9
(dp10
Vdistinct
p11
I00
sVbindings
p12
(lp13
(dp14
g7
(dp15
Vtype
p16
Vuri
p17
sVvalue
p18
Vhttp://dbpedia.org/ontology/Infrastructure/length
p19
ssg8
(dp20
Vdatatype
p21
Vhttp://dbpedia.org/datatype/kilometre
p22
sVtype
p23
Vtyped-literal
p24
sVvalue
p25
V0.027432
p26
ssa(dp27
g7
(dp28
Vtype
p29
Vuri
p30
sVvalue
p31
Vhttp://dbpedia.org/ontology/abstract
p32
ssg8
(dp33
Vxml:lang
p34
Ven
p35
sVtype
p36
Vliteral
p37
sVvalue
p38
VTinkers Creek Aqueduct is an aqueduct that was constructed to bridge the Ohio and Erie Canal over Tinkers Creek near its confluence with the Cuyahoga River in Valley View, Ohio. It is a relatively rare surviving example of an Ohio and Erie Canal aqueduct. It was originally constructed in 1825-1827 by, and re-built due to flood damage in 1845 and 1905. Tinkers Creek Aqueduct was included in a National Historic Landmark district established in 1966, and it was separately listed on the National Register of Historic Places in 1979. The original Tinkers Creek Aqueduct was a wood plank, steel truss, and Ashlar-sandstone structure constructed in 1827, south of the present aqueduct's location. Cuyahoga River and Tinkers Creek flooding caused continual damage to the original aqueduct, so successive structures were built in 1845 and 1905 in the present location. Today, Tinkers Creek Aqueduct is the only aqueduct which remains of the four original aqueducts in the Cuyahoga Valley. Of Furnace Run Aqueduct, Mill Creek Aqueduct, Peninsula Aqueduct, and (? Yellow Creek ?) Aqueduct; Mill Creek Aqueduct, of newer construction, is the only aqueduct which still carries Ohio and Erie Canal water. After 102 years of flooding, weathering, and deterioration, Tinkers Creek Aqueduct was removed in 2007. The National Park Service is currently working on Phase II of the project to reconstruct it from newer materials.
p39
ssa(dp40
g7
(dp41
Vtype
p42
Vuri
p43
sVvalue
p44
Vhttp://dbpedia.org/ontology/bridgeCarries
p45
ssg8
(dp46
Vtype
p47
Vliteral
p48
sVvalue
p49
VOhio and Erie Canal
p50
ssa(dp51
g7
(dp52
Vtype
p53
Vuri
p54
sVvalue
p55
Vhttp://dbpedia.org/ontology/buildingEndDate
p56
ssg8
(dp57
Vtype
p58
Vliteral
p59
sVvalue
p60
V1827
p61
ssa(dp62
g7
(dp63
Vtype
p64
Vuri
p65
sVvalue
p66
Vhttp://dbpedia.org/ontology/buildingEndDate
p67
ssg8
(dp68
Vtype
p69
Vliteral
p70
sVvalue
p71
VRe-built: 1845 and 1905
p72
ssa(dp73
g7
(dp74
Vtype
p75
Vuri
p76
sVvalue
p77
Vhttp://dbpedia.org/ontology/buildingStartDate
p78
ssg8
(dp79
Vtype
p80
Vliteral
p81
sVvalue
p82
V1826
p83
ssa(dp84
g7
(dp85
Vtype
p86
Vuri
p87
sVvalue
p88
Vhttp://dbpedia.org/ontology/length
p89
ssg8
(dp90
Vdatatype
p91
Vhttp://www.w3.org/2001/XMLSchema#double
p92
sVtype
p93
Vtyped-literal
p94
sVvalue
p95
V27.432
p96
ssa(dp97
g7
(dp98
Vtype
p99
Vuri
p100
sVvalue
p101
Vhttp://dbpedia.org/ontology/loadLimit
p102
ssg8
(dp103
Vdatatype
p104
Vhttp://www.w3.org/2001/XMLSchema#double
p105
sVtype
p106
Vtyped-literal
p107
sVvalue
p108
V7.4844e+06
p109
ssa(dp110
g7
(dp111
Vtype
p112
Vuri
p113
sVvalue
p114
Vhttp://dbpedia.org/ontology/numberOfPiersInWater
p115
ssg8
(dp116
Vdatatype
p117
Vhttp://www.w3.org/2001/XMLSchema#nonNegativeInteger
p118
sVtype
p119
Vtyped-literal
p120
sVvalue
p121
V1
p122
ssa(dp123
g7
(dp124
Vtype
p125
Vuri
p126
sVvalue
p127
Vhttp://dbpedia.org/ontology/numberOfSpans
p128
ssg8
(dp129
Vdatatype
p130
Vhttp://www.w3.org/2001/XMLSchema#nonNegativeInteger
p131
sVtype
p132
Vtyped-literal
p133
sVvalue
p134
V2
p135
ssa(dp136
g7
(dp137
Vtype
p138
Vuri
p139
sVvalue
p140
Vhttp://dbpedia.org/ontology/openingYear
p141
ssg8
(dp142
Vdatatype
p143
Vhttp://www.w3.org/2001/XMLSchema#gYear
p144
sVtype
p145
Vtyped-literal
p146
sVvalue
p147
V1827
p148
ssa(dp149
g7
(dp150
Vtype
p151
Vuri
p152
sVvalue
p153
Vhttp://dbpedia.org/ontology/openingYear
p154
ssg8
(dp155
Vdatatype
p156
Vhttp://www.w3.org/2001/XMLSchema#gYear
p157
sVtype
p158
Vtyped-literal
p159
sVvalue
p160
V1913
p161
ssa(dp162
g7
(dp163
Vtype
p164
Vuri
p165
sVvalue
p166
Vhttp://dbpedia.org/ontology/openingYear
p167
ssg8
(dp168
Vdatatype
p169
Vhttp://www.w3.org/2001/XMLSchema#gYear
p170
sVtype
p171
Vtyped-literal
p172
sVvalue
p173
V2007
p174
ssa(dp175
g7
(dp176
Vtype
p177
Vuri
p178
sVvalue
p179
Vhttp://dbpedia.org/ontology/width
p180
ssg8
(dp181
Vdatatype
p182
Vhttp://www.w3.org/2001/XMLSchema#double
p183
sVtype
p184
Vtyped-literal
p185
sVvalue
p186
V6.7056
p187
ssasVordered
p188
I01
ss.