(dp0
Vhead
p1
(dp2
Vlink
p3
(lp4
sVvars
p5
(lp6
Vp
p7
aVo
p8
assVresults
p9
(dp10
Vdistinct
p11
I00
sVbindings
p12
(lp13
(dp14
g7
(dp15
Vtype
p16
Vuri
p17
sVvalue
p18
Vhttp://dbpedia.org/ontology/Work/runtime
p19
ssg8
(dp20
Vdatatype
p21
Vhttp://dbpedia.org/datatype/minute
p22
sVtype
p23
Vtyped-literal
p24
sVvalue
p25
V4.316666666666666
p26
ssa(dp27
g7
(dp28
Vtype
p29
Vuri
p30
sVvalue
p31
Vhttp://dbpedia.org/ontology/Work/runtime
p32
ssg8
(dp33
Vdatatype
p34
Vhttp://dbpedia.org/datatype/minute
p35
sVtype
p36
Vtyped-literal
p37
sVvalue
p38
V5.516666666666667
p39
ssa(dp40
g7
(dp41
Vtype
p42
Vuri
p43
sVvalue
p44
Vhttp://dbpedia.org/ontology/abstract
p45
ssg8
(dp46
Vxml:lang
p47
Ven
p48
sVtype
p49
Vliteral
p50
sVvalue
p51
V"Future Love Paradise" is a 1991 song recorded by the soul singer and songwriter Seal. As the lead track on Future Love EP, this was the second single from his debut album Seal and it was released in 1991. The song achieved a great success in several countries, including Switzerland, Ireland and Norway where it reached the top 10. It also hit #12 on the UK charts. The version of the lead track on Future Love EP contains an extended vamp and breakdown which fades out later. The album version is shorter and fades out before this section takes place.
p52
ssa(dp53
g7
(dp54
Vtype
p55
Vuri
p56
sVvalue
p57
Vhttp://dbpedia.org/ontology/bSide
p58
ssg8
(dp59
Vtype
p60
Vliteral
p61
sVvalue
p62
V"A Minor Groove"
p63
ssa(dp64
g7
(dp65
Vtype
p66
Vuri
p67
sVvalue
p68
Vhttp://dbpedia.org/ontology/bSide
p69
ssg8
(dp70
Vtype
p71
Vliteral
p72
sVvalue
p73
V"Violet"
p74
ssa(dp75
g7
(dp76
Vtype
p77
Vuri
p78
sVvalue
p79
Vhttp://dbpedia.org/ontology/runtime
p80
ssg8
(dp81
Vdatatype
p82
Vhttp://www.w3.org/2001/XMLSchema#double
p83
sVtype
p84
Vtyped-literal
p85
sVvalue
p86
V259.0
p87
ssa(dp88
g7
(dp89
Vtype
p90
Vuri
p91
sVvalue
p92
Vhttp://dbpedia.org/ontology/runtime
p93
ssg8
(dp94
Vdatatype
p95
Vhttp://www.w3.org/2001/XMLSchema#double
p96
sVtype
p97
Vtyped-literal
p98
sVvalue
p99
V331.0
p100
ssasVordered
p101
I01
ss.