(dp0
Vhead
p1
(dp2
Vlink
p3
(lp4
sVvars
p5
(lp6
Vp
p7
aVo
p8
assVresults
p9
(dp10
Vdistinct
p11
I00
sVbindings
p12
(lp13
(dp14
g7
(dp15
Vtype
p16
Vuri
p17
sVvalue
p18
Vhttp://dbpedia.org/ontology/abstract
p19
ssg8
(dp20
Vxml:lang
p21
Ven
p22
sVtype
p23
Vliteral
p24
sVvalue
p25
VThe Chartered Management Institute (CMI) is an accredited professional institution for management based in the United Kingdom. The major membership classes are Member, Fellow - for those with significant expertise - and Companion - the most senior grade. In addition to supporting its members, the organisation encourages management development, carries out research, produces a wide variety of publications on management interests, and publishes the official members' magazine, Professional Manager. The Institute also engages with government and other public bodies concerning policy on management and business related issues. Professional Manager magazine is circulated to over 80,000 members of the CMI.
p26
ssa(dp27
g7
(dp28
Vtype
p29
Vuri
p30
sVvalue
p31
Vhttp://dbpedia.org/ontology/foundingYear
p32
ssg8
(dp33
Vdatatype
p34
Vhttp://www.w3.org/2001/XMLSchema#gYear
p35
sVtype
p36
Vtyped-literal
p37
sVvalue
p38
V1947
p39
ssasVordered
p40
I01
ss.