(dp0
Vhead
p1
(dp2
Vlink
p3
(lp4
sVvars
p5
(lp6
Vp
p7
aVo
p8
assVresults
p9
(dp10
Vdistinct
p11
I00
sVbindings
p12
(lp13
(dp14
g7
(dp15
Vtype
p16
Vuri
p17
sVvalue
p18
Vhttp://dbpedia.org/ontology/deathDate
p19
ssg8
(dp20
Vdatatype
p21
Vhttp://www.w3.org/2001/XMLSchema#date
p22
sVtype
p23
Vtyped-literal
p24
sVvalue
p25
V2009-09-30
p26
ssa(dp27
g7
(dp28
Vtype
p29
Vuri
p30
sVvalue
p31
Vhttp://dbpedia.org/ontology/deathDate
p32
ssg8
(dp33
Vdatatype
p34
Vhttp://www.w3.org/2001/XMLSchema#date
p35
sVtype
p36
Vtyped-literal
p37
sVvalue
p38
V2009-9-30
p39
ssa(dp40
g7
(dp41
Vtype
p42
Vuri
p43
sVvalue
p44
Vhttp://dbpedia.org/ontology/birthDate
p45
ssg8
(dp46
Vdatatype
p47
Vhttp://www.w3.org/2001/XMLSchema#date
p48
sVtype
p49
Vtyped-literal
p50
sVvalue
p51
V1918-05-07
p52
ssa(dp53
g7
(dp54
Vtype
p55
Vuri
p56
sVvalue
p57
Vhttp://dbpedia.org/ontology/birthDate
p58
ssg8
(dp59
Vdatatype
p60
Vhttp://www.w3.org/2001/XMLSchema#date
p61
sVtype
p62
Vtyped-literal
p63
sVvalue
p64
V1918-5-7
p65
ssa(dp66
g7
(dp67
Vtype
p68
Vuri
p69
sVvalue
p70
Vhttp://dbpedia.org/ontology/Person/weight
p71
ssg8
(dp72
Vdatatype
p73
Vhttp://dbpedia.org/datatype/kilogram
p74
sVtype
p75
Vtyped-literal
p76
sVvalue
p77
V77.112
p78
ssa(dp79
g7
(dp80
Vtype
p81
Vuri
p82
sVvalue
p83
Vhttp://dbpedia.org/ontology/abstract
p84
ssg8
(dp85
Vxml:lang
p86
Ven
p87
sVtype
p88
Vliteral
p89
sVvalue
p90
VMitch Pechet (May 7, 1918 \u2013 September 30, 2009) Born in Cupar, Saskatchewan was a professional National Hockey League (NHL) and United States Hockey League (USHL) right winger. At the age of 18 he was drafted into the New York Rangers, playing professionally until enlisting in the Royal Canadian Air Force in 1939. He played for 11 pro seasons.
p91
ssa(dp92
g7
(dp93
Vtype
p94
Vuri
p95
sVvalue
p96
Vhttp://dbpedia.org/ontology/activeYearsEndYear
p97
ssg8
(dp98
Vdatatype
p99
Vhttp://www.w3.org/2001/XMLSchema#gYear
p100
sVtype
p101
Vtyped-literal
p102
sVvalue
p103
V1952
p104
ssa(dp105
g7
(dp106
Vtype
p107
Vuri
p108
sVvalue
p109
Vhttp://dbpedia.org/ontology/activeYearsStartYear
p110
ssg8
(dp111
Vdatatype
p112
Vhttp://www.w3.org/2001/XMLSchema#gYear
p113
sVtype
p114
Vtyped-literal
p115
sVvalue
p116
V1937
p117
ssa(dp118
g7
(dp119
Vtype
p120
Vuri
p121
sVvalue
p122
Vhttp://dbpedia.org/ontology/draft
p123
ssg8
(dp124
Vtype
p125
Vliteral
p126
sVvalue
p127
Vn/a
p128
ssa(dp129
g7
(dp130
Vtype
p131
Vuri
p132
sVvalue
p133
Vhttp://dbpedia.org/ontology/hallOfFame
p134
ssg8
(dp135
Vtype
p136
Vliteral
p137
sVvalue
p138
VManitoba Hockey Hall of Fame
p139
ssa(dp140
g7
(dp141
Vtype
p142
Vuri
p143
sVvalue
p144
Vhttp://dbpedia.org/ontology/shoots
p145
ssg8
(dp146
Vtype
p147
Vliteral
p148
sVvalue
p149
VRight
p150
ssa(dp151
g7
(dp152
Vtype
p153
Vuri
p154
sVvalue
p155
Vhttp://dbpedia.org/ontology/weight
p156
ssg8
(dp157
Vdatatype
p158
Vhttp://www.w3.org/2001/XMLSchema#double
p159
sVtype
p160
Vtyped-literal
p161
sVvalue
p162
V77112.0
p163
ssasVordered
p164
I01
ss.