(dp0
Vhead
p1
(dp2
Vlink
p3
(lp4
sVvars
p5
(lp6
Vp
p7
aVo
p8
assVresults
p9
(dp10
Vdistinct
p11
I00
sVbindings
p12
(lp13
(dp14
g7
(dp15
Vtype
p16
Vuri
p17
sVvalue
p18
Vhttp://dbpedia.org/ontology/abstract
p19
ssg8
(dp20
Vxml:lang
p21
Var
p22
sVtype
p23
Vliteral
p24
sVvalue
p25
V25\u0628\u0643 \u0627\u0644\u0645\u062d\u062a\u0648\u0649 \u0647\u0646\u0627 \u064a\u0646\u0642\u0635\u0647 \u0627\u0644\u0627\u0633\u062a\u0634\u0647\u0627\u062f \u0628\u0645\u0635\u0627\u062f\u0631. \u064a\u0631\u062c\u0649 \u0625\u064a\u0631\u0627\u062f \u0645\u0635\u0627\u062f\u0631 \u0645\u0648\u062b\u0648\u0642 \u0628\u0647\u0627. \u0623\u064a \u0645\u0639\u0644\u0648\u0645\u0627\u062a \u063a\u064a\u0631 \u0645\u0648\u062b\u0642\u0629 \u064a\u0645\u0643\u0646 \u0627\u0644\u062a\u0634\u0643\u064a\u0643 \u0628\u0647\u0627 \u0648\u0625\u0632\u0627\u0644\u062a\u0647\u0627. (\u0645\u0627\u0631\u0633 2016) \u0643\u0633\u064a\u0644\u0648\u0628\u0648\u0644\u064a\u0633 (\u039e\u03c5\u03bb\u03cc\u03c0\u03bf\u03bb\u03b9\u03c2) \u0647\u064a \u0645\u062f\u064a\u0646\u0629 \u0641\u064a \u062b\u064a\u0633\u0627\u0644\u0648\u0646\u064a\u0643\u064a \u0641\u064a \u0645\u0642\u0627\u0637\u0639\u0629 \u0641\u0648\u0631\u064a\u0627 \u0625\u0644\u0627\u062f\u0627 \u0641\u064a \u0627\u0644\u064a\u0648\u0646\u0627\u0646.\u064a\u0628\u0644\u063a \u0639\u062f\u062f \u0633\u0643\u0627\u0646\u0647\u0627 \u062d\u0648\u0627\u0644\u064a 1512 \u0646\u0633\u0645\u0629. \u0645\u0634\u0627\u0631\u064a\u0639 \u0634\u0642\u064a\u0642\u0629 \u0641\u064a \u0643\u0648\u0645\u0646\u0632 \u0635\u0648\u0631 \u0648\u0645\u0644\u0641\u0627\u062a \u0639\u0646: \u0643\u0633\u064a\u0644\u0648\u0628\u0648\u0644\u064a\u0633 \u000a* 32x\u0628\u0648\u0627\u0628\u0629 \u062c\u063a\u0631\u0627\u0641\u064a\u0627 \u000a* 32x\u0628\u0648\u0627\u0628\u0629 \u0645\u062f\u0646 \u000a* 32x\u0628\u0648\u0627\u0628\u0629 \u0627\u0644\u064a\u0648\u0646\u0627\u064625\u0628\u0643 \u0647\u0630\u0647 \u0628\u0630\u0631\u0629 \u0645\u0642\u0627\u0644\u0629 \u0639\u0646 \u0645\u062f\u064a\u0646\u0629 \u0623\u0648 \u0628\u0644\u062f\u0629 \u0623\u0648 \u0642\u0631\u064a\u0629 \u0628\u062d\u0627\u062c\u0629 \u0644\u0644\u062a\u0648\u0633\u064a\u0639. \u0634\u0627\u0631\u0643 \u0641\u064a \u062a\u062d\u0631\u064a\u0631\u0647\u0627.
p26
ssa(dp27
g7
(dp28
Vtype
p29
Vuri
p30
sVvalue
p31
Vhttp://dbpedia.org/ontology/abstract
p32
ssg8
(dp33
Vxml:lang
p34
Ven
p35
sVtype
p36
Vliteral
p37
sVvalue
p38
VXylopoli  is a village and a community of the Langadas municipality. Before the 2011 local government reform it was part of the municipality of Lachanas, of which it was a municipal district and the seat. The 2011 census recorded 855 inhabitants in the village. The community of Xylopoli covers an area of 34.422 km2.
p39
ssa(dp40
g7
(dp41
Vtype
p42
Vuri
p43
sVvalue
p44
Vhttp://dbpedia.org/ontology/areaCode
p45
ssg8
(dp46
Vtype
p47
Vliteral
p48
sVvalue
p49
V+30-2394-xxx-xxx
p50
ssa(dp51
g7
(dp52
Vtype
p53
Vuri
p54
sVvalue
p55
Vhttp://dbpedia.org/ontology/maximumElevation
p56
ssg8
(dp57
Vdatatype
p58
Vhttp://www.w3.org/2001/XMLSchema#double
p59
sVtype
p60
Vtyped-literal
p61
sVvalue
p62
V575.0
p63
ssa(dp64
g7
(dp65
Vtype
p66
Vuri
p67
sVvalue
p68
Vhttp://dbpedia.org/ontology/minimumElevation
p69
ssg8
(dp70
Vdatatype
p71
Vhttp://www.w3.org/2001/XMLSchema#double
p72
sVtype
p73
Vtyped-literal
p74
sVvalue
p75
V530.0
p76
ssa(dp77
g7
(dp78
Vtype
p79
Vuri
p80
sVvalue
p81
Vhttp://dbpedia.org/ontology/postalCode
p82
ssg8
(dp83
Vtype
p84
Vliteral
p85
sVvalue
p86
V570 17
p87
ssasVordered
p88
I01
ss.