(dp0
Vhead
p1
(dp2
Vlink
p3
(lp4
sVvars
p5
(lp6
Vp
p7
aVo
p8
assVresults
p9
(dp10
Vdistinct
p11
I00
sVbindings
p12
(lp13
(dp14
g7
(dp15
Vtype
p16
Vuri
p17
sVvalue
p18
Vhttp://dbpedia.org/ontology/abstract
p19
ssg8
(dp20
Vxml:lang
p21
Ven
p22
sVtype
p23
Vliteral
p24
sVvalue
p25
VThe Zariphios School (Greek: \u0396\u03b1\u03c1\u03af\u03c6\u03b5\u03b9\u03bf\u03c2 \u03a3\u03c7\u03bf\u03bb\u03ae \u03a6\u03b9\u03bb\u03b9\u03c0\u03c0\u03bf\u03c5\u03c0\u03cc\u03bb\u03b5\u03c9\u03c2, "Zariphios School of Philippopolis") was a Greek educational institution established in 1875 in Plovdiv (Philippopolis), then in the Ottoman Empire and now in Bulgaria. It became one of the most significant Greek educational centres in the region of Thrace, attracting teachers from Greece and Western Europe and existed until 1906. The Zariphios was one of the first schools of the Greek diaspora that introduced primary and secondary education for girls.
p26
ssa(dp27
g7
(dp28
Vtype
p29
Vuri
p30
sVvalue
p31
Vhttp://dbpedia.org/ontology/foundingYear
p32
ssg8
(dp33
Vdatatype
p34
Vhttp://www.w3.org/2001/XMLSchema#gYear
p35
sVtype
p36
Vtyped-literal
p37
sVvalue
p38
V1875
p39
ssasVordered
p40
I01
ss.