(dp0
Vhead
p1
(dp2
Vlink
p3
(lp4
sVvars
p5
(lp6
Vp
p7
aVo
p8
assVresults
p9
(dp10
Vdistinct
p11
I00
sVbindings
p12
(lp13
(dp14
g7
(dp15
Vtype
p16
Vuri
p17
sVvalue
p18
Vhttp://dbpedia.org/ontology/MeanOfTransportation/height
p19
ssg8
(dp20
Vdatatype
p21
Vhttp://dbpedia.org/datatype/millimetre
p22
sVtype
p23
Vtyped-literal
p24
sVvalue
p25
V4700.0
p26
ssa(dp27
g7
(dp28
Vtype
p29
Vuri
p30
sVvalue
p31
Vhttp://dbpedia.org/ontology/MeanOfTransportation/length
p32
ssg8
(dp33
Vdatatype
p34
Vhttp://dbpedia.org/datatype/millimetre
p35
sVtype
p36
Vtyped-literal
p37
sVvalue
p38
V20200.0
p39
ssa(dp40
g7
(dp41
Vtype
p42
Vuri
p43
sVvalue
p44
Vhttp://dbpedia.org/ontology/MeanOfTransportation/width
p45
ssg8
(dp46
Vdatatype
p47
Vhttp://dbpedia.org/datatype/millimetre
p48
sVtype
p49
Vtyped-literal
p50
sVvalue
p51
V3100.0
p52
ssa(dp53
g7
(dp54
Vtype
p55
Vuri
p56
sVvalue
p57
Vhttp://dbpedia.org/ontology/abstract
p58
ssg8
(dp59
Vxml:lang
p60
Vja
p61
sVtype
p62
Vliteral
p63
sVvalue
p64
V\u97f6\u5c713\u578b\u96fb\u6c17\u6a5f\u95a2\u8eca\uff08SS3\uff09\u306f\u4e2d\u83ef\u4eba\u6c11\u5171\u548c\u56fd\u9244\u9053\u90e8\uff08\u4e2d\u56fd\u56fd\u9244\uff09\u3067\u4f7f\u7528\u3055\u308c\u308b\u4ea4\u6d41\u7528\u96fb\u6c17\u6a5f\u95a2\u8eca\u306e\u4e00\u3064\u3067\u3042\u308b\u3002 \u672c\u5f62\u5f0f\u306f\u3001\u4e2d\u56fd\u56fd\u9244\u3067\u306f\u7b2c\u4e8c\u4ee3\u76ee\u306e\u56fd\u7523\u5ba2\u3001\u8ca8\u4e21\u7528\u306e\u96fb\u6c17\u6a5f\u95a2\u8eca\u3067\u3042\u308b\u3002\u4e2d\u56fd\u56fd\u9244\u306f\u30011977\u5e74\u4e0b\u65ec\u306b\u8a2d\u8a08\u4efb\u52d9\u66f8\u3092\u767a\u8868\u30011980\u5e74\u4ee3\u306b\u5165\u308a\u682a\u6d32\u96fb\u529b\u6a5f\u8eca\u5ee0\u3068\u682a\u6d32\u96fb\u529b\u6a5f\u8eca\u7814\u7a76\u6240\u306e\u5408\u540c\u7814\u7a76\u306b\u3088\u308a\u97f6\u5c711\u578b\u3068\u97f6\u5c712\u578b\u306e\u88fd\u9020\u6280\u8853\u3092\u57fa\u790e\u3068\u3057\u3066\u672c\u5f62\u5f0f\u304c\u8a2d\u8a08\u3055\u308c\u3001\u8eca\u4f53\u540d\u306fSS3\u3068\u6c7a\u5b9a\u3057\u305f\u30021978\u5e74\u306b\u306f\u672c\u5f62\u5f0f\u306e\u8a66\u4f5c\u8eca\u304c\u5b8c\u6210\u3001\u305d\u306e\u5f8c\u306e\u6539\u826f\u3092\u7d4c\u30661985\u5e74\u3088\u308a\u751f\u7523\u304c\u958b\u59cb\u3055\u308c\u30011989\u5e74\u306b\u5927\u91cf\u751f\u7523\u304c\u59cb\u307e\u308a\u97f6\u5c711\u578b\u306b\u53d6\u3063\u3066\u4ee3\u308f\u308b\u3082\u306e\u3068\u306a\u3063\u305f\u3002\u307e\u305f1993\u5e74\u306b\u306f677\u4e21\uff08\u8eca\u53f70001 - 0677\uff09\u3092\u6570\u3048\u308b\u307b\u3069\u306b\u306a\u3063\u305f\u3002
p65
ssa(dp66
g7
(dp67
Vtype
p68
Vuri
p69
sVvalue
p70
Vhttp://dbpedia.org/ontology/abstract
p71
ssg8
(dp72
Vxml:lang
p73
Vzh
p74
sVtype
p75
Vliteral
p76
sVvalue
p77
V\u97f6\u5c713\u578b\u96fb\u529b\u6a5f\u8eca\uff08SS3\uff09\uff0c\u662f\u4e2d\u570b\u9435\u8def\u7684\u7b2c\u4e8c\u4ee3\u96fb\u529b\u6a5f\u8eca\u8f66\u578b\u4e4b\u4e00\uff0c\u662f\u7531\u682a\u6d32\u7535\u529b\u673a\u8f66\u5382\u548c\u682a\u6d32\u7535\u529b\u673a\u8f66\u7814\u7a76\u6240\u5438\u6536\u4e86\u97f6\u5c711\u578b\u3001\u97f6\u5c712\u578b\u7535\u529b\u673a\u8f66\u7684\u6210\u719f\u7ecf\u9a8c\u540e\uff0c\u4e8e1979\u5e74\u7814\u5236\u6210\u529f\u7684\u5ba2\u3001\u8d27\u4e24\u7528\u5e72\u7ebf\u7535\u529b\u673a\u8f66\uff0c1986\u5e74\u6295\u5165\u6279\u91cf\u751f\u4ea7\u3002\u65e9\u671f\u7684\u97f6\u5c713\u578b\u7535\u529b\u673a\u8f66\u91c7\u7528\u4e86\u7ea7\u95f4\u76f8\u63a7\u8c03\u538b\uff0c\u4f5c\u4e3a\u8c03\u538b\u5f00\u5173\u8c03\u538b\u5411\u5168\u76f8\u63a7\u8c03\u538b\u7684\u8fc7\u6e21\u65b9\u6848\u30021991\u5e74\uff0c\u682a\u673a\u5382\u4e0e\u682a\u673a\u6240\u5bf9\u97f6\u5c713\u578b\u7535\u529b\u673a\u8f66\u8fdb\u884c\u6280\u672f\u6539\u8fdb\uff0c\u6539\u4e3a\u91c7\u7528\u6676\u95f8\u7ba1\u76f8\u63a7\u5e73\u6ed1\u8c03\u538b\uff0c\u5e76\u5bf9\u8f6c\u5411\u67b6\u3001\u7535\u963b\u5236\u52a8\u7b49\u65b9\u9762\u4f5c\u51fa\u6539\u8fdb\uff0c\u79f0\u4e3a\u97f6\u5c713\u578b4000\u7cfb\uff0c\u4e8e1992\u5e74\u8d77\u6295\u5165\u6279\u91cf\u751f\u4ea7\u3002\u9664\u4e86\u682a\u6d32\u7535\u529b\u673a\u8f66\u5382\uff0c\u5927\u540c\u7535\u529b\u673a\u8f66\u5382\u3001\u8d44\u9633\u673a\u8f66\u5382\u3001\u592a\u539f\u673a\u8f66\u8f66\u8f86\u5382\u5747\u66fe\u7ecf\u751f\u4ea7\u97f6\u5c713\u578b\u7535\u529b\u673a\u8f66\uff0c\u81f32006\u5e74\u505c\u4ea7\uff0c\u7d2f\u8ba1\u4ea7\u91cf\u8d85\u8fc71500\u53f0\u3002
p78
ssa(dp79
g7
(dp80
Vtype
p81
Vuri
p82
sVvalue
p83
Vhttp://dbpedia.org/ontology/abstract
p84
ssg8
(dp85
Vxml:lang
p86
Ven
p87
sVtype
p88
Vliteral
p89
sVvalue
p90
VThe Shaoshan 3 (Chinese: \u97f6\u5c71\u4e09) is a type of electric locomotive used on the People's Republic of China's national railway system. This locomotive was the third Chinese electric main line locomotive, built by the Zhuzhou Electric Locomotive Works. The power supply was industrial-frequency single-phase AC, and the axle arrangement Co-Co.
p91
ssa(dp92
g7
(dp93
Vtype
p94
Vuri
p95
sVvalue
p96
Vhttp://dbpedia.org/ontology/activeYearsEndYear
p97
ssg8
(dp98
Vdatatype
p99
Vhttp://www.w3.org/2001/XMLSchema#gYear
p100
sVtype
p101
Vtyped-literal
p102
sVvalue
p103
V2006
p104
ssa(dp105
g7
(dp106
Vtype
p107
Vuri
p108
sVvalue
p109
Vhttp://dbpedia.org/ontology/activeYearsStartYear
p110
ssg8
(dp111
Vdatatype
p112
Vhttp://www.w3.org/2001/XMLSchema#gYear
p113
sVtype
p114
Vtyped-literal
p115
sVvalue
p116
V1978
p117
ssa(dp118
g7
(dp119
Vtype
p120
Vuri
p121
sVvalue
p122
Vhttp://dbpedia.org/ontology/height
p123
ssg8
(dp124
Vdatatype
p125
Vhttp://www.w3.org/2001/XMLSchema#double
p126
sVtype
p127
Vtyped-literal
p128
sVvalue
p129
V4.7
p130
ssa(dp131
g7
(dp132
Vtype
p133
Vuri
p134
sVvalue
p135
Vhttp://dbpedia.org/ontology/length
p136
ssg8
(dp137
Vdatatype
p138
Vhttp://www.w3.org/2001/XMLSchema#double
p139
sVtype
p140
Vtyped-literal
p141
sVvalue
p142
V20.2
p143
ssa(dp144
g7
(dp145
Vtype
p146
Vuri
p147
sVvalue
p148
Vhttp://dbpedia.org/ontology/numberBuilt
p149
ssg8
(dp150
Vdatatype
p151
Vhttp://www.w3.org/2001/XMLSchema#nonNegativeInteger
p152
sVtype
p153
Vtyped-literal
p154
sVvalue
p155
V1410
p156
ssa(dp157
g7
(dp158
Vtype
p159
Vuri
p160
sVvalue
p161
Vhttp://dbpedia.org/ontology/width
p162
ssg8
(dp163
Vdatatype
p164
Vhttp://www.w3.org/2001/XMLSchema#double
p165
sVtype
p166
Vtyped-literal
p167
sVvalue
p168
V3.1
p169
ssasVordered
p170
I01
ss.