(dp0
Vhead
p1
(dp2
Vlink
p3
(lp4
sVvars
p5
(lp6
Vp
p7
aVo
p8
assVresults
p9
(dp10
Vdistinct
p11
I00
sVbindings
p12
(lp13
(dp14
g7
(dp15
Vtype
p16
Vuri
p17
sVvalue
p18
Vhttp://dbpedia.org/ontology/birthDate
p19
ssg8
(dp20
Vdatatype
p21
Vhttp://www.w3.org/2001/XMLSchema#date
p22
sVtype
p23
Vtyped-literal
p24
sVvalue
p25
V1950-12-18
p26
ssa(dp27
g7
(dp28
Vtype
p29
Vuri
p30
sVvalue
p31
Vhttp://dbpedia.org/ontology/abstract
p32
ssg8
(dp33
Vxml:lang
p34
Ven
p35
sVtype
p36
Vliteral
p37
sVvalue
p38
VEdward S. Flanagan (born December 18, 1950), commonly known as Ed Flanagan, is an American politician from Vermont. He served as Vermont State Auditor from 1993 to 2001 and as a State Senator from 2005 to 2011.
p39
ssa(dp40
g7
(dp41
Vtype
p42
Vuri
p43
sVvalue
p44
Vhttp://dbpedia.org/ontology/abstract
p45
ssg8
(dp46
Vxml:lang
p47
Vde
p48
sVtype
p49
Vliteral
p50
sVvalue
p51
VEd Flanagan, eigentlich Edward S. Flanagan, (* 18. Dezember 1950 in Burlington Vermont) ist ein US-amerikanischer Politiker, der von 1993 bis 2001 State Auditor von Vermont war.
p52
ssa(dp53
g7
(dp54
Vtype
p55
Vuri
p56
sVvalue
p57
Vhttp://dbpedia.org/ontology/office
p58
ssg8
(dp59
Vtype
p60
Vliteral
p61
sVvalue
p62
VVermont Auditor of Accounts
p63
ssasVordered
p64
I01
ss.