(dp0
Vhead
p1
(dp2
Vlink
p3
(lp4
sVvars
p5
(lp6
Vp
p7
aVo
p8
assVresults
p9
(dp10
Vdistinct
p11
I00
sVbindings
p12
(lp13
(dp14
g7
(dp15
Vtype
p16
Vuri
p17
sVvalue
p18
Vhttp://dbpedia.org/ontology/MeanOfTransportation/weight
p19
ssg8
(dp20
Vdatatype
p21
Vhttp://dbpedia.org/datatype/kilogram
p22
sVtype
p23
Vtyped-literal
p24
sVvalue
p25
V39500.0
p26
ssa(dp27
g7
(dp28
Vtype
p29
Vuri
p30
sVvalue
p31
Vhttp://dbpedia.org/ontology/abstract
p32
ssg8
(dp33
Vxml:lang
p34
Vja
p35
sVtype
p36
Vliteral
p37
sVvalue
p38
V321\u578b\u96fb\u8eca\uff08\u305f\u3044\u307a\u3044\u3057\u3087\u3046\u3046\u3093321\u304c\u305f\u3067\u3093\u3057\u3083\uff09\u3001\u307e\u305f\u306fC321\u578b\u96fb\u8eca\u306f\u53f0\u5317\u90fd\u4f1a\u533a\u5927\u8846\u6377\u904b\u7cfb\u7d71\uff08\u53f0\u5317\u6377\u904b\uff09\u3067\u904b\u7528\u3055\u308c\u3066\u3044\u308b\u901a\u52e4\u578b\u96fb\u8eca\u3067\u3042\u308b\u3002
p39
ssa(dp40
g7
(dp41
Vtype
p42
Vuri
p43
sVvalue
p44
Vhttp://dbpedia.org/ontology/abstract
p45
ssg8
(dp46
Vxml:lang
p47
Vzh
p48
sVtype
p49
Vliteral
p50
sVvalue
p51
V\u53f0\u5317\u6377\u904b321\u578b\u96fb\u806f\u8eca\uff08\u53c8\u7a31C321\uff09\u662f\u53f0\u5317\u6377\u904b\u71df\u904b\u7684\u76f4\u6d41\u901a\u52e4\u578b\u96fb\u806f\u8eca\uff0c\u5c6c\u65bc\u9ad8\u904b\u91cf\u985e\u578b\u8eca\u7a2e\uff0c\u76ee\u524d\u670d\u52d9\u65bc\u53f0\u5317\u6377\u904b\u677f\u5357\u7dda\u3002
p52
ssa(dp53
g7
(dp54
Vtype
p55
Vuri
p56
sVvalue
p57
Vhttp://dbpedia.org/ontology/abstract
p58
ssg8
(dp59
Vxml:lang
p60
Ven
p61
sVtype
p62
Vliteral
p63
sVvalue
p64
VThe Taipei Metro C321 is a type of rolling stock used on the Taipei Metro. It is currently in service on Line 5, following its use on Line 2. The trains were made by Siemens and began operation in 1998 and 1999.
p65
ssa(dp66
g7
(dp67
Vtype
p68
Vuri
p69
sVvalue
p70
Vhttp://dbpedia.org/ontology/capacity
p71
ssg8
(dp72
Vdatatype
p73
Vhttp://www.w3.org/2001/XMLSchema#nonNegativeInteger
p74
sVtype
p75
Vtyped-literal
p76
sVvalue
p77
V1914
p78
ssa(dp79
g7
(dp80
Vtype
p81
Vuri
p82
sVvalue
p83
Vhttp://dbpedia.org/ontology/numberBuilt
p84
ssg8
(dp85
Vdatatype
p86
Vhttp://www.w3.org/2001/XMLSchema#nonNegativeInteger
p87
sVtype
p88
Vtyped-literal
p89
sVvalue
p90
V216
p91
ssa(dp92
g7
(dp93
Vtype
p94
Vuri
p95
sVvalue
p96
Vhttp://dbpedia.org/ontology/weight
p97
ssg8
(dp98
Vdatatype
p99
Vhttp://www.w3.org/2001/XMLSchema#double
p100
sVtype
p101
Vtyped-literal
p102
sVvalue
p103
V3.95e+07
p104
ssa(dp105
g7
(dp106
Vtype
p107
Vuri
p108
sVvalue
p109
Vhttp://dbpedia.org/ontology/yearOfConstruction
p110
ssg8
(dp111
Vdatatype
p112
Vhttp://www.w3.org/2001/XMLSchema#gYear
p113
sVtype
p114
Vtyped-literal
p115
sVvalue
p116
V1998
p117
ssa(dp118
g7
(dp119
Vtype
p120
Vuri
p121
sVvalue
p122
Vhttp://dbpedia.org/ontology/yearOfConstruction
p123
ssg8
(dp124
Vdatatype
p125
Vhttp://www.w3.org/2001/XMLSchema#gYear
p126
sVtype
p127
Vtyped-literal
p128
sVvalue
p129
V1999
p130
ssasVordered
p131
I01
ss.