(dp0
Vhead
p1
(dp2
Vlink
p3
(lp4
sVvars
p5
(lp6
Vp
p7
aVo
p8
assVresults
p9
(dp10
Vdistinct
p11
I00
sVbindings
p12
(lp13
(dp14
g7
(dp15
Vtype
p16
Vuri
p17
sVvalue
p18
Vhttp://dbpedia.org/ontology/Infrastructure/length
p19
ssg8
(dp20
Vdatatype
p21
Vhttp://dbpedia.org/datatype/kilometre
p22
sVtype
p23
Vtyped-literal
p24
sVvalue
p25
V0.16
p26
ssa(dp27
g7
(dp28
Vtype
p29
Vuri
p30
sVvalue
p31
Vhttp://dbpedia.org/ontology/abstract
p32
ssg8
(dp33
Vxml:lang
p34
Ven
p35
sVtype
p36
Vliteral
p37
sVvalue
p38
VThe Celtic Gateway (Welsh: Porth Celtaidd) is a stainless steel pedestrian and cycle bridge located in Anglesey, Wales. Opened on 19 October 2006 by Andrew Davies AM to connect Holyhead's railway station and ferry terminal with the town centre, it significantly reduced the walking time between the locations at its two ends. Crossing the Old Holyhead Harbour, the North Wales coastal railway line and the A5154 (formally the end of the A5), this 160 metre long, 7 metre wide structure was built in the futuristic architectural style by the Italian company Cimolai. The whole length of the bridge is wheelchair and pram accessible. The Gateway is further enhanced by a number of artworks. These include "Sun boats", a series of bronze plaques which have been built into the bridge paving. The sun boat image is derived from the sun-worshipping Celts who believed it travelled across the night sky in a boat.
p39
ssa(dp40
g7
(dp41
Vtype
p42
Vuri
p43
sVvalue
p44
Vhttp://dbpedia.org/ontology/bridgeCarries
p45
ssg8
(dp46
Vtype
p47
Vliteral
p48
sVvalue
p49
VPedestrians,Bicycles
p50
ssa(dp51
g7
(dp52
Vtype
p53
Vuri
p54
sVvalue
p55
Vhttp://dbpedia.org/ontology/length
p56
ssg8
(dp57
Vdatatype
p58
Vhttp://www.w3.org/2001/XMLSchema#double
p59
sVtype
p60
Vtyped-literal
p61
sVvalue
p62
V160.0
p63
ssa(dp64
g7
(dp65
Vtype
p66
Vuri
p67
sVvalue
p68
Vhttp://dbpedia.org/ontology/openingDate
p69
ssg8
(dp70
Vdatatype
p71
Vhttp://www.w3.org/2001/XMLSchema#date
p72
sVtype
p73
Vtyped-literal
p74
sVvalue
p75
V2006-10-19
p76
ssa(dp77
g7
(dp78
Vtype
p79
Vuri
p80
sVvalue
p81
Vhttp://dbpedia.org/ontology/openingYear
p82
ssg8
(dp83
Vdatatype
p84
Vhttp://www.w3.org/2001/XMLSchema#gYear
p85
sVtype
p86
Vtyped-literal
p87
sVvalue
p88
V2006
p89
ssa(dp90
g7
(dp91
Vtype
p92
Vuri
p93
sVvalue
p94
Vhttp://dbpedia.org/ontology/width
p95
ssg8
(dp96
Vdatatype
p97
Vhttp://www.w3.org/2001/XMLSchema#double
p98
sVtype
p99
Vtyped-literal
p100
sVvalue
p101
V7.0
p102
ssasVordered
p103
I01
ss.