(dp0
Vhead
p1
(dp2
Vlink
p3
(lp4
sVvars
p5
(lp6
Vp
p7
aVo
p8
assVresults
p9
(dp10
Vdistinct
p11
I00
sVbindings
p12
(lp13
(dp14
g7
(dp15
Vtype
p16
Vuri
p17
sVvalue
p18
Vhttp://dbpedia.org/ontology/abstract
p19
ssg8
(dp20
Vxml:lang
p21
Vja
p22
sVtype
p23
Vliteral
p24
sVvalue
p25
V\u3059\u3059\u304d\u306e\uff08Susukino\uff09\u306f\u3001\u5317\u6d77\u9053\u672d\u5e4c\u5e02\u4e2d\u592e\u533a\u306b\u3042\u308b\u6b53\u697d\u8857\u30fb\u7e41\u83ef\u8857\u3067\u3042\u308b\u3002\u8584\u91ce\u3001\u30b9\u30b9\u30ad\u30ce\u3068\u3082\u8868\u8a18\u3055\u308c\u308b\u3002\u6b4c\u821e\u4f0e\u753a\uff08\u6771\u4eac\u90fd\u65b0\u5bbf\u533a\uff09\u3001\u4e2d\u6d32\uff08\u798f\u5ca1\u770c\u798f\u5ca1\u5e02\uff09\u3068\u5408\u308f\u305b\u3066\u65e5\u672c\u4e09\u5927\u6b53\u697d\u8857\u3068\u547c\u3070\u308c\u308b\u4e8b\u3082\u3042\u308a\u3001\u6771\u4eac\u4ee5\u5317\u3067\u6700\u5927\u306e\u6b53\u697d\u8857\u3067\u3042\u308b\u304c\u3001\u98f2\u98df\u5e97\u30fb\u98a8\u4fd7\u5e97\u304b\u3089\u5927\u578b\u5546\u696d\u65bd\u8a2d\u30fb\u5916\u8cc7\u7cfb\u30db\u30c6\u30eb\u307e\u3067\u3001\u3042\u3089\u3086\u308b\u30b8\u30e3\u30f3\u30eb\u304c\u6df7\u5728\u3059\u308b\u5de8\u5927\u7e41\u83ef\u8857\u3067\u3082\u3042\u308b\u3002\u73fe\u5728\u3067\u306f\u3001\u65e5\u672c\u56fd\u5185\u306f\u3082\u3068\u3088\u308a\u5916\u56fd\u4eba\u306e\u59ff\u3082\u591a\u304f\u3001\u7279\u306b\u3055\u3063\u307d\u308d\u96ea\u307e\u3064\u308a\u958b\u50ac\u6642\u306b\u306f\u56fd\u5916\u304b\u3089\u306e\u89b3\u5149\u5ba2\u3082\u8a2a\u308c\u3001\u66f4\u306b\u3082\u5897\u3057\u3066\u56fd\u969b\u8272\u8c4a\u304b\u306b\u306a\u308b\u3002
p26
ssa(dp27
g7
(dp28
Vtype
p29
Vuri
p30
sVvalue
p31
Vhttp://dbpedia.org/ontology/abstract
p32
ssg8
(dp33
Vxml:lang
p34
Vzh
p35
sVtype
p36
Vliteral
p37
sVvalue
p38
V\u8584\u91ce\uff08\u3059\u3059\u304d\u306e\u3001\u30b9\u30b9\u30ad\u30ce\uff09\u662f\u65e5\u672c\u5317\u6d77\u9053\u672d\u5e4c\u5e02\u4e2d\u592e\u5340\u8457\u540d\u7684\u7d05\u71c8\u5340\uff0c\u8207\u6771\u4eac\u65b0\u5bbf\u7684\u6b4c\u821e\u4f0e\u753a\u53ca\u4e5d\u5dde\u798f\u5ca1\u7684\u4e2d\u6d32\u88ab\u5217\u70ba\u300c\u65e5\u672c\u4e09\u5927\u7d05\u71c8\u5340\u300d\uff08\u65e5\u672c3\u5927\u6b53\u697d\u8857\uff09\uff0c\u4e9e\u6d32\u4e00\u4e9b\u65c5\u884c\u5718\u4ea6\u591a\u7a31\u8584\u91ce\u70ba\u300c\u8584\u91ce\u4e0d\u591c\u5929\u300d\u3002\u73fe\u5728\u7684\u8584\u91ce\u5176\u5be6\u4e00\u76f4\u6c92\u6709\u6b63\u5f0f\u7684\u540d\u7a31\uff0c\u53ea\u662f\u56e0\u70ba\u9644\u8fd1\u6709\u8584\u91ce\u4ea4\u532f\u9ede\u53ca\u8584\u91ce\u8eca\u7ad9\u56e0\u800c\u5f97\u540d\uff0c\u66f4\u88ab\u5ee3\u6cdb\u61c9\u7528\uff0c\u8584\u91ce\u7684\u6b63\u5f0f\u5730\u57df\u7bc4\u570d\u540c\u6a23\u662f\u6a21\u7cca\u4e0d\u6e05\u7684\u3002\u76f4\u81f3\u8584\u91ce\u89c0\u5149\u5354\u6703\u78ba\u5b9a\u4e86\u8584\u91ce\u7684\u5357\u5317\u7bc4\u570d\u662f\u7531\u5357\u56db\u689d\u81f3\u5357\u516d\u689d\uff0c\u6771\u897f\u7bc4\u570d\u662f\u897f\u4e8c\u4e01\u76ee\u81f3\u897f\u516d\u4e01\u76ee\u5f8c\uff0c\u8584\u91ce\u7684\u6b63\u5f0f\u5730\u754c\u624d\u7b97\u5f97\u4ee5\u8a02\u660e\u3002 \u81f3\u65bc\u8584\u91ce\u540d\u5b57\u7684\u7531\u4f86\u4ea6\u540c\u6a23\u6709\u5f88\u591a\u8aaa\u6cd5\uff0c\u83ab\u8877\u4e00\u662f\u3002\u6700\u5e38\u898b\u7684\u8aaa\u6cd5\u6709\u5169\u7a2e\uff0c\u4e00\u7a2e\u662f\u6307\u9019\u500b\u5340\u57df\u9644\u8fd1\u66fe\u7d93\u9577\u6eff\u4e86\u4e2d\u570b\u8292\uff08\u65e5\u672c\u7a31\u70ba\u300c\u8584\u300d\u6216\u300c\u8292\u300d\uff0c\u8b80\u97f3\u70baSusuki\uff09\uff0c\u56e0\u800c\u88ab\u7a31\u70ba\u300c\u9577\u6eff\u8584\u7684\u539f\u91ce\u300d\uff1b\u53e6\u4e00\u500b\u8aaa\u6cd5\u5247\u6307\uff0c\u8584\u91ce\u4e00\u540d\u6e90\u81ea\u65bc\u660e\u6cbb\u6642\u4ee3\u8ddf\u5f9e\u5317\u6d77\u9053\u958b\u62d3\u5224\u5b98\u5ca9\u6751\u901a\u4fca\u4f86\u5230\u672d\u5e4c\u7684\u958b\u62d3\u76e3\u4e8b\u8584\u4e95\u9f8d\u4e4b\u7684\u540d\u5b57\u3002
p39
ssa(dp40
g7
(dp41
Vtype
p42
Vuri
p43
sVvalue
p44
Vhttp://dbpedia.org/ontology/abstract
p45
ssg8
(dp46
Vxml:lang
p47
Ven
p48
sVtype
p49
Vliteral
p50
sVvalue
p51
VSusukino (\u3059\u3059\u304d\u306e) is a red-light district in Ch\u016b\u014d-ku, Sapporo, Hokkaid\u014d, Japan. It is one of the major red-light districts in Japan along with Kabukich\u014d, Tokyo, and Nakasu, Fukuoka. Currently, the district is congested with many restaurants, bars, hotels, and adult-entertainment establishments. Susukino is often noted as "\u8584\u91ce" in kanji, and "\u30b9\u30b9\u30ad\u30ce" in katakana, and directly translated as "zebra grass field".
p52
ssasVordered
p53
I01
ss.