(dp0
Vhead
p1
(dp2
Vlink
p3
(lp4
sVvars
p5
(lp6
Vp
p7
aVo
p8
assVresults
p9
(dp10
Vdistinct
p11
I00
sVbindings
p12
(lp13
(dp14
g7
(dp15
Vtype
p16
Vuri
p17
sVvalue
p18
Vhttp://dbpedia.org/ontology/Infrastructure/length
p19
ssg8
(dp20
Vdatatype
p21
Vhttp://dbpedia.org/datatype/kilometre
p22
sVtype
p23
Vtyped-literal
p24
sVvalue
p25
V1.2036552
p26
ssa(dp27
g7
(dp28
Vtype
p29
Vuri
p30
sVvalue
p31
Vhttp://dbpedia.org/ontology/abstract
p32
ssg8
(dp33
Vxml:lang
p34
Ven
p35
sVtype
p36
Vliteral
p37
sVvalue
p38
VThe East River Tunnels are 4 single-track railroad tunnels that extend from the eastern end of Pennsylvania Station under 32nd and 33rd Streets in Manhattan and cross the East River to Long Island City in Queens. The tracks carry Long Island Rail Road (LIRR) and Amtrak trains travelling to and from Penn Station and points to the north and east. The tracks also carry New Jersey Transit trains deadheading to Sunnyside Yard. They are part of Amtrak's Northeast Corridor, so trains traveling between New York City and New England use the tunnels on their way to and from the Hell Gate Bridge.
p39
ssa(dp40
g7
(dp41
Vtype
p42
Vuri
p43
sVvalue
p44
Vhttp://dbpedia.org/ontology/abstract
p45
ssg8
(dp46
Vxml:lang
p47
Vja
p48
sVtype
p49
Vliteral
p50
sVvalue
p51
V\u30a4\u30fc\u30b9\u30c8\u5ddd\u30c8\u30f3\u30cd\u30eb\uff08\u82f1: East River Tunnels\uff09\u306f\u3001\u30da\u30f3\u30b7\u30eb\u30d9\u30cb\u30a2\u99c5\u306e\u6771\u7aef\u3001\u30de\u30f3\u30cf\u30c3\u30bf\u30f3\u306b\u3042\u308b32\u4e01\u76ee\u306833\u4e01\u76ee\u306e\u4ea4\u5dee\u70b9\u306e\u5730\u4e0b\u304b\u3089\u30a4\u30fc\u30b9\u30c8\u5ddd\u3092\u6a2a\u5207\u308a\u30af\u30a4\u30fc\u30f3\u30ba\u306e\u30ed\u30f3\u30b0\u30a2\u30a4\u30e9\u30f3\u30c9\u30b7\u30c6\u30a3\u3078\u4f38\u3073\u308b\u30014\u672c\u306e\u5358\u7dda\u9244\u9053\u30c8\u30f3\u30cd\u30eb\u3067\u3042\u308b\u3002\u3053\u306e\u30c8\u30f3\u30cd\u30eb\u3092\u30da\u30f3\u30b7\u30eb\u30d9\u30cb\u30a2\u99c5\u3084\u305d\u306e\u5317\u3084\u6771\u306e\u5730\u70b9\u3092\u767a\u7740\u3059\u308b\u30ed\u30f3\u30b0\u30a2\u30a4\u30e9\u30f3\u30c9\u9244\u9053 (LIRR) \u3068\u30a2\u30e0\u30c8\u30e9\u30c3\u30af\u306e\u5217\u8eca\u304c\u884c\u304d\u6765\u3059\u308b\u3002\u307e\u305f\u3053\u306e\u30c8\u30f3\u30cd\u30eb\u3092\u30b5\u30cb\u30fc\u30b5\u30a4\u30c9\u30fb\u30e4\u30fc\u30c9\u3078\u56de\u9001\u3059\u308b\u30cb\u30e5\u30fc\u30b8\u30e3\u30fc\u30b8\u30fc\u30fb\u30c8\u30e9\u30f3\u30b8\u30c3\u30c8\u306e\u5217\u8eca\u3082\u884c\u304d\u6765\u3059\u308b\u3002\u30c8\u30f3\u30cd\u30eb\u306f\u30a2\u30e0\u30c8\u30e9\u30c3\u30af\u306e\u5317\u6771\u56de\u5eca\u306e\u4e00\u90e8\u3067\u3042\u308b\u3002\u30cb\u30e5\u30fc\u30e8\u30fc\u30af\u3068\u30dc\u30b9\u30c8\u30f3\u306e\u9593\u3084\u305d\u306e\u4ed6\u306e\u76ee\u7684\u5730\u306e\u9593\u3092\u884c\u304d\u6765\u3059\u308b\u5217\u8eca\u306f\u30d8\u30eb\u30b2\u30fc\u30c8\u6a4b\u3092\u884c\u304d\u6765\u3059\u308b\u9014\u4e2d\u3067\u3053\u306e\u30c8\u30f3\u30cd\u30eb\u3092\u4f7f\u7528\u3059\u308b\u3002
p52
ssa(dp53
g7
(dp54
Vtype
p55
Vuri
p56
sVvalue
p57
Vhttp://dbpedia.org/ontology/buildingEndYear
p58
ssg8
(dp59
Vdatatype
p60
Vhttp://www.w3.org/2001/XMLSchema#gYear
p61
sVtype
p62
Vtyped-literal
p63
sVvalue
p64
V1909
p65
ssa(dp66
g7
(dp67
Vtype
p68
Vuri
p69
sVvalue
p70
Vhttp://dbpedia.org/ontology/buildingStartYear
p71
ssg8
(dp72
Vdatatype
p73
Vhttp://www.w3.org/2001/XMLSchema#gYear
p74
sVtype
p75
Vtyped-literal
p76
sVvalue
p77
V1904
p78
ssa(dp79
g7
(dp80
Vtype
p81
Vuri
p82
sVvalue
p83
Vhttp://dbpedia.org/ontology/length
p84
ssg8
(dp85
Vdatatype
p86
Vhttp://www.w3.org/2001/XMLSchema#double
p87
sVtype
p88
Vtyped-literal
p89
sVvalue
p90
V1203.66
p91
ssa(dp92
g7
(dp93
Vtype
p94
Vuri
p95
sVvalue
p96
Vhttp://dbpedia.org/ontology/openingDate
p97
ssg8
(dp98
Vdatatype
p99
Vhttp://www.w3.org/2001/XMLSchema#date
p100
sVtype
p101
Vtyped-literal
p102
sVvalue
p103
V1910-09-08
p104
ssa(dp105
g7
(dp106
Vtype
p107
Vuri
p108
sVvalue
p109
Vhttp://dbpedia.org/ontology/openingYear
p110
ssg8
(dp111
Vdatatype
p112
Vhttp://www.w3.org/2001/XMLSchema#gYear
p113
sVtype
p114
Vtyped-literal
p115
sVvalue
p116
V1910
p117
ssa(dp118
g7
(dp119
Vtype
p120
Vuri
p121
sVvalue
p122
Vhttp://dbpedia.org/ontology/width
p123
ssg8
(dp124
Vdatatype
p125
Vhttp://www.w3.org/2001/XMLSchema#double
p126
sVtype
p127
Vtyped-literal
p128
sVvalue
p129
V7.0104
p130
ssa(dp131
g7
(dp132
Vtype
p133
Vuri
p134
sVvalue
p135
Vhttp://dbpedia.org/ontology/yearOfConstruction
p136
ssg8
(dp137
Vdatatype
p138
Vhttp://www.w3.org/2001/XMLSchema#gYear
p139
sVtype
p140
Vtyped-literal
p141
sVvalue
p142
V1904
p143
ssasVordered
p144
I01
ss.