(dp0
Vhead
p1
(dp2
Vlink
p3
(lp4
sVvars
p5
(lp6
Vp
p7
aVo
p8
assVresults
p9
(dp10
Vdistinct
p11
I00
sVbindings
p12
(lp13
(dp14
g7
(dp15
Vtype
p16
Vuri
p17
sVvalue
p18
Vhttp://dbpedia.org/ontology/birthDate
p19
ssg8
(dp20
Vdatatype
p21
Vhttp://www.w3.org/2001/XMLSchema#date
p22
sVtype
p23
Vtyped-literal
p24
sVvalue
p25
V1962-12-25
p26
ssa(dp27
g7
(dp28
Vtype
p29
Vuri
p30
sVvalue
p31
Vhttp://dbpedia.org/ontology/abstract
p32
ssg8
(dp33
Vxml:lang
p34
Ven
p35
sVtype
p36
Vliteral
p37
sVvalue
p38
VTony Currie (born 25 December 1962) is an Australian former rugby league footballer of the 1980s. He is of Aboriginal descent and played for the Australian side, State of Origin for Queensland. At club level he played for the Brisbane Broncos and the Canterbury Bulldogs in Australia, appearing in premiership-winning sides for both teams, as well as Leeds in England. I'n 1982, while playing with Western Suburbs, Currie won the Brisbane Rugby League premiership's Rothmans Medal. On 20 July 1988 Currie played for Australia in their record 62-point win over Papua New Guinea, scoring a try. He played in Brisbane's first grand final in 1992, helping them to claim their maiden premiership. In the weeks following the grand final Currie travelled with the Broncos to England, where he played from the interchange bench in the 1992 World Club Challenge against British champions Wigan, helping Brisbane become the first NSWRL club to win the match in Britain. Currie later coached British Super League club, the London Broncos between 1996-1998. He was President of the Wests Panthers club for a number of years.
p39
ssa(dp40
g7
(dp41
Vtype
p42
Vuri
p43
sVvalue
p44
Vhttp://dbpedia.org/ontology/activeYearsEndYear
p45
ssg8
(dp46
Vdatatype
p47
Vhttp://www.w3.org/2001/XMLSchema#gYear
p48
sVtype
p49
Vtyped-literal
p50
sVvalue
p51
V0098
p52
ssa(dp53
g7
(dp54
Vtype
p55
Vuri
p56
sVvalue
p57
Vhttp://dbpedia.org/ontology/activeYearsStartYear
p58
ssg8
(dp59
Vdatatype
p60
Vhttp://www.w3.org/2001/XMLSchema#gYear
p61
sVtype
p62
Vtyped-literal
p63
sVvalue
p64
V1996
p65
ssasVordered
p66
I01
ss.