(dp0
Vhead
p1
(dp2
Vlink
p3
(lp4
sVvars
p5
(lp6
Vp
p7
aVo
p8
assVresults
p9
(dp10
Vdistinct
p11
I00
sVbindings
p12
(lp13
(dp14
g7
(dp15
Vtype
p16
Vuri
p17
sVvalue
p18
Vhttp://dbpedia.org/ontology/abstract
p19
ssg8
(dp20
Vxml:lang
p21
Ven
p22
sVtype
p23
Vliteral
p24
sVvalue
p25
VThe Abdus Salam Medal (Official:Abdus Salam Medal for Science and Technology), is an award presented by TWAS, the academy of sciences for the developing world in Trieste. The Abdus Salam Medal was instituted in 1995 to honour the Academy's founder and first president, Nobel Laureate Professor Abdus Salam and is awarded to highly distinguished personalities who have served the cause of science in the Developing World.
p26
ssa(dp27
g7
(dp28
Vtype
p29
Vuri
p30
sVvalue
p31
Vhttp://dbpedia.org/ontology/year
p32
ssg8
(dp33
Vdatatype
p34
Vhttp://www.w3.org/2001/XMLSchema#gYear
p35
sVtype
p36
Vtyped-literal
p37
sVvalue
p38
V1995
p39
ssasVordered
p40
I01
ss.