(dp0
Vhead
p1
(dp2
Vlink
p3
(lp4
sVvars
p5
(lp6
Vp
p7
aVo
p8
assVresults
p9
(dp10
Vdistinct
p11
I00
sVbindings
p12
(lp13
(dp14
g7
(dp15
Vtype
p16
Vuri
p17
sVvalue
p18
Vhttp://dbpedia.org/ontology/birthDate
p19
ssg8
(dp20
Vdatatype
p21
Vhttp://www.w3.org/2001/XMLSchema#date
p22
sVtype
p23
Vtyped-literal
p24
sVvalue
p25
V1936-09-18
p26
ssa(dp27
g7
(dp28
Vtype
p29
Vuri
p30
sVvalue
p31
Vhttp://dbpedia.org/ontology/birthDate
p32
ssg8
(dp33
Vdatatype
p34
Vhttp://www.w3.org/2001/XMLSchema#date
p35
sVtype
p36
Vtyped-literal
p37
sVvalue
p38
V1936-9-18
p39
ssa(dp40
g7
(dp41
Vtype
p42
Vuri
p43
sVvalue
p44
Vhttp://dbpedia.org/ontology/abstract
p45
ssg8
(dp46
Vxml:lang
p47
Ven
p48
sVtype
p49
Vliteral
p50
sVvalue
p51
VFrank William Kuchta (born September 18, 1936) is a former gridiron football center and linebacker in the National Football League (NFL) for the Washington Redskins. He was also among the players of the inaugural Denver Broncos team in the American Football League (AFL). He played college football at the University of Notre Dame and was drafted in the ninth round of the 1958 NFL Draft. During his career at the University of Notre Dame he played in the historic 1957 Notre Dame vs the University of Oklahoma game where the Irish broke Oklahoma's 47-game winning streak\u2014a streak which stands to this day. He made a crucial tackle to help win the game and was awarded AP Lineman of the Week. After leaving the NFL he played for a season with the Calgary Stampeders in the Canadian Football League (CFL).
p52
ssa(dp53
g7
(dp54
Vtype
p55
Vuri
p56
sVvalue
p57
Vhttp://dbpedia.org/ontology/draftPick
p58
ssg8
(dp59
Vtype
p60
Vliteral
p61
sVvalue
p62
V102
p63
ssa(dp64
g7
(dp65
Vtype
p66
Vuri
p67
sVvalue
p68
Vhttp://dbpedia.org/ontology/draftRound
p69
ssg8
(dp70
Vtype
p71
Vliteral
p72
sVvalue
p73
V9
p74
ssa(dp75
g7
(dp76
Vtype
p77
Vuri
p78
sVvalue
p79
Vhttp://dbpedia.org/ontology/draftYear
p80
ssg8
(dp81
Vdatatype
p82
Vhttp://www.w3.org/2001/XMLSchema#gYear
p83
sVtype
p84
Vtyped-literal
p85
sVvalue
p86
V1958
p87
ssa(dp88
g7
(dp89
Vtype
p90
Vuri
p91
sVvalue
p92
Vhttp://dbpedia.org/ontology/number
p93
ssg8
(dp94
Vtype
p95
Vliteral
p96
sVvalue
p97
V56, 52
p98
ssasVordered
p99
I01
ss.