(dp0
Vhead
p1
(dp2
Vlink
p3
(lp4
sVvars
p5
(lp6
Vp
p7
aVo
p8
assVresults
p9
(dp10
Vdistinct
p11
I00
sVbindings
p12
(lp13
(dp14
g7
(dp15
Vtype
p16
Vuri
p17
sVvalue
p18
Vhttp://dbpedia.org/ontology/Infrastructure/length
p19
ssg8
(dp20
Vdatatype
p21
Vhttp://dbpedia.org/datatype/kilometre
p22
sVtype
p23
Vtyped-literal
p24
sVvalue
p25
V14.90252544
p26
ssa(dp27
g7
(dp28
Vtype
p29
Vuri
p30
sVvalue
p31
Vhttp://dbpedia.org/ontology/abstract
p32
ssg8
(dp33
Vxml:lang
p34
Ven
p35
sVtype
p36
Vliteral
p37
sVvalue
p38
VState Route 215 (SR 215) is a primary state highway in the U.S. state of Virginia. Known as Vint Hill Road, the state highway runs 9.26 miles (14.90 km) from U.S. Route 15 and US 29 at Buckland east to SR 28 near Bristow. SR 215 forms part of a connection between Warrenton and Manassas.
p39
ssa(dp40
g7
(dp41
Vtype
p42
Vuri
p43
sVvalue
p44
Vhttp://dbpedia.org/ontology/length
p45
ssg8
(dp46
Vdatatype
p47
Vhttp://www.w3.org/2001/XMLSchema#double
p48
sVtype
p49
Vtyped-literal
p50
sVvalue
p51
V14902.5
p52
ssa(dp53
g7
(dp54
Vtype
p55
Vuri
p56
sVvalue
p57
Vhttp://dbpedia.org/ontology/routeEndDirection
p58
ssg8
(dp59
Vtype
p60
Vliteral
p61
sVvalue
p62
VEast
p63
ssa(dp64
g7
(dp65
Vtype
p66
Vuri
p67
sVvalue
p68
Vhttp://dbpedia.org/ontology/routeNumber
p69
ssg8
(dp70
Vtype
p71
Vliteral
p72
sVvalue
p73
V215
p74
ssa(dp75
g7
(dp76
Vtype
p77
Vuri
p78
sVvalue
p79
Vhttp://dbpedia.org/ontology/routeStartDirection
p80
ssg8
(dp81
Vtype
p82
Vliteral
p83
sVvalue
p84
VWest
p85
ssa(dp86
g7
(dp87
Vtype
p88
Vuri
p89
sVvalue
p90
Vhttp://dbpedia.org/ontology/routeTypeAbbreviation
p91
ssg8
(dp92
Vtype
p93
Vliteral
p94
sVvalue
p95
VVA
p96
ssasVordered
p97
I01
ss.