(dp0
Vhead
p1
(dp2
Vlink
p3
(lp4
sVvars
p5
(lp6
Vp
p7
aVo
p8
assVresults
p9
(dp10
Vdistinct
p11
I00
sVbindings
p12
(lp13
(dp14
g7
(dp15
Vtype
p16
Vuri
p17
sVvalue
p18
Vhttp://dbpedia.org/ontology/abstract
p19
ssg8
(dp20
Vxml:lang
p21
Vja
p22
sVtype
p23
Vliteral
p24
sVvalue
p25
V\u30a4\u30f4\u30db\u30b9\u5cf6 (Ivuhos\u3001Ibugos\u3001Ibujos\u3001Vuhus\u3001Ibahos)\u306f\u30d5\u30a3\u30ea\u30d4\u30f3\u306e\u30eb\u30bd\u30f3\u5cf6\u5317\u90e8\u306b\u3042\u308b\u30d0\u30bf\u30f3\u8af8\u5cf6\u306e\u5cf6\u3002\u30b5\u30d6\u30bf\u30f3\u5cf6\u306e\u897f2km\u307b\u3069\u306e\u4f4d\u7f6e\u306b\u96a3\u63a5\u3057\u3066\u304a\u308a\u3001\u3055\u3089\u306b\u897f\u306b\u30c7\u30b1\u30a4\u5cf6\u304c\u5b58\u5728\u3059\u308b\u3002 \u30a4\u30f4\u30db\u30b9\u5cf6\u306f\u5c0f\u3055\u304f\u3001\u5357\u90e8\u306e\u4e18\u3092\u9664\u304d\u304a\u304a\u3080\u306d\u6a19\u9ad8\u3082\u4f4e\u3044\u3002\u4e18\u306b\u9762\u3059\u308b\u6771\u90e8\u306e\u73ca\u745a\u306e\u6d5c\u304c\u552f\u4e00\u306e\u5b89\u5168\u306a\u4e0a\u9678\u5730\u70b9\u3067\u3042\u308b\u3002\u6c34\u8def\u4e21\u5cb8\u306f\u73ca\u745a\u7901\u306b\u56f2\u307e\u308c\u3066\u3044\u308b\u3002 \u73fe\u5728\u306f\u7121\u4eba\u5cf6\u3068\u306a\u3063\u3066\u3044\u308b\u304c\u30011900\u5e74\u4ee3\u521d\u671f\u306e\u30a2\u30e1\u30ea\u30ab\u306e\u6e2c\u91cf\u306b\u3088\u308b\u3068\u5cf6\u5185\u5357\u7aef\u90e8\u306b\u4f4f\u6c11\u304b\u5c45\u4f4f\u3057\u3066\u3044\u305f\u3068\u3055\u308c\u308b\u3002 1830\u5e74\u3001\u5ca1\u5c71\u304b\u3089\u6c5f\u6238\u306b\u5411\u304b\u3063\u3066\u3044\u305f\u795e\u529b\u4e38\u304c\u5d50\u3067\u6f02\u6d41\u3057\u3001\u30a4\u30f4\u30db\u30b9\u5cf6\u306b\u6d41\u308c\u7740\u3044\u3066\u3044\u308b\u3002\u6f02\u6d41\u8005\u306f\u305d\u306e\u5f8c\u73fe\u5730\u4f4f\u6c11\u306b\u6551\u52a9\u3055\u308c\u3001\u9577\u5d0e\u306b\u5e30\u9084\u3057\u3066\u3044\u308b\u3002
p26
ssa(dp27
g7
(dp28
Vtype
p29
Vuri
p30
sVvalue
p31
Vhttp://dbpedia.org/ontology/abstract
p32
ssg8
(dp33
Vxml:lang
p34
Vzh
p35
sVtype
p36
Vliteral
p37
sVvalue
p38
V\u6c83\u8377\u65af\u5cf6\uff08\u82f1\u8bed\uff1aVohas\u3001Ibugos\u3001Ibujos\u3001Vuhus\u3001Ibahos\uff09\uff0c\u662f\u4f4d\u65bc\u5df4\u4e39\u7fa4\u5cf6\u7684\u5cf6\u5dbc\u4e4b\u4e00\uff0c\u76ee\u524d\u7531\u5df4\u4e39\u7fa4\u5cf6\u7701\u7ba1\u8f44\uff0c\u662f\u4e00\u5ea7\u7121\u4eba\u5cf6\u3002\u8207\u6771\u908a\u7684\u6c99\u5766\u5cf6\u76f8\u9694\u4e00\u500b\u7d04\u5169\u516c\u91cc\u5bec\u7684\u6d77\u5cfd\uff0c\u5730\u52e2\u6700\u9ad8\u8655\u5728\u5cf6\u7684\u5357\u90e8\u3002 \u6cbf\u5cb8\u552f\u4e00\u7684\u5b89\u5168\u4e0a\u9678\u5730\u9ede\u5728\u6771\u5cb8\u7684\u73ca\u745a\u7901\u7058\u3002\u6f6e\u6c50\u6b63\u503c\u6f32\u6f6e\u6642\uff0c\u4ee53\u52304\u7bc0\u7684\u901f\u5ea6\u6e67\u5411\u5357\u908a\uff0c\u9000\u6f6e\u6642\u5247\u5411\u5317\u9000\u537b\u3002
p39
ssa(dp40
g7
(dp41
Vtype
p42
Vuri
p43
sVvalue
p44
Vhttp://dbpedia.org/ontology/abstract
p45
ssg8
(dp46
Vxml:lang
p47
Ven
p48
sVtype
p49
Vliteral
p50
sVvalue
p51
VIvuhos (also known as Ibugos, Ibujos, Vuhus and Ibahos Island) is one of the islands of Batanes, the northernmost province of the Philippines. The uninhabited island is located west of Sabtang Island and is separated by a deep channel nearly 2 kilometres (1.2 mi) wide. Ivuhos Island is small and rather low, except a hill on the south end. A coral beach before the hill on the eastern side is the only safe landing place on the island. The shores on both sides of the channel are bordered by reef. The flood tide sets southward with a velocity from 3 to 4 knots, and the ebb northward.
p52
ssa(dp53
g7
(dp54
Vtype
p55
Vuri
p56
sVvalue
p57
Vhttp://dbpedia.org/ontology/length
p58
ssg8
(dp59
Vdatatype
p60
Vhttp://www.w3.org/2001/XMLSchema#double
p61
sVtype
p62
Vtyped-literal
p63
sVvalue
p64
V4000.0
p65
ssasVordered
p66
I01
ss.