(dp0
Vhead
p1
(dp2
Vlink
p3
(lp4
sVvars
p5
(lp6
Vp
p7
aVo
p8
assVresults
p9
(dp10
Vdistinct
p11
I00
sVbindings
p12
(lp13
(dp14
g7
(dp15
Vtype
p16
Vuri
p17
sVvalue
p18
Vhttp://dbpedia.org/ontology/abstract
p19
ssg8
(dp20
Vxml:lang
p21
Ven
p22
sVtype
p23
Vliteral
p24
sVvalue
p25
VThe Royal Danish Academy of Fine Arts, School of Architecture ((Danish: Det Kongelige Danske Kunsakademi, Arkitektskolen. often abbreviated as KARCH) or Kunstakademiets Arkitektskole is an institution of higher education in Copenhagen, Denmark under the Royal Danish Academy of Fine Arts, Schools of Architecture, Design and Conservation,which is oldest architecture art school in the world for more than 250 years.
p26
ssa(dp27
g7
(dp28
Vtype
p29
Vuri
p30
sVvalue
p31
Vhttp://dbpedia.org/ontology/numberOfStudents
p32
ssg8
(dp33
Vdatatype
p34
Vhttp://www.w3.org/2001/XMLSchema#nonNegativeInteger
p35
sVtype
p36
Vtyped-literal
p37
sVvalue
p38
V650
p39
ssasVordered
p40
I01
ss.