(dp0
Vhead
p1
(dp2
Vlink
p3
(lp4
sVvars
p5
(lp6
Vp
p7
aVo
p8
assVresults
p9
(dp10
Vdistinct
p11
I00
sVbindings
p12
(lp13
(dp14
g7
(dp15
Vtype
p16
Vuri
p17
sVvalue
p18
Vhttp://dbpedia.org/ontology/abstract
p19
ssg8
(dp20
Vxml:lang
p21
Ven
p22
sVtype
p23
Vliteral
p24
sVvalue
p25
VOpala is a territory in the Tshopo Province of the Democratic Republic of the Congo. The administrative center is the town of Opala. Other communities are Yatolema, Lokilo and Mayoko.The territory is divided into Sectors and Chiefdoms: \u000a* Balinga-Lindja Sector \u000a* Yawende-Loolo Sector \u000a* Yeyango Chiefdom \u000a* Yomale Chiefdom \u000a* Yalingo Chiefdom \u000a* Iye Sector \u000a* Yapandu Chiefdom \u000a* Mongo Chiefdom \u000a* Kembe Chiefdom \u000a* Opala Sector
p26
ssasVordered
p27
I01
ss.