(dp0
Vhead
p1
(dp2
Vlink
p3
(lp4
sVvars
p5
(lp6
Vp
p7
aVo
p8
assVresults
p9
(dp10
Vdistinct
p11
I00
sVbindings
p12
(lp13
(dp14
g7
(dp15
Vtype
p16
Vuri
p17
sVvalue
p18
Vhttp://dbpedia.org/ontology/abstract
p19
ssg8
(dp20
Vxml:lang
p21
Ven
p22
sVtype
p23
Vliteral
p24
sVvalue
p25
VThe Bucharest Trophy (Romanian: Trofeul Bucure\u0219ti) is a pre-season international women's team handball tournament for clubs, held each year in Bucharest, Romania. The competition is hosted by Liga Na\u0163ional\u0103 club CSM Bucharest at the Sala Polivalent\u0103 and governed by the rules and regulations of the IHF. It is currently contested by six teams. The event, inaugurated in 2014, is considered the most prestigious annual friendly tournament that takes place in Romania.
p26
ssa(dp27
g7
(dp28
Vtype
p29
Vuri
p30
sVvalue
p31
Vhttp://dbpedia.org/ontology/currentSeason
p32
ssg8
(dp33
Vtype
p34
Vliteral
p35
sVvalue
p36
V2015 Bucharest Trophy
p37
ssa(dp38
g7
(dp39
Vtype
p40
Vuri
p41
sVvalue
p42
Vhttp://dbpedia.org/ontology/foundingYear
p43
ssg8
(dp44
Vdatatype
p45
Vhttp://www.w3.org/2001/XMLSchema#gYear
p46
sVtype
p47
Vtyped-literal
p48
sVvalue
p49
V2014
p50
ssa(dp51
g7
(dp52
Vtype
p53
Vuri
p54
sVvalue
p55
Vhttp://dbpedia.org/ontology/participant
p56
ssg8
(dp57
Vtype
p58
Vliteral
p59
sVvalue
p60
V6
p61
ssa(dp62
g7
(dp63
Vtype
p64
Vuri
p65
sVvalue
p66
Vhttp://dbpedia.org/ontology/participant
p67
ssg8
(dp68
Vtype
p69
Vliteral
p70
sVvalue
p71
VCSM Bucharest
p72
ssasVordered
p73
I01
ss.