(dp0
Vhead
p1
(dp2
Vlink
p3
(lp4
sVvars
p5
(lp6
Vp
p7
aVo
p8
assVresults
p9
(dp10
Vdistinct
p11
I00
sVbindings
p12
(lp13
(dp14
g7
(dp15
Vtype
p16
Vuri
p17
sVvalue
p18
Vhttp://dbpedia.org/ontology/abstract
p19
ssg8
(dp20
Vxml:lang
p21
Ven
p22
sVtype
p23
Vliteral
p24
sVvalue
p25
VGrand Saline Independent School District is an East Texas public school district based in Grand Saline, Texas (USA). The District eccompasses roughly all of northeastern Van Zandt County and has very small portion in extreme northwestern Smith County. The District operates 4 campuses in 5 buildings and also has owns various other buildings on former school district property. The district has a rating of "Standards Met", the highest rating given by the Texas Education Agency.
p26
ssa(dp27
g7
(dp28
Vtype
p29
Vuri
p30
sVvalue
p31
Vhttp://dbpedia.org/ontology/address
p32
ssg8
(dp33
Vxml:lang
p34
Ven
p35
sVtype
p36
Vliteral
p37
sVvalue
p38
V400 Stadium Dr.
p39
ssa(dp40
g7
(dp41
Vtype
p42
Vuri
p43
sVvalue
p44
Vhttp://dbpedia.org/ontology/mascot
p45
ssg8
(dp46
Vtype
p47
Vliteral
p48
sVvalue
p49
VIndians/Lady Indians
p50
ssa(dp51
g7
(dp52
Vtype
p53
Vuri
p54
sVvalue
p55
Vhttp://dbpedia.org/ontology/motto
p56
ssg8
(dp57
Vtype
p58
Vliteral
p59
sVvalue
p60
V"Changing the World, One Student at a Time"
p61
ssa(dp62
g7
(dp63
Vtype
p64
Vuri
p65
sVvalue
p66
Vhttp://dbpedia.org/ontology/numberOfStudents
p67
ssg8
(dp68
Vdatatype
p69
Vhttp://www.w3.org/2001/XMLSchema#nonNegativeInteger
p70
sVtype
p71
Vtyped-literal
p72
sVvalue
p73
V1200
p74
ssa(dp75
g7
(dp76
Vtype
p77
Vuri
p78
sVvalue
p79
Vhttp://dbpedia.org/ontology/postalCode
p80
ssg8
(dp81
Vtype
p82
Vliteral
p83
sVvalue
p84
V75140-1038
p85
ssasVordered
p86
I01
ss.