(dp0
Vhead
p1
(dp2
Vlink
p3
(lp4
sVvars
p5
(lp6
Vp
p7
aVo
p8
assVresults
p9
(dp10
Vdistinct
p11
I00
sVbindings
p12
(lp13
(dp14
g7
(dp15
Vtype
p16
Vuri
p17
sVvalue
p18
Vhttp://dbpedia.org/ontology/birthDate
p19
ssg8
(dp20
Vdatatype
p21
Vhttp://www.w3.org/2001/XMLSchema#date
p22
sVtype
p23
Vtyped-literal
p24
sVvalue
p25
V1960-12-24
p26
ssa(dp27
g7
(dp28
Vtype
p29
Vuri
p30
sVvalue
p31
Vhttp://dbpedia.org/ontology/abstract
p32
ssg8
(dp33
Vxml:lang
p34
Ven
p35
sVtype
p36
Vliteral
p37
sVvalue
p38
VCharles Gene "Chuck" Thomas (born December 24, 1960 in Houston, Texas) is a former professional American football center in the National Football League. He played seven seasons for the Atlanta Falcons (1985) and the San Francisco 49ers (1987\u20131992). Chuck Thomas owns a rare hat trick in the world of American football. He played on teams which won championships at three levels of competition. In 1978 he was a member of the Stratford High School Spartans which won the Class 4A Texas State High School Championship. In 1985 he was a member of the Oklahoma Sooners who won the NCAA Division I National Football Championship. In 1988 & 1989 he was a member of the San Francisco 49ers which won Super Bowl XXIII & Super Bowl XXIV respectively.
p39
ssa(dp40
g7
(dp41
Vtype
p42
Vuri
p43
sVvalue
p44
Vhttp://dbpedia.org/ontology/activeYearsEndYear
p45
ssg8
(dp46
Vdatatype
p47
Vhttp://www.w3.org/2001/XMLSchema#gYear
p48
sVtype
p49
Vtyped-literal
p50
sVvalue
p51
V1992
p52
ssa(dp53
g7
(dp54
Vtype
p55
Vuri
p56
sVvalue
p57
Vhttp://dbpedia.org/ontology/activeYearsStartYear
p58
ssg8
(dp59
Vdatatype
p60
Vhttp://www.w3.org/2001/XMLSchema#gYear
p61
sVtype
p62
Vtyped-literal
p63
sVvalue
p64
V1985
p65
ssa(dp66
g7
(dp67
Vtype
p68
Vuri
p69
sVvalue
p70
Vhttp://dbpedia.org/ontology/draftPick
p71
ssg8
(dp72
Vtype
p73
Vliteral
p74
sVvalue
p75
V199
p76
ssa(dp77
g7
(dp78
Vtype
p79
Vuri
p80
sVvalue
p81
Vhttp://dbpedia.org/ontology/draftPick
p82
ssg8
(dp83
Vtype
p84
Vliteral
p85
sVvalue
p86
V(By theHouston Oilers)
p87
ssa(dp88
g7
(dp89
Vtype
p90
Vuri
p91
sVvalue
p92
Vhttp://dbpedia.org/ontology/draftRound
p93
ssg8
(dp94
Vtype
p95
Vliteral
p96
sVvalue
p97
V8
p98
ssa(dp99
g7
(dp100
Vtype
p101
Vuri
p102
sVvalue
p103
Vhttp://dbpedia.org/ontology/draftYear
p104
ssg8
(dp105
Vdatatype
p106
Vhttp://www.w3.org/2001/XMLSchema#gYear
p107
sVtype
p108
Vtyped-literal
p109
sVvalue
p110
V1985
p111
ssa(dp112
g7
(dp113
Vtype
p114
Vuri
p115
sVvalue
p116
Vhttp://dbpedia.org/ontology/number
p117
ssg8
(dp118
Vtype
p119
Vliteral
p120
sVvalue
p121
V66, 60
p122
ssasVordered
p123
I01
ss.