(dp0
Vhead
p1
(dp2
Vlink
p3
(lp4
sVvars
p5
(lp6
Vp
p7
aVo
p8
assVresults
p9
(dp10
Vdistinct
p11
I00
sVbindings
p12
(lp13
(dp14
g7
(dp15
Vtype
p16
Vuri
p17
sVvalue
p18
Vhttp://dbpedia.org/ontology/Engine/cylinderBore
p19
ssg8
(dp20
Vdatatype
p21
Vhttp://dbpedia.org/datatype/millimetre
p22
sVtype
p23
Vtyped-literal
p24
sVvalue
p25
V90.0
p26
ssa(dp27
g7
(dp28
Vtype
p29
Vuri
p30
sVvalue
p31
Vhttp://dbpedia.org/ontology/Engine/cylinderBore
p32
ssg8
(dp33
Vdatatype
p34
Vhttp://dbpedia.org/datatype/millimetre
p35
sVtype
p36
Vtyped-literal
p37
sVvalue
p38
V94.0
p39
ssa(dp40
g7
(dp41
Vtype
p42
Vuri
p43
sVvalue
p44
Vhttp://dbpedia.org/ontology/Engine/displacement
p45
ssg8
(dp46
Vdatatype
p47
Vhttp://dbpedia.org/datatype/cubicCentimetre
p48
sVtype
p49
Vtyped-literal
p50
sVvalue
p51
V3900.0
p52
ssa(dp53
g7
(dp54
Vtype
p55
Vuri
p56
sVvalue
p57
Vhttp://dbpedia.org/ontology/Engine/displacement
p58
ssg8
(dp59
Vdatatype
p60
Vhttp://dbpedia.org/datatype/cubicCentimetre
p61
sVtype
p62
Vtyped-literal
p63
sVvalue
p64
V4000.0
p65
ssa(dp66
g7
(dp67
Vtype
p68
Vuri
p69
sVvalue
p70
Vhttp://dbpedia.org/ontology/Engine/displacement
p71
ssg8
(dp72
Vdatatype
p73
Vhttp://dbpedia.org/datatype/cubicCentimetre
p74
sVtype
p75
Vtyped-literal
p76
sVvalue
p77
V4200.0
p78
ssa(dp79
g7
(dp80
Vtype
p81
Vuri
p82
sVvalue
p83
Vhttp://dbpedia.org/ontology/Engine/pistonStroke
p84
ssg8
(dp85
Vdatatype
p86
Vhttp://dbpedia.org/datatype/millimetre
p87
sVtype
p88
Vtyped-literal
p89
sVvalue
p90
V102.0
p91
ssa(dp92
g7
(dp93
Vtype
p94
Vuri
p95
sVvalue
p96
Vhttp://dbpedia.org/ontology/Engine/pistonStroke
p97
ssg8
(dp98
Vdatatype
p99
Vhttp://dbpedia.org/datatype/millimetre
p100
sVtype
p101
Vtyped-literal
p102
sVvalue
p103
V95.0
p104
ssa(dp105
g7
(dp106
Vtype
p107
Vuri
p108
sVvalue
p109
Vhttp://dbpedia.org/ontology/Engine/powerOutput
p110
ssg8
(dp111
Vdatatype
p112
Vhttp://dbpedia.org/datatype/kilowatt
p113
sVtype
p114
Vtyped-literal
p115
sVvalue
p116
V101.0
p117
ssa(dp118
g7
(dp119
Vtype
p120
Vuri
p121
sVvalue
p122
Vhttp://dbpedia.org/ontology/Engine/powerOutput
p123
ssg8
(dp124
Vdatatype
p125
Vhttp://dbpedia.org/datatype/kilowatt
p126
sVtype
p127
Vtyped-literal
p128
sVvalue
p129
V116.0
p130
ssa(dp131
g7
(dp132
Vtype
p133
Vuri
p134
sVvalue
p135
Vhttp://dbpedia.org/ontology/Engine/torqueOutput
p136
ssg8
(dp137
Vdatatype
p138
Vhttp://dbpedia.org/datatype/newtonMetre
p139
sVtype
p140
Vtyped-literal
p141
sVvalue
p142
V271.0
p143
ssa(dp144
g7
(dp145
Vtype
p146
Vuri
p147
sVvalue
p148
Vhttp://dbpedia.org/ontology/Engine/torqueOutput
p149
ssg8
(dp150
Vdatatype
p151
Vhttp://dbpedia.org/datatype/newtonMetre
p152
sVtype
p153
Vtyped-literal
p154
sVvalue
p155
V303.0
p156
ssa(dp157
g7
(dp158
Vtype
p159
Vuri
p160
sVvalue
p161
Vhttp://dbpedia.org/ontology/abstract
p162
ssg8
(dp163
Vxml:lang
p164
Vja
p165
sVtype
p166
Vliteral
p167
sVvalue
p168
V\u30c8\u30e8\u30bf\u30fbF\u578b\u30a8\u30f3\u30b8\u30f3\uff08\u30c8\u30e8\u30bf\u30fbF\u304c\u305f\u30a8\u30f3\u30b8\u30f3\uff09\u306f\u3001\u30c8\u30e8\u30bf\u81ea\u52d5\u8eca\u306e\u6c34\u51b7\u76f4\u52176\u6c17\u7b52\u30ac\u30bd\u30ea\u30f3\u30a8\u30f3\u30b8\u30f3\u306e\u7cfb\u5217\u3067\u3042\u308b\u3002 \u521d\u4ee3B\u578b\u306b\u4ee3\u308f\u308b\u30d0\u30b9\u3001\u30c8\u30e9\u30c3\u30af\u7528\u9ad8\u901f\u30a8\u30f3\u30b8\u30f3\u3068\u3057\u30661949\u5e74\u306b\u767b\u5834\u3002\u57fa\u672c\u7684\u306b\u306fB\u578b\u306e\u30dc\u30a2\u30a2\u30c3\u30d7\u3067\u6392\u6c17\u91cf\u5897\u5927\u3057\u305f\u5f37\u5316\u578b\u30a8\u30f3\u30b8\u30f3\u30b7\u30ea\u30fc\u30ba\u3067\u3042\u308b\u3002 \u672c\u6765\u306e\u5927\u578b\u8eca\u4e21\u7528\u306e\u307b\u304b\u3001\u4e57\u7528\u8eca\u30b7\u30e3\u30fc\u30b7\u306e\u30d1\u30c8\u30ed\u30fc\u30eb\u30ab\u30fc\u3084\u6551\u6025\u8eca\u306b\u3082\u7279\u6b8a\u9ad8\u51fa\u529b\u30a8\u30f3\u30b8\u30f3\u3068\u3057\u3066\u67b6\u88c5\u3055\u308c\u3001\u56db\u8f2a\u99c6\u52d5\u8eca\u30c8\u30e8\u30bf\u30fb\u30e9\u30f3\u30c9\u30af\u30eb\u30fc\u30b6\u30fc\u306e\u30a8\u30f3\u30b8\u30f3\u3068\u3057\u3066\u3082\u7528\u3044\u3089\u308c\u3066\u6210\u529f\u3092\u53ce\u3081\u305f\u3002 \u57fa\u672c\u30ec\u30a4\u30a2\u30a6\u30c8\u306f\u30c8\u30e8\u30bf\u5275\u696d\u5f53\u521d\u306b\u30b7\u30dc\u30ec\u30fc\u30a8\u30f3\u30b8\u30f3\u3092\u30b3\u30d4\u30fc\u3057\u305f\u521d\u4ee3A\u578b6\u6c17\u7b52(1935\u5e74)\u306b\u307e\u3067\u9061\u308b\u3053\u3068\u304c\u3067\u304d\u308b\u307b\u3069\u53e4\u3044\u3082\u306e\u3067\u3042\u308b\u304c\u3001\u6539\u826f\u3092\u91cd\u306d\u306a\u304c\u3089\u73fe\u5728\u3067\u3082\u30c8\u30e8\u30bf\u30d5\u30a9\u30fc\u30af\u30ea\u30d5\u30c8\u7528\u30a8\u30f3\u30b8\u30f3\u3068\u3057\u3066\u751f\u7523\u304c\u7d9a\u3051\u3089\u308c\u3066\u304a\u308a\u3001\u30c8\u30e8\u30bf\u3067\u306f\u3082\u3061\u308d\u3093\u306e\u3053\u3068\u3001\u65e5\u672c\u56fd\u5185\u3067\u5e02\u8ca9\u5411\u3051\u751f\u7523\u3055\u308c\u308b\u30a8\u30f3\u30b8\u30f3\u3068\u3057\u3066\u3082\u73fe\u5f79\u6700\u53e4\u306e\u30a8\u30f3\u30b8\u30f3\u30b7\u30ea\u30fc\u30ba\u3067\u3042\u308b\u3002
p169
ssa(dp170
g7
(dp171
Vtype
p172
Vuri
p173
sVvalue
p174
Vhttp://dbpedia.org/ontology/abstract
p175
ssg8
(dp176
Vxml:lang
p177
Ven
p178
sVtype
p179
Vliteral
p180
sVvalue
p181
VThe Toyota F series engine was a series of OHV inline-6-cylinder engines produced by Toyota between 1955 and 1992. They are known for their high amount of torque at low RPM, massive cast-iron blocks and heads and also their high reliability. The F Engine had one of the longest production runs of any Toyota engine. The F engines all incorporate overhead valves actuated by pushrods from a gear driven camshaft in the lower portion of the engine. The engine was first introduced in the Land Cruiser, and in many countries, was the only engines offered in the Landcruiser until 1993. Although it's commonly badged as the Land Cruiser engine, it was used in a variety of other large truck applications as well, such as in fire trucks and the Toyota FQ15 trucks. It was also used in the Crown-based Japanese police patrol cars FH26 and FS20-FS50.
p182
ssa(dp183
g7
(dp184
Vtype
p185
Vuri
p186
sVvalue
p187
Vhttp://dbpedia.org/ontology/compressionRatio
p188
ssg8
(dp189
Vtype
p190
Vliteral
p191
sVvalue
p192
V7.8:1
p193
ssa(dp194
g7
(dp195
Vtype
p196
Vuri
p197
sVvalue
p198
Vhttp://dbpedia.org/ontology/compressionRatio
p199
ssg8
(dp200
Vtype
p201
Vliteral
p202
sVvalue
p203
V8.1:1
p204
ssa(dp205
g7
(dp206
Vtype
p207
Vuri
p208
sVvalue
p209
Vhttp://dbpedia.org/ontology/compressionRatio
p210
ssg8
(dp211
Vtype
p212
Vliteral
p213
sVvalue
p214
V6.8:1
p215
ssa(dp216
g7
(dp217
Vtype
p218
Vuri
p219
sVvalue
p220
Vhttp://dbpedia.org/ontology/configuration
p221
ssg8
(dp222
Vdatatype
p223
Vhttp://dbpedia.org/datatype/engineConfiguration
p224
sVtype
p225
Vtyped-literal
p226
sVvalue
p227
Vstraight-six
p228
ssa(dp229
g7
(dp230
Vtype
p231
Vuri
p232
sVvalue
p233
Vhttp://dbpedia.org/ontology/cylinderBore
p234
ssg8
(dp235
Vdatatype
p236
Vhttp://www.w3.org/2001/XMLSchema#double
p237
sVtype
p238
Vtyped-literal
p239
sVvalue
p240
V0.09
p241
ssa(dp242
g7
(dp243
Vtype
p244
Vuri
p245
sVvalue
p246
Vhttp://dbpedia.org/ontology/cylinderBore
p247
ssg8
(dp248
Vdatatype
p249
Vhttp://www.w3.org/2001/XMLSchema#double
p250
sVtype
p251
Vtyped-literal
p252
sVvalue
p253
V0.094
p254
ssa(dp255
g7
(dp256
Vtype
p257
Vuri
p258
sVvalue
p259
Vhttp://dbpedia.org/ontology/displacement
p260
ssg8
(dp261
Vdatatype
p262
Vhttp://www.w3.org/2001/XMLSchema#double
p263
sVtype
p264
Vtyped-literal
p265
sVvalue
p266
V0.0039
p267
ssa(dp268
g7
(dp269
Vtype
p270
Vuri
p271
sVvalue
p272
Vhttp://dbpedia.org/ontology/displacement
p273
ssg8
(dp274
Vdatatype
p275
Vhttp://www.w3.org/2001/XMLSchema#double
p276
sVtype
p277
Vtyped-literal
p278
sVvalue
p279
V0.004
p280
ssa(dp281
g7
(dp282
Vtype
p283
Vuri
p284
sVvalue
p285
Vhttp://dbpedia.org/ontology/displacement
p286
ssg8
(dp287
Vdatatype
p288
Vhttp://www.w3.org/2001/XMLSchema#double
p289
sVtype
p290
Vtyped-literal
p291
sVvalue
p292
V0.0042
p293
ssa(dp294
g7
(dp295
Vtype
p296
Vuri
p297
sVvalue
p298
Vhttp://dbpedia.org/ontology/pistonStroke
p299
ssg8
(dp300
Vdatatype
p301
Vhttp://www.w3.org/2001/XMLSchema#double
p302
sVtype
p303
Vtyped-literal
p304
sVvalue
p305
V0.095
p306
ssa(dp307
g7
(dp308
Vtype
p309
Vuri
p310
sVvalue
p311
Vhttp://dbpedia.org/ontology/pistonStroke
p312
ssg8
(dp313
Vdatatype
p314
Vhttp://www.w3.org/2001/XMLSchema#double
p315
sVtype
p316
Vtyped-literal
p317
sVvalue
p318
V0.102
p319
ssa(dp320
g7
(dp321
Vtype
p322
Vuri
p323
sVvalue
p324
Vhttp://dbpedia.org/ontology/powerOutput
p325
ssg8
(dp326
Vdatatype
p327
Vhttp://www.w3.org/2001/XMLSchema#double
p328
sVtype
p329
Vtyped-literal
p330
sVvalue
p331
V101000.0
p332
ssa(dp333
g7
(dp334
Vtype
p335
Vuri
p336
sVvalue
p337
Vhttp://dbpedia.org/ontology/powerOutput
p338
ssg8
(dp339
Vdatatype
p340
Vhttp://www.w3.org/2001/XMLSchema#double
p341
sVtype
p342
Vtyped-literal
p343
sVvalue
p344
V116000.0
p345
ssa(dp346
g7
(dp347
Vtype
p348
Vuri
p349
sVvalue
p350
Vhttp://dbpedia.org/ontology/productionEndYear
p351
ssg8
(dp352
Vdatatype
p353
Vhttp://www.w3.org/2001/XMLSchema#gYear
p354
sVtype
p355
Vtyped-literal
p356
sVvalue
p357
V0012
p358
ssa(dp359
g7
(dp360
Vtype
p361
Vuri
p362
sVvalue
p363
Vhttp://dbpedia.org/ontology/productionEndYear
p364
ssg8
(dp365
Vdatatype
p366
Vhttp://www.w3.org/2001/XMLSchema#gYear
p367
sVtype
p368
Vtyped-literal
p369
sVvalue
p370
V1974
p371
ssa(dp372
g7
(dp373
Vtype
p374
Vuri
p375
sVvalue
p376
Vhttp://dbpedia.org/ontology/productionEndYear
p377
ssg8
(dp378
Vdatatype
p379
Vhttp://www.w3.org/2001/XMLSchema#gYear
p380
sVtype
p381
Vtyped-literal
p382
sVvalue
p383
V1988
p384
ssa(dp385
g7
(dp386
Vtype
p387
Vuri
p388
sVvalue
p389
Vhttp://dbpedia.org/ontology/productionEndYear
p390
ssg8
(dp391
Vdatatype
p392
Vhttp://www.w3.org/2001/XMLSchema#gYear
p393
sVtype
p394
Vtyped-literal
p395
sVvalue
p396
V1992
p397
ssa(dp398
g7
(dp399
Vtype
p400
Vuri
p401
sVvalue
p402
Vhttp://dbpedia.org/ontology/productionStartYear
p403
ssg8
(dp404
Vdatatype
p405
Vhttp://www.w3.org/2001/XMLSchema#gYear
p406
sVtype
p407
Vtyped-literal
p408
sVvalue
p409
V0009
p410
ssa(dp411
g7
(dp412
Vtype
p413
Vuri
p414
sVvalue
p415
Vhttp://dbpedia.org/ontology/productionStartYear
p416
ssg8
(dp417
Vdatatype
p418
Vhttp://www.w3.org/2001/XMLSchema#gYear
p419
sVtype
p420
Vtyped-literal
p421
sVvalue
p422
V1955
p423
ssa(dp424
g7
(dp425
Vtype
p426
Vuri
p427
sVvalue
p428
Vhttp://dbpedia.org/ontology/productionStartYear
p429
ssg8
(dp430
Vdatatype
p431
Vhttp://www.w3.org/2001/XMLSchema#gYear
p432
sVtype
p433
Vtyped-literal
p434
sVvalue
p435
V1975
p436
ssa(dp437
g7
(dp438
Vtype
p439
Vuri
p440
sVvalue
p441
Vhttp://dbpedia.org/ontology/productionStartYear
p442
ssg8
(dp443
Vdatatype
p444
Vhttp://www.w3.org/2001/XMLSchema#gYear
p445
sVtype
p446
Vtyped-literal
p447
sVvalue
p448
V1985
p449
ssa(dp450
g7
(dp451
Vtype
p452
Vuri
p453
sVvalue
p454
Vhttp://dbpedia.org/ontology/torqueOutput
p455
ssg8
(dp456
Vdatatype
p457
Vhttp://www.w3.org/2001/XMLSchema#double
p458
sVtype
p459
Vtyped-literal
p460
sVvalue
p461
V271.0
p462
ssa(dp463
g7
(dp464
Vtype
p465
Vuri
p466
sVvalue
p467
Vhttp://dbpedia.org/ontology/torqueOutput
p468
ssg8
(dp469
Vdatatype
p470
Vhttp://www.w3.org/2001/XMLSchema#double
p471
sVtype
p472
Vtyped-literal
p473
sVvalue
p474
V303.0
p475
ssasVordered
p476
I01
ss.