(dp0
Vhead
p1
(dp2
Vlink
p3
(lp4
sVvars
p5
(lp6
Vp
p7
aVo
p8
assVresults
p9
(dp10
Vdistinct
p11
I00
sVbindings
p12
(lp13
(dp14
g7
(dp15
Vtype
p16
Vuri
p17
sVvalue
p18
Vhttp://dbpedia.org/ontology/abstract
p19
ssg8
(dp20
Vxml:lang
p21
Ven
p22
sVtype
p23
Vliteral
p24
sVvalue
p25
VRory G. Hanniffy (born 1982) is an Irish hurler who played as a centre-back for the Offaly senior team. Born in Birr, County Offaly, Hanniffy first excelled at hurling during his schooling at Birr Community School. He arrived on the inter-county scene at the age of seventeen when he first linked up with the Offaly minor team before later joining the under-21 side. He made his senior debut during the 2001 National Hurling League. Hanniffy went on to enjoy a lengthy career, winning two National League (Division 2) medals. As a member of the Leinster inter-provincial team on a number of occasions, Hanniffy won six Railway Cup medals. At club level he is a two-time All-Ireland medallist with Birr. In addition to this he also won three Leinster medals and six championship medals. Throughout his career Hanniffy made 45 championship appearances. He announced his retirement from inter-county hurling on 12 November 2014. Hanniffy's father, Declan, and his brothers, Darren and Rory, also played with Offaly.
p26
ssa(dp27
g7
(dp28
Vtype
p29
Vuri
p30
sVvalue
p31
Vhttp://dbpedia.org/ontology/activeYearsStartYear
p32
ssg8
(dp33
Vdatatype
p34
Vhttp://www.w3.org/2001/XMLSchema#gYear
p35
sVtype
p36
Vtyped-literal
p37
sVvalue
p38
V2000
p39
ssasVordered
p40
I01
ss.