(dp0
Vhead
p1
(dp2
Vlink
p3
(lp4
sVvars
p5
(lp6
Vp
p7
aVo
p8
assVresults
p9
(dp10
Vdistinct
p11
I00
sVbindings
p12
(lp13
(dp14
g7
(dp15
Vtype
p16
Vuri
p17
sVvalue
p18
Vhttp://dbpedia.org/ontology/abstract
p19
ssg8
(dp20
Vxml:lang
p21
Ven
p22
sVtype
p23
Vliteral
p24
sVvalue
p25
VThe 2008\u201309 season was the 129th season of competitive football in England. The Premier League started on 16 August 2008, while the Championship, League One, and League Two matches started on 9 August 2008. The regular season of the Football League ended on 3 May 2009, while the Premier League ended on 24 May 2009.
p26
ssasVordered
p27
I01
ss.