(dp0
Vhead
p1
(dp2
Vlink
p3
(lp4
sVvars
p5
(lp6
Vp
p7
aVo
p8
assVresults
p9
(dp10
Vdistinct
p11
I00
sVbindings
p12
(lp13
(dp14
g7
(dp15
Vtype
p16
Vuri
p17
sVvalue
p18
Vhttp://dbpedia.org/ontology/abstract
p19
ssg8
(dp20
Vxml:lang
p21
Ven
p22
sVtype
p23
Vliteral
p24
sVvalue
p25
VNewton Municipal Airport (FAA LID: 61R) is a county owned, public use airport located three nautical miles (6 km) northeast of the central business district of Newton, a city in Newton County, Texas, United States.
p26
ssa(dp27
g7
(dp28
Vtype
p29
Vuri
p30
sVvalue
p31
Vhttp://dbpedia.org/ontology/elevation
p32
ssg8
(dp33
Vdatatype
p34
Vhttp://www.w3.org/2001/XMLSchema#double
p35
sVtype
p36
Vtyped-literal
p37
sVvalue
p38
V98.1456
p39
ssa(dp40
g7
(dp41
Vtype
p42
Vuri
p43
sVvalue
p44
Vhttp://dbpedia.org/ontology/faaLocationIdentifier
p45
ssg8
(dp46
Vtype
p47
Vliteral
p48
sVvalue
p49
V61R
p50
ssa(dp51
g7
(dp52
Vtype
p53
Vuri
p54
sVvalue
p55
Vhttp://dbpedia.org/ontology/runwayDesignation
p56
ssg8
(dp57
Vtype
p58
Vliteral
p59
sVvalue
p60
V14/32
p61
ssa(dp62
g7
(dp63
Vtype
p64
Vuri
p65
sVvalue
p66
Vhttp://dbpedia.org/ontology/runwayLength
p67
ssg8
(dp68
Vdatatype
p69
Vhttp://www.w3.org/2001/XMLSchema#double
p70
sVtype
p71
Vtyped-literal
p72
sVvalue
p73
V1219.2
p74
ssa(dp75
g7
(dp76
Vtype
p77
Vuri
p78
sVvalue
p79
Vhttp://dbpedia.org/ontology/runwaySurface
p80
ssg8
(dp81
Vtype
p82
Vliteral
p83
sVvalue
p84
VAsphalt
p85
ssasVordered
p86
I01
ss.