(dp0
Vhead
p1
(dp2
Vlink
p3
(lp4
sVvars
p5
(lp6
Vp
p7
aVo
p8
assVresults
p9
(dp10
Vdistinct
p11
I00
sVbindings
p12
(lp13
(dp14
g7
(dp15
Vtype
p16
Vuri
p17
sVvalue
p18
Vhttp://dbpedia.org/ontology/abstract
p19
ssg8
(dp20
Vxml:lang
p21
Ven
p22
sVtype
p23
Vliteral
p24
sVvalue
p25
VThe 1929 Chatham Cup was the seventh annual nationwide knockout football competition in New Zealand. The competition was run on a regional basis, with six regional associations (Auckland, Wellington, Poverty Bay, Manawatu, Canterbury, and Otago) each holding separate qualifying rounds. Teams taking part in the final rounds are known to have included Wellington YWCA (who beat Petone and Institute to reach the last eight), Tramways (Auckland), Poverty Bay Thistle (Gisborne), St. Andrews (Manawatu), and Seacliff. Canterbury entrants included Riccarton, Western, Thistle, and Rangers.
p26
ssa(dp27
g7
(dp28
Vtype
p29
Vuri
p30
sVvalue
p31
Vhttp://dbpedia.org/ontology/numberOfGoals
p32
ssg8
(dp33
Vdatatype
p34
Vhttp://www.w3.org/2001/XMLSchema#integer
p35
sVtype
p36
Vtyped-literal
p37
sVvalue
p38
V2
p39
ssa(dp40
g7
(dp41
Vtype
p42
Vuri
p43
sVvalue
p44
Vhttp://dbpedia.org/ontology/numberOfGoals
p45
ssg8
(dp46
Vdatatype
p47
Vhttp://www.w3.org/2001/XMLSchema#integer
p48
sVtype
p49
Vtyped-literal
p50
sVvalue
p51
V3
p52
ssasVordered
p53
I01
ss.