(dp0
Vhead
p1
(dp2
Vlink
p3
(lp4
sVvars
p5
(lp6
Vp
p7
aVo
p8
assVresults
p9
(dp10
Vdistinct
p11
I00
sVbindings
p12
(lp13
(dp14
g7
(dp15
Vtype
p16
Vuri
p17
sVvalue
p18
Vhttp://dbpedia.org/ontology/abstract
p19
ssg8
(dp20
Vxml:lang
p21
Ven
p22
sVtype
p23
Vliteral
p24
sVvalue
p25
VCalvert Memorial Hospital in Prince Frederick, Maryland, is a not-for-profit, community-owned hospital. There are over 200 active and consulting physicians on staff representing over 40 medical specialties. Calvert Memorial also has offices located in Dunkirk, Maryland, Solomons, Maryland and North Beach, Maryland, providing residents in Calvert County MD with ready access to primary care, specialists, and diagnostic services. Other services at the hospital include a state-of-the-art emergency department, an infusion therapy center and community cancer program, a psychiatric unit with adolescent services and emergency evaluations, full outpatient services with endoscopy suite, a pain management center, a sleep disorders center, and radiology. Calvert Memorial Hospital is accredited by the Joint Commission on Accreditation of Healthcare Organizations, licensed by the Maryland Department of Health and Mental Hygiene, and certified for Medicare and Medicaid.
p26
ssa(dp27
g7
(dp28
Vtype
p29
Vuri
p30
sVvalue
p31
Vhttp://dbpedia.org/ontology/openingYear
p32
ssg8
(dp33
Vdatatype
p34
Vhttp://www.w3.org/2001/XMLSchema#gYear
p35
sVtype
p36
Vtyped-literal
p37
sVvalue
p38
V1919
p39
ssasVordered
p40
I01
ss.