(dp0
Vhead
p1
(dp2
Vlink
p3
(lp4
sVvars
p5
(lp6
Vp
p7
aVo
p8
assVresults
p9
(dp10
Vdistinct
p11
I00
sVbindings
p12
(lp13
(dp14
g7
(dp15
Vtype
p16
Vuri
p17
sVvalue
p18
Vhttp://dbpedia.org/ontology/abstract
p19
ssg8
(dp20
Vxml:lang
p21
Ven
p22
sVtype
p23
Vliteral
p24
sVvalue
p25
VLincoln-Way North High School, or LWN, was a public four-year high school located approximately one mile south of Interstate 80 at the intersection of Harlem Avenue and Vollmer Road in Frankfort, Illinois, a southwest suburb of Chicago, in the United States. LWN was part of Lincoln-Way Community High School District 210, which also includes Lincoln-Way East High School, Lincoln-Way Central High School, and Lincoln-Way West High School. Lincoln-Way North drew students from Tinley Park, Illinois, Frankfort, Illinois, Mokena, Illinois, and Frankfort Square, Illinois. Summit Hill School District 161 was the only feeder district for Lincoln-Way North High School. The school closed in June 2016 due to a school board vote.
p26
ssa(dp27
g7
(dp28
Vtype
p29
Vuri
p30
sVvalue
p31
Vhttp://dbpedia.org/ontology/facultySize
p32
ssg8
(dp33
Vdatatype
p34
Vhttp://www.w3.org/2001/XMLSchema#nonNegativeInteger
p35
sVtype
p36
Vtyped-literal
p37
sVvalue
p38
V133
p39
ssa(dp40
g7
(dp41
Vtype
p42
Vuri
p43
sVvalue
p44
Vhttp://dbpedia.org/ontology/foundingYear
p45
ssg8
(dp46
Vdatatype
p47
Vhttp://www.w3.org/2001/XMLSchema#gYear
p48
sVtype
p49
Vtyped-literal
p50
sVvalue
p51
V2008
p52
ssa(dp53
g7
(dp54
Vtype
p55
Vuri
p56
sVvalue
p57
Vhttp://dbpedia.org/ontology/mascot
p58
ssg8
(dp59
Vtype
p60
Vliteral
p61
sVvalue
p62
VPhoenix
p63
ssa(dp64
g7
(dp65
Vtype
p66
Vuri
p67
sVvalue
p68
Vhttp://dbpedia.org/ontology/motto
p69
ssg8
(dp70
Vtype
p71
Vliteral
p72
sVvalue
p73
VIt's Good To Be Gold
p74
ssa(dp75
g7
(dp76
Vtype
p77
Vuri
p78
sVvalue
p79
Vhttp://dbpedia.org/ontology/numberOfStudents
p80
ssg8
(dp81
Vdatatype
p82
Vhttp://www.w3.org/2001/XMLSchema#nonNegativeInteger
p83
sVtype
p84
Vtyped-literal
p85
sVvalue
p86
V1972
p87
ssasVordered
p88
I01
ss.