(dp0
Vhead
p1
(dp2
Vlink
p3
(lp4
sVvars
p5
(lp6
Vp
p7
aVo
p8
assVresults
p9
(dp10
Vdistinct
p11
I00
sVbindings
p12
(lp13
(dp14
g7
(dp15
Vtype
p16
Vuri
p17
sVvalue
p18
Vhttp://dbpedia.org/ontology/abstract
p19
ssg8
(dp20
Vxml:lang
p21
Ven
p22
sVtype
p23
Vliteral
p24
sVvalue
p25
VFidelity International, formerly Fidelity Worldwide Investment, is a company that provides investment management services including mutual funds, pension management and fund platforms to private and institutional investors. Fidelity International was originally established in 1969 under the name Fidelity International Limited (FIL) as the international investment subsidiary of Fidelity Management & Research in Boston (see Fidelity Investments) before being spun out as an independent business in 1980. Since then, it has continued to operate as a private company owned by some of its employees and the Johnson family.
p26
ssa(dp27
g7
(dp28
Vtype
p29
Vuri
p30
sVvalue
p31
Vhttp://dbpedia.org/ontology/assetUnderManagement
p32
ssg8
(dp33
Vdatatype
p34
Vhttp://dbpedia.org/datatype/usDollar
p35
sVtype
p36
Vtyped-literal
p37
sVvalue
p38
V2.85E11
p39
ssa(dp40
g7
(dp41
Vtype
p42
Vuri
p43
sVvalue
p44
Vhttp://dbpedia.org/ontology/foundingYear
p45
ssg8
(dp46
Vdatatype
p47
Vhttp://www.w3.org/2001/XMLSchema#gYear
p48
sVtype
p49
Vtyped-literal
p50
sVvalue
p51
V1969
p52
ssa(dp53
g7
(dp54
Vtype
p55
Vuri
p56
sVvalue
p57
Vhttp://dbpedia.org/ontology/numberOfEmployees
p58
ssg8
(dp59
Vdatatype
p60
Vhttp://www.w3.org/2001/XMLSchema#nonNegativeInteger
p61
sVtype
p62
Vtyped-literal
p63
sVvalue
p64
V7000
p65
ssasVordered
p66
I01
ss.