(dp0
Vhead
p1
(dp2
Vlink
p3
(lp4
sVvars
p5
(lp6
Vp
p7
aVo
p8
assVresults
p9
(dp10
Vdistinct
p11
I00
sVbindings
p12
(lp13
(dp14
g7
(dp15
Vtype
p16
Vuri
p17
sVvalue
p18
Vhttp://dbpedia.org/ontology/MeanOfTransportation/length
p19
ssg8
(dp20
Vdatatype
p21
Vhttp://dbpedia.org/datatype/millimetre
p22
sVtype
p23
Vtyped-literal
p24
sVvalue
p25
V127406.4
p26
ssa(dp27
g7
(dp28
Vtype
p29
Vuri
p30
sVvalue
p31
Vhttp://dbpedia.org/ontology/abstract
p32
ssg8
(dp33
Vxml:lang
p34
Ven
p35
sVtype
p36
Vliteral
p37
sVvalue
p38
VUSS Davis (DD-937), named for Commander George Fleming Davis USN (1911-1945), commanding officer of USS Walke (DD-723), killed in action at Lingayen Gulf on Luzon in the Philippine Islands on 6 January 1945 and posthumously awarded the Medal of Honor, was a Forrest Sherman class destroyer of the United States Navy laid down by the Bethlehem Steel Corporation at Quincy, Massachusetts on 1 February 1955, launched on 28 March 1956 by Mrs. G. F. Davis, widow of Commander Davis and commissioned on 28 February 1957.
p39
ssa(dp40
g7
(dp41
Vtype
p42
Vuri
p43
sVvalue
p44
Vhttp://dbpedia.org/ontology/abstract
p45
ssg8
(dp46
Vxml:lang
p47
Vja
p48
sVtype
p49
Vliteral
p50
sVvalue
p51
V\u30c7\u30a4\u30f4\u30a3\u30b9 (USS Davis, DD-937) \u306f\u3001\u30a2\u30e1\u30ea\u30ab\u6d77\u8ecd\u306e\u99c6\u9010\u8266\u3002\u30d5\u30a9\u30ec\u30b9\u30c8\u30fb\u30b7\u30e3\u30fc\u30de\u30f3\u7d1a\u99c6\u9010\u8266\u306e1\u96bb\u3002\u8266\u540d\u306f\u30a6\u30a9\u30fc\u30af (USS Walke, DD-723) \u8266\u9577\u3068\u3057\u3066\u30ea\u30f3\u30ac\u30a8\u30f3\u6e7e\u3067\u6226\u6b7b\u3057\u3001\u540d\u8a89\u52f2\u7ae0\u3092\u53d7\u7ae0\u3057\u305f\u30b8\u30e7\u30fc\u30b8\u30fb\u30d5\u30ec\u30df\u30f3\u30b0\u30fb\u30c7\u30a4\u30f4\u30a3\u30b9\u4e2d\u4f50\u306b\u56e0\u3080\u3002\u305d\u306e\u540d\u3092\u6301\u3064\u8266\u3068\u3057\u3066\u306f4\u96bb\u76ee\u3002
p52
ssa(dp53
g7
(dp54
Vtype
p55
Vuri
p56
sVvalue
p57
Vhttp://dbpedia.org/ontology/acquirementDate
p58
ssg8
(dp59
Vdatatype
p60
Vhttp://www.w3.org/2001/XMLSchema#date
p61
sVtype
p62
Vtyped-literal
p63
sVvalue
p64
V1957-02-28
p65
ssa(dp66
g7
(dp67
Vtype
p68
Vuri
p69
sVvalue
p70
Vhttp://dbpedia.org/ontology/commissioningDate
p71
ssg8
(dp72
Vdatatype
p73
Vhttp://www.w3.org/2001/XMLSchema#date
p74
sVtype
p75
Vtyped-literal
p76
sVvalue
p77
V1957-02-28
p78
ssa(dp79
g7
(dp80
Vtype
p81
Vuri
p82
sVvalue
p83
Vhttp://dbpedia.org/ontology/decommissioningDate
p84
ssg8
(dp85
Vdatatype
p86
Vhttp://www.w3.org/2001/XMLSchema#date
p87
sVtype
p88
Vtyped-literal
p89
sVvalue
p90
V1982-12-20
p91
ssa(dp92
g7
(dp93
Vtype
p94
Vuri
p95
sVvalue
p96
Vhttp://dbpedia.org/ontology/layingDown
p97
ssg8
(dp98
Vdatatype
p99
Vhttp://www.w3.org/2001/XMLSchema#date
p100
sVtype
p101
Vtyped-literal
p102
sVvalue
p103
V1955-02-01
p104
ssa(dp105
g7
(dp106
Vtype
p107
Vuri
p108
sVvalue
p109
Vhttp://dbpedia.org/ontology/length
p110
ssg8
(dp111
Vdatatype
p112
Vhttp://www.w3.org/2001/XMLSchema#double
p113
sVtype
p114
Vtyped-literal
p115
sVvalue
p116
V127.406
p117
ssa(dp118
g7
(dp119
Vtype
p120
Vuri
p121
sVvalue
p122
Vhttp://dbpedia.org/ontology/motto
p123
ssg8
(dp124
Vtype
p125
Vliteral
p126
sVvalue
p127
VVigilantia Pro Pacem
p128
ssa(dp129
g7
(dp130
Vtype
p131
Vuri
p132
sVvalue
p133
Vhttp://dbpedia.org/ontology/orderDate
p134
ssg8
(dp135
Vdatatype
p136
Vhttp://www.w3.org/2001/XMLSchema#date
p137
sVtype
p138
Vtyped-literal
p139
sVvalue
p140
V1954-02-03
p141
ssa(dp142
g7
(dp143
Vtype
p144
Vuri
p145
sVvalue
p146
Vhttp://dbpedia.org/ontology/shipBeam
p147
ssg8
(dp148
Vdatatype
p149
Vhttp://www.w3.org/2001/XMLSchema#double
p150
sVtype
p151
Vtyped-literal
p152
sVvalue
p153
V13.716
p154
ssa(dp155
g7
(dp156
Vtype
p157
Vuri
p158
sVvalue
p159
Vhttp://dbpedia.org/ontology/shipDraft
p160
ssg8
(dp161
Vdatatype
p162
Vhttp://www.w3.org/2001/XMLSchema#double
p163
sVtype
p164
Vtyped-literal
p165
sVvalue
p166
V6.4008
p167
ssa(dp168
g7
(dp169
Vtype
p170
Vuri
p171
sVvalue
p172
Vhttp://dbpedia.org/ontology/shipLaunch
p173
ssg8
(dp174
Vdatatype
p175
Vhttp://www.w3.org/2001/XMLSchema#date
p176
sVtype
p177
Vtyped-literal
p178
sVvalue
p179
V1956-03-28
p180
ssa(dp181
g7
(dp182
Vtype
p183
Vuri
p184
sVvalue
p185
Vhttp://dbpedia.org/ontology/status
p186
ssg8
(dp187
Vtype
p188
Vliteral
p189
sVvalue
p190
VScrapped
p191
ssasVordered
p192
I01
ss.