(dp0
Vhead
p1
(dp2
Vlink
p3
(lp4
sVvars
p5
(lp6
Vp
p7
aVo
p8
assVresults
p9
(dp10
Vdistinct
p11
I00
sVbindings
p12
(lp13
(dp14
g7
(dp15
Vtype
p16
Vuri
p17
sVvalue
p18
Vhttp://dbpedia.org/ontology/abstract
p19
ssg8
(dp20
Vxml:lang
p21
Ven
p22
sVtype
p23
Vliteral
p24
sVvalue
p25
VFalconara Airport (IATA: AOI, ICAO: LIPY) is a joint-use civil airport and Italian Air Force (Aeronautica Militare) facility in Italy, located approximately 3 km west of Falconara Marittima in the province of Ancona, about 200 km north-northeast of Rome. The airport is used for general aviation, with no commercial airline service. Along with the Italian Air Force, It is also the headquarters of the Italian Army's 84th Infantry Battalion.
p26
ssa(dp27
g7
(dp28
Vtype
p29
Vuri
p30
sVvalue
p31
Vhttp://dbpedia.org/ontology/iataLocationIdentifier
p32
ssg8
(dp33
Vtype
p34
Vliteral
p35
sVvalue
p36
VAOI
p37
ssa(dp38
g7
(dp39
Vtype
p40
Vuri
p41
sVvalue
p42
Vhttp://dbpedia.org/ontology/icaoLocationIdentifier
p43
ssg8
(dp44
Vtype
p45
Vliteral
p46
sVvalue
p47
VLIPY
p48
ssa(dp49
g7
(dp50
Vtype
p51
Vuri
p52
sVvalue
p53
Vhttp://dbpedia.org/ontology/runwayDesignation
p54
ssg8
(dp55
Vtype
p56
Vliteral
p57
sVvalue
p58
V04/22
p59
ssa(dp60
g7
(dp61
Vtype
p62
Vuri
p63
sVvalue
p64
Vhttp://dbpedia.org/ontology/runwayLength
p65
ssg8
(dp66
Vdatatype
p67
Vhttp://www.w3.org/2001/XMLSchema#double
p68
sVtype
p69
Vtyped-literal
p70
sVvalue
p71
V2962.0
p72
ssa(dp73
g7
(dp74
Vtype
p75
Vuri
p76
sVvalue
p77
Vhttp://dbpedia.org/ontology/runwayLength
p78
ssg8
(dp79
Vdatatype
p80
Vhttp://www.w3.org/2001/XMLSchema#double
p81
sVtype
p82
Vtyped-literal
p83
sVvalue
p84
V2962.05
p85
ssasVordered
p86
I01
ss.