(dp0
Vhead
p1
(dp2
Vlink
p3
(lp4
sVvars
p5
(lp6
Vp
p7
aVo
p8
assVresults
p9
(dp10
Vdistinct
p11
I00
sVbindings
p12
(lp13
(dp14
g7
(dp15
Vtype
p16
Vuri
p17
sVvalue
p18
Vhttp://dbpedia.org/ontology/abstract
p19
ssg8
(dp20
Vxml:lang
p21
Ven
p22
sVtype
p23
Vliteral
p24
sVvalue
p25
VStanley Lake is an alpine lake in Custer County, Idaho, United States, located at the base of the Sawtooth Mountains in the Sawtooth National Recreation Area. The lake is approximately 7 miles (11 km) west of Stanley, readily accessed via a 3 miles (4.8 km) spur road from State Highway 21. The surface elevation of the lake is 6,513 feet (1,985 m) above sea level. Stanley Lake is northeast of the base of the 9,860 feet (3,010 m) McGown Peak, and just south of the considerably smaller Elk Peak. The lake is 2 miles (3,200 m) downstream of Lady Face Falls on Stanley Lake Creek; it drains into the main Salmon River via Stanley Lake Creek and Valley Creek. Recreational facilities at the lake include three campgrounds with nightly fees, a day use area, a boat launch, and hiking trails. \u000a* Stanley Lake \u000a* Mountains Behind Stanley Lake \u000a* Wetlands Behind Stanley Lake
p26
ssa(dp27
g7
(dp28
Vtype
p29
Vuri
p30
sVvalue
p31
Vhttp://dbpedia.org/ontology/elevation
p32
ssg8
(dp33
Vdatatype
p34
Vhttp://www.w3.org/2001/XMLSchema#double
p35
sVtype
p36
Vtyped-literal
p37
sVvalue
p38
V1985.16
p39
ssa(dp40
g7
(dp41
Vtype
p42
Vuri
p43
sVvalue
p44
Vhttp://dbpedia.org/ontology/length
p45
ssg8
(dp46
Vdatatype
p47
Vhttp://www.w3.org/2001/XMLSchema#double
p48
sVtype
p49
Vtyped-literal
p50
sVvalue
p51
V1609.34
p52
ssa(dp53
g7
(dp54
Vtype
p55
Vuri
p56
sVvalue
p57
Vhttp://dbpedia.org/ontology/width
p58
ssg8
(dp59
Vdatatype
p60
Vhttp://www.w3.org/2001/XMLSchema#double
p61
sVtype
p62
Vtyped-literal
p63
sVvalue
p64
V804.672
p65
ssasVordered
p66
I01
ss.