(dp0
Vhead
p1
(dp2
Vlink
p3
(lp4
sVvars
p5
(lp6
Vp
p7
aVo
p8
assVresults
p9
(dp10
Vdistinct
p11
I00
sVbindings
p12
(lp13
(dp14
g7
(dp15
Vtype
p16
Vuri
p17
sVvalue
p18
Vhttp://dbpedia.org/ontology/birthDate
p19
ssg8
(dp20
Vdatatype
p21
Vhttp://www.w3.org/2001/XMLSchema#date
p22
sVtype
p23
Vtyped-literal
p24
sVvalue
p25
V1976-11-11
p26
ssa(dp27
g7
(dp28
Vtype
p29
Vuri
p30
sVvalue
p31
Vhttp://dbpedia.org/ontology/Person/height
p32
ssg8
(dp33
Vdatatype
p34
Vhttp://dbpedia.org/datatype/centimetre
p35
sVtype
p36
Vtyped-literal
p37
sVvalue
p38
V170.18
p39
ssa(dp40
g7
(dp41
Vtype
p42
Vuri
p43
sVvalue
p44
Vhttp://dbpedia.org/ontology/Person/weight
p45
ssg8
(dp46
Vdatatype
p47
Vhttp://dbpedia.org/datatype/kilogram
p48
sVtype
p49
Vtyped-literal
p50
sVvalue
p51
V52.164
p52
ssa(dp53
g7
(dp54
Vtype
p55
Vuri
p56
sVvalue
p57
Vhttp://dbpedia.org/ontology/abstract
p58
ssg8
(dp59
Vxml:lang
p60
Ven
p61
sVtype
p62
Vliteral
p63
sVvalue
p64
VLisa Gleave (born November 11, 1976) is an Australian-American glamour model and TV personality, known for her work as a Barker's Beauty on The Price Is Right and her appearances as the show Deal or No Deal.
p65
ssa(dp66
g7
(dp67
Vtype
p68
Vuri
p69
sVvalue
p70
Vhttp://dbpedia.org/ontology/eyeColor
p71
ssg8
(dp72
Vtype
p73
Vliteral
p74
sVvalue
p75
VGreen
p76
ssa(dp77
g7
(dp78
Vtype
p79
Vuri
p80
sVvalue
p81
Vhttp://dbpedia.org/ontology/hairColor
p82
ssg8
(dp83
Vtype
p84
Vliteral
p85
sVvalue
p86
VBlonde
p87
ssa(dp88
g7
(dp89
Vtype
p90
Vuri
p91
sVvalue
p92
Vhttp://dbpedia.org/ontology/height
p93
ssg8
(dp94
Vdatatype
p95
Vhttp://www.w3.org/2001/XMLSchema#double
p96
sVtype
p97
Vtyped-literal
p98
sVvalue
p99
V1.7018
p100
ssa(dp101
g7
(dp102
Vtype
p103
Vuri
p104
sVvalue
p105
Vhttp://dbpedia.org/ontology/imdbId
p106
ssg8
(dp107
Vtype
p108
Vliteral
p109
sVvalue
p110
V0322359
p111
ssa(dp112
g7
(dp113
Vtype
p114
Vuri
p115
sVvalue
p116
Vhttp://dbpedia.org/ontology/weight
p117
ssg8
(dp118
Vdatatype
p119
Vhttp://www.w3.org/2001/XMLSchema#double
p120
sVtype
p121
Vtyped-literal
p122
sVvalue
p123
V52164.0
p124
ssasVordered
p125
I01
ss.