(dp0
Vhead
p1
(dp2
Vlink
p3
(lp4
sVvars
p5
(lp6
Vp
p7
aVo
p8
assVresults
p9
(dp10
Vdistinct
p11
I00
sVbindings
p12
(lp13
(dp14
g7
(dp15
Vtype
p16
Vuri
p17
sVvalue
p18
Vhttp://dbpedia.org/ontology/abstract
p19
ssg8
(dp20
Vxml:lang
p21
Ven
p22
sVtype
p23
Vliteral
p24
sVvalue
p25
VHong Kong Island is a constituency in the elections for the Legislative Council of Hong Kong.
p26
ssa(dp27
g7
(dp28
Vtype
p29
Vuri
p30
sVvalue
p31
Vhttp://dbpedia.org/ontology/abstract
p32
ssg8
(dp33
Vxml:lang
p34
Vzh
p35
sVtype
p36
Vliteral
p37
sVvalue
p38
V\u9999\u6e2f\u5cf6\u9078\u5340\u662f\u9999\u6e2f\u7acb\u6cd5\u6703\u9078\u8209\u5730\u5340\u76f4\u9078\u7684\u9078\u5340\u4e4b\u4e00\uff0c\u7bc4\u570d\u5305\u62ec\u5ee3\u7fa9\u7684\u9999\u6e2f\u5cf6\u5730\u57df\uff0c\u5373\u5357\u5340\u3001\u7063\u4ed4\u5340\u3001\u4e2d\u897f\u5340\u53ca\u6771\u5340\u56db\u5340\u7e3d\u548c\uff0c\u4ea6\u5373\u5305\u62ec\u9d28\u8137\u6d32\u3001\u5927\u5c0f\u9752\u6d32\u7b49\u5cf6\u5dbc\u30022012\u5e74\u81f32016\u5e74\u5ea6\u7b2c\u4e94\u5c46\u9999\u6e2f\u7acb\u6cd5\u6703\uff0c\u9999\u6e2f\u5cf6\u9078\u5340\u5171\u67097\u500b\u8b70\u5e2d\u3002\u9999\u6e2f\u5cf6\u9078\u5340\u4ea6\u662f\u9999\u6e2f\u56de\u6b78\u5f8c\uff0c\u5f9e\u7b2c\u4e8c\u5c46\u5230\u7b2c\u56db\u5c46\u7acb\u6cd5\u6703\uff0c\u5747\u6709\u4efb\u5167\u8b70\u5e2d\u51fa\u7f3a\u800c\u9700\u9032\u884c\u88dc\u9078\u3002
p39
ssasVordered
p40
I01
ss.