(dp0
Vhead
p1
(dp2
Vlink
p3
(lp4
sVvars
p5
(lp6
Vp
p7
aVo
p8
assVresults
p9
(dp10
Vdistinct
p11
I00
sVbindings
p12
(lp13
(dp14
g7
(dp15
Vtype
p16
Vuri
p17
sVvalue
p18
Vhttp://dbpedia.org/ontology/MeanOfTransportation/length
p19
ssg8
(dp20
Vdatatype
p21
Vhttp://dbpedia.org/datatype/millimetre
p22
sVtype
p23
Vtyped-literal
p24
sVvalue
p25
V66751.2
p26
ssa(dp27
g7
(dp28
Vtype
p29
Vuri
p30
sVvalue
p31
Vhttp://dbpedia.org/ontology/abstract
p32
ssg8
(dp33
Vxml:lang
p34
Ven
p35
sVtype
p36
Vliteral
p37
sVvalue
p38
VUSS S-29 (SS-134), was a first-group (S-1 or "Holland") S-class submarine of the United States Navy. Her keel was laid down on 17 April 1919 by the Bethlehem Shipbuilding Corporation's Fore River Shipyard, Quincy, Massachusetts. She was launched on 9 November 1922 sponsored by Mrs. Ronan C. Grady, and commissioned on 22 May 1924 with Lieutenant James P. Conover, Jr., in command. After duties in the northeast United States, operating from New London, Connecticut, in 1924, S-29 visited Hawaii from 27 April to 30 May 1925. Operating mainly from Mare Island, San Diego, California, and San Pedro, California, into 1931, S-29 visited Hawaii in the summers of 1927, 1928, and 1930. She also served in the Panama Canal area from February into March 1926, and during February 1929. Sailing from Mare Island on 14 February 1931, she arrived at Pearl Harbor on 23 February. From then into 1939, S-29 operated at Pearl Harbor. Departing from there on 16 June 1939, S-29 returned to New London on 23 August. Following duty in the U.S. northeast area and also at Key West, Florida, from December 1940 into May 1941, S-29 served in the Panama Canal area from late December into March 1942. Returning to New London, Connecticut, on 1 April, S-29 decommissioned there on 5 June 1942, and was transferred on that date to the United Kingdom. In the Royal Navy she became HMS P556. While in British service she suffered a battery explosion at Weymouth. Returned to the U.S. Navy on 26 January 1946, S-29 was struck from the Naval Vessel Register that year and sold on 24 January 1947 to H. G. Pound, Great Britain, for scrapping. By 1982 the hulk of the submarine (minus the conning tower) was still visible at the Pounds scrapyard near Portsmouth. The boat was scrapped in Spain between 1986 and 1987.
p39
ssa(dp40
g7
(dp41
Vtype
p42
Vuri
p43
sVvalue
p44
Vhttp://dbpedia.org/ontology/abstract
p45
ssg8
(dp46
Vxml:lang
p47
Vja
p48
sVtype
p49
Vliteral
p50
sVvalue
p51
VS-29 (USS S-29, SS-134) \u306f\u3001\u30a2\u30e1\u30ea\u30ab\u6d77\u8ecd\u306e\u6f5c\u6c34\u8266\u3002S\u7d1a\u6f5c\u6c34\u8266\u306e1\u96bb\u3002
p52
ssa(dp53
g7
(dp54
Vtype
p55
Vuri
p56
sVvalue
p57
Vhttp://dbpedia.org/ontology/acquirementDate
p58
ssg8
(dp59
Vdatatype
p60
Vhttp://www.w3.org/2001/XMLSchema#date
p61
sVtype
p62
Vtyped-literal
p63
sVvalue
p64
V1942-06-05
p65
ssa(dp66
g7
(dp67
Vtype
p68
Vuri
p69
sVvalue
p70
Vhttp://dbpedia.org/ontology/commissioningDate
p71
ssg8
(dp72
Vdatatype
p73
Vhttp://www.w3.org/2001/XMLSchema#date
p74
sVtype
p75
Vtyped-literal
p76
sVvalue
p77
V1924-05-22
p78
ssa(dp79
g7
(dp80
Vtype
p81
Vuri
p82
sVvalue
p83
Vhttp://dbpedia.org/ontology/decommissioningDate
p84
ssg8
(dp85
Vdatatype
p86
Vhttp://www.w3.org/2001/XMLSchema#date
p87
sVtype
p88
Vtyped-literal
p89
sVvalue
p90
V1942-06-05
p91
ssa(dp92
g7
(dp93
Vtype
p94
Vuri
p95
sVvalue
p96
Vhttp://dbpedia.org/ontology/layingDown
p97
ssg8
(dp98
Vdatatype
p99
Vhttp://www.w3.org/2001/XMLSchema#date
p100
sVtype
p101
Vtyped-literal
p102
sVvalue
p103
V1919-04-17
p104
ssa(dp105
g7
(dp106
Vtype
p107
Vuri
p108
sVvalue
p109
Vhttp://dbpedia.org/ontology/length
p110
ssg8
(dp111
Vdatatype
p112
Vhttp://www.w3.org/2001/XMLSchema#double
p113
sVtype
p114
Vtyped-literal
p115
sVvalue
p116
V66.7512
p117
ssa(dp118
g7
(dp119
Vtype
p120
Vuri
p121
sVvalue
p122
Vhttp://dbpedia.org/ontology/shipBeam
p123
ssg8
(dp124
Vdatatype
p125
Vhttp://www.w3.org/2001/XMLSchema#double
p126
sVtype
p127
Vtyped-literal
p128
sVvalue
p129
V6.096
p130
ssa(dp131
g7
(dp132
Vtype
p133
Vuri
p134
sVvalue
p135
Vhttp://dbpedia.org/ontology/shipDraft
p136
ssg8
(dp137
Vdatatype
p138
Vhttp://www.w3.org/2001/XMLSchema#double
p139
sVtype
p140
Vtyped-literal
p141
sVvalue
p142
V4.572
p143
ssa(dp144
g7
(dp145
Vtype
p146
Vuri
p147
sVvalue
p148
Vhttp://dbpedia.org/ontology/shipLaunch
p149
ssg8
(dp150
Vdatatype
p151
Vhttp://www.w3.org/2001/XMLSchema#date
p152
sVtype
p153
Vtyped-literal
p154
sVvalue
p155
V1922-11-09
p156
ssa(dp157
g7
(dp158
Vtype
p159
Vuri
p160
sVvalue
p161
Vhttp://dbpedia.org/ontology/status
p162
ssg8
(dp163
Vtype
p164
Vliteral
p165
sVvalue
p166
V*Returned, 26 January 1946
p167
ssa(dp168
g7
(dp169
Vtype
p170
Vuri
p171
sVvalue
p172
Vhttp://dbpedia.org/ontology/status
p173
ssg8
(dp174
Vtype
p175
Vliteral
p176
sVvalue
p177
V*Scrapped in 1986/1987
p178
ssa(dp179
g7
(dp180
Vtype
p181
Vuri
p182
sVvalue
p183
Vhttp://dbpedia.org/ontology/status
p184
ssg8
(dp185
Vtype
p186
Vliteral
p187
sVvalue
p188
V*Sold for scrap, 24 January 1947
p189
ssa(dp190
g7
(dp191
Vtype
p192
Vuri
p193
sVvalue
p194
Vhttp://dbpedia.org/ontology/status
p195
ssg8
(dp196
Vtype
p197
Vliteral
p198
sVvalue
p199
V*Transferred to the Royal Navy, 5 June 1942
p200
ssa(dp201
g7
(dp202
Vtype
p203
Vuri
p204
sVvalue
p205
Vhttp://dbpedia.org/ontology/status
p206
ssg8
(dp207
Vtype
p208
Vliteral
p209
sVvalue
p210
VReturned to the US Navy, 26 January 1946
p211
ssa(dp212
g7
(dp213
Vtype
p214
Vuri
p215
sVvalue
p216
Vhttp://dbpedia.org/ontology/topSpeed
p217
ssg8
(dp218
Vdatatype
p219
Vhttp://www.w3.org/2001/XMLSchema#double
p220
sVtype
p221
Vtyped-literal
p222
sVvalue
p223
V26.854
p224
ssasVordered
p225
I01
ss.