(dp0
Vhead
p1
(dp2
Vlink
p3
(lp4
sVvars
p5
(lp6
Vp
p7
aVo
p8
assVresults
p9
(dp10
Vdistinct
p11
I00
sVbindings
p12
(lp13
(dp14
g7
(dp15
Vtype
p16
Vuri
p17
sVvalue
p18
Vhttp://dbpedia.org/ontology/birthDate
p19
ssg8
(dp20
Vdatatype
p21
Vhttp://www.w3.org/2001/XMLSchema#date
p22
sVtype
p23
Vtyped-literal
p24
sVvalue
p25
V1991-9-17
p26
ssa(dp27
g7
(dp28
Vtype
p29
Vuri
p30
sVvalue
p31
Vhttp://dbpedia.org/ontology/abstract
p32
ssg8
(dp33
Vxml:lang
p34
Ven
p35
sVtype
p36
Vliteral
p37
sVvalue
p38
VMelanie Moore (born September 17, 1991) is an American actress and professional dancer best known as the winner of the eighth season of the U.S. reality television competition So You Think You Can Dance. According to the results announced on the broadcast, Moore won "overwhelmingly", garnering 47% of the vote in a four-way final tally. Moore was educated in Marietta, Georgia, where she attended Lassiter High School and was crowned homecoming queen. At the time of the competition, she was a 19-year-old college freshman attending Fordham University at Lincoln Center in New York City. Moore trained and competed for twelve years in Marietta at Rhythm Dance Center. She later left college to continue her dance training in Marietta. Moore won the National JUMP Senior Female VIP. Moore appears on the Oxygen TV show, "All the Right Moves," as a member of the Shaping Sound Dance Company. She also appeared on Glee, season 4, as a dance pupil enrolled at NYADA. Melanie originated the role of Peter Pan in Finding Neverland on Broadway at the Lunt-Fontanne Theater. In 2015, she was nominated for the Fred and Adele Astaire "Best Female Dancer" Award for her work in the role. She now plays the role of Chava in the 2015 Broadway revival of Fiddler on the Roof.
p39
ssasVordered
p40
I01
ss.