(dp0
Vhead
p1
(dp2
Vlink
p3
(lp4
sVvars
p5
(lp6
Vp
p7
aVo
p8
assVresults
p9
(dp10
Vdistinct
p11
I00
sVbindings
p12
(lp13
(dp14
g7
(dp15
Vtype
p16
Vuri
p17
sVvalue
p18
Vhttp://dbpedia.org/ontology/abstract
p19
ssg8
(dp20
Vxml:lang
p21
Ven
p22
sVtype
p23
Vliteral
p24
sVvalue
p25
VFlampouro (Greek: \u03a6\u03bb\u03ac\u03bc\u03c0\u03bf\u03c5\u03c1\u03bf, Albanian: Negovan) is a village in the central part of Florina regional unit, northern Greece, part of the Perasma municipal unit. The original indigenous name for the village of Flambouro is Negovani and means "cold water" (known for its pure mineral water source) The village's year round population is estimated at 500 people, but in the summer it grows to nearly 700. In the surrounding area many other villages can be found, including Aetos, Skopia, Kato Ydroussa, and Ano Ydroussa.
p26
ssasVordered
p27
I01
ss.