(dp0
Vhead
p1
(dp2
Vlink
p3
(lp4
sVvars
p5
(lp6
Vp
p7
aVo
p8
assVresults
p9
(dp10
Vdistinct
p11
I00
sVbindings
p12
(lp13
(dp14
g7
(dp15
Vtype
p16
Vuri
p17
sVvalue
p18
Vhttp://dbpedia.org/ontology/abstract
p19
ssg8
(dp20
Vxml:lang
p21
Ven
p22
sVtype
p23
Vliteral
p24
sVvalue
p25
VMesa Del Rey Airport (IATA: KIC, ICAO: KKIC, FAA LID: KIC) is a city owned, public use airport located one nautical mile (2 km) northeast of the central business district of King City, in Monterey County, California, United States. It is included in the National Plan of Integrated Airport Systems for 2011\u20132015, which categorized it as a general aviation facility.
p26
ssa(dp27
g7
(dp28
Vtype
p29
Vuri
p30
sVvalue
p31
Vhttp://dbpedia.org/ontology/elevation
p32
ssg8
(dp33
Vdatatype
p34
Vhttp://www.w3.org/2001/XMLSchema#double
p35
sVtype
p36
Vtyped-literal
p37
sVvalue
p38
V113.995
p39
ssa(dp40
g7
(dp41
Vtype
p42
Vuri
p43
sVvalue
p44
Vhttp://dbpedia.org/ontology/faaLocationIdentifier
p45
ssg8
(dp46
Vtype
p47
Vliteral
p48
sVvalue
p49
VKIC
p50
ssa(dp51
g7
(dp52
Vtype
p53
Vuri
p54
sVvalue
p55
Vhttp://dbpedia.org/ontology/iataLocationIdentifier
p56
ssg8
(dp57
Vtype
p58
Vliteral
p59
sVvalue
p60
VKIC
p61
ssa(dp62
g7
(dp63
Vtype
p64
Vuri
p65
sVvalue
p66
Vhttp://dbpedia.org/ontology/icaoLocationIdentifier
p67
ssg8
(dp68
Vtype
p69
Vliteral
p70
sVvalue
p71
VKKIC
p72
ssa(dp73
g7
(dp74
Vtype
p75
Vuri
p76
sVvalue
p77
Vhttp://dbpedia.org/ontology/runwayDesignation
p78
ssg8
(dp79
Vtype
p80
Vliteral
p81
sVvalue
p82
V11/29
p83
ssa(dp84
g7
(dp85
Vtype
p86
Vuri
p87
sVvalue
p88
Vhttp://dbpedia.org/ontology/runwayLength
p89
ssg8
(dp90
Vdatatype
p91
Vhttp://www.w3.org/2001/XMLSchema#double
p92
sVtype
p93
Vtyped-literal
p94
sVvalue
p95
V1365.2
p96
ssa(dp97
g7
(dp98
Vtype
p99
Vuri
p100
sVvalue
p101
Vhttp://dbpedia.org/ontology/runwaySurface
p102
ssg8
(dp103
Vtype
p104
Vliteral
p105
sVvalue
p106
VAsphalt
p107
ssasVordered
p108
I01
ss.