(dp0
Vhead
p1
(dp2
Vlink
p3
(lp4
sVvars
p5
(lp6
Vp
p7
aVo
p8
assVresults
p9
(dp10
Vdistinct
p11
I00
sVbindings
p12
(lp13
(dp14
g7
(dp15
Vtype
p16
Vuri
p17
sVvalue
p18
Vhttp://dbpedia.org/ontology/abstract
p19
ssg8
(dp20
Vxml:lang
p21
Vja
p22
sVtype
p23
Vliteral
p24
sVvalue
p25
V227\u7cfb\u96fb\u8eca\uff08227\u3051\u3044\u3067\u3093\u3057\u3083\uff09\u306f\u3001\u897f\u65e5\u672c\u65c5\u5ba2\u9244\u9053\uff08JR\u897f\u65e5\u672c\uff09\u306e\u76f4\u6d41\u8fd1\u90ca\u5f62\u96fb\u8eca\u3067\u3042\u308b\u3002\u300cRed Wing\uff08\u30ec\u30c3\u30c9 \u30a6\u30a3\u30f3\u30b0\uff09\u300d\u3068\u3044\u3046\u8eca\u4e21\u611b\u79f0\u304c\u4ed8\u3051\u3089\u308c\u3066\u3044\u308b\u3002
p26
ssa(dp27
g7
(dp28
Vtype
p29
Vuri
p30
sVvalue
p31
Vhttp://dbpedia.org/ontology/abstract
p32
ssg8
(dp33
Vxml:lang
p34
Ven
p35
sVtype
p36
Vliteral
p37
sVvalue
p38
VThe 227 series (227\u7cfb 227-kei) is a DC electric multiple unit (EMU) train operated by West Japan Railway Company (JR-West) for use on suburban services in the Hiroshima area of Japan since 14 March 2015.
p39
ssa(dp40
g7
(dp41
Vtype
p42
Vuri
p43
sVvalue
p44
Vhttp://dbpedia.org/ontology/numberBuilt
p45
ssg8
(dp46
Vdatatype
p47
Vhttp://www.w3.org/2001/XMLSchema#nonNegativeInteger
p48
sVtype
p49
Vtyped-literal
p50
sVvalue
p51
V26
p52
ssa(dp53
g7
(dp54
Vtype
p55
Vuri
p56
sVvalue
p57
Vhttp://dbpedia.org/ontology/yearOfConstruction
p58
ssg8
(dp59
Vdatatype
p60
Vhttp://www.w3.org/2001/XMLSchema#gYear
p61
sVtype
p62
Vtyped-literal
p63
sVvalue
p64
V2014
p65
ssa(dp66
g7
(dp67
Vtype
p68
Vuri
p69
sVvalue
p70
Vhttp://dbpedia.org/ontology/yearOfConstruction
p71
ssg8
(dp72
Vdatatype
p73
Vhttp://www.w3.org/2001/XMLSchema#gYear
p74
sVtype
p75
Vtyped-literal
p76
sVvalue
p77
V2018
p78
ssasVordered
p79
I01
ss.