(dp0
Vhead
p1
(dp2
Vlink
p3
(lp4
sVvars
p5
(lp6
Vp
p7
aVo
p8
assVresults
p9
(dp10
Vdistinct
p11
I00
sVbindings
p12
(lp13
(dp14
g7
(dp15
Vtype
p16
Vuri
p17
sVvalue
p18
Vhttp://dbpedia.org/ontology/abstract
p19
ssg8
(dp20
Vxml:lang
p21
Ven
p22
sVtype
p23
Vliteral
p24
sVvalue
p25
VBuskirk Bridge is a wooden covered bridge and is the name of the hamlet in which it is located. It is in the town of Hoosick. The bridge, which crosses the Hoosic River is one of 29 historic covered bridges in New York State. Town and Howe truss designs were patented by Ithiel Town in 1820 and William Howe in 1840, respectively. The Buskirk Bridge a Howe truss design, and was built to replace a previous Burr arch truss. It is perhaps the earliest Howe truss bridge that survives in New York State. A topographic map of its location appears in its individual inventory document prepared by the New York State Office of Parks, Recreation and Historic Preservation in 1977. It is one of four Washington County covered bridges submitted for listing in the National Register of Historic Places in a multiple property submission. The others are the Rexleigh Bridge, the Eagleville Bridge, and Shushan Bridge. All four were listed on the National Register of Historic Places on March 8, 1972. The bridge continues in use for vehicles, and is maintained jointly by Washington County and Rensselaer County.
p26
ssa(dp27
g7
(dp28
Vtype
p29
Vuri
p30
sVvalue
p31
Vhttp://dbpedia.org/ontology/added
p32
ssg8
(dp33
Vdatatype
p34
Vhttp://www.w3.org/2001/XMLSchema#date
p35
sVtype
p36
Vtyped-literal
p37
sVvalue
p38
V1978-03-08
p39
ssa(dp40
g7
(dp41
Vtype
p42
Vuri
p43
sVvalue
p44
Vhttp://dbpedia.org/ontology/area
p45
ssg8
(dp46
Vdatatype
p47
Vhttp://www.w3.org/2001/XMLSchema#double
p48
sVtype
p49
Vtyped-literal
p50
sVvalue
p51
V4046.86
p52
ssa(dp53
g7
(dp54
Vtype
p55
Vuri
p56
sVvalue
p57
Vhttp://dbpedia.org/ontology/nrhpReferenceNumber
p58
ssg8
(dp59
Vtype
p60
Vliteral
p61
sVvalue
p62
V78003457
p63
ssa(dp64
g7
(dp65
Vtype
p66
Vuri
p67
sVvalue
p68
Vhttp://dbpedia.org/ontology/yearOfConstruction
p69
ssg8
(dp70
Vdatatype
p71
Vhttp://www.w3.org/2001/XMLSchema#gYear
p72
sVtype
p73
Vtyped-literal
p74
sVvalue
p75
V1850
p76
ssasVordered
p77
I01
ss.