(dp0
Vhead
p1
(dp2
Vlink
p3
(lp4
sVvars
p5
(lp6
Vp
p7
aVo
p8
assVresults
p9
(dp10
Vdistinct
p11
I00
sVbindings
p12
(lp13
(dp14
g7
(dp15
Vtype
p16
Vuri
p17
sVvalue
p18
Vhttp://dbpedia.org/ontology/Infrastructure/length
p19
ssg8
(dp20
Vdatatype
p21
Vhttp://dbpedia.org/datatype/kilometre
p22
sVtype
p23
Vtyped-literal
p24
sVvalue
p25
V1.8672048
p26
ssa(dp27
g7
(dp28
Vtype
p29
Vuri
p30
sVvalue
p31
Vhttp://dbpedia.org/ontology/abstract
p32
ssg8
(dp33
Vxml:lang
p34
Vnl
p35
sVtype
p36
Vliteral
p37
sVvalue
p38
VDe Braunston Tunnel is een scheepvaarttunnel in Braunston in het Engelse graafschap Northamptonshire. De tunnel maakt deel uit van het Grand Union Canal, dat Londen met Birmingham verbindt. De tunnel is 1867 m lang, 4,8 m breed en 3,76 m hoog en werd gebouwd door William Jessop. In de tunnel is er geen jaagpad aanwezig. De tunnel wordt beheerd door British Waterways.
p39
ssa(dp40
g7
(dp41
Vtype
p42
Vuri
p43
sVvalue
p44
Vhttp://dbpedia.org/ontology/abstract
p45
ssg8
(dp46
Vxml:lang
p47
Ven
p48
sVtype
p49
Vliteral
p50
sVvalue
p51
VBraunston Tunnel is on the Grand Union Canal about 830 yds (760 m) east of Braunston, Northamptonshire, England top lock. It is in the northern outskirts of Daventry, about 2 km east of the village of Braunston. Braunston Tunnel is 2,042 yards (1,867 m) in length. Built by Jessop and Barnes, the tunnel has no towpath and is 4.8m wide by 3.76m high. It was opened in 1796. Its construction was delayed by soil movement and it was probably the resulting movement that led to the tunnel having a slight 'S' bend. There is room for two 7 ft (2.13 m) beam boats to pass. There are three air shafts along its length. The tunnel passes underground alongside another Grand Union Canal feature, Drayton Reservoir, from which the feeder enters the canal at the east end of the tunnel.
p52
ssa(dp53
g7
(dp54
Vtype
p55
Vuri
p56
sVvalue
p57
Vhttp://dbpedia.org/ontology/height
p58
ssg8
(dp59
Vdatatype
p60
Vhttp://www.w3.org/2001/XMLSchema#double
p61
sVtype
p62
Vtyped-literal
p63
sVvalue
p64
V3.76
p65
ssa(dp66
g7
(dp67
Vtype
p68
Vuri
p69
sVvalue
p70
Vhttp://dbpedia.org/ontology/length
p71
ssg8
(dp72
Vdatatype
p73
Vhttp://www.w3.org/2001/XMLSchema#double
p74
sVtype
p75
Vtyped-literal
p76
sVvalue
p77
V1867.2
p78
ssa(dp79
g7
(dp80
Vtype
p81
Vuri
p82
sVvalue
p83
Vhttp://dbpedia.org/ontology/status
p84
ssg8
(dp85
Vtype
p86
Vliteral
p87
sVvalue
p88
VOpen
p89
ssa(dp90
g7
(dp91
Vtype
p92
Vuri
p93
sVvalue
p94
Vhttp://dbpedia.org/ontology/width
p95
ssg8
(dp96
Vdatatype
p97
Vhttp://www.w3.org/2001/XMLSchema#double
p98
sVtype
p99
Vtyped-literal
p100
sVvalue
p101
V4.8
p102
ssasVordered
p103
I01
ss.