(dp0
Vhead
p1
(dp2
Vlink
p3
(lp4
sVvars
p5
(lp6
Vp
p7
aVo
p8
assVresults
p9
(dp10
Vdistinct
p11
I00
sVbindings
p12
(lp13
(dp14
g7
(dp15
Vtype
p16
Vuri
p17
sVvalue
p18
Vhttp://dbpedia.org/ontology/abstract
p19
ssg8
(dp20
Vxml:lang
p21
Ven
p22
sVtype
p23
Vliteral
p24
sVvalue
p25
VMira Costa High School (MCHS, "Costa") is a four-year public high school located in Manhattan Beach, California, United States that first began operating in 1950. It is the only high school in the Manhattan Beach Unified School District. The school's athletic teams are known as the Mustangs and the school colors are green and gold. Mira Costa is located on the corner of Peck Avenue and Artesia Boulevard. Residents of Hermosa Beach may choose to attend Redondo Union High School of the Redondo Beach Unified School District or MCHS. As of Fall 2006, Redondo Beach residents living in the 90278 zip code were allowed to attend Mira Costa. Occasionally, MBUSD policy did not allow Redondo Beach residents living in the 90278 ZIP code to attend MCHS. As of the 2005\u201306 school year, the school had an enrollment of 2,323 students and 98.0 classroom teachers (on an FTE basis), for a student-teacher ratio of 23.7.
p26
ssa(dp27
g7
(dp28
Vtype
p29
Vuri
p30
sVvalue
p31
Vhttp://dbpedia.org/ontology/facultySize
p32
ssg8
(dp33
Vdatatype
p34
Vhttp://www.w3.org/2001/XMLSchema#nonNegativeInteger
p35
sVtype
p36
Vtyped-literal
p37
sVvalue
p38
V98
p39
ssa(dp40
g7
(dp41
Vtype
p42
Vuri
p43
sVvalue
p44
Vhttp://dbpedia.org/ontology/foundingYear
p45
ssg8
(dp46
Vdatatype
p47
Vhttp://www.w3.org/2001/XMLSchema#gYear
p48
sVtype
p49
Vtyped-literal
p50
sVvalue
p51
V1950
p52
ssa(dp53
g7
(dp54
Vtype
p55
Vuri
p56
sVvalue
p57
Vhttp://dbpedia.org/ontology/motto
p58
ssg8
(dp59
Vtype
p60
Vliteral
p61
sVvalue
p62
VHome of the mustangs
p63
ssa(dp64
g7
(dp65
Vtype
p66
Vuri
p67
sVvalue
p68
Vhttp://dbpedia.org/ontology/numberOfStudents
p69
ssg8
(dp70
Vdatatype
p71
Vhttp://www.w3.org/2001/XMLSchema#nonNegativeInteger
p72
sVtype
p73
Vtyped-literal
p74
sVvalue
p75
V2323
p76
ssasVordered
p77
I01
ss.