(dp0
Vhead
p1
(dp2
Vlink
p3
(lp4
sVvars
p5
(lp6
Vp
p7
aVo
p8
assVresults
p9
(dp10
Vdistinct
p11
I00
sVbindings
p12
(lp13
(dp14
g7
(dp15
Vtype
p16
Vuri
p17
sVvalue
p18
Vhttp://dbpedia.org/ontology/abstract
p19
ssg8
(dp20
Vxml:lang
p21
Ven
p22
sVtype
p23
Vliteral
p24
sVvalue
p25
VEmily Griffith Technical College is a public technical college in downtown Denver, Colorado, United States. Founded by Emily Griffith in 1916 as Opportunity School, it was renamed in her honor in 1933. The school is affiliated with Denver Public Schools, offering an alternative high school program, and is part of the Colorado Community College System.
p26
ssa(dp27
g7
(dp28
Vtype
p29
Vuri
p30
sVvalue
p31
Vhttp://dbpedia.org/ontology/address
p32
ssg8
(dp33
Vxml:lang
p34
Ven
p35
sVtype
p36
Vliteral
p37
sVvalue
p38
V1860 Lincoln Street
p39
ssa(dp40
g7
(dp41
Vtype
p42
Vuri
p43
sVvalue
p44
Vhttp://dbpedia.org/ontology/ceeb
p45
ssg8
(dp46
Vtype
p47
Vliteral
p48
sVvalue
p49
V060405
p50
ssa(dp51
g7
(dp52
Vtype
p53
Vuri
p54
sVvalue
p55
Vhttp://dbpedia.org/ontology/foundingDate
p56
ssg8
(dp57
Vdatatype
p58
Vhttp://www.w3.org/2001/XMLSchema#date
p59
sVtype
p60
Vtyped-literal
p61
sVvalue
p62
V1916-09-09
p63
ssa(dp64
g7
(dp65
Vtype
p66
Vuri
p67
sVvalue
p68
Vhttp://dbpedia.org/ontology/foundingYear
p69
ssg8
(dp70
Vdatatype
p71
Vhttp://www.w3.org/2001/XMLSchema#gYear
p72
sVtype
p73
Vtyped-literal
p74
sVvalue
p75
V1916
p76
ssa(dp77
g7
(dp78
Vtype
p79
Vuri
p80
sVvalue
p81
Vhttp://dbpedia.org/ontology/headLabel
p82
ssg8
(dp83
Vxml:lang
p84
Ven
p85
sVtype
p86
Vliteral
p87
sVvalue
p88
VExecutive Director
p89
ssa(dp90
g7
(dp91
Vtype
p92
Vuri
p93
sVvalue
p94
Vhttp://dbpedia.org/ontology/motto
p95
ssg8
(dp96
Vtype
p97
Vliteral
p98
sVvalue
p99
VFor All Who Wish To Learn / Denver's most Unique Technical College.
p100
ssa(dp101
g7
(dp102
Vtype
p103
Vuri
p104
sVvalue
p105
Vhttp://dbpedia.org/ontology/postalCode
p106
ssg8
(dp107
Vtype
p108
Vliteral
p109
sVvalue
p110
V80203
p111
ssa(dp112
g7
(dp113
Vtype
p114
Vuri
p115
sVvalue
p116
Vhttp://dbpedia.org/ontology/status
p117
ssg8
(dp118
Vtype
p119
Vliteral
p120
sVvalue
p121
Vopen
p122
ssasVordered
p123
I01
ss.