(dp0
Vhead
p1
(dp2
Vlink
p3
(lp4
sVvars
p5
(lp6
Vp
p7
aVo
p8
assVresults
p9
(dp10
Vdistinct
p11
I00
sVbindings
p12
(lp13
(dp14
g7
(dp15
Vtype
p16
Vuri
p17
sVvalue
p18
Vhttp://dbpedia.org/ontology/birthDate
p19
ssg8
(dp20
Vdatatype
p21
Vhttp://www.w3.org/2001/XMLSchema#date
p22
sVtype
p23
Vtyped-literal
p24
sVvalue
p25
V1986-08-13
p26
ssa(dp27
g7
(dp28
Vtype
p29
Vuri
p30
sVvalue
p31
Vhttp://dbpedia.org/ontology/birthDate
p32
ssg8
(dp33
Vdatatype
p34
Vhttp://www.w3.org/2001/XMLSchema#date
p35
sVtype
p36
Vtyped-literal
p37
sVvalue
p38
V1986-8-13
p39
ssa(dp40
g7
(dp41
Vtype
p42
Vuri
p43
sVvalue
p44
Vhttp://dbpedia.org/ontology/abstract
p45
ssg8
(dp46
Vxml:lang
p47
Ven
p48
sVtype
p49
Vliteral
p50
sVvalue
p51
VDavid Knezek (born August 13, 1986) is an American politician who represents the 5th District in the Michigan Senate. He is a member of the Democratic Party. Prior to his election in 2014, Knezek served as member of the Michigan House of Representatives from 2013-2014 and as a scout sniper platoon member in the United States Marine Corps, completing two tours of duty in Iraq. He was honorably discharged in 2014, having risen to the rank of Sergeant.
p52
ssa(dp53
g7
(dp54
Vtype
p55
Vuri
p56
sVvalue
p57
Vhttp://dbpedia.org/ontology/serviceEndYear
p58
ssg8
(dp59
Vdatatype
p60
Vhttp://www.w3.org/2001/XMLSchema#gYear
p61
sVtype
p62
Vtyped-literal
p63
sVvalue
p64
V2012
p65
ssa(dp66
g7
(dp67
Vtype
p68
Vuri
p69
sVvalue
p70
Vhttp://dbpedia.org/ontology/serviceStartYear
p71
ssg8
(dp72
Vdatatype
p73
Vhttp://www.w3.org/2001/XMLSchema#gYear
p74
sVtype
p75
Vtyped-literal
p76
sVvalue
p77
V2006
p78
ssasVordered
p79
I01
ss.