(dp0
Vhead
p1
(dp2
Vlink
p3
(lp4
sVvars
p5
(lp6
Vp
p7
aVo
p8
assVresults
p9
(dp10
Vdistinct
p11
I00
sVbindings
p12
(lp13
(dp14
g7
(dp15
Vtype
p16
Vuri
p17
sVvalue
p18
Vhttp://dbpedia.org/ontology/abstract
p19
ssg8
(dp20
Vxml:lang
p21
Ven
p22
sVtype
p23
Vliteral
p24
sVvalue
p25
VThe 1889 American Cup was the fifth edition of the soccer tournament organized by the American Football Association. The Fall River Rovers won their second consecutive title by defeating the Newark Caledonians in the final.
p26
ssa(dp27
g7
(dp28
Vtype
p29
Vuri
p30
sVvalue
p31
Vhttp://dbpedia.org/ontology/numberOfGoals
p32
ssg8
(dp33
Vdatatype
p34
Vhttp://www.w3.org/2001/XMLSchema#integer
p35
sVtype
p36
Vtyped-literal
p37
sVvalue
p38
V2
p39
ssa(dp40
g7
(dp41
Vtype
p42
Vuri
p43
sVvalue
p44
Vhttp://dbpedia.org/ontology/numberOfGoals
p45
ssg8
(dp46
Vdatatype
p47
Vhttp://www.w3.org/2001/XMLSchema#integer
p48
sVtype
p49
Vtyped-literal
p50
sVvalue
p51
V30
p52
ssa(dp53
g7
(dp54
Vtype
p55
Vuri
p56
sVvalue
p57
Vhttp://dbpedia.org/ontology/numberOfGoals
p58
ssg8
(dp59
Vdatatype
p60
Vhttp://www.w3.org/2001/XMLSchema#integer
p61
sVtype
p62
Vtyped-literal
p63
sVvalue
p64
V60
p65
ssa(dp66
g7
(dp67
Vtype
p68
Vuri
p69
sVvalue
p70
Vhttp://dbpedia.org/ontology/numberOfGoals
p71
ssg8
(dp72
Vdatatype
p73
Vhttp://www.w3.org/2001/XMLSchema#integer
p74
sVtype
p75
Vtyped-literal
p76
sVvalue
p77
V61
p78
ssa(dp79
g7
(dp80
Vtype
p81
Vuri
p82
sVvalue
p83
Vhttp://dbpedia.org/ontology/numberOfGoals
p84
ssg8
(dp85
Vdatatype
p86
Vhttp://www.w3.org/2001/XMLSchema#integer
p87
sVtype
p88
Vtyped-literal
p89
sVvalue
p90
V66
p91
ssa(dp92
g7
(dp93
Vtype
p94
Vuri
p95
sVvalue
p96
Vhttp://dbpedia.org/ontology/time
p97
ssg8
(dp98
Vtype
p99
Vliteral
p100
sVvalue
p101
V3:00PM
p102
ssa(dp103
g7
(dp104
Vtype
p105
Vuri
p106
sVvalue
p107
Vhttp://dbpedia.org/ontology/time
p108
ssg8
(dp109
Vtype
p110
Vliteral
p111
sVvalue
p112
V3:30PM
p113
ssa(dp114
g7
(dp115
Vtype
p116
Vuri
p117
sVvalue
p118
Vhttp://dbpedia.org/ontology/time
p119
ssg8
(dp120
Vtype
p121
Vliteral
p122
sVvalue
p123
V10:30AM
p124
ssa(dp125
g7
(dp126
Vtype
p127
Vuri
p128
sVvalue
p129
Vhttp://dbpedia.org/ontology/time
p130
ssg8
(dp131
Vtype
p132
Vliteral
p133
sVvalue
p134
V3:10PM
p135
ssasVordered
p136
I01
ss.