(dp0
Vhead
p1
(dp2
Vlink
p3
(lp4
sVvars
p5
(lp6
Vp
p7
aVo
p8
assVresults
p9
(dp10
Vdistinct
p11
I00
sVbindings
p12
(lp13
(dp14
g7
(dp15
Vtype
p16
Vuri
p17
sVvalue
p18
Vhttp://dbpedia.org/ontology/Work/runtime
p19
ssg8
(dp20
Vdatatype
p21
Vhttp://dbpedia.org/datatype/minute
p22
sVtype
p23
Vtyped-literal
p24
sVvalue
p25
V59.766666666666666
p26
ssa(dp27
g7
(dp28
Vtype
p29
Vuri
p30
sVvalue
p31
Vhttp://dbpedia.org/ontology/abstract
p32
ssg8
(dp33
Vxml:lang
p34
Ven
p35
sVtype
p36
Vliteral
p37
sVvalue
p38
VDon't Be Afraid is a 1997 industrial / electronic album by Information Society. It saw a dramatic change in creative direction from the pop stylings of Information Society's earlier work to a darker sound with prominent themes of paranoia and disaffection with modern life. The sound of Don't Be Afraid is most similar to the late 1990s dark industrial work of Gary Numan. The album was created as a solo effort by Information Society frontman Kurt Harland. After the breakup of the band in the mid-1990s, Harland decided to retain the band name for this album. In 2006, the band reunited (with Harland initially opting out, before rejoining in 2007) and reassumed the name.
p39
ssa(dp40
g7
(dp41
Vtype
p42
Vuri
p43
sVvalue
p44
Vhttp://dbpedia.org/ontology/releaseDate
p45
ssg8
(dp46
Vdatatype
p47
Vhttp://www.w3.org/2001/XMLSchema#date
p48
sVtype
p49
Vtyped-literal
p50
sVvalue
p51
V1997-09-23
p52
ssa(dp53
g7
(dp54
Vtype
p55
Vuri
p56
sVvalue
p57
Vhttp://dbpedia.org/ontology/runtime
p58
ssg8
(dp59
Vdatatype
p60
Vhttp://www.w3.org/2001/XMLSchema#double
p61
sVtype
p62
Vtyped-literal
p63
sVvalue
p64
V3586.0
p65
ssasVordered
p66
I01
ss.