(dp0
Vhead
p1
(dp2
Vlink
p3
(lp4
sVvars
p5
(lp6
Vp
p7
aVo
p8
assVresults
p9
(dp10
Vdistinct
p11
I00
sVbindings
p12
(lp13
(dp14
g7
(dp15
Vtype
p16
Vuri
p17
sVvalue
p18
Vhttp://dbpedia.org/ontology/abstract
p19
ssg8
(dp20
Vxml:lang
p21
Ven
p22
sVtype
p23
Vliteral
p24
sVvalue
p25
VSophie Lauren Webster is a fictional character in the UK television ITV soap opera, Coronation Street. She was born on screen during the episode broadcast on 4 November 1994. She was played by Ashleigh Middleton from 1994 until 1997 and by Emma Woodward from 8 June 1997 until 25 April 2004. Brooke Vincent took over the role on 12 May 2004. Sophie is the second daughter born to Kevin (Michael Le Vell) and Sally Webster (Sally Dynevor) and younger sister to Rosie Webster (Emma Collinge, Helen Flanagan) and elder sister to half siblings Jack Webster and deceased Jake Webster. Sophie's storylines have included her constant rivalry with Rosie, her converting to Christianity and her lesbian relationships with both Sian Powers (Sacha Parkinson) and Maddie Heath (Amy James-Kelly). In 2015, it was announced that Vincent would take a three-month break from the show at the end of her contract, departing in October 2016. Vincent will return as Sophie in early 2017.
p26
ssasVordered
p27
I01
ss.