(dp0
Vhead
p1
(dp2
Vlink
p3
(lp4
sVvars
p5
(lp6
Vp
p7
aVo
p8
assVresults
p9
(dp10
Vdistinct
p11
I00
sVbindings
p12
(lp13
(dp14
g7
(dp15
Vtype
p16
Vuri
p17
sVvalue
p18
Vhttp://dbpedia.org/ontology/Infrastructure/length
p19
ssg8
(dp20
Vdatatype
p21
Vhttp://dbpedia.org/datatype/kilometre
p22
sVtype
p23
Vtyped-literal
p24
sVvalue
p25
V7.133
p26
ssa(dp27
g7
(dp28
Vtype
p29
Vuri
p30
sVvalue
p31
Vhttp://dbpedia.org/ontology/abstract
p32
ssg8
(dp33
Vxml:lang
p34
Vzh
p35
sVtype
p36
Vliteral
p37
sVvalue
p38
V\u967d\u660e\u7058\u5927\u6a4b\uff08Yangmingtan Bridge\uff09\u662f\u4e2d\u570b\u4e00\u689d\u96d9\u5854\u81ea\u9328\u5f0f\u61f8\u7d22\u6a4b\uff0c\u662f\u4e16\u754c\u5927\u6a4b\u4e4b\u4e00\uff0c\u4f4d\u65bc\u9ed1\u9f8d\u6c5f\u7701\u9996\u5e9c\u54c8\u723e\u6ff1\u5e02\u3002\u5927\u6865\u5317\u8d77\u677e\u5317\u5340\u4e09\u74b0\u8def\u8207\u4e16\u8cbf\u5927\u9053\u4ea4\u53c9\u53e3\uff0c\u5357\u4e0b\u8de8\u8d8a\u677e\u82b1\u6c5f\u822a\u9053\u8207\u4e09\u74b0\u9ad8\u67b6\u8def\u929c\u63a5\u3002\u56e0\u7a7f\u8d8a\u6c5f\u4e2d\u7684\u967d\u660e\u7058\u5cf6\u800c\u5f97\u540d\u3002\u8a72\u6a4b\u7531\u4e2d\u570b\u4e2d\u9435\u53c3\u8207\u5efa\u8a2d\u3002 \u5927\u6a4b\u5168\u95777,133\u7c73\uff0c\u5176\u4e2d\u6a4b\u6881\u90e8\u5206\u95776464\u7c73\uff0c\u63a5\u7dda\u9053\u8def\u9577669\u7c73\uff0c\u6bcf\u5c0f\u6642\u8eca\u6d41\u91cf\u53ef\u90549800\u8f1b\uff0c\u6a4b\u9762\u5bec\u5ea641.5\u7c73\uff0c\u96d9\u54118\u8eca\u9053\uff0c\u4e3b\u6a4b\u8de8\u5ea6427\u7c73\uff0c\u4e3b\u5854\u9ad880\u7c73\uff0c\u6a4b\u4e0b\u901a\u822a\u6de8\u9ad8\u4e0d\u5c0f\u65bc10\u7c73\u3002 \u5927\u6a4b\u65bc2009\u5e7412\u67085\u65e5\u958b\u5de5\u5efa\u8a2d\uff0c2011\u5e7411\u67086\u65e5\u5efa\u6210\u901a\u8eca\uff0c\u4f30\u7b97\u7e3d\u6295\u8cc718.82\u5104\u5143\u4eba\u6c11\u5e63\u3002\u70ba\u54c8\u723e\u6ff1\u5e02\u9996\u5ea7\u61f8\u7d22\u6a4b\u3002\u5de5\u671f\u662f3\u5e74\uff0c\u5be6\u969b\u8208\u5efa\u6642\u9593\u53ea\u670918\u500b\u6708\uff08\u539f\u56e0\u662f\u5c06\u539f\u672c\u8bbe\u8ba1\u7684\u6df7\u51dd\u571f\u7ed3\u6784\u6539\u4e3a\u94a2\u6df7\u7ed3\u6784\uff0c\u94a2\u6df7\u7ed3\u6784\u6bd4\u6df7\u51dd\u571f\u7ed3\u6784\u76f8\u6bd4\u91cd\u91cf\u8981\u5c0f\u5f97\u591a\uff0c\u7a33\u5b9a\u6027\u4e5f\u66f4\u5dee\uff09\uff0c\u5728\u9ed1\u9f8d\u6c5f\u7701\u7684\u6a4b\u6a11\u5efa\u8a2d\u53f2\u4e0a\u7d55\u7121\u50c5\u6709\uff0c\u627f\u5efa\u65b9\u66fe\u7533\u5831\u9b6f\u73ed\u734e\u3002
p39
ssa(dp40
g7
(dp41
Vtype
p42
Vuri
p43
sVvalue
p44
Vhttp://dbpedia.org/ontology/abstract
p45
ssg8
(dp46
Vxml:lang
p47
Ven
p48
sVtype
p49
Vliteral
p50
sVvalue
p51
VThe Yangmingtan Bridge is a suspension bridge spanning 250 metres (820 ft) over the Songhua River in Harbin, China.
p52
ssa(dp53
g7
(dp54
Vtype
p55
Vuri
p56
sVvalue
p57
Vhttp://dbpedia.org/ontology/bridgeCarries
p58
ssg8
(dp59
Vtype
p60
Vliteral
p61
sVvalue
p62
V8 lanes ofHarbin 3rd Ring Road
p63
ssa(dp64
g7
(dp65
Vtype
p66
Vuri
p67
sVvalue
p68
Vhttp://dbpedia.org/ontology/buildingStartDate
p69
ssg8
(dp70
Vtype
p71
Vliteral
p72
sVvalue
p73
VDecember 2009
p74
ssa(dp75
g7
(dp76
Vtype
p77
Vuri
p78
sVvalue
p79
Vhttp://dbpedia.org/ontology/height
p80
ssg8
(dp81
Vdatatype
p82
Vhttp://www.w3.org/2001/XMLSchema#double
p83
sVtype
p84
Vtyped-literal
p85
sVvalue
p86
V80.0
p87
ssa(dp88
g7
(dp89
Vtype
p90
Vuri
p91
sVvalue
p92
Vhttp://dbpedia.org/ontology/length
p93
ssg8
(dp94
Vdatatype
p95
Vhttp://www.w3.org/2001/XMLSchema#double
p96
sVtype
p97
Vtyped-literal
p98
sVvalue
p99
V7133.0
p100
ssa(dp101
g7
(dp102
Vtype
p103
Vuri
p104
sVvalue
p105
Vhttp://dbpedia.org/ontology/mainspan
p106
ssg8
(dp107
Vdatatype
p108
Vhttp://www.w3.org/2001/XMLSchema#double
p109
sVtype
p110
Vtyped-literal
p111
sVvalue
p112
V250.0
p113
ssa(dp114
g7
(dp115
Vtype
p116
Vuri
p117
sVvalue
p118
Vhttp://dbpedia.org/ontology/openingYear
p119
ssg8
(dp120
Vdatatype
p121
Vhttp://www.w3.org/2001/XMLSchema#gYear
p122
sVtype
p123
Vtyped-literal
p124
sVvalue
p125
V2011
p126
ssasVordered
p127
I01
ss.