(dp0
Vhead
p1
(dp2
Vlink
p3
(lp4
sVvars
p5
(lp6
Vp
p7
aVo
p8
assVresults
p9
(dp10
Vdistinct
p11
I00
sVbindings
p12
(lp13
(dp14
g7
(dp15
Vtype
p16
Vuri
p17
sVvalue
p18
Vhttp://dbpedia.org/ontology/Infrastructure/length
p19
ssg8
(dp20
Vdatatype
p21
Vhttp://dbpedia.org/datatype/kilometre
p22
sVtype
p23
Vtyped-literal
p24
sVvalue
p25
V0.2517
p26
ssa(dp27
g7
(dp28
Vtype
p29
Vuri
p30
sVvalue
p31
Vhttp://dbpedia.org/ontology/abstract
p32
ssg8
(dp33
Vxml:lang
p34
Vja
p35
sVtype
p36
Vliteral
p37
sVvalue
p38
V\u5927\u5915\u5f35\u30c0\u30e0\uff08\u304a\u304a\u3086\u3046\u3070\u308a\u30c0\u30e0\uff09\u306f\u3001\u5317\u6d77\u9053\u5915\u5f35\u5e02\u3001\u4e00\u7d1a\u6cb3\u5ddd\u30fb\u77f3\u72e9\u5ddd\u6c34\u7cfb\u5915\u5f35\u5ddd\u4e0a\u6d41\u90e8\u306b\u5efa\u8a2d\u3055\u308c\u305f\u30c0\u30e0\u3067\u3042\u308b\u3002\u30c0\u30e0\u306b\u3088\u3063\u3066\u5f62\u6210\u3055\u308c\u3066\u3044\u305f\u4eba\u9020\u6e56\u306f\u30b7\u30e5\u30fc\u30d1\u30ed\u6e56\u3068\u547c\u3070\u308c\u3066\u3044\u305f\u3002\u6e56\u306b\u3064\u3044\u3066\u306e\u8a73\u7d30\u306f\u30b7\u30e5\u30fc\u30d1\u30ed\u6e56\u3092\u53c2\u7167\u3002 \u5915\u5f35\u5ddd\u6cbf\u5cb8\u8fb2\u5730\u306e\u304b\u3093\u304c\u3044\u3092\u76ee\u7684\u306b\u5317\u6d77\u9053\u958b\u767a\u5c40\u306b\u3088\u3063\u3066\u5efa\u8a2d\u3055\u308c\u305f\u8fb2\u696d\u7528\u30c0\u30e0\u3067\u3001\u8fb2\u6797\u6c34\u7523\u7701\u7ba1\u7406\u306e\u5824\u9ad867.5\u30e1\u30fc\u30c8\u30eb\u306e\u91cd\u529b\u5f0f\u30b3\u30f3\u30af\u30ea\u30fc\u30c8\u30c0\u30e0\u3067\u3042\u3063\u305f\u3002\u76f4\u4e0b\u6d41\u306b\u7ae3\u5de5\u3057\u305f\u5915\u5f35\u30b7\u30e5\u30fc\u30d1\u30ed\u30c0\u30e0\u306e\u8caf\u7802\u30c0\u30e0\u3068\u3057\u3066\u6a5f\u80fd\u3055\u305b\u308b\u305f\u3081\u306b\u30012015\u5e74\uff08\u5e73\u621027\u5e74\uff093\u6708\u306e\u5915\u5f35\u30b7\u30e5\u30fc\u30d1\u30ed\u30c0\u30e0\u306e\u6e5b\u6c34\u306b\u3088\u3063\u3066\u30b7\u30e5\u30fc\u30d1\u30ed\u6e56\u306b\u6c34\u6ca1\u3057\u305f\u3002
p39
ssa(dp40
g7
(dp41
Vtype
p42
Vuri
p43
sVvalue
p44
Vhttp://dbpedia.org/ontology/abstract
p45
ssg8
(dp46
Vxml:lang
p47
Ven
p48
sVtype
p49
Vliteral
p50
sVvalue
p51
VThe \u014cy\u016bbari Dam (\u5927\u5915\u5f35\u30c0\u30e0 \u014cy\u016bbari damu) is a dam in the city of Y\u016bbari, Hokkaid\u014d, Japan.
p52
ssa(dp53
g7
(dp54
Vtype
p55
Vuri
p56
sVvalue
p57
Vhttp://dbpedia.org/ontology/buildingStartDate
p58
ssg8
(dp59
Vtype
p60
Vliteral
p61
sVvalue
p62
V1954
p63
ssa(dp64
g7
(dp65
Vtype
p66
Vuri
p67
sVvalue
p68
Vhttp://dbpedia.org/ontology/buildingStartYear
p69
ssg8
(dp70
Vdatatype
p71
Vhttp://www.w3.org/2001/XMLSchema#gYear
p72
sVtype
p73
Vtyped-literal
p74
sVvalue
p75
V1954
p76
ssa(dp77
g7
(dp78
Vtype
p79
Vuri
p80
sVvalue
p81
Vhttp://dbpedia.org/ontology/height
p82
ssg8
(dp83
Vdatatype
p84
Vhttp://www.w3.org/2001/XMLSchema#double
p85
sVtype
p86
Vtyped-literal
p87
sVvalue
p88
V67.5
p89
ssa(dp90
g7
(dp91
Vtype
p92
Vuri
p93
sVvalue
p94
Vhttp://dbpedia.org/ontology/length
p95
ssg8
(dp96
Vdatatype
p97
Vhttp://www.w3.org/2001/XMLSchema#double
p98
sVtype
p99
Vtyped-literal
p100
sVvalue
p101
V251.7
p102
ssa(dp103
g7
(dp104
Vtype
p105
Vuri
p106
sVvalue
p107
Vhttp://dbpedia.org/ontology/openingYear
p108
ssg8
(dp109
Vdatatype
p110
Vhttp://www.w3.org/2001/XMLSchema#gYear
p111
sVtype
p112
Vtyped-literal
p113
sVvalue
p114
V1962
p115
ssasVordered
p116
I01
ss.