(dp0
Vhead
p1
(dp2
Vlink
p3
(lp4
sVvars
p5
(lp6
Vp
p7
aVo
p8
assVresults
p9
(dp10
Vdistinct
p11
I00
sVbindings
p12
(lp13
(dp14
g7
(dp15
Vtype
p16
Vuri
p17
sVvalue
p18
Vhttp://dbpedia.org/ontology/birthDate
p19
ssg8
(dp20
Vdatatype
p21
Vhttp://www.w3.org/2001/XMLSchema#date
p22
sVtype
p23
Vtyped-literal
p24
sVvalue
p25
V1967-07-02
p26
ssa(dp27
g7
(dp28
Vtype
p29
Vuri
p30
sVvalue
p31
Vhttp://dbpedia.org/ontology/birthDate
p32
ssg8
(dp33
Vdatatype
p34
Vhttp://www.w3.org/2001/XMLSchema#date
p35
sVtype
p36
Vtyped-literal
p37
sVvalue
p38
V1967-7-2
p39
ssa(dp40
g7
(dp41
Vtype
p42
Vuri
p43
sVvalue
p44
Vhttp://dbpedia.org/ontology/abstract
p45
ssg8
(dp46
Vxml:lang
p47
Vja
p48
sVtype
p49
Vliteral
p50
sVvalue
p51
V\u30cb\u30b3\u30e9\u30b9\u30fbA\u30fb\u30dd\u30d1\u30c7\u30a3\u30c3\u30c1\uff08Nicholas A. Popaditch, 1967\u5e747\u67082\u65e5 - \uff09\u306f\u3001\u30a2\u30e1\u30ea\u30ab\u306e\u8ecd\u4eba\u3001\u653f\u6cbb\u5bb6\u3002\u30a2\u30e1\u30ea\u30ab\u6d77\u5175\u968a\u306e\u968a\u54e1\u3068\u3057\u3066\u6e7e\u5cb8\u6226\u4e89\u3001\u30a4\u30e9\u30af\u6226\u4e89\u306a\u3069\u306b\u5f93\u8ecd\u3057\u3066\u9280\u661f\u7ae0\u3084\u540d\u8a89\u6226\u50b7\u7ae0\u3092\u53d7\u7ae0\u3057\u305f\u5f8c\u3001\u50b7\u75cd\u9664\u968a\u3092\u679c\u305f\u3057\u305f\u3002\u6700\u7d42\u968e\u7d1a\u306f\u5148\u4efb\u8ecd\u66f9(Gunnery Sergeant)\u30022010\u5e74\u306b\u306f\u30ab\u30ea\u30d5\u30a9\u30eb\u30cb\u30a2\u5dde\u7b2c51\u4e0b\u9662\u8b70\u54e1\u9078\u6319\u533a\u304b\u3089\u5171\u548c\u515a\u5019\u88dc\u3068\u3057\u3066\u51fa\u99ac\u3057\u305f\u304c\u3001\u73fe\u8077\u306e\u6c11\u4e3b\u515a\u8b70\u54e1\u30dc\u30d6\u30fb\u30d5\u30a3\u30eb\u30ca\u30fc\u306b\u6557\u308c\u305f\u3002\u307e\u305f2012\u5e74\u306b\u306f\u7b2c53\u4e0b\u9662\u8b70\u54e1\u9078\u6319\u533a\u304b\u3089\u518d\u3073\u51fa\u99ac\u3057\u305f\u3082\u306e\u306e\u3001\u3084\u306f\u308a\u73fe\u8077\u306e\u6c11\u4e3b\u515a\u8b70\u54e1\u30b9\u30fc\u30b6\u30f3\u30fb\u30c7\u30a4\u30f4\u30a3\u30b9\u306b\u6557\u308c\u305f\u3002
p52
ssa(dp53
g7
(dp54
Vtype
p55
Vuri
p56
sVvalue
p57
Vhttp://dbpedia.org/ontology/abstract
p58
ssg8
(dp59
Vxml:lang
p60
Ven
p61
sVtype
p62
Vliteral
p63
sVvalue
p64
VNicholas Allen Popaditch (born July 2, 1967) is a medically retired United States Marine Corps Gunnery Sergeant who gained fame as the "Cigar Marine", recipient of the Silver Star and Purple Heart. He ran unsuccessfully as the 2010 Republican candidate for California's 51st congressional district, losing to incumbent Democrat Bob Filner. He ran again in 2012 in the 53rd congressional district, losing to incumbent Democrat Susan Davis.
p65
ssa(dp66
g7
(dp67
Vtype
p68
Vuri
p69
sVvalue
p70
Vhttp://dbpedia.org/ontology/electionDate
p71
ssg8
(dp72
Vdatatype
p73
Vhttp://www.w3.org/2001/XMLSchema#date
p74
sVtype
p75
Vtyped-literal
p76
sVvalue
p77
V2010-11-02
p78
ssa(dp79
g7
(dp80
Vtype
p81
Vuri
p82
sVvalue
p83
Vhttp://dbpedia.org/ontology/serviceEndYear
p84
ssg8
(dp85
Vdatatype
p86
Vhttp://www.w3.org/2001/XMLSchema#gYear
p87
sVtype
p88
Vtyped-literal
p89
sVvalue
p90
V1986
p91
ssa(dp92
g7
(dp93
Vtype
p94
Vuri
p95
sVvalue
p96
Vhttp://dbpedia.org/ontology/serviceStartYear
p97
ssg8
(dp98
Vdatatype
p99
Vhttp://www.w3.org/2001/XMLSchema#gYear
p100
sVtype
p101
Vtyped-literal
p102
sVvalue
p103
V1986
p104
ssasVordered
p105
I01
ss.