(dp0
Vhead
p1
(dp2
Vlink
p3
(lp4
sVvars
p5
(lp6
Vp
p7
aVo
p8
assVresults
p9
(dp10
Vdistinct
p11
I00
sVbindings
p12
(lp13
(dp14
g7
(dp15
Vtype
p16
Vuri
p17
sVvalue
p18
Vhttp://dbpedia.org/ontology/abstract
p19
ssg8
(dp20
Vxml:lang
p21
Ven
p22
sVtype
p23
Vliteral
p24
sVvalue
p25
VThe Joseph Schlitz Brewing Company was an American brewery based in Milwaukee, Wisconsin, and once the largest producer of beer in the United States. Its namesake beer, Schlitz (pronunciation: /\u02c8\u0283l\u026ats/), was known as "The beer that made Milwaukee famous" and was advertised with the slogan "When you're out of Schlitz, you're out of beer". Schlitz first became the largest beer producer in the US in 1902 and enjoyed that status at several points during the first half of the twentieth century, exchanging the title with Anheuser-Busch multiple times during the 1950s. The company was founded by August Krug in 1849 but acquired by Joseph Schlitz in 1858. Schlitz was bought by Stroh Brewery Company in 1982 and subsequently sold along with the rest of Stroh's assets to Pabst Brewing Company in 1999. Pabst now produces the recently relaunched "Schlitz Gusto" beer and Old Milwaukee. On November 13, 2014, Pabst announced that it had completed its sale to Blue Ribbon Intermediate Holdings, LLC. Blue Ribbon is a partnership between American beer entrepreneur Eugene Kashper and TSG Consumer Partners, a San Francisco\u2013based private equity firm. Prior reports suggested the price agreed upon was around $700 million.
p26
ssa(dp27
g7
(dp28
Vtype
p29
Vuri
p30
sVvalue
p31
Vhttp://dbpedia.org/ontology/abstract
p32
ssg8
(dp33
Vxml:lang
p34
Vde
p35
sVtype
p36
Vliteral
p37
sVvalue
p38
VDie Joseph Schlitz Brewing Company ist eine ehemalige US-amerikanische Brauerei in Milwaukee. Vom Anfang des 20. Jahrhunderts bis in die 1950er war das Produktflaggschiff Schlitz eines der meistverkauften Biere der Welt.
p39
ssa(dp40
g7
(dp41
Vtype
p42
Vuri
p43
sVvalue
p44
Vhttp://dbpedia.org/ontology/abstract
p45
ssg8
(dp46
Vxml:lang
p47
Vja
p48
sVtype
p49
Vliteral
p50
sVvalue
p51
V\u30b7\u30e5\u30ea\u30c3\u30c4\uff08Schlitz\uff09\u306f\u3001\u30a2\u30e1\u30ea\u30ab\u5408\u8846\u56fd\u306e\u30d3\u30fc\u30eb\u306e\u30d6\u30e9\u30f3\u30c9\u540d\u3002\u307e\u305f\u3001\u304b\u3064\u3066\u5b58\u5728\u3057\u3066\u3044\u305f\u91b8\u9020\u4f1a\u793e\u306e\u540d\u3067\u3042\u308b\u30022009\u5e74\u73fe\u5728\u3001\u30d1\u30d6\u30b9\u30c8\uff08Pabst Brewing Company\uff09\u304c\u300c\u30b7\u30e5\u30ea\u30c3\u30c4\u300d\u30d6\u30e9\u30f3\u30c9\u306e\u6a29\u5229\u3092\u6301\u3063\u3066\u3044\u308b\u3002 \u7c73\u56fd\u306e\u30d3\u30fc\u30eb\u91b8\u9020\u696d\u306e\u4e2d\u5fc3\u30fb\u30a6\u30a3\u30b9\u30b3\u30f3\u30b7\u30f3\u5dde\u30df\u30eb\u30a6\u30a9\u30fc\u30ad\u30fc\u306b\u62e0\u70b9\u3092\u7f6e\u3044\u3066\u3044\u305f\u30b7\u30e5\u30ea\u30c3\u30c4\u793e\uff08Joseph Schlitz Brewing Company\uff09\u306f\u30011900\u5e74\u4ee3\u304b\u30891970\u5e74\u4ee3\u306b\u304b\u3051\u3066\u3001\u7c73\u56fd\u30d3\u30fc\u30eb\u306e\u30c8\u30c3\u30d7\u30e1\u30fc\u30ab\u30fc\u306e\u4e00\u3064\u3067\u3042\u3063\u305f\u3002\u4e3b\u529b\u5546\u54c1\u300c\u30b7\u30e5\u30ea\u30c3\u30c4\u300d\u306f\u3057\u3070\u3057\u3070\u52b4\u50cd\u8005\u304c\u98f2\u3080\u30d3\u30fc\u30eb\u306e\u4ee3\u8868\u3068\u307f\u306a\u3055\u308c\u3001\u300c\u30df\u30eb\u30a6\u30a9\u30fc\u30ad\u30fc\u3092\u6709\u540d\u306b\u3057\u305f\u30d3\u30fc\u30eb\uff08The beer that made Milwaukee famous\uff09\u300d\u3068\u3044\u3046\u30ad\u30e3\u30c3\u30c1\u30b3\u30d4\u30fc\u3067\u77e5\u3089\u308c\u305f\u3002
p52
ssa(dp53
g7
(dp54
Vtype
p55
Vuri
p56
sVvalue
p57
Vhttp://dbpedia.org/ontology/internationally
p58
ssg8
(dp59
Vdatatype
p60
Vhttp://www.w3.org/2001/XMLSchema#boolean
p61
sVtype
p62
Vtyped-literal
p63
sVvalue
p64
V1
p65
ssasVordered
p66
I01
ss.