(dp0
Vhead
p1
(dp2
Vlink
p3
(lp4
sVvars
p5
(lp6
Vp
p7
aVo
p8
assVresults
p9
(dp10
Vdistinct
p11
I00
sVbindings
p12
(lp13
(dp14
g7
(dp15
Vtype
p16
Vuri
p17
sVvalue
p18
Vhttp://dbpedia.org/ontology/MeanOfTransportation/length
p19
ssg8
(dp20
Vdatatype
p21
Vhttp://dbpedia.org/datatype/millimetre
p22
sVtype
p23
Vtyped-literal
p24
sVvalue
p25
V8534.4
p26
ssa(dp27
g7
(dp28
Vtype
p29
Vuri
p30
sVvalue
p31
Vhttp://dbpedia.org/ontology/abstract
p32
ssg8
(dp33
Vxml:lang
p34
Vit
p35
sVtype
p36
Vliteral
p37
sVvalue
p38
VIl Motoscafo Turismo Silurante (MTS) era un mezzo d'assalto usato dagli incursori della Regia Marina italiana durante la seconda guerra mondiale, mutuato appunto da un motoscafo da turismo con scafo in legno, capace di trasportare un equipaggio di 2 uomini e 2 tubi lanciasiluri. Fu usato in diverse azioni belliche, non tutte coronate da successo. Ad esso fece seguito il Motoscafo da turismo silurante modificato (MTSM) derivato dal precedente e largamente impiegato in Mar Nero, Tunisia, Sicilia e Sardegna.
p39
ssa(dp40
g7
(dp41
Vtype
p42
Vuri
p43
sVvalue
p44
Vhttp://dbpedia.org/ontology/abstract
p45
ssg8
(dp46
Vxml:lang
p47
Ven
p48
sVtype
p49
Vliteral
p50
sVvalue
p51
VThe MTSM motor torpedo boat ( Motoscafo da Turismo Silurante Modificato) was a series of small motor torpedo boats developed by the Italian Royal Navy during World War II. The vessel was an improved version of its predecessor, the motor torpedo boat MTS. This was achieved through a larger sea-going hull with reinforced keel and a sharper stem. The MTSM were designed to be towed by larger motorboats into the target area. Once there, the MTSM could carry out a torpedo attack on moored or stationary ships. The boat could also been transported by land on trailers.
p52
ssa(dp53
g7
(dp54
Vtype
p55
Vuri
p56
sVvalue
p57
Vhttp://dbpedia.org/ontology/length
p58
ssg8
(dp59
Vdatatype
p60
Vhttp://www.w3.org/2001/XMLSchema#double
p61
sVtype
p62
Vtyped-literal
p63
sVvalue
p64
V8.5344
p65
ssa(dp66
g7
(dp67
Vtype
p68
Vuri
p69
sVvalue
p70
Vhttp://dbpedia.org/ontology/shipBeam
p71
ssg8
(dp72
Vdatatype
p73
Vhttp://www.w3.org/2001/XMLSchema#double
p74
sVtype
p75
Vtyped-literal
p76
sVvalue
p77
V2.22504
p78
ssasVordered
p79
I01
ss.