(dp0
Vhead
p1
(dp2
Vlink
p3
(lp4
sVvars
p5
(lp6
Vp
p7
aVo
p8
assVresults
p9
(dp10
Vdistinct
p11
I00
sVbindings
p12
(lp13
(dp14
g7
(dp15
Vtype
p16
Vuri
p17
sVvalue
p18
Vhttp://dbpedia.org/ontology/birthDate
p19
ssg8
(dp20
Vdatatype
p21
Vhttp://www.w3.org/2001/XMLSchema#date
p22
sVtype
p23
Vtyped-literal
p24
sVvalue
p25
V1941-1-1
p26
ssa(dp27
g7
(dp28
Vtype
p29
Vuri
p30
sVvalue
p31
Vhttp://dbpedia.org/ontology/abstract
p32
ssg8
(dp33
Vxml:lang
p34
Ven
p35
sVtype
p36
Vliteral
p37
sVvalue
p38
VMajor-General Mahmud Ali Durrani (Urdu: \u0645\u062d\u0645\u0648\u062f \u0639\u0644\u06cc \u062f\u0631\u0627\u0646\u06cc\u200e; born 1941), is a retired Pakistani two-star rank general officer, author of security studies, and a former National Security Advisor to the Pakistani government, serving from 2008 until his termination in 2009. In January 2009, he was terminated as National Security Adviser by Prime Minister Yousaf Raza Gillani for "failing to consult the Prime Minister foreign and national security relation matters". The matter in question was the acceptance by the Government of Pakistan of the Pakistani nationality of the sole surviving terrorist Ajmal Kasab, who was involved in the 2008 Mumbai attacks and was in the custody of the Mumbai Police. Durrani had previously served as Pakistan Ambassador to the United States. He was replaced as ambassador by Husain Haqqani in May 2008.
p39
ssa(dp40
g7
(dp41
Vtype
p42
Vuri
p43
sVvalue
p44
Vhttp://dbpedia.org/ontology/militaryCommand
p45
ssg8
(dp46
Vtype
p47
Vliteral
p48
sVvalue
p49
V1st Armoured Division,Multan
p50
ssa(dp51
g7
(dp52
Vtype
p53
Vuri
p54
sVvalue
p55
Vhttp://dbpedia.org/ontology/militaryCommand
p56
ssg8
(dp57
Vtype
p58
Vliteral
p59
sVvalue
p60
VMil Secyto the President
p61
ssa(dp62
g7
(dp63
Vtype
p64
Vuri
p65
sVvalue
p66
Vhttp://dbpedia.org/ontology/militaryCommand
p67
ssg8
(dp68
Vtype
p69
Vliteral
p70
sVvalue
p71
VPakistan Ordnance Factories
p72
ssa(dp73
g7
(dp74
Vtype
p75
Vuri
p76
sVvalue
p77
Vhttp://dbpedia.org/ontology/orderInOffice
p78
ssg8
(dp79
Vtype
p80
Vliteral
p81
sVvalue
p82
VPakistan Ambassador to the United States
p83
ssa(dp84
g7
(dp85
Vtype
p86
Vuri
p87
sVvalue
p88
Vhttp://dbpedia.org/ontology/orderInOffice
p89
ssg8
(dp90
Vtype
p91
Vliteral
p92
sVvalue
p93
VNational Security Adviser
p94
ssa(dp95
g7
(dp96
Vtype
p97
Vuri
p98
sVvalue
p99
Vhttp://dbpedia.org/ontology/serviceEndYear
p100
ssg8
(dp101
Vdatatype
p102
Vhttp://www.w3.org/2001/XMLSchema#gYear
p103
sVtype
p104
Vtyped-literal
p105
sVvalue
p106
V1998
p107
ssa(dp108
g7
(dp109
Vtype
p110
Vuri
p111
sVvalue
p112
Vhttp://dbpedia.org/ontology/serviceStartYear
p113
ssg8
(dp114
Vdatatype
p115
Vhttp://www.w3.org/2001/XMLSchema#gYear
p116
sVtype
p117
Vtyped-literal
p118
sVvalue
p119
V1961
p120
ssasVordered
p121
I01
ss.