(dp0
Vhead
p1
(dp2
Vlink
p3
(lp4
sVvars
p5
(lp6
Vp
p7
aVo
p8
assVresults
p9
(dp10
Vdistinct
p11
I00
sVbindings
p12
(lp13
(dp14
g7
(dp15
Vtype
p16
Vuri
p17
sVvalue
p18
Vhttp://dbpedia.org/ontology/Infrastructure/length
p19
ssg8
(dp20
Vdatatype
p21
Vhttp://dbpedia.org/datatype/kilometre
p22
sVtype
p23
Vtyped-literal
p24
sVvalue
p25
V6.625
p26
ssa(dp27
g7
(dp28
Vtype
p29
Vuri
p30
sVvalue
p31
Vhttp://dbpedia.org/ontology/abstract
p32
ssg8
(dp33
Vxml:lang
p34
Vja
p35
sVtype
p36
Vliteral
p37
sVvalue
p38
V\u96c1\u5742\u30c8\u30f3\u30cd\u30eb\u6709\u6599\u9053\u8def\uff08\u304b\u308a\u3055\u304b\u30c8\u30f3\u30cd\u30eb\u3086\u3046\u308a\u3087\u3046\u3069\u3046\u308d\uff09\u306f\u3001\u57fc\u7389\u770c\u79e9\u7236\u5e02\u304b\u3089\u96c1\u5742\u5ce0\uff08\u6a19\u9ad8\uff1a2,082m\uff09\u306e\u5730\u4e0b\u3092\u6f5c\u308a\u3001\u5c71\u68a8\u770c\u5c71\u68a8\u5e02\u306b\u81f3\u308b\u30c8\u30f3\u30cd\u30eb\u3001\u6709\u6599\u9053\u8def\u30021998\u5e744\u670823\u65e5\u958b\u901a\u3002 \u57fc\u7389\u770c\u79e9\u7236\u5730\u65b9\u3068\u5c71\u68a8\u770c\u7532\u5e9c\u5e02\u306e\u30a2\u30af\u30bb\u30b9\u9053\u8def\u3068\u3057\u3066\u306e\u6a5f\u80fd\u3092\u6301\u3063\u3066\u3044\u308b\u3002\u96c1\u5742\u30c8\u30f3\u30cd\u30eb\u304c\u958b\u901a\u3059\u308b\u307e\u3067\u56fd\u9053140\u53f7\u306f\u57fc\u7389\u770c\u79e9\u7236\u5e02\u3001\u5c71\u68a8\u770c\u5c71\u68a8\u5e02\u9593\u306f\u81ea\u52d5\u8eca\u3067\u306e\u901a\u884c\u306f\u3067\u304d\u305a\u3001\u56fd\u9053140\u53f7\u306b\u6307\u5b9a\u3055\u308c\u305f\u767b\u5c71\u9053\u3067\u96c1\u5742\u5ce0\u3092\u901a\u884c\u3057\u306a\u3051\u308c\u3070\u306a\u3089\u306a\u304b\u3063\u305f\u305f\u3081\u30c8\u30f3\u30cd\u30eb\u958b\u901a\u307e\u3067\u300c\u958b\u304b\u305a\u306e\u56fd\u9053\u300d\u3068\u547c\u3070\u308c\u3066\u3044\u305f\u3002 \u904b\u55b6\u306f\u5c71\u68a8\u770c\u9053\u8def\u516c\u793e\u304c\u884c\u3063\u3066\u3044\u308b\u3002\u5168\u7dda\u304c\u56fd\u9053140\u53f7\u3067\u3001\u8a08\u753b\u4e2d\u306e\u5730\u57df\u9ad8\u898f\u683c\u9053\u8def\u897f\u95a2\u6771\u9023\u7d61\u9053\u8def\u306e\u4e00\u90e8\u3068\u306a\u308b\u3002\u901a\u884c\u6599\u91d1\u306f\u666e\u901a\u8eca730\u5186\u3002\u89b3\u5149\u9700\u8981\u559a\u8d77\u306e\u305f\u3081\u30012015\u5e747\u67081\u65e5\u304b\u308911\u670830\u65e5\u307e\u3067\u3001\u5168\u8eca\u7a2e\u306e\u901a\u884c\u6599\u3092\u7121\u6599\u3068\u3059\u308b\u63aa\u7f6e\u304c\u53d6\u3089\u308c\u305f\u3002\u306a\u304a\u3001\u79e9\u7236\u30fb\u5c71\u68a8\u9593\u3092\u7d50\u3073\u3064\u3051\u308b\u30d0\u30b9\u306a\u3069\u306e\u516c\u5171\u4ea4\u901a\u6a5f\u95a2\u306f\u904b\u884c\u3055\u308c\u3066\u3044\u306a\u3044\u3002
p39
ssa(dp40
g7
(dp41
Vtype
p42
Vuri
p43
sVvalue
p44
Vhttp://dbpedia.org/ontology/abstract
p45
ssg8
(dp46
Vxml:lang
p47
Ven
p48
sVtype
p49
Vliteral
p50
sVvalue
p51
V75x The Karisaka Tunnel is a Japanese toll tunnel that opened April 23, 1998 between Chichibu, Saitama Prefecture and Yamanashi City, Yamanashi Prefecture. Until this tunnel opened, there was no direct road connection between Saitama and Yamanashi prefectures.
p52
ssa(dp53
g7
(dp54
Vtype
p55
Vuri
p56
sVvalue
p57
Vhttp://dbpedia.org/ontology/buildingEndYear
p58
ssg8
(dp59
Vdatatype
p60
Vhttp://www.w3.org/2001/XMLSchema#gYear
p61
sVtype
p62
Vtyped-literal
p63
sVvalue
p64
V1994
p65
ssa(dp66
g7
(dp67
Vtype
p68
Vuri
p69
sVvalue
p70
Vhttp://dbpedia.org/ontology/buildingStartYear
p71
ssg8
(dp72
Vdatatype
p73
Vhttp://www.w3.org/2001/XMLSchema#gYear
p74
sVtype
p75
Vtyped-literal
p76
sVvalue
p77
V1994
p78
ssa(dp79
g7
(dp80
Vtype
p81
Vuri
p82
sVvalue
p83
Vhttp://dbpedia.org/ontology/isPartOfName
p84
ssg8
(dp85
Vtype
p86
Vliteral
p87
sVvalue
p88
V20pxJapan National Route 140
p89
ssa(dp90
g7
(dp91
Vtype
p92
Vuri
p93
sVvalue
p94
Vhttp://dbpedia.org/ontology/length
p95
ssg8
(dp96
Vdatatype
p97
Vhttp://www.w3.org/2001/XMLSchema#double
p98
sVtype
p99
Vtyped-literal
p100
sVvalue
p101
V6625.0
p102
ssa(dp103
g7
(dp104
Vtype
p105
Vuri
p106
sVvalue
p107
Vhttp://dbpedia.org/ontology/openingYear
p108
ssg8
(dp109
Vdatatype
p110
Vhttp://www.w3.org/2001/XMLSchema#gYear
p111
sVtype
p112
Vtyped-literal
p113
sVvalue
p114
V1998
p115
ssa(dp116
g7
(dp117
Vtype
p118
Vuri
p119
sVvalue
p120
Vhttp://dbpedia.org/ontology/speedLimit
p121
ssg8
(dp122
Vdatatype
p123
Vhttp://www.w3.org/2001/XMLSchema#double
p124
sVtype
p125
Vtyped-literal
p126
sVvalue
p127
V30.0
p128
ssa(dp129
g7
(dp130
Vtype
p131
Vuri
p132
sVvalue
p133
Vhttp://dbpedia.org/ontology/speedLimit
p134
ssg8
(dp135
Vdatatype
p136
Vhttp://www.w3.org/2001/XMLSchema#double
p137
sVtype
p138
Vtyped-literal
p139
sVvalue
p140
V40.0
p141
ssa(dp142
g7
(dp143
Vtype
p144
Vuri
p145
sVvalue
p146
Vhttp://dbpedia.org/ontology/status
p147
ssg8
(dp148
Vtype
p149
Vliteral
p150
sVvalue
p151
VIn service
p152
ssa(dp153
g7
(dp154
Vtype
p155
Vuri
p156
sVvalue
p157
Vhttp://dbpedia.org/ontology/toll
p158
ssg8
(dp159
Vdatatype
p160
Vhttp://dbpedia.org/datatype/japaneseYen
p161
sVtype
p162
Vtyped-literal
p163
sVvalue
p164
V1170.0
p165
ssa(dp166
g7
(dp167
Vtype
p168
Vuri
p169
sVvalue
p170
Vhttp://dbpedia.org/ontology/toll
p171
ssg8
(dp172
Vdatatype
p173
Vhttp://dbpedia.org/datatype/japaneseYen
p174
sVtype
p175
Vtyped-literal
p176
sVvalue
p177
V1980.0
p178
ssa(dp179
g7
(dp180
Vtype
p181
Vuri
p182
sVvalue
p183
Vhttp://dbpedia.org/ontology/toll
p184
ssg8
(dp185
Vdatatype
p186
Vhttp://dbpedia.org/datatype/japaneseYen
p187
sVtype
p188
Vtyped-literal
p189
sVvalue
p190
V70.0
p191
ssa(dp192
g7
(dp193
Vtype
p194
Vuri
p195
sVvalue
p196
Vhttp://dbpedia.org/ontology/toll
p197
ssg8
(dp198
Vdatatype
p199
Vhttp://dbpedia.org/datatype/japaneseYen
p200
sVtype
p201
Vtyped-literal
p202
sVvalue
p203
V710.0
p204
ssa(dp205
g7
(dp206
Vtype
p207
Vuri
p208
sVvalue
p209
Vhttp://dbpedia.org/ontology/toll
p210
ssg8
(dp211
Vdatatype
p212
Vhttp://dbpedia.org/datatype/japaneseYen
p213
sVtype
p214
Vtyped-literal
p215
sVvalue
p216
V860.0
p217
ssa(dp218
g7
(dp219
Vtype
p220
Vuri
p221
sVvalue
p222
Vhttp://dbpedia.org/ontology/width
p223
ssg8
(dp224
Vdatatype
p225
Vhttp://www.w3.org/2001/XMLSchema#double
p226
sVtype
p227
Vtyped-literal
p228
sVvalue
p229
V7.5
p230
ssa(dp231
g7
(dp232
Vtype
p233
Vuri
p234
sVvalue
p235
Vhttp://dbpedia.org/ontology/yearOfConstruction
p236
ssg8
(dp237
Vdatatype
p238
Vhttp://www.w3.org/2001/XMLSchema#gYear
p239
sVtype
p240
Vtyped-literal
p241
sVvalue
p242
V1994
p243
ssasVordered
p244
I01
ss.