(dp0
Vhead
p1
(dp2
Vlink
p3
(lp4
sVvars
p5
(lp6
Vp
p7
aVo
p8
assVresults
p9
(dp10
Vdistinct
p11
I00
sVbindings
p12
(lp13
(dp14
g7
(dp15
Vtype
p16
Vuri
p17
sVvalue
p18
Vhttp://dbpedia.org/ontology/abstract
p19
ssg8
(dp20
Vxml:lang
p21
Var
p22
sVtype
p23
Vliteral
p24
sVvalue
p25
V\u0646\u0627\u062d\u064a\u0629 \u0627\u0644\u062c\u0627\u0646\u0648\u062f\u064a\u0629 \u0625\u062d\u062f\u0649 \u0646\u0648\u0627\u062d\u064a \u0633\u0648\u0631\u064a\u0627 \u062a\u062a\u0628\u0639 \u0625\u062f\u0627\u0631\u064a\u0651\u0627\u064b \u0644\u0645\u062d\u0627\u0641\u0638\u0629 \u0625\u062f\u0644\u0628 \u0645\u0646\u0637\u0642\u0629 \u062c\u0633\u0631 \u0627\u0644\u0634\u063a\u0648\u0631 \u0648\u0645\u0631\u0643\u0632\u0647\u0627 \u0645\u062f\u064a\u0646\u0629 \u0627\u0644\u062c\u0627\u0646\u0648\u062f\u064a\u0629\u060c \u0628\u0644\u063a \u062a\u0639\u062f\u0627\u062f \u0633\u0643\u0627\u0646 \u0627\u0644\u0646\u0627\u062d\u064a\u0629 19,642 \u0646\u0633\u0645\u0629 \u062d\u0633\u0628 \u0627\u0644\u062a\u0639\u062f\u0627\u062f \u0627\u0644\u0633\u0643\u0627\u0646\u064a \u0644\u0639\u0627\u0645 2004.
p26
ssa(dp27
g7
(dp28
Vtype
p29
Vuri
p30
sVvalue
p31
Vhttp://dbpedia.org/ontology/abstract
p32
ssg8
(dp33
Vxml:lang
p34
Ven
p35
sVtype
p36
Vliteral
p37
sVvalue
p38
VAl-Janudiyah Nahiyah (Arabic: \u0646\u0627\u062d\u064a\u0629 \u0627\u0644\u062c\u0627\u0646\u0648\u062f\u064a\u0629\u200e\u200e) is a Syrian Nahiyah (Subdistrict) located in Jisr al-Shughur District in Idlib. According to the Syria Central Bureau of Statistics (CBS), Al-Janudiyah Nahiyah had a population of 19642 in the 2004 census.
p39
ssa(dp40
g7
(dp41
Vtype
p42
Vuri
p43
sVvalue
p44
Vhttp://dbpedia.org/ontology/populationTotal
p45
ssg8
(dp46
Vdatatype
p47
Vhttp://www.w3.org/2001/XMLSchema#nonNegativeInteger
p48
sVtype
p49
Vtyped-literal
p50
sVvalue
p51
V19642
p52
ssa(dp53
g7
(dp54
Vtype
p55
Vuri
p56
sVvalue
p57
Vhttp://dbpedia.org/ontology/utcOffset
p58
ssg8
(dp59
Vtype
p60
Vliteral
p61
sVvalue
p62
V+2
p63
ssa(dp64
g7
(dp65
Vtype
p66
Vuri
p67
sVvalue
p68
Vhttp://dbpedia.org/ontology/utcOffset
p69
ssg8
(dp70
Vtype
p71
Vliteral
p72
sVvalue
p73
V+3
p74
ssasVordered
p75
I01
ss.