(dp0
Vhead
p1
(dp2
Vlink
p3
(lp4
sVvars
p5
(lp6
Vp
p7
aVo
p8
assVresults
p9
(dp10
Vdistinct
p11
I00
sVbindings
p12
(lp13
(dp14
g7
(dp15
Vtype
p16
Vuri
p17
sVvalue
p18
Vhttp://dbpedia.org/ontology/abstract
p19
ssg8
(dp20
Vxml:lang
p21
Var
p22
sVtype
p23
Vliteral
p24
sVvalue
p25
V\u0631\u0648\u062a\u0633\u0627\u0646\u062f\u0646\u0648\u0644\u064a\u0646 (\u0628\u0627\u0644\u0625\u0646\u062c\u0644\u064a\u0632\u064a\u0629: Rotsandnollen) \u0647\u0648 \u0623\u062d\u062f \u062c\u0628\u0627\u0644 \u0633\u0644\u0633\u0644\u0629 \u062c\u0628\u0627\u0644 \u0627\u0644\u0623\u0644\u0628 \u0623\u0648\u0631\u064a \u0648\u064a\u0642\u0639 \u0641\u064a \u0643\u0627\u0646\u062a\u0648\u0646 \u0646\u064a\u062f\u0641\u0627\u0644\u062f\u0646/\u0643\u0627\u0646\u062a\u0648\u0646 \u0623\u0648\u0628\u0641\u0627\u0644\u062f\u0646 \u0641\u064a \u0633\u0648\u064a\u0633\u0631\u0627. \u064a\u062d\u062a\u0644 \u0627\u0644\u0645\u0631\u062a\u0628\u0629 \u0631\u0642\u0645 293 \u0641\u064a \u0642\u0627\u0626\u0645\u0629 \u062c\u0628\u0627\u0644 \u0633\u0648\u064a\u0633\u0631\u0627 \u0645\u0646 \u062d\u064a\u062b \u0627\u0644\u0627\u0631\u062a\u0641\u0627\u0639\u060c \u0625\u0630 \u064a\u0628\u0644\u063a \u0627\u0631\u062a\u0641\u0627\u0639\u0647 \u062d\u0648\u0627\u0644\u064a 2700 \u0645\u062a\u0631\u060c \u0628\u064a\u0646\u0645\u0627 \u064a\u0628\u0644\u063a \u0627\u0631\u062a\u0641\u0627\u0639 \u0646\u062a\u0648\u0621 \u0627\u0644\u062c\u0628\u0644 493 \u0645\u062a\u0631.
p26
ssa(dp27
g7
(dp28
Vtype
p29
Vuri
p30
sVvalue
p31
Vhttp://dbpedia.org/ontology/abstract
p32
ssg8
(dp33
Vxml:lang
p34
Vde
p35
sVtype
p36
Vliteral
p37
sVvalue
p38
VDer Rotsandnollen ist ein 2700 Meter hoher Berg zwischen dem Melchtal und dem Engelbergertal in der Schweiz.
p39
ssa(dp40
g7
(dp41
Vtype
p42
Vuri
p43
sVvalue
p44
Vhttp://dbpedia.org/ontology/abstract
p45
ssg8
(dp46
Vxml:lang
p47
Ven
p48
sVtype
p49
Vliteral
p50
sVvalue
p51
VThe Rotsandnollen is a mountain of the Urner Alps, located between Melchsee-Frutt and Engelberg in Central Switzerland. The summit is located on the border between the cantons of Nidwalden and Obwalden.
p52
ssa(dp53
g7
(dp54
Vtype
p55
Vuri
p56
sVvalue
p57
Vhttp://dbpedia.org/ontology/elevation
p58
ssg8
(dp59
Vdatatype
p60
Vhttp://www.w3.org/2001/XMLSchema#double
p61
sVtype
p62
Vtyped-literal
p63
sVvalue
p64
V2700.0
p65
ssa(dp66
g7
(dp67
Vtype
p68
Vuri
p69
sVvalue
p70
Vhttp://dbpedia.org/ontology/prominence
p71
ssg8
(dp72
Vdatatype
p73
Vhttp://www.w3.org/2001/XMLSchema#double
p74
sVtype
p75
Vtyped-literal
p76
sVvalue
p77
V493.0
p78
ssasVordered
p79
I01
ss.