(dp0
Vhead
p1
(dp2
Vlink
p3
(lp4
sVvars
p5
(lp6
Vp
p7
aVo
p8
assVresults
p9
(dp10
Vdistinct
p11
I00
sVbindings
p12
(lp13
(dp14
g7
(dp15
Vtype
p16
Vuri
p17
sVvalue
p18
Vhttp://dbpedia.org/ontology/abstract
p19
ssg8
(dp20
Vxml:lang
p21
Var
p22
sVtype
p23
Vliteral
p24
sVvalue
p25
V\u0625\u0646 \u0637\u0631\u064a\u0642\u0629 \u0627\u0644\u0645\u0639\u0627\u0645\u0644 \u0627\u0644\u0635\u0627\u062f\u064a \u0647\u064a \u062a\u0642\u0646\u064a\u0629 \u0634\u0627\u0626\u0639\u0629 \u0627\u0644\u0627\u0633\u062a\u062e\u062f\u0627\u0645 \u0644\u0642\u064a\u0627\u0633 \u0627\u0644\u062a\u0636\u062e\u064a\u0645 \u0648\u062f\u0631\u062c\u0629 \u062d\u0631\u0627\u0631\u0629 \u0627\u0644\u0636\u062c\u064a\u062c \u0641\u064a [\u0627\u0644\u0645\u0636\u062e\u0645. \u0648\u062a\u0639\u062a\u0645\u062f \u062a\u0644\u0643 \u0627\u0644\u062a\u0642\u0646\u064a\u0629 \u0639\u0644\u0649 \u0627\u0644\u0636\u062c\u064a\u062c \u0627\u0644\u062d\u0631\u0627\u0631\u064a \u0644\u0644\u0645\u0642\u0627\u0648\u0645\u0629 \u0627\u0644\u0643\u0647\u0631\u0628\u0627\u0626\u064a\u0629 \u0639\u0646\u062f \u062f\u0631\u062c\u062a\u064a \u062d\u0631\u0627\u0631\u0629 \u0645\u062e\u062a\u0644\u0641\u062a\u064a\u0646 \u0648\u0645\u0639\u0644\u0648\u0645\u062a\u064a\u0646. \u0644\u0646\u0646\u0638\u0631 \u0625\u0644\u0649 \u0645\u0636\u062e\u0645 \u0645\u0648\u062c\u0627\u062a \u0635\u064f\u063a\u0631\u064a\u0629 \u062a\u0628\u0644\u063a \u0642\u064a\u0645\u0629 \u0627\u0644\u0645\u0639\u0627\u0648\u0642\u0629 50 \u0623\u0648\u0645 \u0648\u0645\u0642\u0627\u0648\u0645\u0629 \u0643\u0647\u0631\u0628\u0627\u0626\u064a\u0629 \u0642\u064a\u0645\u062a\u0647\u0627 50 \u0623\u0648\u0645 \u0645\u062a\u0635\u0644 \u0628\u0645\u062f\u062e\u0644 \u0627\u0644\u0645\u0636\u062e\u0645. \u0625\u0630\u0627 \u0643\u0627\u0646\u062a \u0627\u0644\u0645\u0642\u0627\u0648\u0645\u0629 \u0627\u0644\u0643\u0647\u0631\u0628\u0627\u0626\u064a\u0629 \u0639\u0646\u062f \u062f\u0631\u062c\u0629 \u062d\u0631\u0627\u0631\u0629  \u0641\u064a\u0632\u064a\u0627\u0626\u064a\u0629 TR, \u0641\u0625\u0646 \u0642\u0648\u0629 \u0627\u0644\u0636\u062c\u064a\u062c \u0627\u0644\u062d\u0631\u0627\u0631\u064a \u0645\u0642\u0631\u0648\u0646\u0629 \u0628\u0645\u062f\u062e\u0644 \u0627\u0644\u0645\u0636\u062e\u0645 \u062a\u0643\u0648\u0646 PJ = kBTRB, \u062d\u064a\u062b kB \u0647\u064a \u062b\u0627\u0628\u062a \u0628\u0648\u0644\u062a\u0632\u0645\u0627\u0646 \u0648B \u0647\u064a \u0639\u0631\u0636 \u0627\u0644\u0645\u062d\u0632\u0645. \u0648\u062a\u0643\u0648\u0646 \u0642\u0648\u0629 \u0627\u0644\u0636\u062c\u064a\u062c \u0639\u0646\u062f \u0645\u062e\u0631\u062c \u0627\u0644\u0645\u0636\u062e\u0645 (\u0623\u064a \u0642\u0648\u0629 \u0627\u0644\u0636\u062c\u064a\u062c \u0645\u0642\u062a\u0631\u0646\u0629 \u0628\u062d\u0645\u0644 \u0627\u0644\u0645\u0642\u0627\u0648\u0645\u0629 \u0627\u0644\u0645\u0637\u0627\u0628\u0642 \u0627\u0644\u0645\u062a\u0635\u0644 \u0628\u0645\u062e\u0631\u062c \u0627\u0644\u0645\u0636\u062e\u0645) Pout = GkB(TR+Tamp)B, \u062d\u064a\u062b G \u0647\u064a \u062a\u0636\u062e\u064a\u0645 \u0642\u0648\u0629 \u0627\u0644\u0645\u0636\u062e\u0645 \u0648Tamp \u0647\u064a \u062f\u0631\u062c\u0629 \u062d\u0631\u0627\u0631\u0629 \u0627\u0644\u0636\u062c\u064a\u062c \u0641\u064a \u0627\u0644\u0645\u0636\u062e\u0645. \u0641\u064a \u062a\u0642\u0646\u064a\u0629 \u0627\u0644\u0645\u0639\u0627\u0645\u0644 \u0627\u0644\u0635\u0627\u062f\u064a, \u064a\u062a\u0645 \u0642\u064a\u0627\u0633 Pout \u0644\u0642\u064a\u0645\u062a\u064a\u0646 \u0645\u0639\u0644\u0648\u0645\u062a\u064a\u0646 \u0648\u0645\u062e\u062a\u0644\u0641\u062a\u064a\u0646 \u0645\u0646 TR. Pout \u062b\u0645 \u064a\u062a\u0645 \u062a\u062d\u0648\u064a\u0644\u0647\u0627 \u0625\u0644\u0649 \u062f\u0631\u062c\u0629 \u062d\u0631\u0627\u0631\u0629 \u0641\u0639\u0627\u0644\u0629 Tout (\u0628\u0648\u062d\u062f\u0627\u062a \u0643\u0644\u0641\u0646) \u0628\u0642\u0633\u062a\u0645\u0647\u0627 \u0639\u0644\u0649 kB \u0648\u0639\u0631\u0636 \u0645\u062d\u0632\u0645 \u0627\u0644\u0642\u064a\u0627\u0633 B. \u062b\u0645 \u064a\u062a\u0645 \u0631\u0633\u0645 \u0642\u064a\u0645\u062a\u064a Tout \u0643\u062f\u0627\u0644\u0629 TR (\u0623\u064a\u0636\u064b\u0627 \u0628\u0648\u062d\u062f\u0627\u062a \u0627\u0644\u0643\u0644\u0641\u0646), \u0648\u064a\u062a\u0645 \u0631\u0633\u0645 \u062e\u0637 \u0645\u0646\u0627\u0633\u0628 \u0644\u062a\u0644\u0643 \u0627\u0644\u0646\u0642\u0627\u0637 (\u0627\u0646\u0638\u0631 \u0627\u0644\u0634\u0643\u0644). \u0648\u064a\u0643\u0648\u0646 \u0627\u0646\u062d\u062f\u0627\u0631 \u0627\u0644\u062e\u0637 \u0645\u0633\u0627\u0648\u064a\u064b\u0627 \u0644\u062a\u0636\u062e\u064a\u0645 \u0642\u0648\u0629 \u0627\u0644\u0645\u0636\u062e\u0645. \u0648\u062a\u0643\u0648\u0646 \u0646\u0642\u0637\u0629 \u0627\u0644\u062d\u0635\u0631 \u0627\u0644\u0633\u064a\u0646\u064a \u0644\u0644\u062e\u0637 \u0645\u0633\u0627\u0648\u064a\u0629 \u0644\u0644\u0642\u064a\u0645\u0629 \u0627\u0644\u0633\u0627\u0644\u0628\u0629 \u0644\u062f\u0631\u062c\u0629 \u062d\u0631\u0627\u0631\u0629 \u0636\u062c\u064a\u062c \u0627\u0644\u0645\u0636\u062e\u0645 - Tamp \u0628\u0648\u062d\u062f\u0629 \u0627\u0644\u0643\u0644\u0641\u0646. \u0648\u064a\u0645\u0643\u0646 \u0623\u064a\u0636\u064b\u0627 \u062a\u062d\u062f\u064a\u062f \u062f\u0631\u062c\u0629 \u062d\u0631\u0627\u0631\u0629 \u0636\u062c\u064a\u062c \u0627\u0644\u0645\u0636\u062e\u0645 \u0645\u0646 \u0646\u0642\u0637\u0629 \u0627\u0644\u062d\u0635\u0631 \u0627\u0644\u0635\u0627\u062f\u064a\u060c \u0627\u0644\u062a\u064a \u062a\u0643\u0648\u0646 \u0645\u0633\u0627\u0648\u064a\u0629 \u0644\u0640 Tamp \u0645\u0636\u0631\u0648\u0628\u064b\u0627 \u0641\u064a \u0642\u064a\u0645\u0629 \u0627\u0644\u062a\u0636\u062e\u064a\u0645.
p26
ssa(dp27
g7
(dp28
Vtype
p29
Vuri
p30
sVvalue
p31
Vhttp://dbpedia.org/ontology/abstract
p32
ssg8
(dp33
Vxml:lang
p34
Ven
p35
sVtype
p36
Vliteral
p37
sVvalue
p38
VThe Y-factor method is a widely used technique for measuring the gain and noise temperature of an amplifier. It is based on the Johnson-Nyquist noise of a resistor at two different, known temperatures. Consider a microwave amplifier with a 50 ohm impedance with a 50 ohm resistor connected to the amplifier input. If the resistor is at a physical temperature TR, then the Johnson-Nyquist noise power coupled to the amplifier input is PJ = kBTRB, where kB is Boltzmann\u2019s constant and B is the bandwidth. The noise power at the output of the amplifier (i.e. the noise power coupled to an impedance-matched load that is connected to the amplifier output) is Pout = GkB(TR+Tamp)B, where G is the amplifier power gain and Tamp is the amplifier noise temperature. In the Y-factor technique, Pout is measured for two different, known values of TR. Pout is then converted to an effective temperature Tout (in units of kelvin) by dividing by kB and the measurement bandwidth B. The two values of Tout are then plotted as a function of TR (also in units of kelvin), and a line is fit to these points (see figure). The slope of this line is equal to the amplifier power gain. The x-intercept of the line is equal to the negative of the amplifier noise temperature -Tamp in kelvin. The amplifier noise temperature can also be determined from the y-intercept, which is equal to Tamp multiplied by the gain.
p39
ssasVordered
p40
I01
ss.