(dp0
Vhead
p1
(dp2
Vlink
p3
(lp4
sVvars
p5
(lp6
Vp
p7
aVo
p8
assVresults
p9
(dp10
Vdistinct
p11
I00
sVbindings
p12
(lp13
(dp14
g7
(dp15
Vtype
p16
Vuri
p17
sVvalue
p18
Vhttp://dbpedia.org/ontology/MeanOfTransportation/weight
p19
ssg8
(dp20
Vdatatype
p21
Vhttp://dbpedia.org/datatype/kilogram
p22
sVtype
p23
Vtyped-literal
p24
sVvalue
p25
V37400.0
p26
ssa(dp27
g7
(dp28
Vtype
p29
Vuri
p30
sVvalue
p31
Vhttp://dbpedia.org/ontology/abstract
p32
ssg8
(dp33
Vxml:lang
p34
Vpl
p35
sVtype
p36
Vliteral
p37
sVvalue
p38
V\u0160koda 19 T \u2013 model tramwaju stworzony specjalnie dla Wroc\u0142awia. Jego produkcja rozpocz\u0119\u0142a si\u0119 w 2010 roku, w zak\u0142adach \u0160koda Transportation w Pilznie.
p39
ssa(dp40
g7
(dp41
Vtype
p42
Vuri
p43
sVvalue
p44
Vhttp://dbpedia.org/ontology/abstract
p45
ssg8
(dp46
Vxml:lang
p47
Ven
p48
sVtype
p49
Vliteral
p50
sVvalue
p51
VThe \u0160koda 19 T is a five carbody section low-floor bi-directional tram, developed by \u0160koda Transportation for Wroc\u0142aw. The tram is not going to be different from currently used \u0160koda 16 T trams, except for the fact that it will have two driver's cabins and doors on both sides of the tram. It will also feature more CCTV, place for bicycles and baggage in the centre section, and the seats in the end sections will be located in the driving direction, not sideways as the predecessor's. This modification is because the tram will serve on new Tramwaj Plus line, which will support bi-directional trams only. The vehicle is designed by Porsche Design Group. The low-floor area represents 65% of the entire vehicle floor.
p52
ssa(dp53
g7
(dp54
Vtype
p55
Vuri
p56
sVvalue
p57
Vhttp://dbpedia.org/ontology/capacity
p58
ssg8
(dp59
Vdatatype
p60
Vhttp://www.w3.org/2001/XMLSchema#nonNegativeInteger
p61
sVtype
p62
Vtyped-literal
p63
sVvalue
p64
V51
p65
ssa(dp66
g7
(dp67
Vtype
p68
Vuri
p69
sVvalue
p70
Vhttp://dbpedia.org/ontology/capacity
p71
ssg8
(dp72
Vdatatype
p73
Vhttp://www.w3.org/2001/XMLSchema#nonNegativeInteger
p74
sVtype
p75
Vtyped-literal
p76
sVvalue
p77
V241
p78
ssa(dp79
g7
(dp80
Vtype
p81
Vuri
p82
sVvalue
p83
Vhttp://dbpedia.org/ontology/weight
p84
ssg8
(dp85
Vdatatype
p86
Vhttp://www.w3.org/2001/XMLSchema#double
p87
sVtype
p88
Vtyped-literal
p89
sVvalue
p90
V3.74e+07
p91
ssasVordered
p92
I01
ss.