(dp0
Vhead
p1
(dp2
Vlink
p3
(lp4
sVvars
p5
(lp6
Vp
p7
aVo
p8
assVresults
p9
(dp10
Vdistinct
p11
I00
sVbindings
p12
(lp13
(dp14
g7
(dp15
Vtype
p16
Vuri
p17
sVvalue
p18
Vhttp://dbpedia.org/ontology/abstract
p19
ssg8
(dp20
Vxml:lang
p21
Ven
p22
sVtype
p23
Vliteral
p24
sVvalue
p25
VThe Unicorn Series is a young-adult fantasy novel series by Tanith Lee. The trilogy revolves around Tanaquil, a young woman who is better at tinkering than magic, much to the dismay of her sorceress mother.
p26
ssa(dp27
g7
(dp28
Vtype
p29
Vuri
p30
sVvalue
p31
Vhttp://dbpedia.org/ontology/isbn
p32
ssg8
(dp33
Vtype
p34
Vliteral
p35
sVvalue
p36
V0-689-31575-9
p37
ssa(dp38
g7
(dp39
Vtype
p40
Vuri
p41
sVvalue
p42
Vhttp://dbpedia.org/ontology/isbn
p43
ssg8
(dp44
Vtype
p45
Vliteral
p46
sVvalue
p47
V0-8125-3938-9
p48
ssa(dp49
g7
(dp50
Vtype
p51
Vuri
p52
sVvalue
p53
Vhttp://dbpedia.org/ontology/isbn
p54
ssg8
(dp55
Vtype
p56
Vliteral
p57
sVvalue
p58
V978-0-8125-4320-9
p59
ssa(dp60
g7
(dp61
Vtype
p62
Vuri
p63
sVvalue
p64
Vhttp://dbpedia.org/ontology/lcc
p65
ssg8
(dp66
Vtype
p67
Vliteral
p68
sVvalue
p69
VPZ7.L5149 Bl 1991
p70
ssa(dp71
g7
(dp72
Vtype
p73
Vuri
p74
sVvalue
p75
Vhttp://dbpedia.org/ontology/numberOfPages
p76
ssg8
(dp77
Vdatatype
p78
Vhttp://www.w3.org/2001/XMLSchema#positiveInteger
p79
sVtype
p80
Vtyped-literal
p81
sVvalue
p82
V138
p83
ssa(dp84
g7
(dp85
Vtype
p86
Vuri
p87
sVvalue
p88
Vhttp://dbpedia.org/ontology/numberOfPages
p89
ssg8
(dp90
Vdatatype
p91
Vhttp://www.w3.org/2001/XMLSchema#positiveInteger
p92
sVtype
p93
Vtyped-literal
p94
sVvalue
p95
V192
p96
ssa(dp97
g7
(dp98
Vtype
p99
Vuri
p100
sVvalue
p101
Vhttp://dbpedia.org/ontology/numberOfPages
p102
ssg8
(dp103
Vdatatype
p104
Vhttp://www.w3.org/2001/XMLSchema#positiveInteger
p105
sVtype
p106
Vtyped-literal
p107
sVvalue
p108
V244
p109
ssa(dp110
g7
(dp111
Vtype
p112
Vuri
p113
sVvalue
p114
Vhttp://dbpedia.org/ontology/oclc
p115
ssg8
(dp116
Vtype
p117
Vliteral
p118
sVvalue
p119
V23693904
p120
ssa(dp121
g7
(dp122
Vtype
p123
Vuri
p124
sVvalue
p125
Vhttp://dbpedia.org/ontology/oclc
p126
ssg8
(dp127
Vtype
p128
Vliteral
p129
sVvalue
p130
V34346024
p131
ssa(dp132
g7
(dp133
Vtype
p134
Vuri
p135
sVvalue
p136
Vhttp://dbpedia.org/ontology/publicationDate
p137
ssg8
(dp138
Vdatatype
p139
Vhttp://www.w3.org/2001/XMLSchema#date
p140
sVtype
p141
Vtyped-literal
p142
sVvalue
p143
V1998-11-15
p144
ssasVordered
p145
I01
ss.