(dp0
Vhead
p1
(dp2
Vlink
p3
(lp4
sVvars
p5
(lp6
Vp
p7
aVo
p8
assVresults
p9
(dp10
Vdistinct
p11
I00
sVbindings
p12
(lp13
(dp14
g7
(dp15
Vtype
p16
Vuri
p17
sVvalue
p18
Vhttp://dbpedia.org/ontology/Engine/cylinderBore
p19
ssg8
(dp20
Vdatatype
p21
Vhttp://dbpedia.org/datatype/millimetre
p22
sVtype
p23
Vtyped-literal
p24
sVvalue
p25
V89.0
p26
ssa(dp27
g7
(dp28
Vtype
p29
Vuri
p30
sVvalue
p31
Vhttp://dbpedia.org/ontology/Engine/cylinderBore
p32
ssg8
(dp33
Vdatatype
p34
Vhttp://dbpedia.org/datatype/millimetre
p35
sVtype
p36
Vtyped-literal
p37
sVvalue
p38
V81.6
p39
ssa(dp40
g7
(dp41
Vtype
p42
Vuri
p43
sVvalue
p44
Vhttp://dbpedia.org/ontology/Engine/displacement
p45
ssg8
(dp46
Vdatatype
p47
Vhttp://dbpedia.org/datatype/cubicCentimetre
p48
sVtype
p49
Vtyped-literal
p50
sVvalue
p51
V2099.0
p52
ssa(dp53
g7
(dp54
Vtype
p55
Vuri
p56
sVvalue
p57
Vhttp://dbpedia.org/ontology/Engine/pistonStroke
p58
ssg8
(dp59
Vdatatype
p60
Vhttp://dbpedia.org/datatype/millimetre
p61
sVtype
p62
Vtyped-literal
p63
sVvalue
p64
V79.5
p65
ssa(dp66
g7
(dp67
Vtype
p68
Vuri
p69
sVvalue
p70
Vhttp://dbpedia.org/ontology/Engine/pistonStroke
p71
ssg8
(dp72
Vdatatype
p73
Vhttp://dbpedia.org/datatype/millimetre
p74
sVtype
p75
Vtyped-literal
p76
sVvalue
p77
V66.8
p78
ssa(dp79
g7
(dp80
Vtype
p81
Vuri
p82
sVvalue
p83
Vhttp://dbpedia.org/ontology/abstract
p84
ssg8
(dp85
Vxml:lang
p86
Ven
p87
sVtype
p88
Vliteral
p89
sVvalue
p90
VThe Jaguar AJ-V6 engine is a specialized version of Ford's Ford Duratec V6 engine. One notable addition is the use of variable valve timing, a feature also shared with Mazda's version of the engine. It is available in 2.1 L, 2.5 L and 3.0 L displacements. Jaguar's AJ-V6 engine has an aluminium engine block and aluminium DOHC cylinder heads. It uses SFI fuel injection, has 4 valves per cylinder with VVT, features fracture-split forged powder metal connecting rods and a one-piece cast camshaft and has direct-acting mechanical bucket (DAMB) tappets, these design aspects differentiating the AJ-V6 from the Ford and Mazda versions.
p91
ssa(dp92
g7
(dp93
Vtype
p94
Vuri
p95
sVvalue
p96
Vhttp://dbpedia.org/ontology/compressionRatio
p97
ssg8
(dp98
Vtype
p99
Vliteral
p100
sVvalue
p101
V10.3:1
p102
ssa(dp103
g7
(dp104
Vtype
p105
Vuri
p106
sVvalue
p107
Vhttp://dbpedia.org/ontology/compressionRatio
p108
ssg8
(dp109
Vtype
p110
Vliteral
p111
sVvalue
p112
V10.75:1
p113
ssa(dp114
g7
(dp115
Vtype
p116
Vuri
p117
sVvalue
p118
Vhttp://dbpedia.org/ontology/configuration
p119
ssg8
(dp120
Vdatatype
p121
Vhttp://dbpedia.org/datatype/engineConfiguration
p122
sVtype
p123
Vtyped-literal
p124
sVvalue
p125
VV6
p126
ssa(dp127
g7
(dp128
Vtype
p129
Vuri
p130
sVvalue
p131
Vhttp://dbpedia.org/ontology/cylinderBore
p132
ssg8
(dp133
Vdatatype
p134
Vhttp://www.w3.org/2001/XMLSchema#double
p135
sVtype
p136
Vtyped-literal
p137
sVvalue
p138
V0.0816
p139
ssa(dp140
g7
(dp141
Vtype
p142
Vuri
p143
sVvalue
p144
Vhttp://dbpedia.org/ontology/cylinderBore
p145
ssg8
(dp146
Vdatatype
p147
Vhttp://www.w3.org/2001/XMLSchema#double
p148
sVtype
p149
Vtyped-literal
p150
sVvalue
p151
V0.089
p152
ssa(dp153
g7
(dp154
Vtype
p155
Vuri
p156
sVvalue
p157
Vhttp://dbpedia.org/ontology/displacement
p158
ssg8
(dp159
Vdatatype
p160
Vhttp://www.w3.org/2001/XMLSchema#double
p161
sVtype
p162
Vtyped-literal
p163
sVvalue
p164
V0.002099
p165
ssa(dp166
g7
(dp167
Vtype
p168
Vuri
p169
sVvalue
p170
Vhttp://dbpedia.org/ontology/pistonStroke
p171
ssg8
(dp172
Vdatatype
p173
Vhttp://www.w3.org/2001/XMLSchema#double
p174
sVtype
p175
Vtyped-literal
p176
sVvalue
p177
V0.0668
p178
ssa(dp179
g7
(dp180
Vtype
p181
Vuri
p182
sVvalue
p183
Vhttp://dbpedia.org/ontology/pistonStroke
p184
ssg8
(dp185
Vdatatype
p186
Vhttp://www.w3.org/2001/XMLSchema#double
p187
sVtype
p188
Vtyped-literal
p189
sVvalue
p190
V0.0795
p191
ssa(dp192
g7
(dp193
Vtype
p194
Vuri
p195
sVvalue
p196
Vhttp://dbpedia.org/ontology/productionEndYear
p197
ssg8
(dp198
Vdatatype
p199
Vhttp://www.w3.org/2001/XMLSchema#gYear
p200
sVtype
p201
Vtyped-literal
p202
sVvalue
p203
V2011
p204
ssa(dp205
g7
(dp206
Vtype
p207
Vuri
p208
sVvalue
p209
Vhttp://dbpedia.org/ontology/productionStartYear
p210
ssg8
(dp211
Vdatatype
p212
Vhttp://www.w3.org/2001/XMLSchema#gYear
p213
sVtype
p214
Vtyped-literal
p215
sVvalue
p216
V2000
p217
ssa(dp218
g7
(dp219
Vtype
p220
Vuri
p221
sVvalue
p222
Vhttp://dbpedia.org/ontology/valvetrain
p223
ssg8
(dp224
Vdatatype
p225
Vhttp://dbpedia.org/datatype/valvetrain
p226
sVtype
p227
Vtyped-literal
p228
sVvalue
p229
VDOHC
p230
ssasVordered
p231
I01
ss.