(dp0
Vhead
p1
(dp2
Vlink
p3
(lp4
sVvars
p5
(lp6
Vp
p7
aVo
p8
assVresults
p9
(dp10
Vdistinct
p11
I00
sVbindings
p12
(lp13
(dp14
g7
(dp15
Vtype
p16
Vuri
p17
sVvalue
p18
Vhttp://dbpedia.org/ontology/abstract
p19
ssg8
(dp20
Vxml:lang
p21
Ven
p22
sVtype
p23
Vliteral
p24
sVvalue
p25
VPreludes is a series of novels comprising two trilogies set in the Dragonlance world of the Dungeons & Dragons fantasy role-playing game.
p26
ssa(dp27
g7
(dp28
Vtype
p29
Vuri
p30
sVvalue
p31
Vhttp://dbpedia.org/ontology/dcc
p32
ssg8
(dp33
Vtype
p34
Vliteral
p35
sVvalue
p36
V813.54
p37
ssa(dp38
g7
(dp39
Vtype
p40
Vuri
p41
sVvalue
p42
Vhttp://dbpedia.org/ontology/isbn
p43
ssg8
(dp44
Vtype
p45
Vliteral
p46
sVvalue
p47
V0-88038-722-X
p48
ssa(dp49
g7
(dp50
Vtype
p51
Vuri
p52
sVvalue
p53
Vhttp://dbpedia.org/ontology/isbn
p54
ssg8
(dp55
Vtype
p56
Vliteral
p57
sVvalue
p58
V0-88038-754-8
p59
ssa(dp60
g7
(dp61
Vtype
p62
Vuri
p63
sVvalue
p64
Vhttp://dbpedia.org/ontology/isbn
p65
ssg8
(dp66
Vtype
p67
Vliteral
p68
sVvalue
p69
V0-88038-776-9
p70
ssa(dp71
g7
(dp72
Vtype
p73
Vuri
p74
sVvalue
p75
Vhttp://dbpedia.org/ontology/isbn
p76
ssg8
(dp77
Vtype
p78
Vliteral
p79
sVvalue
p80
V0-88038-909-5
p81
ssa(dp82
g7
(dp83
Vtype
p84
Vuri
p85
sVvalue
p86
Vhttp://dbpedia.org/ontology/isbn
p87
ssg8
(dp88
Vtype
p89
Vliteral
p90
sVvalue
p91
V0-88038-911-7
p92
ssa(dp93
g7
(dp94
Vtype
p95
Vuri
p96
sVvalue
p97
Vhttp://dbpedia.org/ontology/isbn
p98
ssg8
(dp99
Vtype
p100
Vliteral
p101
sVvalue
p102
V978-0-88038-913-6
p103
ssa(dp104
g7
(dp105
Vtype
p106
Vuri
p107
sVvalue
p108
Vhttp://dbpedia.org/ontology/lcc
p109
ssg8
(dp110
Vtype
p111
Vliteral
p112
sVvalue
p113
VCPB Box no. 1733 vol. 8
p114
ssa(dp115
g7
(dp116
Vtype
p117
Vuri
p118
sVvalue
p119
Vhttp://dbpedia.org/ontology/lcc
p120
ssg8
(dp121
Vtype
p122
Vliteral
p123
sVvalue
p124
VCPB Box no. 2270 vol. 8
p125
ssa(dp126
g7
(dp127
Vtype
p128
Vuri
p129
sVvalue
p130
Vhttp://dbpedia.org/ontology/lcc
p131
ssg8
(dp132
Vtype
p133
Vliteral
p134
sVvalue
p135
VPS3569.T3714 B7 1989
p136
ssa(dp137
g7
(dp138
Vtype
p139
Vuri
p140
sVvalue
p141
Vhttp://dbpedia.org/ontology/numberOfPages
p142
ssg8
(dp143
Vdatatype
p144
Vhttp://www.w3.org/2001/XMLSchema#positiveInteger
p145
sVtype
p146
Vtyped-literal
p147
sVvalue
p148
V308
p149
ssa(dp150
g7
(dp151
Vtype
p152
Vuri
p153
sVvalue
p154
Vhttp://dbpedia.org/ontology/numberOfPages
p155
ssg8
(dp156
Vdatatype
p157
Vhttp://www.w3.org/2001/XMLSchema#positiveInteger
p158
sVtype
p159
Vtyped-literal
p160
sVvalue
p161
V313
p162
ssa(dp163
g7
(dp164
Vtype
p165
Vuri
p166
sVvalue
p167
Vhttp://dbpedia.org/ontology/numberOfPages
p168
ssg8
(dp169
Vdatatype
p170
Vhttp://www.w3.org/2001/XMLSchema#positiveInteger
p171
sVtype
p172
Vtyped-literal
p173
sVvalue
p174
V320
p175
ssa(dp176
g7
(dp177
Vtype
p178
Vuri
p179
sVvalue
p180
Vhttp://dbpedia.org/ontology/numberOfPages
p181
ssg8
(dp182
Vdatatype
p183
Vhttp://www.w3.org/2001/XMLSchema#positiveInteger
p184
sVtype
p185
Vtyped-literal
p186
sVvalue
p187
V346
p188
ssa(dp189
g7
(dp190
Vtype
p191
Vuri
p192
sVvalue
p193
Vhttp://dbpedia.org/ontology/numberOfPages
p194
ssg8
(dp195
Vdatatype
p196
Vhttp://www.w3.org/2001/XMLSchema#positiveInteger
p197
sVtype
p198
Vtyped-literal
p199
sVvalue
p200
V349
p201
ssa(dp202
g7
(dp203
Vtype
p204
Vuri
p205
sVvalue
p206
Vhttp://dbpedia.org/ontology/numberOfPages
p207
ssg8
(dp208
Vdatatype
p209
Vhttp://www.w3.org/2001/XMLSchema#positiveInteger
p210
sVtype
p211
Vtyped-literal
p212
sVvalue
p213
V377
p214
ssa(dp215
g7
(dp216
Vtype
p217
Vuri
p218
sVvalue
p219
Vhttp://dbpedia.org/ontology/oclc
p220
ssg8
(dp221
Vtype
p222
Vliteral
p223
sVvalue
p224
V19829030
p225
ssa(dp226
g7
(dp227
Vtype
p228
Vuri
p229
sVvalue
p230
Vhttp://dbpedia.org/ontology/oclc
p231
ssg8
(dp232
Vtype
p233
Vliteral
p234
sVvalue
p235
V20957164
p236
ssa(dp237
g7
(dp238
Vtype
p239
Vuri
p240
sVvalue
p241
Vhttp://dbpedia.org/ontology/oclc
p242
ssg8
(dp243
Vtype
p244
Vliteral
p245
sVvalue
p246
V21566927
p247
ssa(dp248
g7
(dp249
Vtype
p250
Vuri
p251
sVvalue
p252
Vhttp://dbpedia.org/ontology/oclc
p253
ssg8
(dp254
Vtype
p255
Vliteral
p256
sVvalue
p257
V51949936
p258
ssa(dp259
g7
(dp260
Vtype
p261
Vuri
p262
sVvalue
p263
Vhttp://dbpedia.org/ontology/releaseDate
p264
ssg8
(dp265
Vdatatype
p266
Vhttp://www.w3.org/2001/XMLSchema#date
p267
sVtype
p268
Vtyped-literal
p269
sVvalue
p270
V1989-09-28
p271
ssa(dp272
g7
(dp273
Vtype
p274
Vuri
p275
sVvalue
p276
Vhttp://dbpedia.org/ontology/releaseDate
p277
ssg8
(dp278
Vdatatype
p279
Vhttp://www.w3.org/2001/XMLSchema#date
p280
sVtype
p281
Vtyped-literal
p282
sVvalue
p283
V1989-11-30
p284
ssa(dp285
g7
(dp286
Vtype
p287
Vuri
p288
sVvalue
p289
Vhttp://dbpedia.org/ontology/releaseDate
p290
ssg8
(dp291
Vdatatype
p292
Vhttp://www.w3.org/2001/XMLSchema#date
p293
sVtype
p294
Vtyped-literal
p295
sVvalue
p296
V1990-01-14
p297
ssa(dp298
g7
(dp299
Vtype
p300
Vuri
p301
sVvalue
p302
Vhttp://dbpedia.org/ontology/releaseDate
p303
ssg8
(dp304
Vdatatype
p305
Vhttp://www.w3.org/2001/XMLSchema#date
p306
sVtype
p307
Vtyped-literal
p308
sVvalue
p309
V1990-03-31
p310
ssasVordered
p311
I01
ss.