(dp0
Vhead
p1
(dp2
Vlink
p3
(lp4
sVvars
p5
(lp6
Vp
p7
aVo
p8
assVresults
p9
(dp10
Vdistinct
p11
I00
sVbindings
p12
(lp13
(dp14
g7
(dp15
Vtype
p16
Vuri
p17
sVvalue
p18
Vhttp://dbpedia.org/ontology/PopulatedPlace/areaTotal
p19
ssg8
(dp20
Vdatatype
p21
Vhttp://dbpedia.org/datatype/squareKilometre
p22
sVtype
p23
Vtyped-literal
p24
sVvalue
p25
V134.0
p26
ssa(dp27
g7
(dp28
Vtype
p29
Vuri
p30
sVvalue
p31
Vhttp://dbpedia.org/ontology/abstract
p32
ssg8
(dp33
Vxml:lang
p34
Vpl
p35
sVtype
p36
Vliteral
p37
sVvalue
p38
VAngijak Island \u2013 niezamieszkana wyspa w Cie\u015bninie Davisa, w Archipelagu Arktycznym, w regionie Qikiqtaaluk, na terytorium Nunavut, w Kanadzie. W pobli\u017cu Angijak Island znajduj\u0105 si\u0119 wyspy: Akuglek Island (9,9 km), Nuvuktik Island (16,1 km), Kekertuk Island (29,5 km) i Kekertaluk Island (45,9 km).
p39
ssa(dp40
g7
(dp41
Vtype
p42
Vuri
p43
sVvalue
p44
Vhttp://dbpedia.org/ontology/abstract
p45
ssg8
(dp46
Vxml:lang
p47
Ven
p48
sVtype
p49
Vliteral
p50
sVvalue
p51
VAngijak Island is an uninhabited island in the Qikiqtaaluk Region of Nunavut, Canada. It is located in Davis Strait, off southeastern Baffin Island's Cumberland Peninsula. Other islands in the immediate vicinity include Akuglek Island, Kekertaluk Island, Kekertuk Island, and Nuvuktik Island. Angijak Island is 134 km2 (52 sq mi) in size.
p52
ssa(dp53
g7
(dp54
Vtype
p55
Vuri
p56
sVvalue
p57
Vhttp://dbpedia.org/ontology/areaTotal
p58
ssg8
(dp59
Vdatatype
p60
Vhttp://www.w3.org/2001/XMLSchema#double
p61
sVtype
p62
Vtyped-literal
p63
sVvalue
p64
V1.34e+08
p65
ssasVordered
p66
I01
ss.