(dp0
Vhead
p1
(dp2
Vlink
p3
(lp4
sVvars
p5
(lp6
Vp
p7
aVo
p8
assVresults
p9
(dp10
Vdistinct
p11
I00
sVbindings
p12
(lp13
(dp14
g7
(dp15
Vtype
p16
Vuri
p17
sVvalue
p18
Vhttp://dbpedia.org/ontology/abbreviation
p19
ssg8
(dp20
Vtype
p21
Vliteral
p22
sVvalue
p23
VUKMA
p24
ssa(dp25
g7
(dp26
Vtype
p27
Vuri
p28
sVvalue
p29
Vhttp://dbpedia.org/ontology/abstract
p30
ssg8
(dp31
Vxml:lang
p32
Ven
p33
sVtype
p34
Vliteral
p35
sVvalue
p36
VThe UK Metric Association, or UKMA, is an advocacy group in the United Kingdom that argues for Metrication in the United Kingdom and aims to educate the general public in its way of thinking about the metric system. UKMA argues that the continued use of two incompatible systems of measurement causes misunderstanding, confusion and mistakes, undermines consumer protection, wastes children's education, results in additional costs and is against the national interest.
p37
ssa(dp38
g7
(dp39
Vtype
p40
Vuri
p41
sVvalue
p42
Vhttp://dbpedia.org/ontology/formationYear
p43
ssg8
(dp44
Vdatatype
p45
Vhttp://www.w3.org/2001/XMLSchema#gYear
p46
sVtype
p47
Vtyped-literal
p48
sVvalue
p49
V1999
p50
ssa(dp51
g7
(dp52
Vtype
p53
Vuri
p54
sVvalue
p55
Vhttp://dbpedia.org/ontology/purpose
p56
ssg8
(dp57
Vtype
p58
Vliteral
p59
sVvalue
p60
VPromotemetricationin the United Kingdom
p61
ssasVordered
p62
I01
ss.