(dp0
Vhead
p1
(dp2
Vlink
p3
(lp4
sVvars
p5
(lp6
Vp
p7
aVo
p8
assVresults
p9
(dp10
Vdistinct
p11
I00
sVbindings
p12
(lp13
(dp14
g7
(dp15
Vtype
p16
Vuri
p17
sVvalue
p18
Vhttp://dbpedia.org/ontology/birthDate
p19
ssg8
(dp20
Vdatatype
p21
Vhttp://www.w3.org/2001/XMLSchema#date
p22
sVtype
p23
Vtyped-literal
p24
sVvalue
p25
V1974-01-12
p26
ssa(dp27
g7
(dp28
Vtype
p29
Vuri
p30
sVvalue
p31
Vhttp://dbpedia.org/ontology/birthDate
p32
ssg8
(dp33
Vdatatype
p34
Vhttp://www.w3.org/2001/XMLSchema#date
p35
sVtype
p36
Vtyped-literal
p37
sVvalue
p38
V1974-1-12
p39
ssa(dp40
g7
(dp41
Vtype
p42
Vuri
p43
sVvalue
p44
Vhttp://dbpedia.org/ontology/Person/height
p45
ssg8
(dp46
Vdatatype
p47
Vhttp://dbpedia.org/datatype/centimetre
p48
sVtype
p49
Vtyped-literal
p50
sVvalue
p51
V156.0
p52
ssa(dp53
g7
(dp54
Vtype
p55
Vuri
p56
sVvalue
p57
Vhttp://dbpedia.org/ontology/abstract
p58
ssg8
(dp59
Vxml:lang
p60
Vja
p61
sVtype
p62
Vliteral
p63
sVvalue
p64
V\u98a8\u9593 \u606d\u5b50\uff08\u304b\u3056\u307e \u304d\u3087\u3046\u3053\u30011977\u5e742\u670820\u65e5 - \uff09\u306f\u3001\u65e5\u672c\u306eAV\u5973\u512a\u3002 \u6771\u4eac\u90fd\u51fa\u8eab\u3002\u8840\u6db2\u578b:O\u578b\u3002\u8eab\u9577:156cm\u3002\u30b9\u30ea\u30fc\u30b5\u30a4\u30ba:B95(G)\u30fbW60\u30fbH85\u3002
p65
ssa(dp66
g7
(dp67
Vtype
p68
Vuri
p69
sVvalue
p70
Vhttp://dbpedia.org/ontology/abstract
p71
ssg8
(dp72
Vxml:lang
p73
Ven
p74
sVtype
p75
Vliteral
p76
sVvalue
p77
VKy\u014dko Kazama (\u98a8\u9593\u4eca\u65e5\u5b50 or \u98a8\u9593\u606d\u5b50 Kazama Ky\u014dko) is a Japanese AV idol and pink film actress. She has appeared in award-winning pink films, and was herself given a "Best Supporting Actress" award in two successive years for her work in this genre in 2006 and 2007.
p78
ssa(dp79
g7
(dp80
Vtype
p81
Vuri
p82
sVvalue
p83
Vhttp://dbpedia.org/ontology/height
p84
ssg8
(dp85
Vdatatype
p86
Vhttp://www.w3.org/2001/XMLSchema#double
p87
sVtype
p88
Vtyped-literal
p89
sVvalue
p90
V1.56
p91
ssa(dp92
g7
(dp93
Vtype
p94
Vuri
p95
sVvalue
p96
Vhttp://dbpedia.org/ontology/imdbId
p97
ssg8
(dp98
Vtype
p99
Vliteral
p100
sVvalue
p101
V1422956
p102
ssasVordered
p103
I01
ss.