(dp0
Vhead
p1
(dp2
Vlink
p3
(lp4
sVvars
p5
(lp6
Vp
p7
aVo
p8
assVresults
p9
(dp10
Vdistinct
p11
I00
sVbindings
p12
(lp13
(dp14
g7
(dp15
Vtype
p16
Vuri
p17
sVvalue
p18
Vhttp://dbpedia.org/ontology/abstract
p19
ssg8
(dp20
Vxml:lang
p21
Ven
p22
sVtype
p23
Vliteral
p24
sVvalue
p25
VThe Conewago Valley School District is a midsized, rural public school district. Conewago Valley School District encompasses approximately 73 square miles (190 km2). It serves the Boroughs of Abbottstown, the northern portion of Bonneauville, McSherrystown and New Oxford and Berwick Township, Conewago Township, Hamilton Township, all but the southwestern edge of Mount Pleasant Township, Oxford Township, the eastern edge of Straban Township and the southeastern edge of Tyrone Township in Adams County, Pennsylvania. According to 2000 Federal Census data, it served a resident population of 23,314. By 2010, the district's population increased to 27,336 people. The educational attainment levels for the School District population (25 years old and over) were 84.1% high school graduates and 13.5% college graduates. According to the Pennsylvania Budget and Policy Center, 37.3% of the District\u2019s pupils lived at 185% or below the Federal Poverty level as shown by their eligibility for the federal free or reduced price school meal programs in 2012. In 2009, Conewago Valley School District residents' per capita income was $18,281, while the median family income was $48,174. In the Commonwealth of Pennsylvania, the median family income was $49,501  and the United States median family income was $49,445, in 2010. In Adams County, the median household income was $56,529. By 2013, the median household income in the United States rose to $52,100. According to Conewago Valley School District (CVSD) officials, in school year 2005-06, the District provided basic educational services to 3,788 pupils. It employed: 245 teachers, 116 full-time and part-time support personnel, and 13 administrators. Conewago Valley School District received more than $11.4 million in state funding in school year 2005-06. Per District officials, in school year 2007-08, the Conewago Valley School District provided basic educational services to 3,937 pupils. It employed: 259 teachers, 150 full-time and part-time support personnel, and 14 administrators. Conewago Valley School District received more than $13.3 million in state funding in school year 2007-08. Conewago Valley School District operates New Oxford High School (9th-12th), New Oxford Middle School (7th-8th), Conewago Valley Intermediate School (4th-6th), Conewago Township Elementary School (K-3rd) and New Oxford Elementary School (K-3rd). In 2010, enrollment in the District was 3,931 pupils. High school students may choose to attend Adams County Tech Prep for training in the construction and mechanical trades. The Lincoln Intermediate Unit IU12 provides the District with a wide variety of services like specialized education for disabled students and hearing, speech and visual disability services and professional development for staff and faculty.
p26
ssa(dp27
g7
(dp28
Vtype
p29
Vuri
p30
sVvalue
p31
Vhttp://dbpedia.org/ontology/address
p32
ssg8
(dp33
Vxml:lang
p34
Ven
p35
sVtype
p36
Vliteral
p37
sVvalue
p38
V130 Berlin Road
p39
ssa(dp40
g7
(dp41
Vtype
p42
Vuri
p43
sVvalue
p44
Vhttp://dbpedia.org/ontology/budget
p45
ssg8
(dp46
Vdatatype
p47
Vhttp://dbpedia.org/datatype/usDollar
p48
sVtype
p49
Vtyped-literal
p50
sVvalue
p51
V1.8384978E7
p52
ssa(dp53
g7
(dp54
Vtype
p55
Vuri
p56
sVvalue
p57
Vhttp://dbpedia.org/ontology/budget
p58
ssg8
(dp59
Vdatatype
p60
Vhttp://dbpedia.org/datatype/usDollar
p61
sVtype
p62
Vtyped-literal
p63
sVvalue
p64
V4.256629E7
p65
ssa(dp66
g7
(dp67
Vtype
p68
Vuri
p69
sVvalue
p70
Vhttp://dbpedia.org/ontology/budget
p71
ssg8
(dp72
Vdatatype
p73
Vhttp://dbpedia.org/datatype/usDollar
p74
sVtype
p75
Vtyped-literal
p76
sVvalue
p77
V4.4052941E7
p78
ssa(dp79
g7
(dp80
Vtype
p81
Vuri
p82
sVvalue
p83
Vhttp://dbpedia.org/ontology/budget
p84
ssg8
(dp85
Vdatatype
p86
Vhttp://dbpedia.org/datatype/usDollar
p87
sVtype
p88
Vtyped-literal
p89
sVvalue
p90
V4.7252714E7
p91
ssa(dp92
g7
(dp93
Vtype
p94
Vuri
p95
sVvalue
p96
Vhttp://dbpedia.org/ontology/budget
p97
ssg8
(dp98
Vdatatype
p99
Vhttp://dbpedia.org/datatype/usDollar
p100
sVtype
p101
Vtyped-literal
p102
sVvalue
p103
V4.9703574E7
p104
ssa(dp105
g7
(dp106
Vtype
p107
Vuri
p108
sVvalue
p109
Vhttp://dbpedia.org/ontology/budget
p110
ssg8
(dp111
Vdatatype
p112
Vhttp://dbpedia.org/datatype/usDollar
p113
sVtype
p114
Vtyped-literal
p115
sVvalue
p116
V5.2144028E7
p117
ssa(dp118
g7
(dp119
Vtype
p120
Vuri
p121
sVvalue
p122
Vhttp://dbpedia.org/ontology/facultySize
p123
ssg8
(dp124
Vdatatype
p125
Vhttp://www.w3.org/2001/XMLSchema#nonNegativeInteger
p126
sVtype
p127
Vtyped-literal
p128
sVvalue
p129
V326
p130
ssa(dp131
g7
(dp132
Vtype
p133
Vuri
p134
sVvalue
p135
Vhttp://dbpedia.org/ontology/lowerAge
p136
ssg8
(dp137
Vdatatype
p138
Vhttp://www.w3.org/2001/XMLSchema#nonNegativeInteger
p139
sVtype
p140
Vtyped-literal
p141
sVvalue
p142
V5
p143
ssa(dp144
g7
(dp145
Vtype
p146
Vuri
p147
sVvalue
p148
Vhttp://dbpedia.org/ontology/mascot
p149
ssg8
(dp150
Vtype
p151
Vliteral
p152
sVvalue
p153
VColonials
p154
ssa(dp155
g7
(dp156
Vtype
p157
Vuri
p158
sVvalue
p159
Vhttp://dbpedia.org/ontology/numberOfStudents
p160
ssg8
(dp161
Vdatatype
p162
Vhttp://www.w3.org/2001/XMLSchema#nonNegativeInteger
p163
sVtype
p164
Vtyped-literal
p165
sVvalue
p166
V3877
p167
ssa(dp168
g7
(dp169
Vtype
p170
Vuri
p171
sVvalue
p172
Vhttp://dbpedia.org/ontology/numberOfStudents
p173
ssg8
(dp174
Vdatatype
p175
Vhttp://www.w3.org/2001/XMLSchema#nonNegativeInteger
p176
sVtype
p177
Vtyped-literal
p178
sVvalue
p179
V3941
p180
ssa(dp181
g7
(dp182
Vtype
p183
Vuri
p184
sVvalue
p185
Vhttp://dbpedia.org/ontology/numberOfStudents
p186
ssg8
(dp187
Vdatatype
p188
Vhttp://www.w3.org/2001/XMLSchema#nonNegativeInteger
p189
sVtype
p190
Vtyped-literal
p191
sVvalue
p192
V3943
p193
ssa(dp194
g7
(dp195
Vtype
p196
Vuri
p197
sVvalue
p198
Vhttp://dbpedia.org/ontology/numberOfStudents
p199
ssg8
(dp200
Vdatatype
p201
Vhttp://www.w3.org/2001/XMLSchema#nonNegativeInteger
p202
sVtype
p203
Vtyped-literal
p204
sVvalue
p205
V4024
p206
ssa(dp207
g7
(dp208
Vtype
p209
Vuri
p210
sVvalue
p211
Vhttp://dbpedia.org/ontology/postalCode
p212
ssg8
(dp213
Vtype
p214
Vliteral
p215
sVvalue
p216
V17350-1206
p217
ssa(dp218
g7
(dp219
Vtype
p220
Vuri
p221
sVvalue
p222
Vhttp://dbpedia.org/ontology/staff
p223
ssg8
(dp224
Vdatatype
p225
Vhttp://www.w3.org/2001/XMLSchema#nonNegativeInteger
p226
sVtype
p227
Vtyped-literal
p228
sVvalue
p229
V1845
p230
ssa(dp231
g7
(dp232
Vtype
p233
Vuri
p234
sVvalue
p235
Vhttp://dbpedia.org/ontology/upperAge
p236
ssg8
(dp237
Vdatatype
p238
Vhttp://www.w3.org/2001/XMLSchema#nonNegativeInteger
p239
sVtype
p240
Vtyped-literal
p241
sVvalue
p242
V21
p243
ssasVordered
p244
I01
ss.