(dp0
Vhead
p1
(dp2
Vlink
p3
(lp4
sVvars
p5
(lp6
Vp
p7
aVo
p8
assVresults
p9
(dp10
Vdistinct
p11
I00
sVbindings
p12
(lp13
(dp14
g7
(dp15
Vtype
p16
Vuri
p17
sVvalue
p18
Vhttp://dbpedia.org/ontology/birthDate
p19
ssg8
(dp20
Vdatatype
p21
Vhttp://www.w3.org/2001/XMLSchema#date
p22
sVtype
p23
Vtyped-literal
p24
sVvalue
p25
V1962-9-10
p26
ssa(dp27
g7
(dp28
Vtype
p29
Vuri
p30
sVvalue
p31
Vhttp://dbpedia.org/ontology/Person/height
p32
ssg8
(dp33
Vdatatype
p34
Vhttp://dbpedia.org/datatype/centimetre
p35
sVtype
p36
Vtyped-literal
p37
sVvalue
p38
V175.26
p39
ssa(dp40
g7
(dp41
Vtype
p42
Vuri
p43
sVvalue
p44
Vhttp://dbpedia.org/ontology/Person/weight
p45
ssg8
(dp46
Vdatatype
p47
Vhttp://dbpedia.org/datatype/kilogram
p48
sVtype
p49
Vtyped-literal
p50
sVvalue
p51
V72.576
p52
ssa(dp53
g7
(dp54
Vtype
p55
Vuri
p56
sVvalue
p57
Vhttp://dbpedia.org/ontology/abstract
p58
ssg8
(dp59
Vxml:lang
p60
Vnl
p61
sVtype
p62
Vliteral
p63
sVvalue
p64
VEsteban Toledo (Mexicali, 10 september 1962) is een Mexicaanse professioneel golfer.
p65
ssa(dp66
g7
(dp67
Vtype
p68
Vuri
p69
sVvalue
p70
Vhttp://dbpedia.org/ontology/abstract
p71
ssg8
(dp72
Vxml:lang
p73
Ven
p74
sVtype
p75
Vliteral
p76
sVvalue
p77
VEsteban Toledo (born 10 September 1962) is a Mexican professional golfer, who was a member of the PGA Tour in 1994 and 1998\u20132004 and has also spent many years playing on the second tier Nationwide Tour. At present, he competes on the Champions Tour. Toledo was born in Mexicali, Mexico. Before taking up professional golf, Toledo was a boxer. His sole victory on the Nationwide Tour came at the 2005 Lake Erie Charity Classic at Peek 'n Peak Resort. He also won the 2000 Mexican Open. He represented Mexico in the World Cup in 1992, 1994, 1995, 1998, 2002 and 2006. In May 2013, Toledo became the first Mexican to win on the Champions Tour, winning the Insperity Championship in a playoff. Toledo has since won an additional three times on the Champions Tour at the 2013 Montreal Championship, 2015 Nature Valley First Tee Open at Pebble Beach and 2016 Allianz Championship. Toledo's life and career is the subject of the book Tin Cup Dreams by Michael D'Antonio.
p78
ssa(dp79
g7
(dp80
Vtype
p81
Vuri
p82
sVvalue
p83
Vhttp://dbpedia.org/ontology/height
p84
ssg8
(dp85
Vdatatype
p86
Vhttp://www.w3.org/2001/XMLSchema#double
p87
sVtype
p88
Vtyped-literal
p89
sVvalue
p90
V1.7526
p91
ssa(dp92
g7
(dp93
Vtype
p94
Vuri
p95
sVvalue
p96
Vhttp://dbpedia.org/ontology/weight
p97
ssg8
(dp98
Vdatatype
p99
Vhttp://www.w3.org/2001/XMLSchema#double
p100
sVtype
p101
Vtyped-literal
p102
sVvalue
p103
V72576.0
p104
ssasVordered
p105
I01
ss.