(dp0
Vhead
p1
(dp2
Vlink
p3
(lp4
sVvars
p5
(lp6
Vp
p7
aVo
p8
assVresults
p9
(dp10
Vdistinct
p11
I00
sVbindings
p12
(lp13
(dp14
g7
(dp15
Vtype
p16
Vuri
p17
sVvalue
p18
Vhttp://dbpedia.org/ontology/Work/runtime
p19
ssg8
(dp20
Vdatatype
p21
Vhttp://dbpedia.org/datatype/minute
p22
sVtype
p23
Vtyped-literal
p24
sVvalue
p25
V101.0
p26
ssa(dp27
g7
(dp28
Vtype
p29
Vuri
p30
sVvalue
p31
Vhttp://dbpedia.org/ontology/abstract
p32
ssg8
(dp33
Vxml:lang
p34
Ven
p35
sVtype
p36
Vliteral
p37
sVvalue
p38
VThe First Kangaroos is a 1988 British\u2013Australian made for TV sports film directed by Frank Cvitanovich and starring Dennis Waterman, Chris Haywood and Dominic Sweeney. It depicts the 1908\u201309 Kangaroo tour of Great Britain, the first-ever such tour by the Australia national rugby league team. The First Kangaroos drew complaints from the Granddaughter of British rugby league legend Albert Goldthorpe for its villainous depiction of him. Some scenes featured the grandstand of Arlington Oval in the inner-western Sydney suburb Dulwich Hill which hosted women's competitions of the 1938 British Empire Games.
p39
ssa(dp40
g7
(dp41
Vtype
p42
Vuri
p43
sVvalue
p44
Vhttp://dbpedia.org/ontology/runtime
p45
ssg8
(dp46
Vdatatype
p47
Vhttp://www.w3.org/2001/XMLSchema#double
p48
sVtype
p49
Vtyped-literal
p50
sVvalue
p51
V6060.0
p52
ssasVordered
p53
I01
ss.