(dp0
Vhead
p1
(dp2
Vlink
p3
(lp4
sVvars
p5
(lp6
Vp
p7
aVo
p8
assVresults
p9
(dp10
Vdistinct
p11
I00
sVbindings
p12
(lp13
(dp14
g7
(dp15
Vtype
p16
Vuri
p17
sVvalue
p18
Vhttp://dbpedia.org/ontology/abstract
p19
ssg8
(dp20
Vxml:lang
p21
Ven
p22
sVtype
p23
Vliteral
p24
sVvalue
p25
VLafayette Federal Credit Union (Lafayette Federal), is a credit union headquartered in Kensington, Maryland, chartered and regulated under the authority of the National Credit Union Administration (NCUA) of the U.S. Federal government. As of June 2013, Lafayette Federal had over $368 million USD in assets, and over 14,000 members.
p26
ssa(dp27
g7
(dp28
Vtype
p29
Vuri
p30
sVvalue
p31
Vhttp://dbpedia.org/ontology/assets
p32
ssg8
(dp33
Vdatatype
p34
Vhttp://dbpedia.org/datatype/usDollar
p35
sVtype
p36
Vtyped-literal
p37
sVvalue
p38
V368.0
p39
ssa(dp40
g7
(dp41
Vtype
p42
Vuri
p43
sVvalue
p44
Vhttp://dbpedia.org/ontology/foundingYear
p45
ssg8
(dp46
Vdatatype
p47
Vhttp://www.w3.org/2001/XMLSchema#gYear
p48
sVtype
p49
Vtyped-literal
p50
sVvalue
p51
V1935
p52
ssasVordered
p53
I01
ss.