(dp0
Vhead
p1
(dp2
Vlink
p3
(lp4
sVvars
p5
(lp6
Vp
p7
aVo
p8
assVresults
p9
(dp10
Vdistinct
p11
I00
sVbindings
p12
(lp13
(dp14
g7
(dp15
Vtype
p16
Vuri
p17
sVvalue
p18
Vhttp://dbpedia.org/ontology/abstract
p19
ssg8
(dp20
Vxml:lang
p21
Ven
p22
sVtype
p23
Vliteral
p24
sVvalue
p25
VThe War That Came Early is a six-volume alternate history series by Harry Turtledove, in which World War II begins in 1938 over Czechoslovakia. The first volume, Hitler's War, was released in hardcover in 2009 without a series title. Subsequently, the paperback edition was announced as The War That Came Early: Hitler's War.
p26
ssa(dp27
g7
(dp28
Vtype
p29
Vuri
p30
sVvalue
p31
Vhttp://dbpedia.org/ontology/isbn
p32
ssg8
(dp33
Vtype
p34
Vliteral
p35
sVvalue
p36
V978-0-345-49182-4
p37
ssa(dp38
g7
(dp39
Vtype
p40
Vuri
p41
sVvalue
p42
Vhttp://dbpedia.org/ontology/isbn
p43
ssg8
(dp44
Vtype
p45
Vliteral
p46
sVvalue
p47
V978-0-345-49184-8
p48
ssa(dp49
g7
(dp50
Vtype
p51
Vuri
p52
sVvalue
p53
Vhttp://dbpedia.org/ontology/isbn
p54
ssg8
(dp55
Vtype
p56
Vliteral
p57
sVvalue
p58
V978-0-345-49186-2
p59
ssa(dp60
g7
(dp61
Vtype
p62
Vuri
p63
sVvalue
p64
Vhttp://dbpedia.org/ontology/isbn
p65
ssg8
(dp66
Vtype
p67
Vliteral
p68
sVvalue
p69
V978-0-345-52465-2
p70
ssa(dp71
g7
(dp72
Vtype
p73
Vuri
p74
sVvalue
p75
Vhttp://dbpedia.org/ontology/isbn
p76
ssg8
(dp77
Vtype
p78
Vliteral
p79
sVvalue
p80
V978-0345524683
p81
ssa(dp82
g7
(dp83
Vtype
p84
Vuri
p85
sVvalue
p86
Vhttp://dbpedia.org/ontology/numberOfPages
p87
ssg8
(dp88
Vdatatype
p89
Vhttp://www.w3.org/2001/XMLSchema#positiveInteger
p90
sVtype
p91
Vtyped-literal
p92
sVvalue
p93
V432
p94
ssa(dp95
g7
(dp96
Vtype
p97
Vuri
p98
sVvalue
p99
Vhttp://dbpedia.org/ontology/numberOfPages
p100
ssg8
(dp101
Vdatatype
p102
Vhttp://www.w3.org/2001/XMLSchema#positiveInteger
p103
sVtype
p104
Vtyped-literal
p105
sVvalue
p106
V448
p107
ssa(dp108
g7
(dp109
Vtype
p110
Vuri
p111
sVvalue
p112
Vhttp://dbpedia.org/ontology/numberOfPages
p113
ssg8
(dp114
Vdatatype
p115
Vhttp://www.w3.org/2001/XMLSchema#positiveInteger
p116
sVtype
p117
Vtyped-literal
p118
sVvalue
p119
V480
p120
ssa(dp121
g7
(dp122
Vtype
p123
Vuri
p124
sVvalue
p125
Vhttp://dbpedia.org/ontology/numberOfPages
p126
ssg8
(dp127
Vdatatype
p128
Vhttp://www.w3.org/2001/XMLSchema#positiveInteger
p129
sVtype
p130
Vtyped-literal
p131
sVvalue
p132
V512
p133
ssa(dp134
g7
(dp135
Vtype
p136
Vuri
p137
sVvalue
p138
Vhttp://dbpedia.org/ontology/publicationDate
p139
ssg8
(dp140
Vdatatype
p141
Vhttp://www.w3.org/2001/XMLSchema#date
p142
sVtype
p143
Vtyped-literal
p144
sVvalue
p145
V2009-08-04
p146
ssa(dp147
g7
(dp148
Vtype
p149
Vuri
p150
sVvalue
p151
Vhttp://dbpedia.org/ontology/publicationDate
p152
ssg8
(dp153
Vdatatype
p154
Vhttp://www.w3.org/2001/XMLSchema#date
p155
sVtype
p156
Vtyped-literal
p157
sVvalue
p158
V2010-07-27
p159
ssa(dp160
g7
(dp161
Vtype
p162
Vuri
p163
sVvalue
p164
Vhttp://dbpedia.org/ontology/publicationDate
p165
ssg8
(dp166
Vdatatype
p167
Vhttp://www.w3.org/2001/XMLSchema#date
p168
sVtype
p169
Vtyped-literal
p170
sVvalue
p171
V2011-07-19
p172
ssa(dp173
g7
(dp174
Vtype
p175
Vuri
p176
sVvalue
p177
Vhttp://dbpedia.org/ontology/publicationDate
p178
ssg8
(dp179
Vdatatype
p180
Vhttp://www.w3.org/2001/XMLSchema#date
p181
sVtype
p182
Vtyped-literal
p183
sVvalue
p184
V2012-07-31
p185
ssa(dp186
g7
(dp187
Vtype
p188
Vuri
p189
sVvalue
p190
Vhttp://dbpedia.org/ontology/publicationDate
p191
ssg8
(dp192
Vdatatype
p193
Vhttp://www.w3.org/2001/XMLSchema#date
p194
sVtype
p195
Vtyped-literal
p196
sVvalue
p197
V2013-07-23
p198
ssasVordered
p199
I01
ss.