(dp0
Vhead
p1
(dp2
Vlink
p3
(lp4
sVvars
p5
(lp6
Vp
p7
aVo
p8
assVresults
p9
(dp10
Vdistinct
p11
I00
sVbindings
p12
(lp13
(dp14
g7
(dp15
Vtype
p16
Vuri
p17
sVvalue
p18
Vhttp://dbpedia.org/ontology/abstract
p19
ssg8
(dp20
Vxml:lang
p21
Vja
p22
sVtype
p23
Vliteral
p24
sVvalue
p25
V\u76e4\u77f3\u99c5\uff08\u30d1\u30f3\u30bd\u30af\u3048\u304d\uff09\u306f\u3001\u5927\u97d3\u6c11\u56fd\u5927\u7530\u5e83\u57df\u5e02\u5112\u57ce\u533a\u76e4\u77f3\u6d1e\u306b\u3042\u308b\u5927\u7530\u90fd\u5e02\u9244\u90531\u53f7\u7dda\u306e\u99c5\u3067\u3042\u308b\u3002\u99c5\u756a\u53f7\u306f(122)\u3002 \u4e03\u661f\u53f0\u3068\u3044\u3046\u526f\u99c5\u540d\u304c\u3042\u308b\u3002\u4e03\u661f\u53f0\u306f\u9678\u8ecd\u8ecd\u9700\u53f8\u4ee4\u90e8\u306e\u5225\u540d\u3002
p26
ssa(dp27
g7
(dp28
Vtype
p29
Vuri
p30
sVvalue
p31
Vhttp://dbpedia.org/ontology/abstract
p32
ssg8
(dp33
Vxml:lang
p34
Vzh
p35
sVtype
p36
Vliteral
p37
sVvalue
p38
V\u76e4\u77f3\u7ad9\u662f\u4f4d\u65bc\u97d3\u570b\u5927\u7530\u5ee3\u57df\u5e02\u5112\u57ce\u533a\u5317\u5112\u57ce\u5927\u8def\u7684\u4e00\u500b\u8eca\u7ad9\uff0c\u5c6c\u65bc\u5927\u7530\u90fd\u5e02\u94c1\u90531\u53f7\u7ebf\u3002
p39
ssa(dp40
g7
(dp41
Vtype
p42
Vuri
p43
sVvalue
p44
Vhttp://dbpedia.org/ontology/abstract
p45
ssg8
(dp46
Vxml:lang
p47
Ven
p48
sVtype
p49
Vliteral
p50
sVvalue
p51
VBanseok Station (Hangul: \ubc18\uc11d\uc5ed; hanja: \u76e4\u77f3\u9a5b) is a station of the Daejeon Metro Line 1 in Banseok-dong, Yuseong District, Daejeon, South Korea.
p52
ssa(dp53
g7
(dp54
Vtype
p55
Vuri
p56
sVvalue
p57
Vhttp://dbpedia.org/ontology/address
p58
ssg8
(dp59
Vxml:lang
p60
Ven
p61
sVtype
p62
Vliteral
p63
sVvalue
p64
VBanseok-dong,Yuseong District,Daejeon
p65
ssa(dp66
g7
(dp67
Vtype
p68
Vuri
p69
sVvalue
p70
Vhttp://dbpedia.org/ontology/agencyStationCode
p71
ssg8
(dp72
Vtype
p73
Vliteral
p74
sVvalue
p75
V122
p76
ssa(dp77
g7
(dp78
Vtype
p79
Vuri
p80
sVvalue
p81
Vhttp://dbpedia.org/ontology/numberOfTracks
p82
ssg8
(dp83
Vdatatype
p84
Vhttp://www.w3.org/2001/XMLSchema#nonNegativeInteger
p85
sVtype
p86
Vtyped-literal
p87
sVvalue
p88
V3
p89
ssa(dp90
g7
(dp91
Vtype
p92
Vuri
p93
sVvalue
p94
Vhttp://dbpedia.org/ontology/openingDate
p95
ssg8
(dp96
Vdatatype
p97
Vhttp://www.w3.org/2001/XMLSchema#date
p98
sVtype
p99
Vtyped-literal
p100
sVvalue
p101
V2007-04-17
p102
ssa(dp103
g7
(dp104
Vtype
p105
Vuri
p106
sVvalue
p107
Vhttp://dbpedia.org/ontology/openingYear
p108
ssg8
(dp109
Vdatatype
p110
Vhttp://www.w3.org/2001/XMLSchema#gYear
p111
sVtype
p112
Vtyped-literal
p113
sVvalue
p114
V2007
p115
ssa(dp116
g7
(dp117
Vtype
p118
Vuri
p119
sVvalue
p120
Vhttp://dbpedia.org/ontology/railwayPlatforms
p121
ssg8
(dp122
Vtype
p123
Vliteral
p124
sVvalue
p125
V2
p126
ssasVordered
p127
I01
ss.