(dp0
Vhead
p1
(dp2
Vlink
p3
(lp4
sVvars
p5
(lp6
Vp
p7
aVo
p8
assVresults
p9
(dp10
Vdistinct
p11
I00
sVbindings
p12
(lp13
(dp14
g7
(dp15
Vtype
p16
Vuri
p17
sVvalue
p18
Vhttp://dbpedia.org/ontology/birthDate
p19
ssg8
(dp20
Vdatatype
p21
Vhttp://www.w3.org/2001/XMLSchema#date
p22
sVtype
p23
Vtyped-literal
p24
sVvalue
p25
V1952-0-0
p26
ssa(dp27
g7
(dp28
Vtype
p29
Vuri
p30
sVvalue
p31
Vhttp://dbpedia.org/ontology/abstract
p32
ssg8
(dp33
Vxml:lang
p34
Ven
p35
sVtype
p36
Vliteral
p37
sVvalue
p38
VJoel Bernstein is a photographer, guitarist, and record producer based in Oakland, California. His photographs have appeared as the album covers to, among others, After the Gold Rush, 4 Way Street, Rita Coolidge, Wind on the Water, Running on Empty, CSN, Bob Dylan at Budokan, Rust Never Sleeps, Shadows and Light, and Hard Promises. His photographs have been published in Time, The New York Times, and Rolling Stone, among other publications, and there have been retrospective exhibits of his work in New York City, San Francisco, Los Angeles, and London.As a guitarist, he is most noted for support work to his friends David Crosby and Graham Nash, both individually and on their Crosby & Nash records. He has acted as co-producer and archivist with Nash for Crosby, Stills, Nash & Young, and is responsible with Nash for the compilation and production of the box sets Voyage for Crosby, Reflections for Nash, Carry On for Stephen Stills, and CSNY 1974 for the band's tour of that year.
p39
ssa(dp40
g7
(dp41
Vtype
p42
Vuri
p43
sVvalue
p44
Vhttp://dbpedia.org/ontology/activeYearsStartYear
p45
ssg8
(dp46
Vdatatype
p47
Vhttp://www.w3.org/2001/XMLSchema#gYear
p48
sVtype
p49
Vtyped-literal
p50
sVvalue
p51
V1968
p52
ssa(dp53
g7
(dp54
Vtype
p55
Vuri
p56
sVvalue
p57
Vhttp://dbpedia.org/ontology/birthYear
p58
ssg8
(dp59
Vdatatype
p60
Vhttp://www.w3.org/2001/XMLSchema#gYear
p61
sVtype
p62
Vtyped-literal
p63
sVvalue
p64
V1952
p65
ssasVordered
p66
I01
ss.