(dp0
Vhead
p1
(dp2
Vlink
p3
(lp4
sVvars
p5
(lp6
Vp
p7
aVo
p8
assVresults
p9
(dp10
Vdistinct
p11
I00
sVbindings
p12
(lp13
(dp14
g7
(dp15
Vtype
p16
Vuri
p17
sVvalue
p18
Vhttp://dbpedia.org/ontology/abstract
p19
ssg8
(dp20
Vxml:lang
p21
Ven
p22
sVtype
p23
Vliteral
p24
sVvalue
p25
VMudgegonga is a locality in northeast Victoria, Australia. It is 316 kilometres (196 mi) northeast of the state capital, Melbourne. At the 2011 census, Mudgegonga had a population of 257. The locality was affected by the Black Saturday bushfires, with two deaths in the region.
p26
ssa(dp27
g7
(dp28
Vtype
p29
Vuri
p30
sVvalue
p31
Vhttp://dbpedia.org/ontology/populationTotal
p32
ssg8
(dp33
Vdatatype
p34
Vhttp://www.w3.org/2001/XMLSchema#nonNegativeInteger
p35
sVtype
p36
Vtyped-literal
p37
sVvalue
p38
V257
p39
ssasVordered
p40
I01
ss.