(dp0
Vhead
p1
(dp2
Vlink
p3
(lp4
sVvars
p5
(lp6
Vp
p7
aVo
p8
assVresults
p9
(dp10
Vdistinct
p11
I00
sVbindings
p12
(lp13
(dp14
g7
(dp15
Vtype
p16
Vuri
p17
sVvalue
p18
Vhttp://dbpedia.org/ontology/abstract
p19
ssg8
(dp20
Vxml:lang
p21
Ven
p22
sVtype
p23
Vliteral
p24
sVvalue
p25
VFord Airport (IATA: IMT, ICAO: KIMT, FAA LID: IMT) is a county owned public use airport in Dickinson County, Michigan, United States. It is located three miles west of the central business district of Iron Mountain, in the central Upper Peninsula of Michigan. The airport offers scheduled service by one commercial airline which is subsidized by the Essential Air Service program. It is also a hub for FedEx Feeder operator CSA Air. Ford Airport serves the greater Dickinson County area which includes the cities of Iron Mountain, Kingsford and Norway in Michigan and the bordering Wisconsin communities of Aurora, Florence and Niagara. Its service area also includes portions of Iron and Menominee counties in Michigan and Florence and Marinette counties in Wisconsin. As per Federal Aviation Administration records, the airport had 3,998 passenger boardings (enplanements) in calendar year 2008, 5,475 enplanements in 2009, and 6,943 in 2010. It is included in the National Plan of Integrated Airport Systems for 2015\u20132019, which categorized it as a non-primary regional commercial service airport (between 2,500 and 10,000 enplanements per year).
p26
ssa(dp27
g7
(dp28
Vtype
p29
Vuri
p30
sVvalue
p31
Vhttp://dbpedia.org/ontology/elevation
p32
ssg8
(dp33
Vdatatype
p34
Vhttp://www.w3.org/2001/XMLSchema#double
p35
sVtype
p36
Vtyped-literal
p37
sVvalue
p38
V360.274
p39
ssa(dp40
g7
(dp41
Vtype
p42
Vuri
p43
sVvalue
p44
Vhttp://dbpedia.org/ontology/faaLocationIdentifier
p45
ssg8
(dp46
Vtype
p47
Vliteral
p48
sVvalue
p49
VIMT
p50
ssa(dp51
g7
(dp52
Vtype
p53
Vuri
p54
sVvalue
p55
Vhttp://dbpedia.org/ontology/iataLocationIdentifier
p56
ssg8
(dp57
Vtype
p58
Vliteral
p59
sVvalue
p60
VIMT
p61
ssa(dp62
g7
(dp63
Vtype
p64
Vuri
p65
sVvalue
p66
Vhttp://dbpedia.org/ontology/icaoLocationIdentifier
p67
ssg8
(dp68
Vtype
p69
Vliteral
p70
sVvalue
p71
VKIMT
p72
ssa(dp73
g7
(dp74
Vtype
p75
Vuri
p76
sVvalue
p77
Vhttp://dbpedia.org/ontology/runwayDesignation
p78
ssg8
(dp79
Vtype
p80
Vliteral
p81
sVvalue
p82
V1/19
p83
ssa(dp84
g7
(dp85
Vtype
p86
Vuri
p87
sVvalue
p88
Vhttp://dbpedia.org/ontology/runwayDesignation
p89
ssg8
(dp90
Vtype
p91
Vliteral
p92
sVvalue
p93
V13/31
p94
ssa(dp95
g7
(dp96
Vtype
p97
Vuri
p98
sVvalue
p99
Vhttp://dbpedia.org/ontology/runwayLength
p100
ssg8
(dp101
Vdatatype
p102
Vhttp://www.w3.org/2001/XMLSchema#double
p103
sVtype
p104
Vtyped-literal
p105
sVvalue
p106
V1160.68
p107
ssa(dp108
g7
(dp109
Vtype
p110
Vuri
p111
sVvalue
p112
Vhttp://dbpedia.org/ontology/runwayLength
p113
ssg8
(dp114
Vdatatype
p115
Vhttp://www.w3.org/2001/XMLSchema#double
p116
sVtype
p117
Vtyped-literal
p118
sVvalue
p119
V1981.5
p120
ssa(dp121
g7
(dp122
Vtype
p123
Vuri
p124
sVvalue
p125
Vhttp://dbpedia.org/ontology/runwaySurface
p126
ssg8
(dp127
Vtype
p128
Vliteral
p129
sVvalue
p130
VAsphalt
p131
ssasVordered
p132
I01
ss.