(dp0
Vhead
p1
(dp2
Vlink
p3
(lp4
sVvars
p5
(lp6
Vp
p7
aVo
p8
assVresults
p9
(dp10
Vdistinct
p11
I00
sVbindings
p12
(lp13
(dp14
g7
(dp15
Vtype
p16
Vuri
p17
sVvalue
p18
Vhttp://dbpedia.org/ontology/abstract
p19
ssg8
(dp20
Vxml:lang
p21
Ven
p22
sVtype
p23
Vliteral
p24
sVvalue
p25
VNorthwood F.C. is an English football club based in Northwood in the London Borough of Hillingdon. The club is affiliated to the Middlesex County Football Association. They play their home games at Northwood Park, also known as Chestnut Avenue \u2013 the road on which the ground is located. The club will play in the Southern Football League Division One Central for the 2016\u201317 season having finished 7th in the previous campaign. Their current manager is former Northwood player Mark Burgess, who took the job following the departure of Gary Meakin in November 2012.
p26
ssa(dp27
g7
(dp28
Vtype
p29
Vuri
p30
sVvalue
p31
Vhttp://dbpedia.org/ontology/abstract
p32
ssg8
(dp33
Vxml:lang
p34
Vja
p35
sVtype
p36
Vliteral
p37
sVvalue
p38
V\u30ce\u30fc\u30b9\u30a6\u30c3\u30c9\u30fb\u30d5\u30c3\u30c8\u30dc\u30fc\u30eb\u30af\u30e9\u30d6\uff08Northwood Football Club\uff09\u306f\u3001\u30a4\u30f3\u30b0\u30e9\u30f3\u30c9\u306e\u30ed\u30f3\u30c9\u30f3\u30fb\u30d2\u30ea\u30f3\u30c9\u30f3\u7279\u5225\u533a\u30ce\u30fc\u30b9\u30a6\u30c3\u30c9\u3092\u672c\u62e0\u5730\u3068\u3059\u308b\u30b5\u30c3\u30ab\u30fc\u30af\u30e9\u30d6\u30c1\u30fc\u30e0\u3067\u3042\u308b\u30022010-2011\u30b7\u30fc\u30ba\u30f3\u306f\u30b5\u30a6\u30b6\u30f3\u30d7\u30ec\u30df\u30a2\u30d5\u30c3\u30c8\u30dc\u30fc\u30eb\u30ea\u30fc\u30b0\u30fb\u30c7\u30a3\u30f4\u30a3\u30b8\u30e7\u30f31\u30fb\u30df\u30c3\u30c9\u30e9\u30f3\u30ba\uff088\u90e8\u76f8\u5f53\uff09\u306b\u6240\u5c5e\u3002
p39
ssa(dp40
g7
(dp41
Vtype
p42
Vuri
p43
sVvalue
p44
Vhttp://dbpedia.org/ontology/abstract
p45
ssg8
(dp46
Vxml:lang
p47
Vzh
p48
sVtype
p49
Vliteral
p50
sVvalue
p51
V\u8afe\u65af\u4f0d\u5fb7\u8db3\u7403\u6703(Northwood F.C.)\u662f\u4e00\u652f\u4f4d\u65bc\u82f1\u683c\u862d\u8afe\u65af\u4f0d\u5fb7\u7684\u8077\u696d\u8db3\u7403\u6703\uff0c\u76ee\u524d\u65bc\u82f1\u683c\u862d\u8db3\u7403\u5357\u90e8\u806f\u8cfd \u7532\u7d44\uff08\u4e2d\u90e8\uff09\u89d2\u9010\u3002
p52
ssa(dp53
g7
(dp54
Vtype
p55
Vuri
p56
sVvalue
p57
Vhttp://dbpedia.org/ontology/capacity
p58
ssg8
(dp59
Vdatatype
p60
Vhttp://www.w3.org/2001/XMLSchema#nonNegativeInteger
p61
sVtype
p62
Vtyped-literal
p63
sVvalue
p64
V3075
p65
ssasVordered
p66
I01
ss.