(dp0
Vhead
p1
(dp2
Vlink
p3
(lp4
sVvars
p5
(lp6
Vp
p7
aVo
p8
assVresults
p9
(dp10
Vdistinct
p11
I00
sVbindings
p12
(lp13
(dp14
g7
(dp15
Vtype
p16
Vuri
p17
sVvalue
p18
Vhttp://dbpedia.org/ontology/birthDate
p19
ssg8
(dp20
Vdatatype
p21
Vhttp://www.w3.org/2001/XMLSchema#date
p22
sVtype
p23
Vtyped-literal
p24
sVvalue
p25
V1980-1-10
p26
ssa(dp27
g7
(dp28
Vtype
p29
Vuri
p30
sVvalue
p31
Vhttp://dbpedia.org/ontology/Person/height
p32
ssg8
(dp33
Vdatatype
p34
Vhttp://dbpedia.org/datatype/centimetre
p35
sVtype
p36
Vtyped-literal
p37
sVvalue
p38
V152.4
p39
ssa(dp40
g7
(dp41
Vtype
p42
Vuri
p43
sVvalue
p44
Vhttp://dbpedia.org/ontology/Person/weight
p45
ssg8
(dp46
Vdatatype
p47
Vhttp://dbpedia.org/datatype/kilogram
p48
sVtype
p49
Vtyped-literal
p50
sVvalue
p51
V88.9056
p52
ssa(dp53
g7
(dp54
Vtype
p55
Vuri
p56
sVvalue
p57
Vhttp://dbpedia.org/ontology/abstract
p58
ssg8
(dp59
Vxml:lang
p60
Vja
p61
sVtype
p62
Vliteral
p63
sVvalue
p64
V\u30bf\u30e4\u30fb\u30d1\u30fc\u30ab\u30fc\uff08Taya Parker\uff09\u306f\u3001\u30a2\u30e1\u30ea\u30ab\u5408\u8846\u56fd\u306e\u30dd\u30eb\u30ce\u5973\u512a\u3002\u30aa\u30cf\u30a4\u30aa\u5dde\u51fa\u8eab\u3002
p65
ssa(dp66
g7
(dp67
Vtype
p68
Vuri
p69
sVvalue
p70
Vhttp://dbpedia.org/ontology/abstract
p71
ssg8
(dp72
Vxml:lang
p73
Ven
p74
sVtype
p75
Vliteral
p76
sVvalue
p77
VTaya Parker is an American model, actress, singer, TV host and reality TV show contestant best known for winning the VH1 reality television show Rock of Love Bus. She is also the 2009 Pet of the Year for Penthouse magazine.
p78
ssa(dp79
g7
(dp80
Vtype
p81
Vuri
p82
sVvalue
p83
Vhttp://dbpedia.org/ontology/abstract
p84
ssg8
(dp85
Vxml:lang
p86
Vru
p87
sVtype
p88
Vliteral
p89
sVvalue
p90
V\u0422\u0430\u044f \u041f\u0430\u0440\u043a\u0435\u0440 (\u0430\u043d\u0433\u043b. Taya Parker; 10 \u044f\u043d\u0432\u0430\u0440\u044f 1980, \u041c\u044d\u0440\u0438\u043e\u043d, \u041e\u0433\u0430\u0439\u043e) \u2014 \u0430\u043c\u0435\u0440\u0438\u043a\u0430\u043d\u0441\u043a\u0430\u044f \u043c\u043e\u0434\u0435\u043b\u044c, \u0430\u043a\u0442\u0440\u0438\u0441\u0430, \u043f\u0435\u0432\u0438\u0446\u0430 \u0438 \u0443\u0447\u0430\u0441\u0442\u043d\u0438\u0446\u0430 \u0440\u0435\u0430\u043b\u0438\u0442\u0438-\u0448\u043e\u0443.
p91
ssa(dp92
g7
(dp93
Vtype
p94
Vuri
p95
sVvalue
p96
Vhttp://dbpedia.org/ontology/height
p97
ssg8
(dp98
Vdatatype
p99
Vhttp://www.w3.org/2001/XMLSchema#double
p100
sVtype
p101
Vtyped-literal
p102
sVvalue
p103
V1.524
p104
ssa(dp105
g7
(dp106
Vtype
p107
Vuri
p108
sVvalue
p109
Vhttp://dbpedia.org/ontology/weight
p110
ssg8
(dp111
Vdatatype
p112
Vhttp://www.w3.org/2001/XMLSchema#double
p113
sVtype
p114
Vtyped-literal
p115
sVvalue
p116
V88905.6
p117
ssasVordered
p118
I01
ss.