(dp0
Vhead
p1
(dp2
Vlink
p3
(lp4
sVvars
p5
(lp6
Vp
p7
aVo
p8
assVresults
p9
(dp10
Vdistinct
p11
I00
sVbindings
p12
(lp13
(dp14
g7
(dp15
Vtype
p16
Vuri
p17
sVvalue
p18
Vhttp://dbpedia.org/ontology/abstract
p19
ssg8
(dp20
Vxml:lang
p21
Vru
p22
sVtype
p23
Vliteral
p24
sVvalue
p25
V\u041f\u044b\u0448\u043c\u0438\u0301\u043d\u0441\u043a\u0438\u0439 \u0433\u043e\u0440\u043e\u0434\u0441\u043a\u043e\u0439 \u043e\u043a\u0440\u0443\u0433 \u2014 \u043c\u0443\u043d\u0438\u0446\u0438\u043f\u0430\u043b\u044c\u043d\u043e\u0435 \u043e\u0431\u0440\u0430\u0437\u043e\u0432\u0430\u043d\u0438\u0435 \u0432 \u0421\u0432\u0435\u0440\u0434\u043b\u043e\u0432\u0441\u043a\u043e\u0439 \u043e\u0431\u043b\u0430\u0441\u0442\u0438 \u0420\u043e\u0441\u0441\u0438\u0438. \u041e\u0442\u043d\u043e\u0441\u0438\u0442\u0441\u044f \u043a \u0412\u043e\u0441\u0442\u043e\u0447\u043d\u043e\u043c\u0443 \u0443\u043f\u0440\u0430\u0432\u043b\u0435\u043d\u0447\u0435\u0441\u043a\u043e\u043c\u0443 \u043e\u043a\u0440\u0443\u0433\u0443. \u0410\u0434\u043c\u0438\u043d\u0438\u0441\u0442\u0440\u0430\u0442\u0438\u0432\u043d\u044b\u0439 \u0446\u0435\u043d\u0442\u0440 \u2014 \u0440\u0430\u0431\u043e\u0447\u0438\u0439 \u043f\u043e\u0441\u0451\u043b\u043e\u043a \u041f\u044b\u0448\u043c\u0430.
p26
ssa(dp27
g7
(dp28
Vtype
p29
Vuri
p30
sVvalue
p31
Vhttp://dbpedia.org/ontology/abstract
p32
ssg8
(dp33
Vxml:lang
p34
Ven
p35
sVtype
p36
Vliteral
p37
sVvalue
p38
VPyshminsky District (Russian: \u041f\u044b\u0448\u043c\u0438\u0301\u043d\u0441\u043a\u0438\u0439 \u0440\u0430\u0439\u043e\u0301\u043d) is an administrative district (raion), one of the thirty in Sverdlovsk Oblast, Russia. As a municipal division, it is incorporated as Pyshminsky Urban Okrug. Its administrative center is the urban locality (a work settlement) of Pyshma. Population: 20,614 (2010 Census); 22,519\u2009(2002 Census); 25,277\u2009(1989 Census). The population of Pyshma accounts for 47.6% of the district's total population.
p39
ssa(dp40
g7
(dp41
Vtype
p42
Vuri
p43
sVvalue
p44
Vhttp://dbpedia.org/ontology/populationTotal
p45
ssg8
(dp46
Vdatatype
p47
Vhttp://www.w3.org/2001/XMLSchema#nonNegativeInteger
p48
sVtype
p49
Vtyped-literal
p50
sVvalue
p51
V20614
p52
ssasVordered
p53
I01
ss.