(dp0
Vhead
p1
(dp2
Vlink
p3
(lp4
sVvars
p5
(lp6
Vp
p7
aVo
p8
assVresults
p9
(dp10
Vdistinct
p11
I00
sVbindings
p12
(lp13
(dp14
g7
(dp15
Vtype
p16
Vuri
p17
sVvalue
p18
Vhttp://dbpedia.org/ontology/MeanOfTransportation/length
p19
ssg8
(dp20
Vdatatype
p21
Vhttp://dbpedia.org/datatype/millimetre
p22
sVtype
p23
Vtyped-literal
p24
sVvalue
p25
V19025.0
p26
ssa(dp27
g7
(dp28
Vtype
p29
Vuri
p30
sVvalue
p31
Vhttp://dbpedia.org/ontology/MeanOfTransportation/width
p32
ssg8
(dp33
Vdatatype
p34
Vhttp://dbpedia.org/datatype/millimetre
p35
sVtype
p36
Vtyped-literal
p37
sVvalue
p38
V2850.0
p39
ssa(dp40
g7
(dp41
Vtype
p42
Vuri
p43
sVvalue
p44
Vhttp://dbpedia.org/ontology/abstract
p45
ssg8
(dp46
Vxml:lang
p47
Vja
p48
sVtype
p49
Vliteral
p50
sVvalue
p51
V\u4e2d\u56fd\u56fd\u9244HXD2\u578b\u96fb\u6c17\u6a5f\u95a2\u8eca\uff08\u3061\u3085\u3046\u3054\u304f\u3053\u304f\u3066\u3064HXD2\u304c\u305f\u3067\u3093\u304d\u304d\u304b\u3093\u3057\u3083\uff09\u306f\u4e2d\u83ef\u4eba\u6c11\u5171\u548c\u56fd\u9244\u9053\u90e8\u306e\u96fb\u6c17\u6a5f\u95a2\u8eca\u3067\u3042\u308b\u3002\u548c\u8ae7\u578b\u3068\u306a\u308b\u524d\u306fDJ4\u578b\u306e6000\u756a\u53f0\u3067\u3042\u3063\u305f\u3002 \u672c\u9805\u3067\u306fHXD2\u578b\u306e\u4ed6\u306b\u3001\u540c\u5f62\u5f0f\u3092\u57fa\u306b\u88fd\u9020\u3055\u308c\u305fHXD2B\u578b\u96fb\u6c17\u6a5f\u95a2\u8eca\u3001HXD2C\u578b\u96fb\u6c17\u6a5f\u95a2\u8eca\u306b\u3064\u3044\u3066\u3082\u8ff0\u3079\u308b\u3002
p52
ssa(dp53
g7
(dp54
Vtype
p55
Vuri
p56
sVvalue
p57
Vhttp://dbpedia.org/ontology/abstract
p58
ssg8
(dp59
Vxml:lang
p60
Vzh
p61
sVtype
p62
Vliteral
p63
sVvalue
p64
VHXD2\u578b\u201c\u548c\u8c10\u201d\u7535\u529b\u673a\u8f66\u662f\u4e2d\u56fd\u94c1\u8def\u7684\u7535\u529b\u673a\u8f66\u8f66\u578b\u4e4b\u4e00\uff0c\u7531\u6cd5\u56fd\u963f\u5c14\u65af\u901a\u4ea4\u901a\u8fd0\u8f93\u80a1\u4efd\u6709\u9650\u516c\u53f8\u548c\u4e2d\u56fd\u5317\u8f66\u96c6\u56e2\u5927\u540c\u7535\u529b\u673a\u8f66\u6709\u9650\u8d23\u4efb\u516c\u53f8\u8054\u5408\u7814\u5236\uff0c\u662f\u5728\u963f\u5c14\u65af\u901a\u201cPrima\u201d\u673a\u8f66\u6280\u672f\u5e73\u53f0\u4e0a\uff0c\u4ee5\u6cd5\u56fd\u56fd\u94c1BB 27000\u578b\u7535\u529b\u673a\u8f66\u4e3a\u539f\u578b\u8f66\uff0c\u5f00\u53d1\u7814\u5236\u7684\u5e72\u7ebf\u8d27\u8fd0\u7528\u516b\u8f74\u5927\u529f\u7387\u4ea4\u6d41\u4f20\u52a8\u7535\u529b\u673a\u8f66\uff0c\u6700\u5927\u529f\u7387\u4e3a10000\u5343\u74e6\uff0c\u6700\u9ad8\u8fd0\u884c\u901f\u5ea6\u4e3a120\u516c\u91cc/\u5c0f\u65f6\u3002
p65
ssa(dp66
g7
(dp67
Vtype
p68
Vuri
p69
sVvalue
p70
Vhttp://dbpedia.org/ontology/abstract
p71
ssg8
(dp72
Vxml:lang
p73
Ven
p74
sVtype
p75
Vliteral
p76
sVvalue
p77
VThe HXD2 locomotives are a series of related locomotive classes built by CNR Datong Electric Locomotive and Alstom. The locomotives designs are based on the Alstom Prima electric locomotives, and are a product of a cooperation agreement signed between the two companies in 2004. All locomotives are intended for heavy freight work, including coal trains on the Datong Qinhuangdao line (Daqin Railway). The original HXD2 locomotives are twin unit 2(Bo'Bo') vehicles whereas the HXD2B and HXD2C versions are single unit Co'Co' machines. At the time of their construction the HXD2 and HXD2B locomotives were amongst the most powerful locomotives in the world. The HXD2C is similarly specified to the HXD2B but of reduced power, and with increased localisation of components for lower cost. The HXD2 was originally described as the DJ4-6000 class. Variants of the type were produced for railways other than China Railways: in 2010 Belarus state railways ordered a HXD2 twin unit locomotive variant (BCG-1); and in 2012 Shenhua Group also ordered twin section locomotives. In 2012 CNR Datong announced a new sub-version of the HXD2 class, built using fully localised production; the HXD2-1000 series. In 2014 a new localised variant, in 2(Bo'Bo') wheel arrangement and 9.6MW power, with axle load of 27tonnes (up to 30 tonnes on specialised line) was unveiled, designated HXD2F, and officially nicknamed \u8d85\u7ea7\u5927\u529b\u58eb.
p78
ssa(dp79
g7
(dp80
Vtype
p81
Vuri
p82
sVvalue
p83
Vhttp://dbpedia.org/ontology/length
p84
ssg8
(dp85
Vdatatype
p86
Vhttp://www.w3.org/2001/XMLSchema#double
p87
sVtype
p88
Vtyped-literal
p89
sVvalue
p90
V19.025
p91
ssa(dp92
g7
(dp93
Vtype
p94
Vuri
p95
sVvalue
p96
Vhttp://dbpedia.org/ontology/numberBuilt
p97
ssg8
(dp98
Vdatatype
p99
Vhttp://www.w3.org/2001/XMLSchema#nonNegativeInteger
p100
sVtype
p101
Vtyped-literal
p102
sVvalue
p103
V2
p104
ssa(dp105
g7
(dp106
Vtype
p107
Vuri
p108
sVvalue
p109
Vhttp://dbpedia.org/ontology/numberBuilt
p110
ssg8
(dp111
Vdatatype
p112
Vhttp://www.w3.org/2001/XMLSchema#nonNegativeInteger
p113
sVtype
p114
Vtyped-literal
p115
sVvalue
p116
V3
p117
ssa(dp118
g7
(dp119
Vtype
p120
Vuri
p121
sVvalue
p122
Vhttp://dbpedia.org/ontology/width
p123
ssg8
(dp124
Vdatatype
p125
Vhttp://www.w3.org/2001/XMLSchema#double
p126
sVtype
p127
Vtyped-literal
p128
sVvalue
p129
V2.85
p130
ssasVordered
p131
I01
ss.