(dp0
Vhead
p1
(dp2
Vlink
p3
(lp4
sVvars
p5
(lp6
Vp
p7
aVo
p8
assVresults
p9
(dp10
Vdistinct
p11
I00
sVbindings
p12
(lp13
(dp14
g7
(dp15
Vtype
p16
Vuri
p17
sVvalue
p18
Vhttp://dbpedia.org/ontology/abstract
p19
ssg8
(dp20
Vxml:lang
p21
Vzh
p22
sVtype
p23
Vliteral
p24
sVvalue
p25
V\u555f\u806f\u8cc7\u6e90\u4e2d\u5fc3\uff08\u82f1\u8bed\uff1aCo-operative Resources Centre\uff09\uff0c\u662f\u9999\u6e2f\u89aa\u82f1\u4fdd\u5b88\u6d3e\u4e00\u500b\u5df2\u89e3\u6563\u7684\u653f\u9ee8\u3002\u555f\u806f\u8cc7\u6e90\u4e2d\u5fc3\u7531\u7acb\u6cd5\u5c40\u9996\u5e2d\u975e\u5b98\u5b88\u8b70\u54e1\u674e\u9d6c\u98db\u9818\u5c0e\uff0c\u57281991\u5e7412\u670812\u65e5\u753121\u500b\u59d4\u4efb\u6216\u529f\u80fd\u7d44\u5225\u9593\u63a5\u9078\u8209\u8b70\u54e1\u7d44\u6210\u7684\u653f\u9ee8\u3002\u555f\u806f\u8cc7\u6e90\u4e2d\u5fc3\u7d44\u9ee8\u5f8c\uff0c\u65cb\u5373\u6210\u70ba\u7acb\u6cd5\u5c40\u4e2d\u6700\u5927\u7684\u4fdd\u5b88\u6d3e\u529b\u91cf\uff0c\u8207\u7576\u6642\u6b63\u5728\u5d1b\u8d77\u3001\u65bc1991\u5e74\u7acb\u6cd5\u5c40\u9078\u8209\u4e2d\u5927\u7372\u5168\u52dd\u7684\u9999\u6e2f\u6c11\u4e3b\u540c\u76df\u5c0d\u5cd9\u3002\u57281993\u5e74\uff0c\u555f\u806f\u8cc7\u6e90\u4e2d\u5fc3\u6539\u7d44\u6210\u81ea\u7531\u9ee8\u3002\u800c\u555f\u806f\u8cc7\u6e90\u4e2d\u5fc3\u4f54\u64da\u7acb\u6cd5\u6a5f\u95dc\u4e09\u5206\u4e00\uff0c\u537321\u500b\u8b70\u5e2d\u7684\u7d00\u9304\uff0c\u81f3\u4eca\u4ecd\u672a\u6709\u653f\u9ee8\u80fd\u6253\u7834\u3002
p26
ssa(dp27
g7
(dp28
Vtype
p29
Vuri
p30
sVvalue
p31
Vhttp://dbpedia.org/ontology/abstract
p32
ssg8
(dp33
Vxml:lang
p34
Ven
p35
sVtype
p36
Vliteral
p37
sVvalue
p38
VThe Co-operative Resources Centre (CRC; Chinese: \u555f\u806f\u8cc7\u6e90\u4e2d\u5fc3) was a short-lived political group in the Legislative Council of Hong Kong (LegCo). Led by the Senior Unofficial Member of the Executive and Legislative Councils Allen Lee, it was established on 12 December 1991 by a group of 21 appointed and indirectly elected Legislative Council members from the functional constituencies. It became the largest conservative faction in the legislature countering the pro-democracy United Democrats of Hong Kong (UDHK) won a landslide victory in the first direct Legislative Council election in 1991. In 1993, it was transformed into the Liberal Party.
p39
ssa(dp40
g7
(dp41
Vtype
p42
Vuri
p43
sVvalue
p44
Vhttp://dbpedia.org/ontology/extinctionDate
p45
ssg8
(dp46
Vdatatype
p47
Vhttp://www.w3.org/2001/XMLSchema#date
p48
sVtype
p49
Vtyped-literal
p50
sVvalue
p51
V1993-03-31
p52
ssa(dp53
g7
(dp54
Vtype
p55
Vuri
p56
sVvalue
p57
Vhttp://dbpedia.org/ontology/extinctionYear
p58
ssg8
(dp59
Vdatatype
p60
Vhttp://www.w3.org/2001/XMLSchema#gYear
p61
sVtype
p62
Vtyped-literal
p63
sVvalue
p64
V1993
p65
ssa(dp66
g7
(dp67
Vtype
p68
Vuri
p69
sVvalue
p70
Vhttp://dbpedia.org/ontology/formationDate
p71
ssg8
(dp72
Vdatatype
p73
Vhttp://www.w3.org/2001/XMLSchema#date
p74
sVtype
p75
Vtyped-literal
p76
sVvalue
p77
V1991-12-12
p78
ssa(dp79
g7
(dp80
Vtype
p81
Vuri
p82
sVvalue
p83
Vhttp://dbpedia.org/ontology/formationYear
p84
ssg8
(dp85
Vdatatype
p86
Vhttp://www.w3.org/2001/XMLSchema#gYear
p87
sVtype
p88
Vtyped-literal
p89
sVvalue
p90
V1991
p91
ssasVordered
p92
I01
ss.