(dp0
Vhead
p1
(dp2
Vlink
p3
(lp4
sVvars
p5
(lp6
Vp
p7
aVo
p8
assVresults
p9
(dp10
Vdistinct
p11
I00
sVbindings
p12
(lp13
(dp14
g7
(dp15
Vtype
p16
Vuri
p17
sVvalue
p18
Vhttp://dbpedia.org/ontology/abstract
p19
ssg8
(dp20
Vxml:lang
p21
Var
p22
sVtype
p23
Vliteral
p24
sVvalue
p25
V\u063a\u0627\u0631\u064a \u0643\u0644\u064a\u0631 (\u0628\u0627\u0644\u0625\u0646\u062c\u0644\u064a\u0632\u064a\u0629: Gary Keller) \u0647\u0648 \u0645\u0624\u0644\u0641 \u0623\u0645\u0631\u064a\u0643\u064a \u0648\u064e\u0645\u064f\u0642\u0627\u0648\u0644 \u0639\u0642\u0627\u0631\u0627\u062a\u060c \u0648\u0647\u0648 \u0623\u064e\u062d\u062f \u0627\u0644\u0645\u0633\u0627\u0647\u0645\u064a\u0646 \u0641\u064a \u062a\u0623\u0633\u064a\u0633 \u0634\u0631\u0643\u0629 \u0643\u064a\u0644\u0631 \u0648\u0644\u064a\u0627\u0645\u0632 \u0627\u0644\u0639\u0642\u0627\u0631\u064a\u0629\u060c \u0648\u0647\u064a \u0634\u0631\u0643\u0647 \u0630\u0627\u062a \u0627\u0645\u062a\u064a\u0627\u0632 \u0639\u0642\u0627\u0631\u064a \u062f\u0648\u0644\u064a \u0648\u0645\u0642\u0631\u0647\u0627 \u0641\u064a \u0623\u0648\u0633\u062a\u0646 \u0641\u064a \u062a\u0643\u0633\u0627\u0633\u0644\u064e\u0647 \u0639\u062f\u0629 \u0645\u0624\u0644\u0641\u0627\u062a \u0645\u0646 \u0628\u064a\u0646\u0647\u0627 \u0643\u062a\u0627\u0628 "\u0627\u0644\u0645\u0644\u064a\u0648\u0646\u064a\u0631 \u0627\u0644\u0645\u0633\u062a\u062b\u0645\u0631 \u0644\u0644\u0639\u0642\u0627\u0631\u0627\u062a" \u0648\u0627\u0644\u0630\u064a \u062a\u0635\u062f\u0631 \u0642\u0627\u0626\u0645\u0647 \u0623\u0641\u0636\u0644 \u0627\u0644\u0643\u064f\u062a\u0628 \u0645\u0628\u064a\u0639\u0627\u064b \u062d\u064e\u0633\u0628 \u0646\u064a\u0648\u064a\u0648\u0631\u0643 \u062a\u0627\u064a\u0645\u0632 \u0648\u064e\u0627\u0644\u0628\u064a\u0633\u0646\u064a\u0633 \u0648\u064a\u0643 \u0639\u0644\u0649 \u062d\u062f \u0633\u0648\u0627\u0621\u060c \u0648\u064e\u0644\u0647\u064f \u0643\u062a\u0627\u0628 "\u0627\u0644\u0634\u064a\u0621 \u0627\u0644\u0648\u064e\u062d\u064a\u062f" \u0627\u0644\u0630\u064a \u062d\u0627\u0632 \u0639\u0644\u0649 \u0627\u0644\u0645\u0631\u062a\u0628\u0647 \u0627\u0644\u0627\u0648\u0644\u0649 \u0636\u0645\u0646 \u0642\u0627\u0626\u0645\u0647 \u0627\u0641\u0636\u0644 \u0627\u0644\u0643\u062a\u0628 \u0645\u0628\u064a\u0639\u0627\u064b \u062d\u0633\u0628 \u0635\u062d\u064a\u0641\u0629 \u0627\u0644\u0648\u0648\u0644 \u0633\u062a\u0631\u064a\u062a \u0644\u0644\u0623\u0639\u0645\u0627\u0644. \u064a\u064e\u0634\u063a\u0644 \u063a\u0627\u0631\u064a \u062d\u0627\u0644\u064a\u0627\u064b \u0645\u0646\u0635\u0628 \u0631\u0626\u064a\u0633 \u0645\u062c\u0644\u0633 \u0627\u0644\u0625\u062f\u0627\u0631\u0629 \u0641\u064a \u0634\u0631\u0643\u0629 \u0643\u064a\u0644\u0631 \u0648\u0644\u064a\u0627\u0645\u0632 \u0627\u0644\u0639\u0642\u0627\u0631\u064a\u0629.
p26
ssa(dp27
g7
(dp28
Vtype
p29
Vuri
p30
sVvalue
p31
Vhttp://dbpedia.org/ontology/abstract
p32
ssg8
(dp33
Vxml:lang
p34
Ven
p35
sVtype
p36
Vliteral
p37
sVvalue
p38
VGary Keller is an American entrepreneur and best-selling author. He is the founder of Keller Williams Realty International, which is the largest real estate company in the world by agent count. Keller founded Keller Williams on training and education and later brought his teachings to print. His books include The Millionaire Real Estate Agent, The Real Estate Investor, and The ONE Thing. He currently serves as the Chairman of the Board at Keller Williams Realty International.
p39
ssa(dp40
g7
(dp41
Vtype
p42
Vuri
p43
sVvalue
p44
Vhttp://dbpedia.org/ontology/birthName
p45
ssg8
(dp46
Vxml:lang
p47
Ven
p48
sVtype
p49
Vliteral
p50
sVvalue
p51
VGary W. Keller
p52
ssasVordered
p53
I01
ss.