(dp0
Vhead
p1
(dp2
Vlink
p3
(lp4
sVvars
p5
(lp6
Vp
p7
aVo
p8
assVresults
p9
(dp10
Vdistinct
p11
I00
sVbindings
p12
(lp13
(dp14
g7
(dp15
Vtype
p16
Vuri
p17
sVvalue
p18
Vhttp://dbpedia.org/ontology/abstract
p19
ssg8
(dp20
Vxml:lang
p21
Vnl
p22
sVtype
p23
Vliteral
p24
sVvalue
p25
VDe finale van de Coppa Italia van het seizoen 1999\u20132000 werd gehouden op 12 april en 18 mei 2000. Lazio Roma nam het op tegen Internazionale uit Milaan. De heenwedstrijd in het Stadio Olimpico in Rome werd met 2-1 gewonnen door Lazio. Nederlander Clarence Seedorf opende in de deze wedstrijd de score voor Inter. Kort na rust wist de thuisclub de score echter om te buigen. De Braziliaanse stervoetballer Ronaldo mocht in dat duel na 58 minuten invallen. Zo'n zes minuten later raakte hij opnieuw zwaar geblesseerd aan de knie. Inter had op dat ogenblik al drie wissels doorgevoerd, zodat het met tien man verder moest. De terugwedstrijd in het Stadio Giuseppe Meazza in Milaan eindigde in een scoreloos gelijkspel, zodat Lazio de beker pakte.
p26
ssa(dp27
g7
(dp28
Vtype
p29
Vuri
p30
sVvalue
p31
Vhttp://dbpedia.org/ontology/abstract
p32
ssg8
(dp33
Vxml:lang
p34
Ven
p35
sVtype
p36
Vliteral
p37
sVvalue
p38
VThe 2000 Coppa Italia Final decided the winner of the 1999\u20132000 Coppa Italia. It was played over two legs and won 2\u20131 on aggregate by Lazio over Internazionale. It was Lazio's fourth Coppa Italia Final and third win.
p39
ssasVordered
p40
I01
ss.