(dp0
Vhead
p1
(dp2
Vlink
p3
(lp4
sVvars
p5
(lp6
Vp
p7
aVo
p8
assVresults
p9
(dp10
Vdistinct
p11
I00
sVbindings
p12
(lp13
(dp14
g7
(dp15
Vtype
p16
Vuri
p17
sVvalue
p18
Vhttp://dbpedia.org/ontology/abstract
p19
ssg8
(dp20
Vxml:lang
p21
Ven
p22
sVtype
p23
Vliteral
p24
sVvalue
p25
VThe Bald Eagle Area School District is a midsized, suburban/rural public school district located in Centre County, Pennsylvania. The District serves the Boroughs of Howard, Milesburg, Port Matilda, Snow Shoe and Unionville and Boggs Township, Burnside Township, Howard Township, Huston Township, Snow Shoe Township, Union Township and Worth Township in Centre County, Pennsylvania. Bald Eagle Area School District encompasses approximately 345 square miles (890 km2). According to 2000 federal census data, it serves a resident population of 12,882. By 2010, the District's population increased to 13,218 people. According to the Pennsylvania Budget and Policy Center, 39.8% of the Bald Eagle Area School District\u2019s pupils lived at 185% or below the Federal Poverty Level  as shown by their eligibility for the federal free or reduced price school meal programs in 2012. In 2013, the Pennsylvania Department of Education reported that 43 students in the Bald Eagle Area School District were homeless. In 2009, the district residents\u2019 per capita income was $16,785, while the median family income was $42,854. In the Commonwealth, the median family income was $49,501 and the United States median family income was $49,445, in 2010. In Centre County, the median household income was $50,336. By 2013, the median household income in the United States rose to $52,100. In 2014, the median household income in the USA was $53,700. According to District officials, in school year 2007-08 the Bald Eagle Area School District provided basic educational services to 1,916 pupils through the employment of 165 teachers, 114 full-time and part-time support personnel, and 13 administrators. Bald Eagle Area School District received more than $12.7 million in state funding in school year 2007-08. The District enrollment was 1,877 pupils in 2009-10. It employed: 163 teachers, 141 full-time and part-time support personnel, and 14 administrators during the 2009-10 school year. Bald Eagle Area School District received more than $12,295,655 in state funding in the 2009-10 school year. By the 2014-15 school year, the District employed: 134 teachers, 60 support staff and 12 administrators, with an enrollment of 1,516 pupils. The District received $14,058,976 in state funding in 2013-14. Bald Eagle Area School District operates a combined junior senior high school (6th - 12th), Bald Eagle Area Cyber Academy and 4 elementary schools: Howard Elementary School, Mountaintop Area Elementary School, Port Matilda Elementary School and Wingate Elementary School. High school students may choose to attend the Central PA Institute of Science & Technology for training in the construction and mechanical trades. The Central Intermediate Unit IU10 provides the District with a wide variety of services like: specialized education for disabled students; state mandated training on recognizing and reporting child abuse; speech and visual disability services; criminal background check processing for prospective employees and professional development for staff and faculty.
p26
ssa(dp27
g7
(dp28
Vtype
p29
Vuri
p30
sVvalue
p31
Vhttp://dbpedia.org/ontology/address
p32
ssg8
(dp33
Vxml:lang
p34
Ven
p35
sVtype
p36
Vliteral
p37
sVvalue
p38
V751 South Eagle Valley Road
p39
ssa(dp40
g7
(dp41
Vtype
p42
Vuri
p43
sVvalue
p44
Vhttp://dbpedia.org/ontology/budget
p45
ssg8
(dp46
Vdatatype
p47
Vhttp://dbpedia.org/datatype/usDollar
p48
sVtype
p49
Vtyped-literal
p50
sVvalue
p51
V2.7E7
p52
ssa(dp53
g7
(dp54
Vtype
p55
Vuri
p56
sVvalue
p57
Vhttp://dbpedia.org/ontology/budget
p58
ssg8
(dp59
Vdatatype
p60
Vhttp://dbpedia.org/datatype/usDollar
p61
sVtype
p62
Vtyped-literal
p63
sVvalue
p64
V2.788786E7
p65
ssa(dp66
g7
(dp67
Vtype
p68
Vuri
p69
sVvalue
p70
Vhttp://dbpedia.org/ontology/budget
p71
ssg8
(dp72
Vdatatype
p73
Vhttp://dbpedia.org/datatype/usDollar
p74
sVtype
p75
Vtyped-literal
p76
sVvalue
p77
V2.9984911E7
p78
ssa(dp79
g7
(dp80
Vtype
p81
Vuri
p82
sVvalue
p83
Vhttp://dbpedia.org/ontology/budget
p84
ssg8
(dp85
Vdatatype
p86
Vhttp://dbpedia.org/datatype/usDollar
p87
sVtype
p88
Vtyped-literal
p89
sVvalue
p90
V3.1555434E7
p91
ssa(dp92
g7
(dp93
Vtype
p94
Vuri
p95
sVvalue
p96
Vhttp://dbpedia.org/ontology/facultySize
p97
ssg8
(dp98
Vdatatype
p99
Vhttp://www.w3.org/2001/XMLSchema#nonNegativeInteger
p100
sVtype
p101
Vtyped-literal
p102
sVvalue
p103
V146
p104
ssa(dp105
g7
(dp106
Vtype
p107
Vuri
p108
sVvalue
p109
Vhttp://dbpedia.org/ontology/headLabel
p110
ssg8
(dp111
Vxml:lang
p112
Ven
p113
sVtype
p114
Vliteral
p115
sVvalue
p116
VComputer Network Administrator
p117
ssa(dp118
g7
(dp119
Vtype
p120
Vuri
p121
sVvalue
p122
Vhttp://dbpedia.org/ontology/lowerAge
p123
ssg8
(dp124
Vdatatype
p125
Vhttp://www.w3.org/2001/XMLSchema#nonNegativeInteger
p126
sVtype
p127
Vtyped-literal
p128
sVvalue
p129
V5
p130
ssa(dp131
g7
(dp132
Vtype
p133
Vuri
p134
sVvalue
p135
Vhttp://dbpedia.org/ontology/mascot
p136
ssg8
(dp137
Vtype
p138
Vliteral
p139
sVvalue
p140
VEagles
p141
ssa(dp142
g7
(dp143
Vtype
p144
Vuri
p145
sVvalue
p146
Vhttp://dbpedia.org/ontology/numberOfStudents
p147
ssg8
(dp148
Vdatatype
p149
Vhttp://www.w3.org/2001/XMLSchema#nonNegativeInteger
p150
sVtype
p151
Vtyped-literal
p152
sVvalue
p153
V1695
p154
ssa(dp155
g7
(dp156
Vtype
p157
Vuri
p158
sVvalue
p159
Vhttp://dbpedia.org/ontology/numberOfStudents
p160
ssg8
(dp161
Vdatatype
p162
Vhttp://www.w3.org/2001/XMLSchema#nonNegativeInteger
p163
sVtype
p164
Vtyped-literal
p165
sVvalue
p166
V1826
p167
ssa(dp168
g7
(dp169
Vtype
p170
Vuri
p171
sVvalue
p172
Vhttp://dbpedia.org/ontology/numberOfStudents
p173
ssg8
(dp174
Vdatatype
p175
Vhttp://www.w3.org/2001/XMLSchema#nonNegativeInteger
p176
sVtype
p177
Vtyped-literal
p178
sVvalue
p179
V1882
p180
ssa(dp181
g7
(dp182
Vtype
p183
Vuri
p184
sVvalue
p185
Vhttp://dbpedia.org/ontology/numberOfStudents
p186
ssg8
(dp187
Vdatatype
p188
Vhttp://www.w3.org/2001/XMLSchema#nonNegativeInteger
p189
sVtype
p190
Vtyped-literal
p191
sVvalue
p192
V2010
p193
ssa(dp194
g7
(dp195
Vtype
p196
Vuri
p197
sVvalue
p198
Vhttp://dbpedia.org/ontology/postalCode
p199
ssg8
(dp200
Vtype
p201
Vliteral
p202
sVvalue
p203
V16823
p204
ssa(dp205
g7
(dp206
Vtype
p207
Vuri
p208
sVvalue
p209
Vhttp://dbpedia.org/ontology/upperAge
p210
ssg8
(dp211
Vdatatype
p212
Vhttp://www.w3.org/2001/XMLSchema#nonNegativeInteger
p213
sVtype
p214
Vtyped-literal
p215
sVvalue
p216
V21
p217
ssasVordered
p218
I01
ss.