(dp0
Vhead
p1
(dp2
Vlink
p3
(lp4
sVvars
p5
(lp6
Vp
p7
aVo
p8
assVresults
p9
(dp10
Vdistinct
p11
I00
sVbindings
p12
(lp13
(dp14
g7
(dp15
Vtype
p16
Vuri
p17
sVvalue
p18
Vhttp://dbpedia.org/ontology/Infrastructure/length
p19
ssg8
(dp20
Vdatatype
p21
Vhttp://dbpedia.org/datatype/kilometre
p22
sVtype
p23
Vtyped-literal
p24
sVvalue
p25
V0.185928
p26
ssa(dp27
g7
(dp28
Vtype
p29
Vuri
p30
sVvalue
p31
Vhttp://dbpedia.org/ontology/Infrastructure/length
p32
ssg8
(dp33
Vdatatype
p34
Vhttp://dbpedia.org/datatype/kilometre
p35
sVtype
p36
Vtyped-literal
p37
sVvalue
p38
V0.1984248
p39
ssa(dp40
g7
(dp41
Vtype
p42
Vuri
p43
sVvalue
p44
Vhttp://dbpedia.org/ontology/abstract
p45
ssg8
(dp46
Vxml:lang
p47
Ven
p48
sVtype
p49
Vliteral
p50
sVvalue
p51
VThe original Maroon Creek Bridge is a steel trestle along State Highway 82 at the western boundary of Aspen, Colorado, United States. It was designed by George S. Morison in 1888 for the Colorado Midland Railroad, one of the last viaducts in Colorado built for a standard gauge mountain railroad in the 19th century. Of the five steel bridges the Midland built, it is the only one still extant. Due to the later removal of most track and the rail depots, the bridge is the most visible remnant of rail service to Aspen. In 1985 it was listed on the National Register of Historic Places along with other highway bridges in the state, including the Sheely Bridge, also in Aspen. When it was built, the Midland was ahead in its race with the Denver and Rio Grande to make the first rail connection to Aspen, then a booming silver mining center. The Midland had followed the Roaring Fork Valley up from its main line at Glenwood Springs, but was stalled at Maroon Creek by a delay in the bridge steel. The Rio Grande was thus able to make up the difference and bring the first train to Aspen, with the Midland following a few months later. Aspen's boom years ended a few years later, and by the 1920s the bridge was abandoned. It was soon expanded and converted to use as a road bridge. It served as the main entrance to Aspen for many visitors as the city's economy rebounded when the Aspen Mountain ski resort was developed after World War II. As growth spilled over to Aspen's west, it became a traffic choke point for the region. It remained in use until longstanding plans for a newer, wider bridge came to fruition in 2008. At that time the original bridge was the oldest one still in use on Colorado's state highways. The award-winning new bridge was designed to be aesthetically similar to its predecessor, which remains in service as a foot bridge. It may be used for a light rail line to further alleviate traffic problems in the valley.
p52
ssa(dp53
g7
(dp54
Vtype
p55
Vuri
p56
sVvalue
p57
Vhttp://dbpedia.org/ontology/bridgeCarries
p58
ssg8
(dp59
Vtype
p60
Vliteral
p61
sVvalue
p62
VPedestrians
p63
ssa(dp64
g7
(dp65
Vtype
p66
Vuri
p67
sVvalue
p68
Vhttp://dbpedia.org/ontology/buildingEndDate
p69
ssg8
(dp70
Vtype
p71
Vliteral
p72
sVvalue
p73
V2008
p74
ssa(dp75
g7
(dp76
Vtype
p77
Vuri
p78
sVvalue
p79
Vhttp://dbpedia.org/ontology/buildingEndDate
p80
ssg8
(dp81
Vtype
p82
Vliteral
p83
sVvalue
p84
V1888
p85
ssa(dp86
g7
(dp87
Vtype
p88
Vuri
p89
sVvalue
p90
Vhttp://dbpedia.org/ontology/buildingStartDate
p91
ssg8
(dp92
Vtype
p93
Vliteral
p94
sVvalue
p95
V1887
p96
ssa(dp97
g7
(dp98
Vtype
p99
Vuri
p100
sVvalue
p101
Vhttp://dbpedia.org/ontology/buildingStartDate
p102
ssg8
(dp103
Vtype
p104
Vliteral
p105
sVvalue
p106
V2005
p107
ssa(dp108
g7
(dp109
Vtype
p110
Vuri
p111
sVvalue
p112
Vhttp://dbpedia.org/ontology/closingYear
p113
ssg8
(dp114
Vdatatype
p115
Vhttp://www.w3.org/2001/XMLSchema#gYear
p116
sVtype
p117
Vtyped-literal
p118
sVvalue
p119
V2008
p120
ssa(dp121
g7
(dp122
Vtype
p123
Vuri
p124
sVvalue
p125
Vhttp://dbpedia.org/ontology/height
p126
ssg8
(dp127
Vdatatype
p128
Vhttp://www.w3.org/2001/XMLSchema#double
p129
sVtype
p130
Vtyped-literal
p131
sVvalue
p132
V27.432
p133
ssa(dp134
g7
(dp135
Vtype
p136
Vuri
p137
sVvalue
p138
Vhttp://dbpedia.org/ontology/length
p139
ssg8
(dp140
Vdatatype
p141
Vhttp://www.w3.org/2001/XMLSchema#double
p142
sVtype
p143
Vtyped-literal
p144
sVvalue
p145
V185.928
p146
ssa(dp147
g7
(dp148
Vtype
p149
Vuri
p150
sVvalue
p151
Vhttp://dbpedia.org/ontology/length
p152
ssg8
(dp153
Vdatatype
p154
Vhttp://www.w3.org/2001/XMLSchema#double
p155
sVtype
p156
Vtyped-literal
p157
sVvalue
p158
V198.425
p159
ssa(dp160
g7
(dp161
Vtype
p162
Vuri
p163
sVvalue
p164
Vhttp://dbpedia.org/ontology/mainspan
p165
ssg8
(dp166
Vdatatype
p167
Vhttp://www.w3.org/2001/XMLSchema#double
p168
sVtype
p169
Vtyped-literal
p170
sVvalue
p171
V82.296
p172
ssa(dp173
g7
(dp174
Vtype
p175
Vuri
p176
sVvalue
p177
Vhttp://dbpedia.org/ontology/mainspan
p178
ssg8
(dp179
Vdatatype
p180
Vhttp://www.w3.org/2001/XMLSchema#double
p181
sVtype
p182
Vtyped-literal
p183
sVvalue
p184
V182.88
p185
ssa(dp186
g7
(dp187
Vtype
p188
Vuri
p189
sVvalue
p190
Vhttp://dbpedia.org/ontology/numberOfSpans
p191
ssg8
(dp192
Vdatatype
p193
Vhttp://www.w3.org/2001/XMLSchema#nonNegativeInteger
p194
sVtype
p195
Vtyped-literal
p196
sVvalue
p197
V3
p198
ssa(dp199
g7
(dp200
Vtype
p201
Vuri
p202
sVvalue
p203
Vhttp://dbpedia.org/ontology/numberOfSpans
p204
ssg8
(dp205
Vdatatype
p206
Vhttp://www.w3.org/2001/XMLSchema#nonNegativeInteger
p207
sVtype
p208
Vtyped-literal
p209
sVvalue
p210
V20
p211
ssa(dp212
g7
(dp213
Vtype
p214
Vuri
p215
sVvalue
p216
Vhttp://dbpedia.org/ontology/openingYear
p217
ssg8
(dp218
Vdatatype
p219
Vhttp://www.w3.org/2001/XMLSchema#gYear
p220
sVtype
p221
Vtyped-literal
p222
sVvalue
p223
V1888
p224
ssa(dp225
g7
(dp226
Vtype
p227
Vuri
p228
sVvalue
p229
Vhttp://dbpedia.org/ontology/openingYear
p230
ssg8
(dp231
Vdatatype
p232
Vhttp://www.w3.org/2001/XMLSchema#gYear
p233
sVtype
p234
Vtyped-literal
p235
sVvalue
p236
V2008
p237
ssa(dp238
g7
(dp239
Vtype
p240
Vuri
p241
sVvalue
p242
Vhttp://dbpedia.org/ontology/unitedStatesNationalBridgeId
p243
ssg8
(dp244
Vtype
p245
Vliteral
p246
sVvalue
p247
VH-09-U
p248
ssa(dp249
g7
(dp250
Vtype
p251
Vuri
p252
sVvalue
p253
Vhttp://dbpedia.org/ontology/vehiclesPerDay
p254
ssg8
(dp255
Vdatatype
p256
Vhttp://www.w3.org/2001/XMLSchema#nonNegativeInteger
p257
sVtype
p258
Vtyped-literal
p259
sVvalue
p260
V22300
p261
ssa(dp262
g7
(dp263
Vtype
p264
Vuri
p265
sVvalue
p266
Vhttp://dbpedia.org/ontology/width
p267
ssg8
(dp268
Vdatatype
p269
Vhttp://www.w3.org/2001/XMLSchema#double
p270
sVtype
p271
Vtyped-literal
p272
sVvalue
p273
V12.192
p274
ssasVordered
p275
I01
ss.