(dp0
Vhead
p1
(dp2
Vlink
p3
(lp4
sVvars
p5
(lp6
Vp
p7
aVo
p8
assVresults
p9
(dp10
Vdistinct
p11
I00
sVbindings
p12
(lp13
(dp14
g7
(dp15
Vtype
p16
Vuri
p17
sVvalue
p18
Vhttp://dbpedia.org/ontology/abstract
p19
ssg8
(dp20
Vxml:lang
p21
Ven
p22
sVtype
p23
Vliteral
p24
sVvalue
p25
VFulton County Airport (FAA LID: NY0) is a county owned, public use airport in Fulton County, New York, United States. It is two nautical miles (3.7 km) east of the central business district of Johnstown. This airport is included in the FAA's National Plan of Integrated Airport Systems for 2009\u20132013, which categorized it as a general aviation facility.
p26
ssa(dp27
g7
(dp28
Vtype
p29
Vuri
p30
sVvalue
p31
Vhttp://dbpedia.org/ontology/elevation
p32
ssg8
(dp33
Vdatatype
p34
Vhttp://www.w3.org/2001/XMLSchema#double
p35
sVtype
p36
Vtyped-literal
p37
sVvalue
p38
V268.529
p39
ssa(dp40
g7
(dp41
Vtype
p42
Vuri
p43
sVvalue
p44
Vhttp://dbpedia.org/ontology/elevation
p45
ssg8
(dp46
Vdatatype
p47
Vhttp://www.w3.org/2001/XMLSchema#double
p48
sVtype
p49
Vtyped-literal
p50
sVvalue
p51
V269.0
p52
ssa(dp53
g7
(dp54
Vtype
p55
Vuri
p56
sVvalue
p57
Vhttp://dbpedia.org/ontology/faaLocationIdentifier
p58
ssg8
(dp59
Vtype
p60
Vliteral
p61
sVvalue
p62
VNY0
p63
ssa(dp64
g7
(dp65
Vtype
p66
Vuri
p67
sVvalue
p68
Vhttp://dbpedia.org/ontology/runwayDesignation
p69
ssg8
(dp70
Vtype
p71
Vliteral
p72
sVvalue
p73
V10/28
p74
ssa(dp75
g7
(dp76
Vtype
p77
Vuri
p78
sVvalue
p79
Vhttp://dbpedia.org/ontology/runwayLength
p80
ssg8
(dp81
Vdatatype
p82
Vhttp://www.w3.org/2001/XMLSchema#double
p83
sVtype
p84
Vtyped-literal
p85
sVvalue
p86
V1219.0
p87
ssa(dp88
g7
(dp89
Vtype
p90
Vuri
p91
sVvalue
p92
Vhttp://dbpedia.org/ontology/runwayLength
p93
ssg8
(dp94
Vdatatype
p95
Vhttp://www.w3.org/2001/XMLSchema#double
p96
sVtype
p97
Vtyped-literal
p98
sVvalue
p99
V1219.2
p100
ssa(dp101
g7
(dp102
Vtype
p103
Vuri
p104
sVvalue
p105
Vhttp://dbpedia.org/ontology/runwaySurface
p106
ssg8
(dp107
Vtype
p108
Vliteral
p109
sVvalue
p110
VAsphalt
p111
ssasVordered
p112
I01
ss.