(dp0
Vhead
p1
(dp2
Vlink
p3
(lp4
sVvars
p5
(lp6
Vp
p7
aVo
p8
assVresults
p9
(dp10
Vdistinct
p11
I00
sVbindings
p12
(lp13
(dp14
g7
(dp15
Vtype
p16
Vuri
p17
sVvalue
p18
Vhttp://dbpedia.org/ontology/abstract
p19
ssg8
(dp20
Vxml:lang
p21
Ven
p22
sVtype
p23
Vliteral
p24
sVvalue
p25
VOrocue Airport (IATA: ORC, ICAO: SKOE) is an airport serving Orocue, a town and municipality in the department of Casanare in Colombia. The airport has one runway which is approximately 1,500 metres (4,921 ft) in length.
p26
ssa(dp27
g7
(dp28
Vtype
p29
Vuri
p30
sVvalue
p31
Vhttp://dbpedia.org/ontology/iataLocationIdentifier
p32
ssg8
(dp33
Vtype
p34
Vliteral
p35
sVvalue
p36
VORC
p37
ssa(dp38
g7
(dp39
Vtype
p40
Vuri
p41
sVvalue
p42
Vhttp://dbpedia.org/ontology/icaoLocationIdentifier
p43
ssg8
(dp44
Vtype
p45
Vliteral
p46
sVvalue
p47
VSKOE
p48
ssa(dp49
g7
(dp50
Vtype
p51
Vuri
p52
sVvalue
p53
Vhttp://dbpedia.org/ontology/runwayLength
p54
ssg8
(dp55
Vdatatype
p56
Vhttp://www.w3.org/2001/XMLSchema#double
p57
sVtype
p58
Vtyped-literal
p59
sVvalue
p60
V1499.92
p61
ssa(dp62
g7
(dp63
Vtype
p64
Vuri
p65
sVvalue
p66
Vhttp://dbpedia.org/ontology/runwayLength
p67
ssg8
(dp68
Vdatatype
p69
Vhttp://www.w3.org/2001/XMLSchema#double
p70
sVtype
p71
Vtyped-literal
p72
sVvalue
p73
V1500.0
p74
ssasVordered
p75
I01
ss.