(dp0
Vhead
p1
(dp2
Vlink
p3
(lp4
sVvars
p5
(lp6
Vp
p7
aVo
p8
assVresults
p9
(dp10
Vdistinct
p11
I00
sVbindings
p12
(lp13
(dp14
g7
(dp15
Vtype
p16
Vuri
p17
sVvalue
p18
Vhttp://dbpedia.org/ontology/abstract
p19
ssg8
(dp20
Vxml:lang
p21
Ven
p22
sVtype
p23
Vliteral
p24
sVvalue
p25
VThe Benton Area School District is a diminutive, rural, public school district. Benton Area School District serves the boroughs of Benton and Stillwater and Benton Township, Fishing Creek Township, Jackson Township and Sugarloaf Township in Columbia County, Pennsylvania. The District encompasses approximately 97 square miles (250 km2) square miles. According to 2000 federal census data, it served a resident population of 5,260. By 2010, the District's population declined to 5,231 people. It is one of eight public school districts operating in Columbia County and is one of the 500 public school districts of Pennsylvania in 2016. According to the Pennsylvania Budget and Policy Center, 30.6% of the District\u2019s pupils lived at 185% or below the Federal Poverty level as shown by their eligibility for the federal free or reduced price school meal programs in 2012. The per capita income of residents was $16,915 in 2009, while the median family income was $40,669. In the Commonwealth of Pennsylvania, the median family income was $49,501  and the United States median family income was $49,445, in 2010. The educational attainment levels for the Benton Area School District population (25 years old and over) were 85.6% high school graduates and 15.9% college graduates. It encompasses 96.8 square miles (251 km2). According to District officials, in school year 2007\u201308, the Benton Area School District provided basic educational services to 751 pupils, while employing 68 teachers, 38 full-time and part-time support personnel, and nine administrators. Per district officials, in school year 2009\u201310, the Benton Area School District provided basic educational services to 705 pupils. It employed 70 teachers, 40 full-time and part-time support personnel, and seven administrators. Benton Area School District received more than $4.6 million in state funding for school year 2009\u201310. By 2011-12 Benton Area School District had an enrollment of 712 pupils. It employed: 58 teachers, 27 full-time and part-time support personnel, and six (6) administrators during the 2011-12 school year. The District received $5,078,352 in state funding in the 2011-12 school year. The Benton Area School District operates two schools: Benton Middle/Senior High School (7th\u201312th grades) and L.R. Appleman Elementary School (K\u20136th). Benton Area High School students may choose to attend Columbia-Montour Area Vocational-Technical School for training in the vocational trades. The Central Susquehanna Intermediate Unit 16 (CSIU16) provides the district with a wide variety of services like specialized education for disabled students and hearing, speech and visual disability services and professional development for staff and faculty.
p26
ssa(dp27
g7
(dp28
Vtype
p29
Vuri
p30
sVvalue
p31
Vhttp://dbpedia.org/ontology/address
p32
ssg8
(dp33
Vxml:lang
p34
Ven
p35
sVtype
p36
Vliteral
p37
sVvalue
p38
V600 Green Acres Road
p39
ssa(dp40
g7
(dp41
Vtype
p42
Vuri
p43
sVvalue
p44
Vhttp://dbpedia.org/ontology/budget
p45
ssg8
(dp46
Vdatatype
p47
Vhttp://dbpedia.org/datatype/usDollar
p48
sVtype
p49
Vtyped-literal
p50
sVvalue
p51
V1.0421325E7
p52
ssa(dp53
g7
(dp54
Vtype
p55
Vuri
p56
sVvalue
p57
Vhttp://dbpedia.org/ontology/budget
p58
ssg8
(dp59
Vdatatype
p60
Vhttp://dbpedia.org/datatype/usDollar
p61
sVtype
p62
Vtyped-literal
p63
sVvalue
p64
V1.073184E7
p65
ssa(dp66
g7
(dp67
Vtype
p68
Vuri
p69
sVvalue
p70
Vhttp://dbpedia.org/ontology/budget
p71
ssg8
(dp72
Vdatatype
p73
Vhttp://dbpedia.org/datatype/usDollar
p74
sVtype
p75
Vtyped-literal
p76
sVvalue
p77
V1.07597E7
p78
ssa(dp79
g7
(dp80
Vtype
p81
Vuri
p82
sVvalue
p83
Vhttp://dbpedia.org/ontology/budget
p84
ssg8
(dp85
Vdatatype
p86
Vhttp://dbpedia.org/datatype/usDollar
p87
sVtype
p88
Vtyped-literal
p89
sVvalue
p90
V1.0869209E7
p91
ssa(dp92
g7
(dp93
Vtype
p94
Vuri
p95
sVvalue
p96
Vhttp://dbpedia.org/ontology/budget
p97
ssg8
(dp98
Vdatatype
p99
Vhttp://dbpedia.org/datatype/usDollar
p100
sVtype
p101
Vtyped-literal
p102
sVvalue
p103
V1.1727997E7
p104
ssa(dp105
g7
(dp106
Vtype
p107
Vuri
p108
sVvalue
p109
Vhttp://dbpedia.org/ontology/budget
p110
ssg8
(dp111
Vdatatype
p112
Vhttp://dbpedia.org/datatype/usDollar
p113
sVtype
p114
Vtyped-literal
p115
sVvalue
p116
V12131.065
p117
ssa(dp118
g7
(dp119
Vtype
p120
Vuri
p121
sVvalue
p122
Vhttp://dbpedia.org/ontology/facultySize
p123
ssg8
(dp124
Vdatatype
p125
Vhttp://www.w3.org/2001/XMLSchema#nonNegativeInteger
p126
sVtype
p127
Vtyped-literal
p128
sVvalue
p129
V57
p130
ssa(dp131
g7
(dp132
Vtype
p133
Vuri
p134
sVvalue
p135
Vhttp://dbpedia.org/ontology/facultySize
p136
ssg8
(dp137
Vdatatype
p138
Vhttp://www.w3.org/2001/XMLSchema#nonNegativeInteger
p139
sVtype
p140
Vtyped-literal
p141
sVvalue
p142
V65
p143
ssa(dp144
g7
(dp145
Vtype
p146
Vuri
p147
sVvalue
p148
Vhttp://dbpedia.org/ontology/lowerAge
p149
ssg8
(dp150
Vdatatype
p151
Vhttp://www.w3.org/2001/XMLSchema#nonNegativeInteger
p152
sVtype
p153
Vtyped-literal
p154
sVvalue
p155
V5
p156
ssa(dp157
g7
(dp158
Vtype
p159
Vuri
p160
sVvalue
p161
Vhttp://dbpedia.org/ontology/mascot
p162
ssg8
(dp163
Vtype
p164
Vliteral
p165
sVvalue
p166
VTigers
p167
ssa(dp168
g7
(dp169
Vtype
p170
Vuri
p171
sVvalue
p172
Vhttp://dbpedia.org/ontology/numberOfStudents
p173
ssg8
(dp174
Vdatatype
p175
Vhttp://www.w3.org/2001/XMLSchema#nonNegativeInteger
p176
sVtype
p177
Vtyped-literal
p178
sVvalue
p179
V647
p180
ssa(dp181
g7
(dp182
Vtype
p183
Vuri
p184
sVvalue
p185
Vhttp://dbpedia.org/ontology/numberOfStudents
p186
ssg8
(dp187
Vdatatype
p188
Vhttp://www.w3.org/2001/XMLSchema#nonNegativeInteger
p189
sVtype
p190
Vtyped-literal
p191
sVvalue
p192
V677
p193
ssa(dp194
g7
(dp195
Vtype
p196
Vuri
p197
sVvalue
p198
Vhttp://dbpedia.org/ontology/numberOfStudents
p199
ssg8
(dp200
Vdatatype
p201
Vhttp://www.w3.org/2001/XMLSchema#nonNegativeInteger
p202
sVtype
p203
Vtyped-literal
p204
sVvalue
p205
V697
p206
ssa(dp207
g7
(dp208
Vtype
p209
Vuri
p210
sVvalue
p211
Vhttp://dbpedia.org/ontology/numberOfStudents
p212
ssg8
(dp213
Vdatatype
p214
Vhttp://www.w3.org/2001/XMLSchema#nonNegativeInteger
p215
sVtype
p216
Vtyped-literal
p217
sVvalue
p218
V707
p219
ssa(dp220
g7
(dp221
Vtype
p222
Vuri
p223
sVvalue
p224
Vhttp://dbpedia.org/ontology/numberOfStudents
p225
ssg8
(dp226
Vdatatype
p227
Vhttp://www.w3.org/2001/XMLSchema#nonNegativeInteger
p228
sVtype
p229
Vtyped-literal
p230
sVvalue
p231
V711
p232
ssa(dp233
g7
(dp234
Vtype
p235
Vuri
p236
sVvalue
p237
Vhttp://dbpedia.org/ontology/numberOfStudents
p238
ssg8
(dp239
Vdatatype
p240
Vhttp://www.w3.org/2001/XMLSchema#nonNegativeInteger
p241
sVtype
p242
Vtyped-literal
p243
sVvalue
p244
V771
p245
ssa(dp246
g7
(dp247
Vtype
p248
Vuri
p249
sVvalue
p250
Vhttp://dbpedia.org/ontology/postalCode
p251
ssg8
(dp252
Vtype
p253
Vliteral
p254
sVvalue
p255
V17814
p256
ssa(dp257
g7
(dp258
Vtype
p259
Vuri
p260
sVvalue
p261
Vhttp://dbpedia.org/ontology/staff
p262
ssg8
(dp263
Vdatatype
p264
Vhttp://www.w3.org/2001/XMLSchema#nonNegativeInteger
p265
sVtype
p266
Vtyped-literal
p267
sVvalue
p268
V36
p269
ssa(dp270
g7
(dp271
Vtype
p272
Vuri
p273
sVvalue
p274
Vhttp://dbpedia.org/ontology/upperAge
p275
ssg8
(dp276
Vdatatype
p277
Vhttp://www.w3.org/2001/XMLSchema#nonNegativeInteger
p278
sVtype
p279
Vtyped-literal
p280
sVvalue
p281
V21
p282
ssasVordered
p283
I01
ss.