(dp0
Vhead
p1
(dp2
Vlink
p3
(lp4
sVvars
p5
(lp6
Vp
p7
aVo
p8
assVresults
p9
(dp10
Vdistinct
p11
I00
sVbindings
p12
(lp13
(dp14
g7
(dp15
Vtype
p16
Vuri
p17
sVvalue
p18
Vhttp://dbpedia.org/ontology/abstract
p19
ssg8
(dp20
Vxml:lang
p21
Ven
p22
sVtype
p23
Vliteral
p24
sVvalue
p25
VMid Valley School District is a small public school district located in Lackawanna County, Pennsylvania, comprising the boroughs of Olyphant, Dickson City, and Throop. Mid Valley School District encompasses approximately 15 square miles (39 km2). According to 2000 federal census data, it serves a resident population of 15,193. By 2010, the District's population increased to 15,304 people. The educational attainment levels for the Mid Valley School District population (25 years old and over) were 89.9% high school graduates and 20.8% college graduates. The District is one of 12 public school districts in Lackawanna County and one of the 500 public school districts of Pennsylvania. According to the Pennsylvania Budget and Policy Center, 49.2% of the District\u2019s pupils lived at 185% or below the Federal Poverty level as shown by their eligibility for the federal free or reduced price school meal programs in 2012. In 2009, the Mid Valley School District residents\u2019 per capita income was $17,167, while the median family income was $42,468. In Lackawanna County, the median household income was $43,673. In the Commonwealth, the median family income was $49,501 and the United States median family income was $49,445, in 2010. By 2013, the median household income in the United States rose to $52,100. Per school district officials, in school year 2005-06 the Mid Valley School District provided basic educational services to 1,674 pupils through the employment of 114 teachers, 76 full-time and part-time support personnel, and 6 administrators. In the 2009-10 school year, the District provided basic educational services to 1,902 pupils. The District employed: 129 teachers, 81 full-time and part-time support personnel, and 15 administrators. The District received $5.8 million in state funding in the 2009-10 school year. For the 2013-14 school year, the Mid Valley School District reported an enrollment of 1,731 pupils. It employed 123 teachers, 49 staff full or part-time staff members and 22 administrators. The District received $6,580,408 in state funding in 2013-14. Mid Valley School District operates two schools: Mid Valley Elementary Center (grades K-6) and Mid Valley Secondary Center (grades 7-12). High school students may choose to attend Career Technology Center of Lackawanna County for training in the construction and mechanical trades. The Northeastern Educational Intermediate Unit, IU19, provides the District with a wide variety of services like specialized education for disabled students and hearing, speech and visual disability services and professional development for staff and faculty.
p26
ssa(dp27
g7
(dp28
Vtype
p29
Vuri
p30
sVvalue
p31
Vhttp://dbpedia.org/ontology/address
p32
ssg8
(dp33
Vxml:lang
p34
Ven
p35
sVtype
p36
Vliteral
p37
sVvalue
p38
V52 Underwood Road
p39
ssa(dp40
g7
(dp41
Vtype
p42
Vuri
p43
sVvalue
p44
Vhttp://dbpedia.org/ontology/budget
p45
ssg8
(dp46
Vdatatype
p47
Vhttp://dbpedia.org/datatype/usDollar
p48
sVtype
p49
Vtyped-literal
p50
sVvalue
p51
V1.9782017E7
p52
ssa(dp53
g7
(dp54
Vtype
p55
Vuri
p56
sVvalue
p57
Vhttp://dbpedia.org/ontology/budget
p58
ssg8
(dp59
Vdatatype
p60
Vhttp://dbpedia.org/datatype/usDollar
p61
sVtype
p62
Vtyped-literal
p63
sVvalue
p64
V1.99425E7
p65
ssa(dp66
g7
(dp67
Vtype
p68
Vuri
p69
sVvalue
p70
Vhttp://dbpedia.org/ontology/budget
p71
ssg8
(dp72
Vdatatype
p73
Vhttp://dbpedia.org/datatype/usDollar
p74
sVtype
p75
Vtyped-literal
p76
sVvalue
p77
V2.132E7
p78
ssa(dp79
g7
(dp80
Vtype
p81
Vuri
p82
sVvalue
p83
Vhttp://dbpedia.org/ontology/budget
p84
ssg8
(dp85
Vdatatype
p86
Vhttp://dbpedia.org/datatype/usDollar
p87
sVtype
p88
Vtyped-literal
p89
sVvalue
p90
V2.2079891E7
p91
ssa(dp92
g7
(dp93
Vtype
p94
Vuri
p95
sVvalue
p96
Vhttp://dbpedia.org/ontology/budget
p97
ssg8
(dp98
Vdatatype
p99
Vhttp://dbpedia.org/datatype/usDollar
p100
sVtype
p101
Vtyped-literal
p102
sVvalue
p103
V2.3278547E7
p104
ssa(dp105
g7
(dp106
Vtype
p107
Vuri
p108
sVvalue
p109
Vhttp://dbpedia.org/ontology/facultySize
p110
ssg8
(dp111
Vdatatype
p112
Vhttp://www.w3.org/2001/XMLSchema#nonNegativeInteger
p113
sVtype
p114
Vtyped-literal
p115
sVvalue
p116
V97
p117
ssa(dp118
g7
(dp119
Vtype
p120
Vuri
p121
sVvalue
p122
Vhttp://dbpedia.org/ontology/facultySize
p123
ssg8
(dp124
Vdatatype
p125
Vhttp://www.w3.org/2001/XMLSchema#nonNegativeInteger
p126
sVtype
p127
Vtyped-literal
p128
sVvalue
p129
V101
p130
ssa(dp131
g7
(dp132
Vtype
p133
Vuri
p134
sVvalue
p135
Vhttp://dbpedia.org/ontology/foundingYear
p136
ssg8
(dp137
Vdatatype
p138
Vhttp://www.w3.org/2001/XMLSchema#gYear
p139
sVtype
p140
Vtyped-literal
p141
sVvalue
p142
V1969
p143
ssa(dp144
g7
(dp145
Vtype
p146
Vuri
p147
sVvalue
p148
Vhttp://dbpedia.org/ontology/numberOfStudents
p149
ssg8
(dp150
Vdatatype
p151
Vhttp://www.w3.org/2001/XMLSchema#nonNegativeInteger
p152
sVtype
p153
Vtyped-literal
p154
sVvalue
p155
V1520
p156
ssa(dp157
g7
(dp158
Vtype
p159
Vuri
p160
sVvalue
p161
Vhttp://dbpedia.org/ontology/numberOfStudents
p162
ssg8
(dp163
Vdatatype
p164
Vhttp://www.w3.org/2001/XMLSchema#nonNegativeInteger
p165
sVtype
p166
Vtyped-literal
p167
sVvalue
p168
V1706
p169
ssa(dp170
g7
(dp171
Vtype
p172
Vuri
p173
sVvalue
p174
Vhttp://dbpedia.org/ontology/numberOfStudents
p175
ssg8
(dp176
Vdatatype
p177
Vhttp://www.w3.org/2001/XMLSchema#nonNegativeInteger
p178
sVtype
p179
Vtyped-literal
p180
sVvalue
p181
V1736
p182
ssa(dp183
g7
(dp184
Vtype
p185
Vuri
p186
sVvalue
p187
Vhttp://dbpedia.org/ontology/numberOfStudents
p188
ssg8
(dp189
Vdatatype
p190
Vhttp://www.w3.org/2001/XMLSchema#nonNegativeInteger
p191
sVtype
p192
Vtyped-literal
p193
sVvalue
p194
V1752
p195
ssa(dp196
g7
(dp197
Vtype
p198
Vuri
p199
sVvalue
p200
Vhttp://dbpedia.org/ontology/numberOfStudents
p201
ssg8
(dp202
Vdatatype
p203
Vhttp://www.w3.org/2001/XMLSchema#nonNegativeInteger
p204
sVtype
p205
Vtyped-literal
p206
sVvalue
p207
V1767
p208
ssa(dp209
g7
(dp210
Vtype
p211
Vuri
p212
sVvalue
p213
Vhttp://dbpedia.org/ontology/numberOfStudents
p214
ssg8
(dp215
Vdatatype
p216
Vhttp://www.w3.org/2001/XMLSchema#nonNegativeInteger
p217
sVtype
p218
Vtyped-literal
p219
sVvalue
p220
V1883
p221
ssa(dp222
g7
(dp223
Vtype
p224
Vuri
p225
sVvalue
p226
Vhttp://dbpedia.org/ontology/postalCode
p227
ssg8
(dp228
Vtype
p229
Vliteral
p230
sVvalue
p231
V18512-1196
p232
ssa(dp233
g7
(dp234
Vtype
p235
Vuri
p236
sVvalue
p237
Vhttp://dbpedia.org/ontology/staff
p238
ssg8
(dp239
Vdatatype
p240
Vhttp://www.w3.org/2001/XMLSchema#nonNegativeInteger
p241
sVtype
p242
Vtyped-literal
p243
sVvalue
p244
V95
p245
ssasVordered
p246
I01
ss.