(dp0
Vhead
p1
(dp2
Vlink
p3
(lp4
sVvars
p5
(lp6
Vp
p7
aVo
p8
assVresults
p9
(dp10
Vdistinct
p11
I00
sVbindings
p12
(lp13
(dp14
g7
(dp15
Vtype
p16
Vuri
p17
sVvalue
p18
Vhttp://dbpedia.org/ontology/birthDate
p19
ssg8
(dp20
Vdatatype
p21
Vhttp://www.w3.org/2001/XMLSchema#date
p22
sVtype
p23
Vtyped-literal
p24
sVvalue
p25
V1974-02-26
p26
ssa(dp27
g7
(dp28
Vtype
p29
Vuri
p30
sVvalue
p31
Vhttp://dbpedia.org/ontology/birthDate
p32
ssg8
(dp33
Vdatatype
p34
Vhttp://www.w3.org/2001/XMLSchema#date
p35
sVtype
p36
Vtyped-literal
p37
sVvalue
p38
V1974-2-26
p39
ssa(dp40
g7
(dp41
Vtype
p42
Vuri
p43
sVvalue
p44
Vhttp://dbpedia.org/ontology/Person/height
p45
ssg8
(dp46
Vdatatype
p47
Vhttp://dbpedia.org/datatype/centimetre
p48
sVtype
p49
Vtyped-literal
p50
sVvalue
p51
V165.0
p52
ssa(dp53
g7
(dp54
Vtype
p55
Vuri
p56
sVvalue
p57
Vhttp://dbpedia.org/ontology/abstract
p58
ssg8
(dp59
Vxml:lang
p60
Vja
p61
sVtype
p62
Vliteral
p63
sVvalue
p64
V\u5c71\u5d0e \u6a39\u7bc4\uff08\u3084\u307e\u3056\u304d \u3057\u3052\u306e\u308a\u30011974\u5e742\u670826\u65e5 - \uff09\u306f\u3001\u65e5\u672c\u306e\u4ff3\u512a\u3001\u58f0\u512a\u3001\u30bf\u30ec\u30f3\u30c8\u3002\u611b\u79f0\u306f\u3084\u307e\u3057\u3052\u3001\u6821\u9577\u3001\u307b\u306e\u307c\u306e\u3001\u30b6\u30ad\u30e4\u30de\u3002\u6771\u4eac\u90fd\u8db3\u7acb\u533a\u6885\u5cf6\u51fa\u8eab\u3002\u6771\u4eac\u90fd\u7acb\u9752\u4e95\u9ad8\u7b49\u5b66\u6821\u3001\u7368\u5354\u5927\u5b66\u6cd5\u5b66\u90e8\u5352\u696d\u3002\u5287\u56e3\u30ab\u30e0\u30ab\u30e0\u30df\u30cb\u30ad\u30fc\u30ca\u6240\u5c5e\u3001\u30de\u30cd\u30b8\u30e1\u30f3\u30c8\u306b\u3064\u3044\u3066\u306f\u30ad\u30e5\u30fc\u30d6\u3001\u85e4\u8cc0\u4e8b\u52d9\u6240\u3092\u7d4c\u30662012\u5e744\u6708\u306b\u30c8\u30eb\u30c1\u30e5\u306b\u79fb\u7c4d\u3057\u305f\u3002A\u578b\u3002165cm\u3002\u5de6\u5229\u304d\u3002
p65
ssa(dp66
g7
(dp67
Vtype
p68
Vuri
p69
sVvalue
p70
Vhttp://dbpedia.org/ontology/abstract
p71
ssg8
(dp72
Vxml:lang
p73
Ven
p74
sVtype
p75
Vliteral
p76
sVvalue
p77
VShigenori Yamazaki (\u5c71\u5d0e\u6a39\u7bc4 Yamazaki Shigenori, born February 26, 1974 in Tokyo, Japan) is Japanese actor and voice actor.
p78
ssa(dp79
g7
(dp80
Vtype
p81
Vuri
p82
sVvalue
p83
Vhttp://dbpedia.org/ontology/activeYearsStartYear
p84
ssg8
(dp85
Vdatatype
p86
Vhttp://www.w3.org/2001/XMLSchema#gYear
p87
sVtype
p88
Vtyped-literal
p89
sVvalue
p90
V1995
p91
ssa(dp92
g7
(dp93
Vtype
p94
Vuri
p95
sVvalue
p96
Vhttp://dbpedia.org/ontology/birthYear
p97
ssg8
(dp98
Vdatatype
p99
Vhttp://www.w3.org/2001/XMLSchema#gYear
p100
sVtype
p101
Vtyped-literal
p102
sVvalue
p103
V1974
p104
ssa(dp105
g7
(dp106
Vtype
p107
Vuri
p108
sVvalue
p109
Vhttp://dbpedia.org/ontology/height
p110
ssg8
(dp111
Vdatatype
p112
Vhttp://www.w3.org/2001/XMLSchema#double
p113
sVtype
p114
Vtyped-literal
p115
sVvalue
p116
V1.65
p117
ssa(dp118
g7
(dp119
Vtype
p120
Vuri
p121
sVvalue
p122
Vhttp://dbpedia.org/ontology/imdbId
p123
ssg8
(dp124
Vtype
p125
Vliteral
p126
sVvalue
p127
V1798734
p128
ssasVordered
p129
I01
ss.