(dp0
Vhead
p1
(dp2
Vlink
p3
(lp4
sVvars
p5
(lp6
Vp
p7
aVo
p8
assVresults
p9
(dp10
Vdistinct
p11
I00
sVbindings
p12
(lp13
(dp14
g7
(dp15
Vtype
p16
Vuri
p17
sVvalue
p18
Vhttp://dbpedia.org/ontology/Weapon/height
p19
ssg8
(dp20
Vdatatype
p21
Vhttp://dbpedia.org/datatype/millimetre
p22
sVtype
p23
Vtyped-literal
p24
sVvalue
p25
V145.0
p26
ssa(dp27
g7
(dp28
Vtype
p29
Vuri
p30
sVvalue
p31
Vhttp://dbpedia.org/ontology/Weapon/length
p32
ssg8
(dp33
Vdatatype
p34
Vhttp://dbpedia.org/datatype/millimetre
p35
sVtype
p36
Vtyped-literal
p37
sVvalue
p38
V210.0
p39
ssa(dp40
g7
(dp41
Vtype
p42
Vuri
p43
sVvalue
p44
Vhttp://dbpedia.org/ontology/Weapon/weight
p45
ssg8
(dp46
Vdatatype
p47
Vhttp://dbpedia.org/datatype/kilogram
p48
sVtype
p49
Vtyped-literal
p50
sVvalue
p51
V0.995
p52
ssa(dp53
g7
(dp54
Vtype
p55
Vuri
p56
sVvalue
p57
Vhttp://dbpedia.org/ontology/Weapon/width
p58
ssg8
(dp59
Vdatatype
p60
Vhttp://dbpedia.org/datatype/millimetre
p61
sVtype
p62
Vtyped-literal
p63
sVvalue
p64
V40.5
p65
ssa(dp66
g7
(dp67
Vtype
p68
Vuri
p69
sVvalue
p70
Vhttp://dbpedia.org/ontology/abstract
p71
ssg8
(dp72
Vxml:lang
p73
Vja
p74
sVtype
p75
Vliteral
p76
sVvalue
p77
V\u30d9\u30af\u30bf\u30fcSP1\u306f\u5357\u30a2\u30d5\u30ea\u30ab\u5171\u548c\u56fd\u306e\u30f4\u30a7\u30af\u30bf\u30fc\u30fb\u30a2\u30fc\u30e0\u30ba\u304c\u958b\u767a\u3057\u305f\u81ea\u52d5\u62f3\u9283\u3002
p78
ssa(dp79
g7
(dp80
Vtype
p81
Vuri
p82
sVvalue
p83
Vhttp://dbpedia.org/ontology/abstract
p84
ssg8
(dp85
Vxml:lang
p86
Ven
p87
sVtype
p88
Vliteral
p89
sVvalue
p90
VThe Vektor SP1 is an improved 9mm version of the Z-88 pistol (which is a locally produced copy of the Beretta 92F), produced since 1992 by Denel Land Systems (DLS), formerly Lyttleton Engineering Works (LIW).
p91
ssa(dp92
g7
(dp93
Vtype
p94
Vuri
p95
sVvalue
p96
Vhttp://dbpedia.org/ontology/abstract
p97
ssg8
(dp98
Vxml:lang
p99
Vpl
p100
sVtype
p101
Vliteral
p102
sVvalue
p103
VVektor SP1, po\u0142udniowoafryka\u0144ski pistolet samopowtarzalny kalibru 9 x 19 mm Parabellum.
p104
ssa(dp105
g7
(dp106
Vtype
p107
Vuri
p108
sVvalue
p109
Vhttp://dbpedia.org/ontology/height
p110
ssg8
(dp111
Vdatatype
p112
Vhttp://www.w3.org/2001/XMLSchema#double
p113
sVtype
p114
Vtyped-literal
p115
sVvalue
p116
V0.145
p117
ssa(dp118
g7
(dp119
Vtype
p120
Vuri
p121
sVvalue
p122
Vhttp://dbpedia.org/ontology/length
p123
ssg8
(dp124
Vdatatype
p125
Vhttp://www.w3.org/2001/XMLSchema#double
p126
sVtype
p127
Vtyped-literal
p128
sVvalue
p129
V0.21
p130
ssa(dp131
g7
(dp132
Vtype
p133
Vuri
p134
sVvalue
p135
Vhttp://dbpedia.org/ontology/weight
p136
ssg8
(dp137
Vdatatype
p138
Vhttp://www.w3.org/2001/XMLSchema#double
p139
sVtype
p140
Vtyped-literal
p141
sVvalue
p142
V995.0
p143
ssa(dp144
g7
(dp145
Vtype
p146
Vuri
p147
sVvalue
p148
Vhttp://dbpedia.org/ontology/width
p149
ssg8
(dp150
Vdatatype
p151
Vhttp://www.w3.org/2001/XMLSchema#double
p152
sVtype
p153
Vtyped-literal
p154
sVvalue
p155
V0.0405
p156
ssasVordered
p157
I01
ss.