(dp0
Vhead
p1
(dp2
Vlink
p3
(lp4
sVvars
p5
(lp6
Vp
p7
aVo
p8
assVresults
p9
(dp10
Vdistinct
p11
I00
sVbindings
p12
(lp13
(dp14
g7
(dp15
Vtype
p16
Vuri
p17
sVvalue
p18
Vhttp://dbpedia.org/ontology/abstract
p19
ssg8
(dp20
Vxml:lang
p21
Ven
p22
sVtype
p23
Vliteral
p24
sVvalue
p25
VRock Ledge Ranch Historic Site or the Chambers Ranch is a living history museum (sometimes called an open-air museum) and farm located in Colorado Springs, Colorado, United States. Restored buildings and period-appropriate attired museum guides depict life in the Pikes Peak region in four time periods and in four different households: American Indian life in 1775; an 1860s cabin (Galloway Homestead); an 1880s farm (Chambers Home and Ranch); and a 1907 Edwardian Country Estate. Each residence (teepee, log cabin, farm house, mansion) reflects the construction and contents of homes of those periods. It is listed on the National Register of Historic Places.
p26
ssa(dp27
g7
(dp28
Vtype
p29
Vuri
p30
sVvalue
p31
Vhttp://dbpedia.org/ontology/added
p32
ssg8
(dp33
Vdatatype
p34
Vhttp://www.w3.org/2001/XMLSchema#date
p35
sVtype
p36
Vtyped-literal
p37
sVvalue
p38
V1979-11-29
p39
ssa(dp40
g7
(dp41
Vtype
p42
Vuri
p43
sVvalue
p44
Vhttp://dbpedia.org/ontology/area
p45
ssg8
(dp46
Vdatatype
p47
Vhttp://www.w3.org/2001/XMLSchema#double
p48
sVtype
p49
Vtyped-literal
p50
sVvalue
p51
V97124.6
p52
ssa(dp53
g7
(dp54
Vtype
p55
Vuri
p56
sVvalue
p57
Vhttp://dbpedia.org/ontology/nrhpReferenceNumber
p58
ssg8
(dp59
Vtype
p60
Vliteral
p61
sVvalue
p62
V79000599
p63
ssa(dp64
g7
(dp65
Vtype
p66
Vuri
p67
sVvalue
p68
Vhttp://dbpedia.org/ontology/yearOfConstruction
p69
ssg8
(dp70
Vdatatype
p71
Vhttp://www.w3.org/2001/XMLSchema#gYear
p72
sVtype
p73
Vtyped-literal
p74
sVvalue
p75
V1875
p76
ssasVordered
p77
I01
ss.