(dp0
Vhead
p1
(dp2
Vlink
p3
(lp4
sVvars
p5
(lp6
Vp
p7
aVo
p8
assVresults
p9
(dp10
Vdistinct
p11
I00
sVbindings
p12
(lp13
(dp14
g7
(dp15
Vtype
p16
Vuri
p17
sVvalue
p18
Vhttp://dbpedia.org/ontology/birthDate
p19
ssg8
(dp20
Vdatatype
p21
Vhttp://www.w3.org/2001/XMLSchema#date
p22
sVtype
p23
Vtyped-literal
p24
sVvalue
p25
V1957-1-18
p26
ssa(dp27
g7
(dp28
Vtype
p29
Vuri
p30
sVvalue
p31
Vhttp://dbpedia.org/ontology/abstract
p32
ssg8
(dp33
Vxml:lang
p34
Ven
p35
sVtype
p36
Vliteral
p37
sVvalue
p38
VCraig Alan Puki (born January 18, 1957) is a former American football linebacker who played two seasons in the National Football League (NFL) with the San Francisco 49ers and St. Louis Cardinals He was drafted by the 49ers in the third round of the 1980 NFL Draft. He played college football at the University of Tennessee and attended Glacier High School in Seattle. He was a member of the San Francisco 49ers team that won Super Bowl XVI.
p39
ssa(dp40
g7
(dp41
Vtype
p42
Vuri
p43
sVvalue
p44
Vhttp://dbpedia.org/ontology/draftPick
p45
ssg8
(dp46
Vtype
p47
Vliteral
p48
sVvalue
p49
V77
p50
ssa(dp51
g7
(dp52
Vtype
p53
Vuri
p54
sVvalue
p55
Vhttp://dbpedia.org/ontology/draftRound
p56
ssg8
(dp57
Vtype
p58
Vliteral
p59
sVvalue
p60
V3
p61
ssa(dp62
g7
(dp63
Vtype
p64
Vuri
p65
sVvalue
p66
Vhttp://dbpedia.org/ontology/draftYear
p67
ssg8
(dp68
Vdatatype
p69
Vhttp://www.w3.org/2001/XMLSchema#gYear
p70
sVtype
p71
Vtyped-literal
p72
sVvalue
p73
V1980
p74
ssa(dp75
g7
(dp76
Vtype
p77
Vuri
p78
sVvalue
p79
Vhttp://dbpedia.org/ontology/number
p80
ssg8
(dp81
Vtype
p82
Vliteral
p83
sVvalue
p84
V54, 50
p85
ssasVordered
p86
I01
ss.