(dp0
Vhead
p1
(dp2
Vlink
p3
(lp4
sVvars
p5
(lp6
Vp
p7
aVo
p8
assVresults
p9
(dp10
Vdistinct
p11
I00
sVbindings
p12
(lp13
(dp14
g7
(dp15
Vtype
p16
Vuri
p17
sVvalue
p18
Vhttp://dbpedia.org/ontology/birthDate
p19
ssg8
(dp20
Vdatatype
p21
Vhttp://www.w3.org/2001/XMLSchema#date
p22
sVtype
p23
Vtyped-literal
p24
sVvalue
p25
V1960-1-1
p26
ssa(dp27
g7
(dp28
Vtype
p29
Vuri
p30
sVvalue
p31
Vhttp://dbpedia.org/ontology/abstract
p32
ssg8
(dp33
Vxml:lang
p34
Ven
p35
sVtype
p36
Vliteral
p37
sVvalue
p38
VWilliam Stevens Meredith (1960 \u2013 Lake Worth, Florida) is an American music and sports writer, journalist, drummer, percussionist and singer. He is best known with his extensive work as music writer in music magazines such as Jazziz which is an international Jazz magazine, Maryland-based JazzTimes, JazzBluesFlorida and Palm Beach Post. Bill Meredith was born in Lake Worth, Florida.He had big interest in both, writing and music.His first official writing assignments were for The Kaleidoscope at now Dreyfoos School of the Arts in West Palm Beach. After the high school, he attended Palm Beach Community College where he also served as editor-in-chief for The Beachcomber. The University of Florida followed. In the 1980s, completing his prime education, Bill started two careers simultaneously, in journalism and music. In the 1990s, while he was playing with different bands, he wrote for Modern Drummer, allmusic and Free Press magazines.Meredith has played drums with the band Acoustic Remedy since 2002 and the group won Best Local Band Award in The Palm Beaches and Treasure Coast. This event is being organized annually by Cityvoter.Meredith started a still-standing association with the international jazz monthly Jazziz in 2000, working as an assistant editor from 2004 to 2006. He continues to write CD reviews, stories and Q&As for the magazine.In 2001, he was hired for the still-standing bi-weekly Local Music column in the Palm Beach Post. Other publications include, Closer and the West Palm Tribune.His recording credits include a release by Andy Stein, Strings of Consciousness His name was included in the Jazzinstitut Darmstadt's (Germany) bibliographical information. In 2006, Meredith became a feature story and reviews contributor to Maryland-based jazz magazine JazzTimes and started writing sports for the Palm Beach Post.Other current magazine endeavors include the jazz and blues online monthly JazzBluesFlorida and Palm Beach Arts Paper, an online blog and monthly print publication. Since 2007, Meredith has recorded the CDs Black Finger Forever and Where's My Parade with Black Finger, filmed music videos for the songs "Hold On" and "Sugar." Bill's recent article, an interview with Billy Cobham, Billy Cobham A&Q was published in Jazziz, winther 2010 issue.He is a member of the Authors Guild in New York.His wife Ginny, a violinist and singer, is the executive director of Inspirit, a South Florida-based nonprofit that takes musicians to perform for people in restricted environments like pediatric wards, hospitals, rehabilitation centers, shelters and retirement homes.
p39
ssa(dp40
g7
(dp41
Vtype
p42
Vuri
p43
sVvalue
p44
Vhttp://dbpedia.org/ontology/activeYearsEndYear
p45
ssg8
(dp46
Vdatatype
p47
Vhttp://www.w3.org/2001/XMLSchema#gYear
p48
sVtype
p49
Vtyped-literal
p50
sVvalue
p51
V1980
p52
ssa(dp53
g7
(dp54
Vtype
p55
Vuri
p56
sVvalue
p57
Vhttp://dbpedia.org/ontology/activeYearsStartYear
p58
ssg8
(dp59
Vdatatype
p60
Vhttp://www.w3.org/2001/XMLSchema#gYear
p61
sVtype
p62
Vtyped-literal
p63
sVvalue
p64
V1980
p65
ssa(dp66
g7
(dp67
Vtype
p68
Vuri
p69
sVvalue
p70
Vhttp://dbpedia.org/ontology/background
p71
ssg8
(dp72
Vtype
p73
Vliteral
p74
sVvalue
p75
Vsolo_singer
p76
ssasVordered
p77
I01
ss.