(dp0
Vhead
p1
(dp2
Vlink
p3
(lp4
sVvars
p5
(lp6
Vp
p7
aVo
p8
assVresults
p9
(dp10
Vdistinct
p11
I00
sVbindings
p12
(lp13
(dp14
g7
(dp15
Vtype
p16
Vuri
p17
sVvalue
p18
Vhttp://dbpedia.org/ontology/birthDate
p19
ssg8
(dp20
Vdatatype
p21
Vhttp://www.w3.org/2001/XMLSchema#date
p22
sVtype
p23
Vtyped-literal
p24
sVvalue
p25
V2000-02-21
p26
ssa(dp27
g7
(dp28
Vtype
p29
Vuri
p30
sVvalue
p31
Vhttp://dbpedia.org/ontology/birthDate
p32
ssg8
(dp33
Vdatatype
p34
Vhttp://www.w3.org/2001/XMLSchema#date
p35
sVtype
p36
Vtyped-literal
p37
sVvalue
p38
V2000-2-21
p39
ssa(dp40
g7
(dp41
Vtype
p42
Vuri
p43
sVvalue
p44
Vhttp://dbpedia.org/ontology/abstract
p45
ssg8
(dp46
Vxml:lang
p47
Vja
p48
sVtype
p49
Vliteral
p50
sVvalue
p51
V\u5bae\u6fa4 \u4f51\u9580\uff08\u307f\u3084\u3056\u308f \u3086\u3046\u3068\u30012000\u5e742\u670821\u65e5 - \uff09\u306f\u3001\u65e5\u672c\u306e\u30ed\u30c3\u30af\u30fb\u30ae\u30bf\u30ea\u30b9\u30c8\u3002\u6771\u4eac\u90fd\u751f\u307e\u308c\u3067\u3001\u73fe\u5728\u3082\u4e21\u89aa\u3068\u3068\u3082\u306b\u6771\u4eac\u90fd\u306b\u4f4f\u3093\u3067\u3044\u308b\u30022008\u5e748\u6708\u3001\u300c\u6700\u3082\u82e5\u3044\u30d7\u30ed\u30d5\u30a7\u30c3\u30ca\u30eb\u30fb\u30ae\u30bf\u30ea\u30b9\u30c8\u300d\u3068\u3057\u3066\u30ae\u30cd\u30b9\u4e16\u754c\u8a18\u9332\u306b\u8a8d\u5b9a\u3055\u308c\u305f\u3002
p52
ssa(dp53
g7
(dp54
Vtype
p55
Vuri
p56
sVvalue
p57
Vhttp://dbpedia.org/ontology/abstract
p58
ssg8
(dp59
Vxml:lang
p60
Ven
p61
sVtype
p62
Vliteral
p63
sVvalue
p64
VYuto Miyazawa (Japanese: \u5bae\u6fa4\u4f51\u9580 Miyazawa Y\u016bto, born February 21, 2000) is a Japanese rock musician.
p65
ssa(dp66
g7
(dp67
Vtype
p68
Vuri
p69
sVvalue
p70
Vhttp://dbpedia.org/ontology/activeYearsStartYear
p71
ssg8
(dp72
Vdatatype
p73
Vhttp://www.w3.org/2001/XMLSchema#gYear
p74
sVtype
p75
Vtyped-literal
p76
sVvalue
p77
V2008
p78
ssa(dp79
g7
(dp80
Vtype
p81
Vuri
p82
sVvalue
p83
Vhttp://dbpedia.org/ontology/background
p84
ssg8
(dp85
Vtype
p86
Vliteral
p87
sVvalue
p88
Vsolo_singer
p89
ssasVordered
p90
I01
ss.