(dp0
Vhead
p1
(dp2
Vlink
p3
(lp4
sVvars
p5
(lp6
Vp
p7
aVo
p8
assVresults
p9
(dp10
Vdistinct
p11
I00
sVbindings
p12
(lp13
(dp14
g7
(dp15
Vtype
p16
Vuri
p17
sVvalue
p18
Vhttp://dbpedia.org/ontology/abstract
p19
ssg8
(dp20
Vxml:lang
p21
Ven
p22
sVtype
p23
Vliteral
p24
sVvalue
p25
VBarwon Health is a health care provider in Australia, with services ranging from hospital, rehabilitation, elderly care, community health centres and mental health services. Founded in 1998, Barwon Health is among the largest comprehensive regional health services in Australia and also one of the largest regional employers in that country. Its facilities include University Hospital, Geelong (formerly Geelong Hospital), the McKellar Centre, and five community service centres in Victoria, located in Corio, Belmont, Newcomb, Torquay, and Anglesea.
p26
ssa(dp27
g7
(dp28
Vtype
p29
Vuri
p30
sVvalue
p31
Vhttp://dbpedia.org/ontology/openingYear
p32
ssg8
(dp33
Vdatatype
p34
Vhttp://www.w3.org/2001/XMLSchema#gYear
p35
sVtype
p36
Vtyped-literal
p37
sVvalue
p38
V1998
p39
ssasVordered
p40
I01
ss.