(dp0
Vhead
p1
(dp2
Vlink
p3
(lp4
sVvars
p5
(lp6
Vp
p7
aVo
p8
assVresults
p9
(dp10
Vdistinct
p11
I00
sVbindings
p12
(lp13
(dp14
g7
(dp15
Vtype
p16
Vuri
p17
sVvalue
p18
Vhttp://dbpedia.org/ontology/abstract
p19
ssg8
(dp20
Vxml:lang
p21
Ven
p22
sVtype
p23
Vliteral
p24
sVvalue
p25
VThe 2004\u201305 season was the 125th season of competitive football in England.
p26
ssa(dp27
g7
(dp28
Vtype
p29
Vuri
p30
sVvalue
p31
Vhttp://dbpedia.org/ontology/abstract
p32
ssg8
(dp33
Vxml:lang
p34
Vnl
p35
sVtype
p36
Vliteral
p37
sVvalue
p38
V2004/05 was het 107de seizoen in de Engelse voetbalcompetitie. Chelsea werd landskampioen, precies vijftig jaar na de eerste landstitel van de club.
p39
ssasVordered
p40
I01
ss.