(dp0
Vhead
p1
(dp2
Vlink
p3
(lp4
sVvars
p5
(lp6
Vp
p7
aVo
p8
assVresults
p9
(dp10
Vdistinct
p11
I00
sVbindings
p12
(lp13
(dp14
g7
(dp15
Vtype
p16
Vuri
p17
sVvalue
p18
Vhttp://dbpedia.org/ontology/abstract
p19
ssg8
(dp20
Vxml:lang
p21
Ven
p22
sVtype
p23
Vliteral
p24
sVvalue
p25
VHopewell Historic District is a national historic district located in East Nottingham Township and Lower Oxford Township, Chester County, Pennsylvania. It encompasses 26 contributing buildings, 8 contributing sites, and 2 contributing structures in the former borough of Hopewell. It largely consists of a variety of stone and brick residences and outbuildings built between 1810 and 1914. They include examples of Georgian and vernacular styles. Notable properties include the Col. David Dickey House-Hopewell Academy (c. 1814), Samuel Dickey Farm, Schoolhouse / Lyceum Building (1888), Lower Mill (c. 1815), site of the Upper Mill, store / post office (c. 1810), five tenant houses, and three bridges. It was added to the National Register of Historic Places in 1991.
p26
ssa(dp27
g7
(dp28
Vtype
p29
Vuri
p30
sVvalue
p31
Vhttp://dbpedia.org/ontology/added
p32
ssg8
(dp33
Vdatatype
p34
Vhttp://www.w3.org/2001/XMLSchema#date
p35
sVtype
p36
Vtyped-literal
p37
sVvalue
p38
V1991-02-28
p39
ssa(dp40
g7
(dp41
Vtype
p42
Vuri
p43
sVvalue
p44
Vhttp://dbpedia.org/ontology/area
p45
ssg8
(dp46
Vdatatype
p47
Vhttp://www.w3.org/2001/XMLSchema#double
p48
sVtype
p49
Vtyped-literal
p50
sVvalue
p51
V558466.0
p52
ssa(dp53
g7
(dp54
Vtype
p55
Vuri
p56
sVvalue
p57
Vhttp://dbpedia.org/ontology/nrhpReferenceNumber
p58
ssg8
(dp59
Vtype
p60
Vliteral
p61
sVvalue
p62
V91000226
p63
ssa(dp64
g7
(dp65
Vtype
p66
Vuri
p67
sVvalue
p68
Vhttp://dbpedia.org/ontology/yearOfConstruction
p69
ssg8
(dp70
Vdatatype
p71
Vhttp://www.w3.org/2001/XMLSchema#gYear
p72
sVtype
p73
Vtyped-literal
p74
sVvalue
p75
V1853
p76
ssasVordered
p77
I01
ss.