(dp0
Vhead
p1
(dp2
Vlink
p3
(lp4
sVvars
p5
(lp6
Vp
p7
aVo
p8
assVresults
p9
(dp10
Vdistinct
p11
I00
sVbindings
p12
(lp13
(dp14
g7
(dp15
Vtype
p16
Vuri
p17
sVvalue
p18
Vhttp://dbpedia.org/ontology/abstract
p19
ssg8
(dp20
Vxml:lang
p21
Vzh
p22
sVtype
p23
Vliteral
p24
sVvalue
p25
VOmate TrueSmart\u662f\u4e00\u6b3e\u7531Omate\u958b\u767c\u7684\u667a\u6167\u578b\u624b\u9336\u3002Omate TrueSmart\u8207\u5176\u4ed6\u667a\u6167\u578b\u624b\u9336\u4e0d\u540c\u7684\u662f\u5b83\u5167\u5efa\u5b8c\u6574\u7684Android\u7cfb\u7d71\uff0c\u53ef\u4ee5\u7368\u7acb\u904b\u4f5c\uff0c\u5982\u64a5\u6253\u96fb\u8a71\u3001\u4e0a\u7db2\u7b49\u3002\u4e26\u4e14\u64c1\u6709\u7279\u88fd\u7684\u8868\u5e36\u3002\u91d1\u5c6c\u6a5f\u8eab\u6703\u7d44\u9694\u8a0a\u865f\uff0c\u6240\u4ee5\u5929\u7dda\u7686\u914d\u7f6e\u5728\u8868\u5e36\u5167\u3002\u8868\u5e36\u5167\u6709GPS\u3001Wifi\u3001\u85cd\u82bd\u3001\u63da\u8072\u5668\u7b49\u914d\u4ef6\u3002
p26
ssa(dp27
g7
(dp28
Vtype
p29
Vuri
p30
sVvalue
p31
Vhttp://dbpedia.org/ontology/abstract
p32
ssg8
(dp33
Vxml:lang
p34
Vru
p35
sVtype
p36
Vliteral
p37
sVvalue
p38
VOmate TrueSmart \u2014 \u0443\u0441\u0442\u0440\u043e\u0439\u0441\u0442\u0432\u043e \u0432 \u0432\u0438\u0434\u0435 \u043d\u0430\u0440\u0443\u0447\u043d\u044b\u0445 \u0447\u0430\u0441\u043e\u0432 \u043e\u0442 \u043a\u043e\u043c\u043f\u0430\u043d\u0438\u0438 Omate.
p39
ssa(dp40
g7
(dp41
Vtype
p42
Vuri
p43
sVvalue
p44
Vhttp://dbpedia.org/ontology/abstract
p45
ssg8
(dp46
Vxml:lang
p47
Ven
p48
sVtype
p49
Vliteral
p50
sVvalue
p51
VThe Omate TrueSmart was a smartwatch designed by Omate, a Chinese company based in Hong Kong and Shenzhen. It has been funded by crowd funding via Kickstarter. The funding period was from August 21, 2013 until September 20, 2013. The funding goal of $100,000 has been reached within 12 hours, with more than $1,032,000 being raised at the end of the campaign. In contrast to other smartwatches, the Omate is a complete standalone telecom mobile device that can be used to make calls, navigate and use Android apps independent of the user's smartphone.
p52
ssa(dp53
g7
(dp54
Vtype
p55
Vuri
p56
sVvalue
p57
Vhttp://dbpedia.org/ontology/weight
p58
ssg8
(dp59
Vdatatype
p60
Vhttp://www.w3.org/2001/XMLSchema#double
p61
sVtype
p62
Vtyped-literal
p63
sVvalue
p64
V100.0
p65
ssasVordered
p66
I01
ss.