(dp0
Vhead
p1
(dp2
Vlink
p3
(lp4
sVvars
p5
(lp6
Vp
p7
aVo
p8
assVresults
p9
(dp10
Vdistinct
p11
I00
sVbindings
p12
(lp13
(dp14
g7
(dp15
Vtype
p16
Vuri
p17
sVvalue
p18
Vhttp://dbpedia.org/ontology/abstract
p19
ssg8
(dp20
Vxml:lang
p21
Vja
p22
sVtype
p23
Vliteral
p24
sVvalue
p25
V\u524d\u8eab\u306f\u671d\u9bae\u3067\u6700\u521d\u306e\u8fd1\u4ee3\u6559\u80b2\u6a5f\u95a2\u3067\u3042\u308b\u57f9\u6750\u5b66\u5802\u30021885\u5e748\u67085\u65e5\u3001\u30a2\u30e1\u30ea\u30ab\u7cfb\u30e1\u30bd\u30b8\u30b9\u30c8\u306e\u5ba3\u6559\u5e2b\u3001H.G. \u30a2\u30da\u30f3\u30bc\u30e9\u30fc\u306b\u3088\u3063\u3066\u5efa\u3066\u3089\u308c\u305f\u3002\u6559\u5ba4\u306fW.B. \u30b9\u30af\u30ec\u30f3\u30c8\u30f3\u533b\u5e2b\u306e\u5bb6\u3092\u501f\u308a\u3001\u751f\u5f922\u540d\u3092\u6559\u3048\u305f\u306e\u304c\u59cb\u307e\u308a\u3067\u3042\u308b\u30021886\u5e746\u67088\u65e5\u3001\u9ad8\u5b97\u304c\u6559\u5ba4\u3092\u300c\u57f9\u6750\u5b66\u5802\u300d\u3068\u540d\u3065\u3051\u3001\u770b\u677f\u3092\u4f5c\u3063\u305f\u3002\u305d\u306e\u5e7410\u6708\u306b\u306f\u751f\u5f92\u6570\u306f20\u540d\u306b\u306a\u308a\u3001\u3053\u3053\u306b\u671d\u9bae\u306e\u8fd1\u4ee3\u6559\u80b2\u304c\u59cb\u307e\u3063\u305f\u30021937\u5e74\u3001\u57f9\u6750\u4e2d\u5b66\u6821\uff085\u5e74\u5236\uff09\u306b\u6539\u79f0\u3057\u30011951\u5e74\u306b\u306f\u57f9\u6750\u4e2d\u5b66\u6821\u30923\u5e74\u5236\u306b\u5b66\u5236\u3092\u5909\u66f4\u3057\u3001\u57f9\u6750\u9ad8\u7b49\u5b66\u6821\uff083\u5e74\u5236\uff09\u3092\u4f75\u8a2d\u3057\u305f\u3002 \u4e00\u65b9\u30011955\u5e744\u6708\u3001\u65b0\u305f\u306b\u5927\u7530\u4fdd\u80b2\u5b66\u9662\u304c\u8a2d\u7acb\u3055\u308c\u30011956\u5e745\u6708\u5927\u7530\u4fdd\u80b2\u521d\u7d1a\u5927\u5b66\u3068\u3057\u3066\u8a8d\u53ef\u3092\u53d7\u3051\u308b\u3002\u540c\u5e74\u3001\u5927\u5b66\u304c\u8a2d\u7f6e\u3057\u305f\u57f9\u6750\u5e7c\u7a1a\u5712\u3082\u958b\u5712\u3059\u308b\u30021972\u5e74\u3001\u5927\u7530\u4fdd\u80b2\u521d\u7d1a\u5927\u5b66\u306f\u5927\u7530\u5973\u5b50\u521d\u7d1a\u5927\u5b66\u306b\u6539\u79f0\u30021977\u5e7410\u6708\u3001\u5927\u7530\u4fdd\u80b2\u5b66\u9662\u3068\u57f9\u6750\u5b66\u5802\u304c\u5408\u4f75\u300112\u6708\u306b\u57f9\u6750\u5927\u7530\u521d\u7d1a\u5927\u5b66\u306b\u6539\u79f0\u3055\u308c\u308b\u30021979\u5e74\u3001\u57f9\u6750\u5b9f\u696d\u5c02\u9580\u5927\u5b66\u306b\u6539\u79f0\u30011980\u5e7412\u6708\u30014\u5e74\u5236\u5927\u5b66\u3068\u3057\u3066\u8a8d\u53ef\u3092\u53d7\u3051\u30011981\u5e74\u306b\u57f9\u6750\u5927\u5b66\u3068\u3057\u3066\u958b\u6821\u3059\u308b\u30021992\u5e74\u306b\u306f\u7dcf\u5408\u5927\u5b66\u306b\u306a\u308a\u3001\u57f9\u6750\u5927\u5b66\u6821\u3068\u6539\u79f0\u3055\u308c\u3001\u73fe\u5728\u306b\u81f3\u308b\u3002
p26
ssa(dp27
g7
(dp28
Vtype
p29
Vuri
p30
sVvalue
p31
Vhttp://dbpedia.org/ontology/abstract
p32
ssg8
(dp33
Vxml:lang
p34
Vzh
p35
sVtype
p36
Vliteral
p37
sVvalue
p38
V\u57f9\u6750\u5927\u5b66\uff08\ubc30\uc7ac \ub300\ud559\uad50\uff09\uff0c\u662f\u97e9\u56fd\u7b2c\u4e00\u4e2a\u516c\u8ba4\u7684\u9ad8\u7b49\u6559\u80b2\u673a\u6784\u3002\u524d\u8eab\u662f\u521b\u529e\u4e8e1885\u5e74\u7684\u57f9\u6750\u5b66\u5802\uff0c\u662f\u97e9\u56fd\u5386\u53f2\u6700\u4e3a\u60a0\u4e45\u7684\u5927\u5b66\u4e4b\u4e00\u3002
p39
ssa(dp40
g7
(dp41
Vtype
p42
Vuri
p43
sVvalue
p44
Vhttp://dbpedia.org/ontology/abstract
p45
ssg8
(dp46
Vxml:lang
p47
Ven
p48
sVtype
p49
Vliteral
p50
sVvalue
p51
VPai Chai University is one of South Korea's oldest modern universities. Its campus is located in Seo-gu, in Daejeon metropolitan city, on the lower slopes of Yeonja Mountain. It has a present-day student body of about 14,000. Undergraduate programs are administered by the Colleges of Humanities, Foreign Studies, Business Administration, Social Sciences, Tourism Management, Natural Sciences, Engineering, Performing Inter-media Arts and Fine Arts. Numerous graduate programs in these fields are provided as well.
p52
ssa(dp53
g7
(dp54
Vtype
p55
Vuri
p56
sVvalue
p57
Vhttp://dbpedia.org/ontology/mascot
p58
ssg8
(dp59
Vtype
p60
Vliteral
p61
sVvalue
p62
VTiger,Ginkgo biloba, Yulan
p63
ssa(dp64
g7
(dp65
Vtype
p66
Vuri
p67
sVvalue
p68
Vhttp://dbpedia.org/ontology/motto
p69
ssg8
(dp70
Vtype
p71
Vliteral
p72
sVvalue
p73
VServe others, if you wish to be great.
p74
ssa(dp75
g7
(dp76
Vtype
p77
Vuri
p78
sVvalue
p79
Vhttp://dbpedia.org/ontology/numberOfPostgraduateStudents
p80
ssg8
(dp81
Vdatatype
p82
Vhttp://www.w3.org/2001/XMLSchema#nonNegativeInteger
p83
sVtype
p84
Vtyped-literal
p85
sVvalue
p86
V1017
p87
ssa(dp88
g7
(dp89
Vtype
p90
Vuri
p91
sVvalue
p92
Vhttp://dbpedia.org/ontology/numberOfStudents
p93
ssg8
(dp94
Vdatatype
p95
Vhttp://www.w3.org/2001/XMLSchema#nonNegativeInteger
p96
sVtype
p97
Vtyped-literal
p98
sVvalue
p99
V14199
p100
ssa(dp101
g7
(dp102
Vtype
p103
Vuri
p104
sVvalue
p105
Vhttp://dbpedia.org/ontology/numberOfUndergraduateStudents
p106
ssg8
(dp107
Vdatatype
p108
Vhttp://www.w3.org/2001/XMLSchema#nonNegativeInteger
p109
sVtype
p110
Vtyped-literal
p111
sVvalue
p112
V13182
p113
ssa(dp114
g7
(dp115
Vtype
p116
Vuri
p117
sVvalue
p118
Vhttp://dbpedia.org/ontology/staff
p119
ssg8
(dp120
Vdatatype
p121
Vhttp://www.w3.org/2001/XMLSchema#nonNegativeInteger
p122
sVtype
p123
Vtyped-literal
p124
sVvalue
p125
V570
p126
ssasVordered
p127
I01
ss.