(dp0
Vhead
p1
(dp2
Vlink
p3
(lp4
sVvars
p5
(lp6
Vp
p7
aVo
p8
assVresults
p9
(dp10
Vdistinct
p11
I00
sVbindings
p12
(lp13
(dp14
g7
(dp15
Vtype
p16
Vuri
p17
sVvalue
p18
Vhttp://dbpedia.org/ontology/abstract
p19
ssg8
(dp20
Vxml:lang
p21
Ven
p22
sVtype
p23
Vliteral
p24
sVvalue
p25
VThe Legends Classic Tournament is an annual early-season college basketball tournament which started in 2007 that takes place at the beginning of the College Basketball season in November. Eight teams compete in the Legends Classic, which has four of the top programs from the most prestigious conferences in the country tip-off the season with Regional Round games played on their home courts before heading to New York City at the Barclays Center to face each other for the Legends Classic championship. The remainder of the field will participated in a round-robin series at one subregional site. Every participating team is guaranteed four games. Games have been played at Barclays Center since 2012, The 2011 edition was played at Izod Center, 2009 and 2010 were played at Boardwalk Hall, 2007 and 2008 were played at the Prudential Center Marquette is the defending champions, defeating Arizona State in the 2015 final, 78\u201373 in overtime.
p26
ssa(dp27
g7
(dp28
Vtype
p29
Vuri
p30
sVvalue
p31
Vhttp://dbpedia.org/ontology/foundingYear
p32
ssg8
(dp33
Vdatatype
p34
Vhttp://www.w3.org/2001/XMLSchema#gYear
p35
sVtype
p36
Vtyped-literal
p37
sVvalue
p38
V2007
p39
ssa(dp40
g7
(dp41
Vtype
p42
Vuri
p43
sVvalue
p44
Vhttp://dbpedia.org/ontology/participant
p45
ssg8
(dp46
Vtype
p47
Vliteral
p48
sVvalue
p49
V8
p50
ssa(dp51
g7
(dp52
Vtype
p53
Vuri
p54
sVvalue
p55
Vhttp://dbpedia.org/ontology/participant
p56
ssg8
(dp57
Vtype
p58
Vliteral
p59
sVvalue
p60
VVillanova
p61
ssa(dp62
g7
(dp63
Vtype
p64
Vuri
p65
sVvalue
p66
Vhttp://dbpedia.org/ontology/title
p67
ssg8
(dp68
Vxml:lang
p69
Ven
p70
sVtype
p71
Vliteral
p72
sVvalue
p73
VLegends Classic
p74
ssasVordered
p75
I01
ss.