(dp0
Vhead
p1
(dp2
Vlink
p3
(lp4
sVvars
p5
(lp6
Vp
p7
aVo
p8
assVresults
p9
(dp10
Vdistinct
p11
I00
sVbindings
p12
(lp13
(dp14
g7
(dp15
Vtype
p16
Vuri
p17
sVvalue
p18
Vhttp://dbpedia.org/ontology/abstract
p19
ssg8
(dp20
Vxml:lang
p21
Ven
p22
sVtype
p23
Vliteral
p24
sVvalue
p25
VThe island group is remote, and apart from charter flights to Marble Island they are accessible only by private yacht. The Northumberland Islands are further subdivided into smaller groups: the Bedwell Group, Beverley Group, Broad Sound Islands, Duke Islands, Flat Isles, Guardfish Cluster and Percy Group. The islands are listed below, with the geographical coordinates of the largest islands given. Only the major islands of each group are listed.
p26
ssa(dp27
g7
(dp28
Vtype
p29
Vuri
p30
sVvalue
p31
Vhttp://dbpedia.org/ontology/abstract
p32
ssg8
(dp33
Vxml:lang
p34
Vja
p35
sVtype
p36
Vliteral
p37
sVvalue
p38
V\u30ce\u30fc\u30b5\u30f3\u30d0\u30fc\u30e9\u30f3\u30c9\u8af8\u5cf6\uff08\u82f1\u8a9e\u3001Northumberland Islands\uff09\u3068\u306f\u3001\u30aa\u30fc\u30b9\u30c8\u30e9\u30ea\u30a2\u5927\u9678\u5317\u6771\u6cbf\u5cb8\u90e8\u306b\u5b58\u5728\u3059\u308b\u3001\u5357\u592a\u5e73\u6d0b\u306e\u5cf6\u3005\u306e\u4e00\u7fa4\u3067\u3042\u308b\u3002
p39
ssasVordered
p40
I01
ss.