(dp0
Vhead
p1
(dp2
Vlink
p3
(lp4
sVvars
p5
(lp6
Vp
p7
aVo
p8
assVresults
p9
(dp10
Vdistinct
p11
I00
sVbindings
p12
(lp13
(dp14
g7
(dp15
Vtype
p16
Vuri
p17
sVvalue
p18
Vhttp://dbpedia.org/ontology/birthDate
p19
ssg8
(dp20
Vdatatype
p21
Vhttp://www.w3.org/2001/XMLSchema#date
p22
sVtype
p23
Vtyped-literal
p24
sVvalue
p25
V1972-08-25
p26
ssa(dp27
g7
(dp28
Vtype
p29
Vuri
p30
sVvalue
p31
Vhttp://dbpedia.org/ontology/birthDate
p32
ssg8
(dp33
Vdatatype
p34
Vhttp://www.w3.org/2001/XMLSchema#date
p35
sVtype
p36
Vtyped-literal
p37
sVvalue
p38
V1972-8-25
p39
ssa(dp40
g7
(dp41
Vtype
p42
Vuri
p43
sVvalue
p44
Vhttp://dbpedia.org/ontology/abstract
p45
ssg8
(dp46
Vxml:lang
p47
Vde
p48
sVtype
p49
Vliteral
p50
sVvalue
p51
VSteve Mifsud (* 25. August 1972 in Australien) ist ein australischer Snookerspieler maltesischer Herkunft.
p52
ssa(dp53
g7
(dp54
Vtype
p55
Vuri
p56
sVvalue
p57
Vhttp://dbpedia.org/ontology/abstract
p58
ssg8
(dp59
Vxml:lang
p60
Vru
p61
sVtype
p62
Vliteral
p63
sVvalue
p64
V\u0421\u0442\u0438\u0432 \u041c\u0438\u0301\u0444\u0441\u0443\u0434 (\u0430\u043d\u0433\u043b. Steve Mifsud, \u0440\u043e\u0434. 25 \u0430\u0432\u0433\u0443\u0441\u0442\u0430 1972 \u0433\u043e\u0434\u0430) \u2014 \u0430\u0432\u0441\u0442\u0440\u0430\u043b\u0438\u0439\u0441\u043a\u0438\u0439 \u043f\u0440\u043e\u0444\u0435\u0441\u0441\u0438\u043e\u043d\u0430\u043b\u044c\u043d\u044b\u0439 \u0438\u0433\u0440\u043e\u043a \u0432 \u0441\u043d\u0443\u043a\u0435\u0440 \u0438 \u0430\u043d\u0433\u043b\u0438\u0439\u0441\u043a\u0438\u0439 \u0431\u0438\u043b\u044c\u044f\u0440\u0434. \u0421\u0442\u0430\u043b \u043f\u0440\u043e\u0444\u0435\u0441\u0441\u0438\u043e\u043d\u0430\u043b\u043e\u043c \u0432 1992 \u0433\u043e\u0434\u0443. \u0412 2002 \u0433\u043e\u0434\u0443, \u0431\u043b\u0430\u0433\u043e\u0434\u0430\u0440\u044f \u043f\u043e\u0431\u0435\u0434\u0435 \u043d\u0430 \u043b\u044e\u0431\u0438\u0442\u0435\u043b\u044c\u0441\u043a\u043e\u043c \u0447\u0435\u043c\u043f\u0438\u043e\u043d\u0430\u0442\u0435 \u043c\u0438\u0440\u0430 \u0432 \u0415\u0433\u0438\u043f\u0442\u0435, \u043f\u043e\u043b\u0443\u0447\u0438\u043b \u043f\u0440\u0438\u0433\u043b\u0430\u0448\u0435\u043d\u0438\u0435 \u0432 \u043c\u044d\u0439\u043d-\u0442\u0443\u0440. \u041e\u0434\u043d\u0430\u043a\u043e, \u0442\u0430\u043c \u043d\u0435 \u0441\u043c\u043e\u0433 \u0440\u0430\u0437\u0432\u0438\u0442\u044c \u0441\u0432\u043e\u0438 \u0443\u0441\u043f\u0435\u0445\u0438 \u0438 \u0447\u0435\u0440\u0435\u0437 \u043d\u0435\u043a\u043e\u0442\u043e\u0440\u043e\u0435 \u0432\u0440\u0435\u043c\u044f \u043f\u043e\u043a\u0438\u043d\u0443\u043b \u0442\u0443\u0440. \u041f\u043e\u0437\u0436\u0435, \u0432 2005 \u0433\u043e\u0434\u0443 \u0421\u0442\u0438\u0432 \u0441\u043d\u043e\u0432\u0430 \u0432\u044b\u0448\u0435\u043b \u0432 \u0444\u0438\u043d\u0430\u043b \u0447\u0435\u043c\u043f\u0438\u043e\u043d\u0430\u0442\u0430 \u043c\u0438\u0440\u0430 \u0441\u0440\u0435\u0434\u0438 \u043b\u044e\u0431\u0438\u0442\u0435\u043b\u0435\u0439, \u043d\u043e \u043f\u0440\u043e\u0438\u0433\u0440\u0430\u043b \u041c\u0430\u0440\u043a\u0443 \u0410\u043b\u043b\u0435\u043d\u0443. \u0412 \u0441\u0435\u0437\u043e\u043d\u0435 2007/08 \u041c\u0438\u0444\u0441\u0443\u0434 \u0432\u0441\u0451 \u0436\u0435 \u0432\u043e\u0437\u0432\u0440\u0430\u0442\u0438\u043b\u0441\u044f \u0432 \u043c\u044d\u0439\u043d-\u0442\u0443\u0440 \u043d\u0430 \u043f\u0440\u0430\u0432\u0430\u0445 \u0447\u0435\u043c\u043f\u0438\u043e\u043d\u0430 \u0410\u0432\u0441\u0442\u0440\u0430\u043b\u0438\u0438, \u043d\u043e \u043d\u0430 \u044d\u0442\u043e\u0442 \u0440\u0430\u0437 \u043e\u043d \u0432\u044b\u0441\u0442\u0443\u043f\u0438\u043b \u0435\u0449\u0451 \u0445\u0443\u0436\u0435, \u0432\u044b\u0438\u0433\u0440\u0430\u0432 \u0432\u0441\u0435\u0433\u043e \u043e\u0434\u0438\u043d \u043c\u0430\u0442\u0447 \u0432 \u0448\u0435\u0441\u0442\u0438 \u0441\u044b\u0433\u0440\u0430\u043d\u043d\u044b\u0445 \u0442\u0443\u0440\u043d\u0438\u0440\u0430\u0445. \u0412 1998 \u0433\u043e\u0434\u0443 \u0421\u0442\u0438\u0432 \u041c\u0438\u0444\u0441\u0443\u0434 \u0431\u044b\u043b \u043f\u043e\u0431\u0435\u0434\u0438\u0442\u0435\u043b\u0435\u043c \u0447\u0435\u043c\u043f\u0438\u043e\u043d\u0430\u0442\u0430 \u041e\u043a\u0435\u0430\u043d\u0438\u0438.
p65
ssa(dp66
g7
(dp67
Vtype
p68
Vuri
p69
sVvalue
p70
Vhttp://dbpedia.org/ontology/abstract
p71
ssg8
(dp72
Vxml:lang
p73
Ven
p74
sVtype
p75
Vliteral
p76
sVvalue
p77
VSteve Mifsud (born 25 August 1972 in Australia) is a Maltese Australian professional snooker player.
p78
ssa(dp79
g7
(dp80
Vtype
p81
Vuri
p82
sVvalue
p83
Vhttp://dbpedia.org/ontology/activeYearsEndYear
p84
ssg8
(dp85
Vdatatype
p86
Vhttp://www.w3.org/2001/XMLSchema#gYear
p87
sVtype
p88
Vtyped-literal
p89
sVvalue
p90
V1994
p91
ssa(dp92
g7
(dp93
Vtype
p94
Vuri
p95
sVvalue
p96
Vhttp://dbpedia.org/ontology/activeYearsStartYear
p97
ssg8
(dp98
Vdatatype
p99
Vhttp://www.w3.org/2001/XMLSchema#gYear
p100
sVtype
p101
Vtyped-literal
p102
sVvalue
p103
V1991
p104
ssa(dp105
g7
(dp106
Vtype
p107
Vuri
p108
sVvalue
p109
Vhttp://dbpedia.org/ontology/bestFinish
p110
ssg8
(dp111
Vtype
p112
Vliteral
p113
sVvalue
p114
VLast 32 (2011 Australian Goldfields Open)
p115
ssa(dp116
g7
(dp117
Vtype
p118
Vuri
p119
sVvalue
p120
Vhttp://dbpedia.org/ontology/centuryBreaks
p121
ssg8
(dp122
Vdatatype
p123
Vhttp://www.w3.org/2001/XMLSchema#integer
p124
sVtype
p125
Vtyped-literal
p126
sVvalue
p127
V7
p128
ssa(dp129
g7
(dp130
Vtype
p131
Vuri
p132
sVvalue
p133
Vhttp://dbpedia.org/ontology/gross
p134
ssg8
(dp135
Vdatatype
p136
Vhttp://dbpedia.org/datatype/poundSterling
p137
sVtype
p138
Vtyped-literal
p139
sVvalue
p140
V13480.0
p141
ssa(dp142
g7
(dp143
Vtype
p144
Vuri
p145
sVvalue
p146
Vhttp://dbpedia.org/ontology/highestBreak
p147
ssg8
(dp148
Vdatatype
p149
Vhttp://www.w3.org/2001/XMLSchema#integer
p150
sVtype
p151
Vtyped-literal
p152
sVvalue
p153
V129
p154
ssa(dp155
g7
(dp156
Vtype
p157
Vuri
p158
sVvalue
p159
Vhttp://dbpedia.org/ontology/highestRank
p160
ssg8
(dp161
Vdatatype
p162
Vhttp://www.w3.org/2001/XMLSchema#integer
p163
sVtype
p164
Vtyped-literal
p165
sVvalue
p166
V94
p167
ssasVordered
p168
I01
ss.