(dp0
Vhead
p1
(dp2
Vlink
p3
(lp4
sVvars
p5
(lp6
Vp
p7
aVo
p8
assVresults
p9
(dp10
Vdistinct
p11
I00
sVbindings
p12
(lp13
(dp14
g7
(dp15
Vtype
p16
Vuri
p17
sVvalue
p18
Vhttp://dbpedia.org/ontology/abstract
p19
ssg8
(dp20
Vxml:lang
p21
Ven
p22
sVtype
p23
Vliteral
p24
sVvalue
p25
VVelanidia (Greek: \u0392\u03b5\u03bb\u03b1\u03bd\u03af\u03b4\u03b9\u03b1) is a Byzantine village in Laconia, Greece, within the municipality of Voies. It is about 17 km from Neapolis. It includes several Byzantine churches, Cape Malea and the Lighthouse of Cape Maleas.
p26
ssa(dp27
g7
(dp28
Vtype
p29
Vuri
p30
sVvalue
p31
Vhttp://dbpedia.org/ontology/postalCode
p32
ssg8
(dp33
Vtype
p34
Vliteral
p35
sVvalue
p36
V230 53
p37
ssasVordered
p38
I01
ss.