(dp0
Vhead
p1
(dp2
Vlink
p3
(lp4
sVvars
p5
(lp6
Vp
p7
aVo
p8
assVresults
p9
(dp10
Vdistinct
p11
I00
sVbindings
p12
(lp13
(dp14
g7
(dp15
Vtype
p16
Vuri
p17
sVvalue
p18
Vhttp://dbpedia.org/ontology/abstract
p19
ssg8
(dp20
Vxml:lang
p21
Ven
p22
sVtype
p23
Vliteral
p24
sVvalue
p25
VGeorge Walton Comprehensive High School, also known as as Walton High School, is a public high school located in Marietta, Georgia, United States. It is in eastern Cobb County and is a charter school in the Cobb County School District. It is a School of Excellence and one of the top schools academically in the state. It is one of the larger high schools in the East Cobb area. As of the October 2, 2012 FTE count, there were 2,636 students attending Walton, making it the largest in the district by population. For many years Walton has been among the top high schools in Georgia in SAT scores. In 2006, almost 800 Walton students took over 1,800 Advanced Placement exams, making it the school with the greatest number of test-takers in Georgia. Walton was also one of six featured "Outstanding American High Schools" out of 96 total by U.S.News & World Report in 1999 because of its high parental involvement and overall high level of achievement. In 2011, Walton was ranked 67 by Newsweek based on new factors: graduation rate (25%), college matriculation rate (25%), AP tests taken per graduate (25%), average SAT/ACT scores (10%), average AP/IB/AICE scores (10%), and AP courses offered (5%).
p26
ssa(dp27
g7
(dp28
Vtype
p29
Vuri
p30
sVvalue
p31
Vhttp://dbpedia.org/ontology/address
p32
ssg8
(dp33
Vxml:lang
p34
Ven
p35
sVtype
p36
Vliteral
p37
sVvalue
p38
V1590 Bill Murdock Rd.
p39
ssa(dp40
g7
(dp41
Vtype
p42
Vuri
p43
sVvalue
p44
Vhttp://dbpedia.org/ontology/foundingYear
p45
ssg8
(dp46
Vdatatype
p47
Vhttp://www.w3.org/2001/XMLSchema#gYear
p48
sVtype
p49
Vtyped-literal
p50
sVvalue
p51
V1975
p52
ssa(dp53
g7
(dp54
Vtype
p55
Vuri
p56
sVvalue
p57
Vhttp://dbpedia.org/ontology/numberOfStudents
p58
ssg8
(dp59
Vdatatype
p60
Vhttp://www.w3.org/2001/XMLSchema#nonNegativeInteger
p61
sVtype
p62
Vtyped-literal
p63
sVvalue
p64
V2636
p65
ssasVordered
p66
I01
ss.