(dp0
Vhead
p1
(dp2
Vlink
p3
(lp4
sVvars
p5
(lp6
Vp
p7
aVo
p8
assVresults
p9
(dp10
Vdistinct
p11
I00
sVbindings
p12
(lp13
(dp14
g7
(dp15
Vtype
p16
Vuri
p17
sVvalue
p18
Vhttp://dbpedia.org/ontology/birthDate
p19
ssg8
(dp20
Vdatatype
p21
Vhttp://www.w3.org/2001/XMLSchema#date
p22
sVtype
p23
Vtyped-literal
p24
sVvalue
p25
V1993-05-20
p26
ssa(dp27
g7
(dp28
Vtype
p29
Vuri
p30
sVvalue
p31
Vhttp://dbpedia.org/ontology/birthDate
p32
ssg8
(dp33
Vdatatype
p34
Vhttp://www.w3.org/2001/XMLSchema#date
p35
sVtype
p36
Vtyped-literal
p37
sVvalue
p38
V1993-5-20
p39
ssa(dp40
g7
(dp41
Vtype
p42
Vuri
p43
sVvalue
p44
Vhttp://dbpedia.org/ontology/Person/height
p45
ssg8
(dp46
Vdatatype
p47
Vhttp://dbpedia.org/datatype/centimetre
p48
sVtype
p49
Vtyped-literal
p50
sVvalue
p51
V175.26
p52
ssa(dp53
g7
(dp54
Vtype
p55
Vuri
p56
sVvalue
p57
Vhttp://dbpedia.org/ontology/Person/weight
p58
ssg8
(dp59
Vdatatype
p60
Vhttp://dbpedia.org/datatype/kilogram
p61
sVtype
p62
Vtyped-literal
p63
sVvalue
p64
V69.8544
p65
ssa(dp66
g7
(dp67
Vtype
p68
Vuri
p69
sVvalue
p70
Vhttp://dbpedia.org/ontology/abstract
p71
ssg8
(dp72
Vxml:lang
p73
Vru
p74
sVtype
p75
Vliteral
p76
sVvalue
p77
V\u0410\u0439\u0434\u0430\u0440 \u0411\u0443\u043b\u0430\u0442\u043e\u0432\u0438\u0447 \u0411\u0435\u043a\u0436\u0430\u043d\u043e\u0432 (\u043a\u0430\u0437. \u0410\u0439\u0434\u0430\u0440 \u0411\u0443\u043b\u0430\u0442\u04b1\u043b\u044b \u0411\u0435\u049b\u0436\u0430\u043d\u043e\u0432; \u0440\u043e\u0434.20 \u043c\u0430\u044f 1993 \u0433\u043e\u0434\u0430) \u2014 \u043a\u0430\u0437\u0430\u0445\u0441\u0442\u0430\u043d\u0441\u043a\u0438\u0439 \u043a\u043e\u043d\u044c\u043a\u043e\u0431\u0435\u0436\u0435\u0446, \u0443\u0447\u0430\u0441\u0442\u043d\u0438\u043a \u0437\u0438\u043c\u043d\u0435\u0439 \u041e\u043b\u0438\u043c\u043f\u0438\u0430\u0434\u044b \u2014 2010, \u0437\u0438\u043c\u043d\u0435\u0439 \u041e\u043b\u0438\u043c\u043f\u0438\u0430\u0434\u044b \u2014 2014, \u0431\u0440\u043e\u043d\u0437\u043e\u0432\u044b\u0439 \u043f\u0440\u0438\u0437\u0451\u0440 \u0437\u0438\u043c\u043d\u0435\u0439 \u0410\u0437\u0438\u0430\u0434\u044b \u2014 2011.
p78
ssa(dp79
g7
(dp80
Vtype
p81
Vuri
p82
sVvalue
p83
Vhttp://dbpedia.org/ontology/abstract
p84
ssg8
(dp85
Vxml:lang
p86
Ven
p87
sVtype
p88
Vliteral
p89
sVvalue
p90
VAidar Bekzhanov (born May 20, 1993 in Oral) is a Kazakh short-track speed-skater. Bekzhanov competed at the 2010 Winter Olympics for Kazakhstan. In the 500 metres, he was disqualified in his first round heat, failing to advance. In the 1000 metres, he placed 4th in his opening heat, again failing to advance. His best overall finish was in the 1000, where he placed 28th. As of 2013, Bekzhanov's best performance at the World Championships came in 2010, when he placed 17th in the 1500 metres. As of 2013, Bekzhanov has not finished on the podium on the ISU Short Track Speed Skating World Cup. His top World Cup ranking is 20th, in the 500 metres in 2013\u201314.
p91
ssa(dp92
g7
(dp93
Vtype
p94
Vuri
p95
sVvalue
p96
Vhttp://dbpedia.org/ontology/height
p97
ssg8
(dp98
Vdatatype
p99
Vhttp://www.w3.org/2001/XMLSchema#double
p100
sVtype
p101
Vtyped-literal
p102
sVvalue
p103
V1.7526
p104
ssa(dp105
g7
(dp106
Vtype
p107
Vuri
p108
sVvalue
p109
Vhttp://dbpedia.org/ontology/weight
p110
ssg8
(dp111
Vdatatype
p112
Vhttp://www.w3.org/2001/XMLSchema#double
p113
sVtype
p114
Vtyped-literal
p115
sVvalue
p116
V69854.4
p117
ssasVordered
p118
I01
ss.