(dp0
Vhead
p1
(dp2
Vlink
p3
(lp4
sVvars
p5
(lp6
Vp
p7
aVo
p8
assVresults
p9
(dp10
Vdistinct
p11
I00
sVbindings
p12
(lp13
(dp14
g7
(dp15
Vtype
p16
Vuri
p17
sVvalue
p18
Vhttp://dbpedia.org/ontology/deathDate
p19
ssg8
(dp20
Vdatatype
p21
Vhttp://www.w3.org/2001/XMLSchema#date
p22
sVtype
p23
Vtyped-literal
p24
sVvalue
p25
V1966-10-14
p26
ssa(dp27
g7
(dp28
Vtype
p29
Vuri
p30
sVvalue
p31
Vhttp://dbpedia.org/ontology/birthDate
p32
ssg8
(dp33
Vdatatype
p34
Vhttp://www.w3.org/2001/XMLSchema#date
p35
sVtype
p36
Vtyped-literal
p37
sVvalue
p38
V1904-1-1
p39
ssa(dp40
g7
(dp41
Vtype
p42
Vuri
p43
sVvalue
p44
Vhttp://dbpedia.org/ontology/abstract
p45
ssg8
(dp46
Vxml:lang
p47
Ven
p48
sVtype
p49
Vliteral
p50
sVvalue
p51
VArthur Folwell (1904 - 1966) was an Australian rugby league footballer, coach and administrator of the early to mid-20th century. An Australian national and New South Wales state representative hooker, he played his club football in the New South Wales Rugby Football League for Sydney's Newtown club before becoming their coach and taking them to the 1943 NSWRFL premiership. In 1933 Folwell was selected for the Australian touring squad for the 1933-34 Kangaroo tour of Great Britain . He became Kangaroo No. 179 when played in the 2nd and 3rd Test matches and he played another 19 matches on the 1933-34 tour. Folwell coached Newtown for three seasons during the second world war (1942-1944). He is remembered as the winning grand final coach in 1943, the year Newtown won the 1943 grand final. In Folwell's final year as coach of Newtown he took them to the 1944 NSWRFL season's grand final which was lost to Balmain. He assisted Bumper Farrell and Len Smith as coach of the Blue Bags during the final year of World War Two before retiring. He later became a New South Wales and Australian Rugby League selector during the 1950s and early 1960s. Folwell's grandson Greg Pierce became an Australian international rugby league footballer of the 1970s. Folwell was named at hooker in the Newtown Jets Team of the Century (1908-2007).
p52
ssa(dp53
g7
(dp54
Vtype
p55
Vuri
p56
sVvalue
p57
Vhttp://dbpedia.org/ontology/activeYearsEndYear
p58
ssg8
(dp59
Vdatatype
p60
Vhttp://www.w3.org/2001/XMLSchema#gYear
p61
sVtype
p62
Vtyped-literal
p63
sVvalue
p64
V0045
p65
ssa(dp66
g7
(dp67
Vtype
p68
Vuri
p69
sVvalue
p70
Vhttp://dbpedia.org/ontology/activeYearsStartYear
p71
ssg8
(dp72
Vdatatype
p73
Vhttp://www.w3.org/2001/XMLSchema#gYear
p74
sVtype
p75
Vtyped-literal
p76
sVvalue
p77
V1942
p78
ssasVordered
p79
I01
ss.