(dp0
Vhead
p1
(dp2
Vlink
p3
(lp4
sVvars
p5
(lp6
Vp
p7
aVo
p8
assVresults
p9
(dp10
Vdistinct
p11
I00
sVbindings
p12
(lp13
(dp14
g7
(dp15
Vtype
p16
Vuri
p17
sVvalue
p18
Vhttp://dbpedia.org/ontology/abstract
p19
ssg8
(dp20
Vxml:lang
p21
Ven
p22
sVtype
p23
Vliteral
p24
sVvalue
p25
VRoyal Air Force Honiley or RAF Honiley is a former Royal Air Force station located in Wroxall, Warwickshire, 7 miles (11 km) southwest of Coventry, England. The station closed in March 1958, and after being used as a motor vehicle test track, it has been subject to planning permission from the Prodrive Formula One team for development of their Fulcrum test and development facility however this has been cancelled. From September 2014 the site has been used by Jaguar Land Rover for heritage driving experiences with the location being known as Fen End.
p26
ssa(dp27
g7
(dp28
Vtype
p29
Vuri
p30
sVvalue
p31
Vhttp://dbpedia.org/ontology/iataLocationIdentifier
p32
ssg8
(dp33
Vtype
p34
Vliteral
p35
sVvalue
p36
VBHY
p37
ssa(dp38
g7
(dp39
Vtype
p40
Vuri
p41
sVvalue
p42
Vhttp://dbpedia.org/ontology/runwayDesignation
p43
ssg8
(dp44
Vtype
p45
Vliteral
p46
sVvalue
p47
V04/22
p48
ssa(dp49
g7
(dp50
Vtype
p51
Vuri
p52
sVvalue
p53
Vhttp://dbpedia.org/ontology/runwayDesignation
p54
ssg8
(dp55
Vtype
p56
Vliteral
p57
sVvalue
p58
V10/28
p59
ssa(dp60
g7
(dp61
Vtype
p62
Vuri
p63
sVvalue
p64
Vhttp://dbpedia.org/ontology/runwayDesignation
p65
ssg8
(dp66
Vtype
p67
Vliteral
p68
sVvalue
p69
V14/32
p70
ssa(dp71
g7
(dp72
Vtype
p73
Vuri
p74
sVvalue
p75
Vhttp://dbpedia.org/ontology/runwayLength
p76
ssg8
(dp77
Vdatatype
p78
Vhttp://www.w3.org/2001/XMLSchema#double
p79
sVtype
p80
Vtyped-literal
p81
sVvalue
p82
V0.0
p83
ssa(dp84
g7
(dp85
Vtype
p86
Vuri
p87
sVvalue
p88
Vhttp://dbpedia.org/ontology/runwayLength
p89
ssg8
(dp90
Vdatatype
p91
Vhttp://www.w3.org/2001/XMLSchema#double
p92
sVtype
p93
Vtyped-literal
p94
sVvalue
p95
V1791.92
p96
ssa(dp97
g7
(dp98
Vtype
p99
Vuri
p100
sVvalue
p101
Vhttp://dbpedia.org/ontology/runwayLength
p102
ssg8
(dp103
Vdatatype
p104
Vhttp://www.w3.org/2001/XMLSchema#double
p105
sVtype
p106
Vtyped-literal
p107
sVvalue
p108
V1792.0
p109
ssa(dp110
g7
(dp111
Vtype
p112
Vuri
p113
sVvalue
p114
Vhttp://dbpedia.org/ontology/runwaySurface
p115
ssg8
(dp116
Vtype
p117
Vliteral
p118
sVvalue
p119
VTarmac
p120
ssasVordered
p121
I01
ss.