(dp0
Vhead
p1
(dp2
Vlink
p3
(lp4
sVvars
p5
(lp6
Vp
p7
aVo
p8
assVresults
p9
(dp10
Vdistinct
p11
I00
sVbindings
p12
(lp13
(dp14
g7
(dp15
Vtype
p16
Vuri
p17
sVvalue
p18
Vhttp://dbpedia.org/ontology/abstract
p19
ssg8
(dp20
Vxml:lang
p21
Ven
p22
sVtype
p23
Vliteral
p24
sVvalue
p25
VNenagh Ormond RFC is an Irish Rugby union club based in Nenagh, County Tipperary. It was founded in 1884 as The Ormond Cricket and Football Club. The club plays in Division 2A of the All-Ireland League and was County Tipperarys first ever senior grade rugby club. The club's main ground is New Ormond Park with another ground in Tyone where underage teams can train and play.The club fields 2 adult sides and 10 underage sides, from u7 to u20, that compete in blitzes with neighbouring clubs in Tipperary and Limerick as well as further afield at u7-u12 levels while from u13-20 level Nenagh competes in East Munster competitions and Munster competitions.The club also fields a Women's side and girl's underage sides.The club joined the senior ranks in 2005 when they won the round robin and spent their first ten seasons as a senior club in the bottom division of the All Ireland League. In the 2013/2014 season under the coaching team of Derek Corcoran and Trevor Hogan the club won Division 2B of the All Ireland League and retained the Munster Senior Plate which had been won for the first time in December 2012 with a win over Dolphin in Mahon, Cork. In 2014 Nenagh beat Young Munster by 74 points to 7 to win a third competition in the senior ranks. Prior to joining the senior ranks the Munster Junior Cup would have been the main focus each season for the club and Nenagh are the most successful of the provincial clubs(not based in Limerick/Cork) with 5 victories and are by far the most successful Tipperary side in that competition with their 5 successes comparing to 1 each for Clonmel, Clanwilliam, Kilfeacle and Cashel. Nenagh Ormond has produced three Irish full-internationals as well as several players who either played for Munster in the amateur era or played professionally for an Irish province or in England. Tony Courtney (1899 - 1970) with seven caps, Trevor Hogan (formerly Munster and Leinster) who won three caps made his debut against Japan in 2005 and Donnacha Ryan (Munster) who has won twenty eight so far making his debut in 2008 against Argentina in Croke Park, Dublin. Ray Hogan played professionally with Connacht and David Delaney played professionally with Plymouth
p26
ssa(dp27
g7
(dp28
Vtype
p29
Vuri
p30
sVvalue
p31
Vhttp://dbpedia.org/ontology/foundingYear
p32
ssg8
(dp33
Vdatatype
p34
Vhttp://www.w3.org/2001/XMLSchema#gYear
p35
sVtype
p36
Vtyped-literal
p37
sVvalue
p38
V1884
p39
ssa(dp40
g7
(dp41
Vtype
p42
Vuri
p43
sVvalue
p44
Vhttp://dbpedia.org/ontology/teamName
p45
ssg8
(dp46
Vxml:lang
p47
Ven
p48
sVtype
p49
Vliteral
p50
sVvalue
p51
VNenagh Ormond RFC
p52
ssasVordered
p53
I01
ss.