(dp0
Vhead
p1
(dp2
Vlink
p3
(lp4
sVvars
p5
(lp6
Vp
p7
aVo
p8
assVresults
p9
(dp10
Vdistinct
p11
I00
sVbindings
p12
(lp13
(dp14
g7
(dp15
Vtype
p16
Vuri
p17
sVvalue
p18
Vhttp://dbpedia.org/ontology/abstract
p19
ssg8
(dp20
Vxml:lang
p21
Ven
p22
sVtype
p23
Vliteral
p24
sVvalue
p25
VWest Greene School District is a diminutive, rural, public school district located in Greene County, Pennsylvania. Per the administration, 800 students attended West Greene School District in 2012. The District serves a large rural region of approximately 256 square miles (660 km2). It includes Morris Township, Center Township, Gray Township, Jackson Township, Gilmore Township, Freeport Township, Springhill Township, Aleppo Township, and Richhill Township According to 2000 federal census data, it serves a resident population of 5,917. By 2010, the District's population declined to 5,102 people. In 2009, the district residents' per capita income was $14,228, while the median family income was $35,149 a year. The educational attainment levels for the population 25 and over were 83.7% high school graduates and 12.9% college graduates. Per West Greene School District officials, in school year 2007\u20132008, the West Greene School District provided basic educational services to 866 pupils through the employment of 86 teachers, 43 full-time and part-time support personnel, and 8 administrators. West Greene School District received more than $5.1 million in state funding for school year 2007\u20132008. The District enrollment was 757 pupils in 2011-2012. It employed: 83 teachers, 37 full-time and part-time support personnel, and nine (9) administrators during the 2011-2012 school year. The District received $5.2 million in state funding in the 2011-2012 school year. West Greene School District operates four schools: Graysville Elementary School, Springhill-Freeport Elementary School, West Greene Middle and West Greene Senior High School. The West Greene School Board approved a construction project which will add an elementary wing to the current high school-middle school building which will result in the entire District being under one roof. West Greene High School students may attend Greene County Career and Technology Center. West Greene School District also operates an online academy in association with Intermediate Unit 1 which is open to students in grades 1 through 12. West Greene Online Academy high school students who complete all program requirements are awarded a West Greene High School diploma and may participate in the West Greene School District's Commencement Exercises. West Greene School District provides full-day kindergarten. West Greene students may attend a cyber academy provided by IU1.
p26
ssa(dp27
g7
(dp28
Vtype
p29
Vuri
p30
sVvalue
p31
Vhttp://dbpedia.org/ontology/address
p32
ssg8
(dp33
Vxml:lang
p34
Ven
p35
sVtype
p36
Vliteral
p37
sVvalue
p38
V1367 Hargus Creek Road
p39
ssa(dp40
g7
(dp41
Vtype
p42
Vuri
p43
sVvalue
p44
Vhttp://dbpedia.org/ontology/budget
p45
ssg8
(dp46
Vdatatype
p47
Vhttp://dbpedia.org/datatype/usDollar
p48
sVtype
p49
Vtyped-literal
p50
sVvalue
p51
V1.5128302E7
p52
ssa(dp53
g7
(dp54
Vtype
p55
Vuri
p56
sVvalue
p57
Vhttp://dbpedia.org/ontology/facultySize
p58
ssg8
(dp59
Vdatatype
p60
Vhttp://www.w3.org/2001/XMLSchema#nonNegativeInteger
p61
sVtype
p62
Vtyped-literal
p63
sVvalue
p64
V73
p65
ssa(dp66
g7
(dp67
Vtype
p68
Vuri
p69
sVvalue
p70
Vhttp://dbpedia.org/ontology/lowerAge
p71
ssg8
(dp72
Vdatatype
p73
Vhttp://www.w3.org/2001/XMLSchema#nonNegativeInteger
p74
sVtype
p75
Vtyped-literal
p76
sVvalue
p77
V5
p78
ssa(dp79
g7
(dp80
Vtype
p81
Vuri
p82
sVvalue
p83
Vhttp://dbpedia.org/ontology/mascot
p84
ssg8
(dp85
Vtype
p86
Vliteral
p87
sVvalue
p88
VPioneers
p89
ssa(dp90
g7
(dp91
Vtype
p92
Vuri
p93
sVvalue
p94
Vhttp://dbpedia.org/ontology/numberOfStudents
p95
ssg8
(dp96
Vdatatype
p97
Vhttp://www.w3.org/2001/XMLSchema#nonNegativeInteger
p98
sVtype
p99
Vtyped-literal
p100
sVvalue
p101
V708
p102
ssa(dp103
g7
(dp104
Vtype
p105
Vuri
p106
sVvalue
p107
Vhttp://dbpedia.org/ontology/numberOfStudents
p108
ssg8
(dp109
Vdatatype
p110
Vhttp://www.w3.org/2001/XMLSchema#nonNegativeInteger
p111
sVtype
p112
Vtyped-literal
p113
sVvalue
p114
V799
p115
ssa(dp116
g7
(dp117
Vtype
p118
Vuri
p119
sVvalue
p120
Vhttp://dbpedia.org/ontology/numberOfStudents
p121
ssg8
(dp122
Vdatatype
p123
Vhttp://www.w3.org/2001/XMLSchema#nonNegativeInteger
p124
sVtype
p125
Vtyped-literal
p126
sVvalue
p127
V800
p128
ssa(dp129
g7
(dp130
Vtype
p131
Vuri
p132
sVvalue
p133
Vhttp://dbpedia.org/ontology/numberOfStudents
p134
ssg8
(dp135
Vdatatype
p136
Vhttp://www.w3.org/2001/XMLSchema#nonNegativeInteger
p137
sVtype
p138
Vtyped-literal
p139
sVvalue
p140
V878
p141
ssa(dp142
g7
(dp143
Vtype
p144
Vuri
p145
sVvalue
p146
Vhttp://dbpedia.org/ontology/postalCode
p147
ssg8
(dp148
Vtype
p149
Vliteral
p150
sVvalue
p151
V15370-8618
p152
ssa(dp153
g7
(dp154
Vtype
p155
Vuri
p156
sVvalue
p157
Vhttp://dbpedia.org/ontology/staff
p158
ssg8
(dp159
Vdatatype
p160
Vhttp://www.w3.org/2001/XMLSchema#nonNegativeInteger
p161
sVtype
p162
Vtyped-literal
p163
sVvalue
p164
V44
p165
ssa(dp166
g7
(dp167
Vtype
p168
Vuri
p169
sVvalue
p170
Vhttp://dbpedia.org/ontology/upperAge
p171
ssg8
(dp172
Vdatatype
p173
Vhttp://www.w3.org/2001/XMLSchema#nonNegativeInteger
p174
sVtype
p175
Vtyped-literal
p176
sVvalue
p177
V21
p178
ssasVordered
p179
I01
ss.