(dp0
Vhead
p1
(dp2
Vlink
p3
(lp4
sVvars
p5
(lp6
Vp
p7
aVo
p8
assVresults
p9
(dp10
Vdistinct
p11
I00
sVbindings
p12
(lp13
(dp14
g7
(dp15
Vtype
p16
Vuri
p17
sVvalue
p18
Vhttp://dbpedia.org/ontology/Weapon/length
p19
ssg8
(dp20
Vdatatype
p21
Vhttp://dbpedia.org/datatype/millimetre
p22
sVtype
p23
Vtyped-literal
p24
sVvalue
p25
V230.0
p26
ssa(dp27
g7
(dp28
Vtype
p29
Vuri
p30
sVvalue
p31
Vhttp://dbpedia.org/ontology/Weapon/length
p32
ssg8
(dp33
Vdatatype
p34
Vhttp://dbpedia.org/datatype/millimetre
p35
sVtype
p36
Vtyped-literal
p37
sVvalue
p38
V171.0
p39
ssa(dp40
g7
(dp41
Vtype
p42
Vuri
p43
sVvalue
p44
Vhttp://dbpedia.org/ontology/Weapon/weight
p45
ssg8
(dp46
Vdatatype
p47
Vhttp://dbpedia.org/datatype/kilogram
p48
sVtype
p49
Vtyped-literal
p50
sVvalue
p51
V0.9
p52
ssa(dp53
g7
(dp54
Vtype
p55
Vuri
p56
sVvalue
p57
Vhttp://dbpedia.org/ontology/Weapon/weight
p58
ssg8
(dp59
Vdatatype
p60
Vhttp://dbpedia.org/datatype/kilogram
p61
sVtype
p62
Vtyped-literal
p63
sVvalue
p64
V0.65
p65
ssa(dp66
g7
(dp67
Vtype
p68
Vuri
p69
sVvalue
p70
Vhttp://dbpedia.org/ontology/abstract
p71
ssg8
(dp72
Vxml:lang
p73
Ven
p74
sVtype
p75
Vliteral
p76
sVvalue
p77
VThe Nambu pistols (\u5357\u90e8\u62f3\u9283 or \u5357\u90e8\u5927\u578b\u81ea\u52d5\u62f3\u9283 Nanbu kenjuu or Nanbu \u014dgata jidou-kenjuu) were a series of semi-automatic pistols produced by the Japanese company Koishikawa Arsenal later known as the Tokyo Artillery Arsenal. The series had five variants, the Type A Model 1902 (also called the Grandpa Nambu), the Type A Model 1902 Modified (also known as the Papa Nambu), the Type B (also known as the Baby Nambu), the Type 14 (\u5357\u90e8\u5341\u56db\u5e74\u5f0f\u81ea\u52d5\u62f3\u9283) and the Type 94. The pistols were designed by Kijiro Nambu and saw extensive service during the Russo-Japanese War, Second Sino-Japanese War and World War II. The Type A was made in very small numbers. Type A Modified and Type B Nambus were never formally adopted by any branch of the armed forces of Imperial Japan but were sold to officers through officer stores. The Type 14 was adopted as an official sidearm. As World War II progressed, and particularly in the final year of the war, in order to speed production, Type 14s began to be more hastily manufactured with a subsequent decline in quality.
p78
ssa(dp79
g7
(dp80
Vtype
p81
Vuri
p82
sVvalue
p83
Vhttp://dbpedia.org/ontology/abstract
p84
ssg8
(dp85
Vxml:lang
p86
Vja
p87
sVtype
p88
Vliteral
p89
sVvalue
p90
V\u5357\u90e8\u5f0f\u5927\u578b\u81ea\u52d5\u62f3\u9283\uff08\u306a\u3093\u3076\u3057\u304d\u304a\u304a\u304c\u305f\u3058\u3069\u3046\u3051\u3093\u3058\u3085\u3046\uff09\u306f\u30011902\u5e74\uff08\u660e\u6cbb35\u5e74\uff09\u306b\u5357\u90e8\u9e92\u6b21\u90ce\u306b\u3088\u3063\u3066\u958b\u767a\u3055\u308c\u305f\u65e5\u672c\u521d\u306e\u81ea\u52d5\u62f3\u9283\u3067\u3042\u308a\u3001\u5357\u90e8\u5927\u62f3\u3068\u7565\u3057\u3066\u547c\u3070\u308c\u308b\u3002 \u6d77\u8ecd\u304c\u9678\u5f0f\u62f3\u9283\u3068\u3044\u3046\u540d\u79f0\u3067\u63a1\u7528\u3057\u305f\u307b\u304b\u3001\u6539\u826f\u3092\u52a0\u3048\u3089\u308c\u305f\u3082\u306e\u304c\u5341\u56db\u5e74\u5f0f\u62f3\u9283\u3068\u3057\u3066\u9678\u8ecd\u306b\u63a1\u7528\u3055\u308c\u3066\u3044\u308b\u3002
p91
ssa(dp92
g7
(dp93
Vtype
p94
Vuri
p95
sVvalue
p96
Vhttp://dbpedia.org/ontology/abstract
p97
ssg8
(dp98
Vxml:lang
p99
Vnl
p100
sVtype
p101
Vliteral
p102
sVvalue
p103
VDe Nambu (Japans: \u5357\u90e8\u62f3\u9283 of \u5357\u90e8\u5927\u578b\u81ea\u52d5\u62f3\u9283 Nanbu kenjuu of Nanbu \u014dgata jidou-kenjuu of \u5341\u56db\u5e74\u5f0f\u62f3\u9283, j\u016byon nenshiki kenj\u016b, ""Pistool modeljaar 14") is een semiautomatisch pistool dat werd gebruikt door het Japanse Keizerlijke leger en de Japanse Keizerlijke Marine tijdens de Eerste Wereldoorlog en de Tweede Wereldoorlog.
p104
ssa(dp105
g7
(dp106
Vtype
p107
Vuri
p108
sVvalue
p109
Vhttp://dbpedia.org/ontology/length
p110
ssg8
(dp111
Vdatatype
p112
Vhttp://www.w3.org/2001/XMLSchema#double
p113
sVtype
p114
Vtyped-literal
p115
sVvalue
p116
V0.171
p117
ssa(dp118
g7
(dp119
Vtype
p120
Vuri
p121
sVvalue
p122
Vhttp://dbpedia.org/ontology/length
p123
ssg8
(dp124
Vdatatype
p125
Vhttp://www.w3.org/2001/XMLSchema#double
p126
sVtype
p127
Vtyped-literal
p128
sVvalue
p129
V0.23
p130
ssa(dp131
g7
(dp132
Vtype
p133
Vuri
p134
sVvalue
p135
Vhttp://dbpedia.org/ontology/weight
p136
ssg8
(dp137
Vdatatype
p138
Vhttp://www.w3.org/2001/XMLSchema#double
p139
sVtype
p140
Vtyped-literal
p141
sVvalue
p142
V650.0
p143
ssa(dp144
g7
(dp145
Vtype
p146
Vuri
p147
sVvalue
p148
Vhttp://dbpedia.org/ontology/weight
p149
ssg8
(dp150
Vdatatype
p151
Vhttp://www.w3.org/2001/XMLSchema#double
p152
sVtype
p153
Vtyped-literal
p154
sVvalue
p155
V900.0
p156
ssasVordered
p157
I01
ss.