(dp0
Vhead
p1
(dp2
Vlink
p3
(lp4
sVvars
p5
(lp6
Vp
p7
aVo
p8
assVresults
p9
(dp10
Vdistinct
p11
I00
sVbindings
p12
(lp13
(dp14
g7
(dp15
Vtype
p16
Vuri
p17
sVvalue
p18
Vhttp://dbpedia.org/ontology/abstract
p19
ssg8
(dp20
Vxml:lang
p21
Ven
p22
sVtype
p23
Vliteral
p24
sVvalue
p25
VThe Juniata County School District is a rural, public school district located in Juniata County, Pennsylvania. The District is one of the 500 public school districts of Pennsylvania and one of seven county-wide school districts in the Commonwealth. The District encompasses approximately 372 square miles (960 km2). Juniata County School District serves residents in: Beale Township, Delaware Township, Fayette Township, Fermanagh Township, Lack Township, Milford Township, Monroe Township, Spruce Hill Township, Susquehanna Township, Turbett Township, Tuscarora Township and Walker Township. It also serves the residents of the following boroughs: Mifflin, Mifflintown, Port Royal, Thompsontown, East Salem, East Waterford, Mexico, McAlisterville and Richfield. According to 2000 federal census data, Juniata County School District served a resident population of 22,273 people. By 2013, the US Census reports that the Juniata County School District's resident population grew to 24,005 people. The educational attainment levels for the Juniata County School District population (25 years old and over) were 82.4% high school graduates and 11.2% college graduates. The District is one of the 500 public school districts of Pennsylvania. According to the Pennsylvania Budget and Policy Center, 40.6% of the District\u2019s pupils lived at 185% or below the Federal Poverty Level  as shown by their eligibility for the federal free or reduced price school meal programs in 2012. In 2009, the district residents\u2019 per capita income was $16,112, while the median family income was $39,736. In the Commonwealth, the median family income was $49,501  and the United States median family income was $49,445, in 2010. By 2013, the median household income in the United States rose to $52,100. The educational attainment levels for the population 25 and over were 82.4% high school graduates and 11.2% college graduates. Per school district officials, in school year 2007-08, Juniata County School District provided basic educational services to 3,189 pupils. It employed: 231 teachers, 155 full-time and part-time support personnel, and 18 administrators. In 2019-2010, the District provided basic educational services to 3,079 pupils. Juniata County School District employed: 234 teachers, 156 full- time and part-time support personnel, and 18 administrators. Juniata County School District received $15 million in state funding in the 2009-2010 school year. Juniata county School District operates two high schools: Juniata High School and East Juniata Junior/Senior High School. Juniata County high school students may choose to attend Mifflin-Juniata Career and Technology Center for training in the construction and mechanical trades. The District also operates one middle school - Tuscarora Junior High School and eight elementary schools (see list below). The Tuscarora Intermediate Unit IU11 provides the District with a wide variety of services like specialized education for disabled students and hearing, speech and visual disability services, employee background checks and professional development for staff and faculty.
p26
ssa(dp27
g7
(dp28
Vtype
p29
Vuri
p30
sVvalue
p31
Vhttp://dbpedia.org/ontology/address
p32
ssg8
(dp33
Vxml:lang
p34
Ven
p35
sVtype
p36
Vliteral
p37
sVvalue
p38
V75 South Seventh Street
p39
ssa(dp40
g7
(dp41
Vtype
p42
Vuri
p43
sVvalue
p44
Vhttp://dbpedia.org/ontology/budget
p45
ssg8
(dp46
Vdatatype
p47
Vhttp://dbpedia.org/datatype/usDollar
p48
sVtype
p49
Vtyped-literal
p50
sVvalue
p51
V3.3E7
p52
ssa(dp53
g7
(dp54
Vtype
p55
Vuri
p56
sVvalue
p57
Vhttp://dbpedia.org/ontology/budget
p58
ssg8
(dp59
Vdatatype
p60
Vhttp://dbpedia.org/datatype/usDollar
p61
sVtype
p62
Vtyped-literal
p63
sVvalue
p64
V3.1420526E7
p65
ssa(dp66
g7
(dp67
Vtype
p68
Vuri
p69
sVvalue
p70
Vhttp://dbpedia.org/ontology/budget
p71
ssg8
(dp72
Vdatatype
p73
Vhttp://dbpedia.org/datatype/usDollar
p74
sVtype
p75
Vtyped-literal
p76
sVvalue
p77
V3.2041445E7
p78
ssa(dp79
g7
(dp80
Vtype
p81
Vuri
p82
sVvalue
p83
Vhttp://dbpedia.org/ontology/budget
p84
ssg8
(dp85
Vdatatype
p86
Vhttp://dbpedia.org/datatype/usDollar
p87
sVtype
p88
Vtyped-literal
p89
sVvalue
p90
V3.3195026E7
p91
ssa(dp92
g7
(dp93
Vtype
p94
Vuri
p95
sVvalue
p96
Vhttp://dbpedia.org/ontology/budget
p97
ssg8
(dp98
Vdatatype
p99
Vhttp://dbpedia.org/datatype/usDollar
p100
sVtype
p101
Vtyped-literal
p102
sVvalue
p103
V3.4247565E7
p104
ssa(dp105
g7
(dp106
Vtype
p107
Vuri
p108
sVvalue
p109
Vhttp://dbpedia.org/ontology/facultySize
p110
ssg8
(dp111
Vdatatype
p112
Vhttp://www.w3.org/2001/XMLSchema#nonNegativeInteger
p113
sVtype
p114
Vtyped-literal
p115
sVvalue
p116
V196
p117
ssa(dp118
g7
(dp119
Vtype
p120
Vuri
p121
sVvalue
p122
Vhttp://dbpedia.org/ontology/lowerAge
p123
ssg8
(dp124
Vdatatype
p125
Vhttp://www.w3.org/2001/XMLSchema#nonNegativeInteger
p126
sVtype
p127
Vtyped-literal
p128
sVvalue
p129
V5
p130
ssa(dp131
g7
(dp132
Vtype
p133
Vuri
p134
sVvalue
p135
Vhttp://dbpedia.org/ontology/numberOfStudents
p136
ssg8
(dp137
Vdatatype
p138
Vhttp://www.w3.org/2001/XMLSchema#nonNegativeInteger
p139
sVtype
p140
Vtyped-literal
p141
sVvalue
p142
V2963
p143
ssa(dp144
g7
(dp145
Vtype
p146
Vuri
p147
sVvalue
p148
Vhttp://dbpedia.org/ontology/numberOfStudents
p149
ssg8
(dp150
Vdatatype
p151
Vhttp://www.w3.org/2001/XMLSchema#nonNegativeInteger
p152
sVtype
p153
Vtyped-literal
p154
sVvalue
p155
V3092
p156
ssa(dp157
g7
(dp158
Vtype
p159
Vuri
p160
sVvalue
p161
Vhttp://dbpedia.org/ontology/numberOfStudents
p162
ssg8
(dp163
Vdatatype
p164
Vhttp://www.w3.org/2001/XMLSchema#nonNegativeInteger
p165
sVtype
p166
Vtyped-literal
p167
sVvalue
p168
V3125
p169
ssa(dp170
g7
(dp171
Vtype
p172
Vuri
p173
sVvalue
p174
Vhttp://dbpedia.org/ontology/numberOfStudents
p175
ssg8
(dp176
Vdatatype
p177
Vhttp://www.w3.org/2001/XMLSchema#nonNegativeInteger
p178
sVtype
p179
Vtyped-literal
p180
sVvalue
p181
V3186
p182
ssa(dp183
g7
(dp184
Vtype
p185
Vuri
p186
sVvalue
p187
Vhttp://dbpedia.org/ontology/postalCode
p188
ssg8
(dp189
Vtype
p190
Vliteral
p191
sVvalue
p192
V17059
p193
ssa(dp194
g7
(dp195
Vtype
p196
Vuri
p197
sVvalue
p198
Vhttp://dbpedia.org/ontology/schoolNumber
p199
ssg8
(dp200
Vtype
p201
Vliteral
p202
sVvalue
p203
V(717) 436-2111
p204
ssa(dp205
g7
(dp206
Vtype
p207
Vuri
p208
sVvalue
p209
Vhttp://dbpedia.org/ontology/staff
p210
ssg8
(dp211
Vdatatype
p212
Vhttp://www.w3.org/2001/XMLSchema#nonNegativeInteger
p213
sVtype
p214
Vtyped-literal
p215
sVvalue
p216
V107
p217
ssa(dp218
g7
(dp219
Vtype
p220
Vuri
p221
sVvalue
p222
Vhttp://dbpedia.org/ontology/upperAge
p223
ssg8
(dp224
Vdatatype
p225
Vhttp://www.w3.org/2001/XMLSchema#nonNegativeInteger
p226
sVtype
p227
Vtyped-literal
p228
sVvalue
p229
V21
p230
ssasVordered
p231
I01
ss.