(dp0
Vhead
p1
(dp2
Vlink
p3
(lp4
sVvars
p5
(lp6
Vp
p7
aVo
p8
assVresults
p9
(dp10
Vdistinct
p11
I00
sVbindings
p12
(lp13
(dp14
g7
(dp15
Vtype
p16
Vuri
p17
sVvalue
p18
Vhttp://dbpedia.org/ontology/abstract
p19
ssg8
(dp20
Vxml:lang
p21
Vja
p22
sVtype
p23
Vliteral
p24
sVvalue
p25
V\u5bae\u306e\u6ca2\u99c5\uff08\u307f\u3084\u306e\u3055\u308f\u3048\u304d\uff09\u306f\u3001\u5317\u6d77\u9053\u672d\u5e4c\u5e02\u897f\u533a\u5bae\u306e\u6ca21\u67611\u4e01\u76ee\u306b\u3042\u308b\u672d\u5e4c\u5e02\u55b6\u5730\u4e0b\u9244\u6771\u897f\u7dda\u306e\u8d77\u70b9\u3068\u306a\u308b\u99c5\u3002\u99c5\u756a\u53f7\u306fT01\u3002
p26
ssa(dp27
g7
(dp28
Vtype
p29
Vuri
p30
sVvalue
p31
Vhttp://dbpedia.org/ontology/abstract
p32
ssg8
(dp33
Vxml:lang
p34
Vzh
p35
sVtype
p36
Vliteral
p37
sVvalue
p38
V\u5bae\u4e4b\u6fa4\u8eca\u7ad9\uff08\u5bae\u306e\u6ca2\u99c5\uff09\u662f\u4e00\u4f4d\u65bc\u65e5\u672c\u5317\u6d77\u9053\u672d\u5e4c\u5e02\u897f\u5340\u5bae\u4e4b\u6fa41\u67611\u4e01\u76ee\uff0c\u96b8\u5c6c\u65bc\u672d\u5e4c\u5e02\u4ea4\u901a\u5c40\u7684\u5730\u4e0b\u9435\u8eca\u7ad9\u3002\u5bae\u4e4b\u6fa4\u8eca\u7ad9\u662f\u672d\u5e4c\u5e02\u71df\u5730\u4e0b\u9435\u6771\u897f\u7dda\u7684\u897f\u7aef\u8d77\u9ede\u7ad9\uff0c\u8eca\u7ad9\u7de8\u865fT01\u3002
p39
ssa(dp40
g7
(dp41
Vtype
p42
Vuri
p43
sVvalue
p44
Vhttp://dbpedia.org/ontology/abstract
p45
ssg8
(dp46
Vxml:lang
p47
Ven
p48
sVtype
p49
Vliteral
p50
sVvalue
p51
VMiyanosawa Station (\u5bae\u306e\u6ca2\u99c5) is a metro station in Nishi-ku, Sapporo, Hokkaido, Japan. The station number is T01. The Station is the northern terminus of the T\u014dzai Line.
p52
ssa(dp53
g7
(dp54
Vtype
p55
Vuri
p56
sVvalue
p57
Vhttp://dbpedia.org/ontology/address
p58
ssg8
(dp59
Vxml:lang
p60
Ven
p61
sVtype
p62
Vliteral
p63
sVvalue
p64
VNishi,Sapporo,Hokkaido
p65
ssa(dp66
g7
(dp67
Vtype
p68
Vuri
p69
sVvalue
p70
Vhttp://dbpedia.org/ontology/agencyStationCode
p71
ssg8
(dp72
Vtype
p73
Vliteral
p74
sVvalue
p75
VT01
p76
ssa(dp77
g7
(dp78
Vtype
p79
Vuri
p80
sVvalue
p81
Vhttp://dbpedia.org/ontology/openingYear
p82
ssg8
(dp83
Vdatatype
p84
Vhttp://www.w3.org/2001/XMLSchema#gYear
p85
sVtype
p86
Vtyped-literal
p87
sVvalue
p88
V1999
p89
ssasVordered
p90
I01
ss.